; ModuleID = 'temp/PROJ/c_api.cpp.ll'
source_filename = "/home/mitch/Documents/PROJ/src/iso19111/c_api.cpp"
target datalayout = "e-m:e-p270:32:32-p271:32:32-p272:64:64-i64:64-i128:128-f80:128-n8:16:32:64-S128"
target triple = "x86_64-pc-linux-gnu"

%"class.osgeo::proj::common::UnitOfMeasure" = type { %"class.osgeo::proj::util::BaseObject", %"class.std::unique_ptr.91" }
%"class.osgeo::proj::util::BaseObject" = type { ptr, %"class.std::unique_ptr" }
%"class.std::unique_ptr" = type { %"struct.std::__uniq_ptr_data" }
%"struct.std::__uniq_ptr_data" = type { %"class.std::__uniq_ptr_impl" }
%"class.std::__uniq_ptr_impl" = type { %"class.std::tuple" }
%"class.std::tuple" = type { %"struct.std::_Tuple_impl" }
%"struct.std::_Tuple_impl" = type { %"struct.std::_Head_base.8" }
%"struct.std::_Head_base.8" = type { ptr }
%"class.std::unique_ptr.91" = type { %"struct.std::__uniq_ptr_data.92" }
%"struct.std::__uniq_ptr_data.92" = type { %"class.std::__uniq_ptr_impl.93" }
%"class.std::__uniq_ptr_impl.93" = type { %"class.std::tuple.94" }
%"class.std::tuple.94" = type { %"struct.std::_Tuple_impl.95" }
%"struct.std::_Tuple_impl.95" = type { %"struct.std::_Head_base.98" }
%"struct.std::_Head_base.98" = type { ptr }
%"class.std::__cxx11::basic_string" = type { %"struct.std::__cxx11::basic_string<char>::_Alloc_hider", i64, %union.anon }
%"struct.std::__cxx11::basic_string<char>::_Alloc_hider" = type { ptr }
%union.anon = type { i64, [8 x i8] }
%"struct.std::nothrow_t" = type { i8 }
%"class.dropbox::oxygen::nn.518" = type { %"class.std::shared_ptr.519" }
%"class.std::shared_ptr.519" = type { %"class.std::__shared_ptr.520" }
%"class.std::__shared_ptr.520" = type { ptr, %"class.std::__shared_count" }
%"class.std::__shared_count" = type { ptr }
%"class.dropbox::oxygen::nn.206" = type { %"class.std::shared_ptr.207" }
%"class.std::shared_ptr.207" = type { %"class.std::__shared_ptr.208" }
%"class.std::__shared_ptr.208" = type { ptr, %"class.std::__shared_count" }
%"class.dropbox::oxygen::nn.439" = type { %"class.std::shared_ptr.436" }
%"class.std::shared_ptr.436" = type { %"class.std::__shared_ptr.437" }
%"class.std::__shared_ptr.437" = type { ptr, %"class.std::__shared_count" }
%"struct.std::_UninitDestroyGuard" = type { ptr, ptr }
%"class.std::vector" = type { %"struct.std::_Vector_base" }
%"struct.std::_Vector_base" = type { %"struct.std::_Vector_base<std::__cxx11::basic_string<char>, std::allocator<std::__cxx11::basic_string<char>>>::_Vector_impl" }
%"struct.std::_Vector_base<std::__cxx11::basic_string<char>, std::allocator<std::__cxx11::basic_string<char>>>::_Vector_impl" = type { %"struct.std::_Vector_base<std::__cxx11::basic_string<char>, std::allocator<std::__cxx11::basic_string<char>>>::_Vector_impl_data" }
%"struct.std::_Vector_base<std::__cxx11::basic_string<char>, std::allocator<std::__cxx11::basic_string<char>>>::_Vector_impl_data" = type { ptr, ptr, ptr }
%"class.dropbox::oxygen::nn" = type { %"class.std::shared_ptr" }
%"class.std::shared_ptr" = type { %"class.std::__shared_ptr" }
%"class.std::__shared_ptr" = type { ptr, %"class.std::__shared_count" }
%"class.dropbox::oxygen::nn.53" = type { %"class.std::unique_ptr.54" }
%"class.std::unique_ptr.54" = type { %"struct.std::__uniq_ptr_data.55" }
%"struct.std::__uniq_ptr_data.55" = type { %"class.std::__uniq_ptr_impl.56" }
%"class.std::__uniq_ptr_impl.56" = type { %"class.std::tuple.57" }
%"class.std::tuple.57" = type { %"struct.std::_Tuple_impl.58" }
%"struct.std::_Tuple_impl.58" = type { %"struct.std::_Head_base.61" }
%"struct.std::_Head_base.61" = type { ptr }
%"class.osgeo::proj::util::optional" = type { i8, %"class.osgeo::proj::common::DataEpoch" }
%"class.osgeo::proj::common::DataEpoch" = type { %"class.std::unique_ptr.75" }
%"class.std::unique_ptr.75" = type { %"struct.std::__uniq_ptr_data.76" }
%"struct.std::__uniq_ptr_data.76" = type { %"class.std::__uniq_ptr_impl.77" }
%"class.std::__uniq_ptr_impl.77" = type { %"class.std::tuple.78" }
%"class.std::tuple.78" = type { %"struct.std::_Tuple_impl.79" }
%"struct.std::_Tuple_impl.79" = type { %"struct.std::_Head_base.82" }
%"struct.std::_Head_base.82" = type { ptr }
%"class.std::shared_ptr.99" = type { %"class.std::__shared_ptr.100" }
%"class.std::__shared_ptr.100" = type { ptr, %"class.std::__shared_count" }
%"class.osgeo::proj::io::WKTParser" = type { %"class.std::unique_ptr.151" }
%"class.std::unique_ptr.151" = type { %"struct.std::__uniq_ptr_data.152" }
%"struct.std::__uniq_ptr_data.152" = type { %"class.std::__uniq_ptr_impl.153" }
%"class.std::__uniq_ptr_impl.153" = type { %"class.std::tuple.154" }
%"class.std::tuple.154" = type { %"struct.std::_Tuple_impl.155" }
%"struct.std::_Tuple_impl.155" = type { %"struct.std::_Head_base.158" }
%"struct.std::_Head_base.158" = type { ptr }
%struct.PJCoordOperation = type <{ i32, [4 x i8], double, double, double, double, double, double, double, double, ptr, %"class.std::__cxx11::basic_string", double, double, %"class.std::__cxx11::basic_string", i8, i8, i8, i8, i8, i8, i8, i8, ptr, ptr, i32, [4 x i8] }>
%"struct.osgeo::proj::util::BaseObjectNNPtr" = type { %"class.dropbox::oxygen::nn.3" }
%"class.dropbox::oxygen::nn.3" = type { %"class.std::shared_ptr.4" }
%"class.std::shared_ptr.4" = type { %"class.std::__shared_ptr.5" }
%"class.std::__shared_ptr.5" = type { ptr, %"class.std::__shared_count" }
%"class.std::allocator" = type { i8 }
%"class.std::__cxx11::list" = type { %"class.std::__cxx11::_List_base" }
%"class.std::__cxx11::_List_base" = type { %"struct.std::__cxx11::_List_base<std::__cxx11::basic_string<char>, std::allocator<std::__cxx11::basic_string<char>>>::_List_impl" }
%"struct.std::__cxx11::_List_base<std::__cxx11::basic_string<char>, std::allocator<std::__cxx11::basic_string<char>>>::_List_impl" = type { %"struct.std::__detail::_List_node_header" }
%"struct.std::__detail::_List_node_header" = type { %"struct.std::__detail::_List_node_base", %"struct.std::__detail::_List_size" }
%"struct.std::__detail::_List_node_base" = type { ptr, ptr }
%"struct.std::__detail::_List_size" = type { i64 }
%"class.dropbox::oxygen::nn.190" = type { %"struct.osgeo::proj::util::BaseObjectNNPtr" }
%"class.std::allocator.0" = type { i8 }
%"class.dropbox::oxygen::nn.191" = type { %"class.std::shared_ptr.192" }
%"class.std::shared_ptr.192" = type { %"class.std::__shared_ptr.193" }
%"class.std::__shared_ptr.193" = type { ptr, %"class.std::__shared_count" }
%"class.std::shared_ptr.195" = type { %"class.std::__shared_ptr.196" }
%"class.std::__shared_ptr.196" = type { ptr, %"class.std::__shared_count" }
%"class.dropbox::oxygen::nn.126" = type { %"class.std::shared_ptr.127" }
%"class.std::shared_ptr.127" = type { %"class.std::__shared_ptr.128" }
%"class.std::__shared_ptr.128" = type { ptr, %"class.std::__shared_count" }
%"class.dropbox::oxygen::nn.210" = type { %"class.std::shared_ptr.211" }
%"class.std::shared_ptr.211" = type { %"class.std::__shared_ptr.212" }
%"class.std::__shared_ptr.212" = type { ptr, %"class.std::__shared_count" }
%"class.dropbox::oxygen::nn.214" = type { %"class.std::shared_ptr.215" }
%"class.std::shared_ptr.215" = type { %"class.std::__shared_ptr.216" }
%"class.std::__shared_ptr.216" = type { ptr, %"class.std::__shared_count" }
%"class.dropbox::oxygen::nn.218" = type { %"class.std::shared_ptr.219" }
%"class.std::shared_ptr.219" = type { %"class.std::__shared_ptr.220" }
%"class.std::__shared_ptr.220" = type { ptr, %"class.std::__shared_count" }
%"class.dropbox::oxygen::nn.222" = type { %"class.std::shared_ptr.223" }
%"class.std::shared_ptr.223" = type { %"class.std::__shared_ptr.224" }
%"class.std::__shared_ptr.224" = type { ptr, %"class.std::__shared_count" }
%"class.dropbox::oxygen::nn.226" = type { %"class.std::shared_ptr.195" }
%"class.dropbox::oxygen::nn.227" = type { %"class.std::shared_ptr.228" }
%"class.std::shared_ptr.228" = type { %"class.std::__shared_ptr.229" }
%"class.std::__shared_ptr.229" = type { ptr, %"class.std::__shared_count" }
%"class.std::__cxx11::list.231" = type { %"class.std::__cxx11::_List_base.232" }
%"class.std::__cxx11::_List_base.232" = type { %"struct.std::__cxx11::_List_base<dropbox::oxygen::nn<std::shared_ptr<osgeo::proj::crs::GeodeticCRS>>, std::allocator<dropbox::oxygen::nn<std::shared_ptr<osgeo::proj::crs::GeodeticCRS>>>>::_List_impl" }
%"struct.std::__cxx11::_List_base<dropbox::oxygen::nn<std::shared_ptr<osgeo::proj::crs::GeodeticCRS>>, std::allocator<dropbox::oxygen::nn<std::shared_ptr<osgeo::proj::crs::GeodeticCRS>>>>::_List_impl" = type { %"struct.std::__detail::_List_node_header" }
%"class.std::vector.138" = type { %"struct.std::_Vector_base.139" }
%"struct.std::_Vector_base.139" = type { %"struct.std::_Vector_base<dropbox::oxygen::nn<std::shared_ptr<osgeo::proj::common::IdentifiedObject>>, std::allocator<dropbox::oxygen::nn<std::shared_ptr<osgeo::proj::common::IdentifiedObject>>>>::_Vector_impl" }
%"struct.std::_Vector_base<dropbox::oxygen::nn<std::shared_ptr<osgeo::proj::common::IdentifiedObject>>, std::allocator<dropbox::oxygen::nn<std::shared_ptr<osgeo::proj::common::IdentifiedObject>>>>::_Vector_impl" = type { %"struct.std::_Vector_base<dropbox::oxygen::nn<std::shared_ptr<osgeo::proj::common::IdentifiedObject>>, std::allocator<dropbox::oxygen::nn<std::shared_ptr<osgeo::proj::common::IdentifiedObject>>>>::_Vector_impl_data" }
%"struct.std::_Vector_base<dropbox::oxygen::nn<std::shared_ptr<osgeo::proj::common::IdentifiedObject>>, std::allocator<dropbox::oxygen::nn<std::shared_ptr<osgeo::proj::common::IdentifiedObject>>>>::_Vector_impl_data" = type { ptr, ptr, ptr }
%"class.std::vector.238" = type { %"struct.std::_Vector_base.239" }
%"struct.std::_Vector_base.239" = type { %"struct.std::_Vector_base<osgeo::proj::io::AuthorityFactory::ObjectType, std::allocator<osgeo::proj::io::AuthorityFactory::ObjectType>>::_Vector_impl" }
%"struct.std::_Vector_base<osgeo::proj::io::AuthorityFactory::ObjectType, std::allocator<osgeo::proj::io::AuthorityFactory::ObjectType>>::_Vector_impl" = type { %"struct.std::_Vector_base<osgeo::proj::io::AuthorityFactory::ObjectType, std::allocator<osgeo::proj::io::AuthorityFactory::ObjectType>>::_Vector_impl_data" }
%"struct.std::_Vector_base<osgeo::proj::io::AuthorityFactory::ObjectType, std::allocator<osgeo::proj::io::AuthorityFactory::ObjectType>>::_Vector_impl_data" = type { ptr, ptr, ptr }
%"class.std::__cxx11::list.243" = type { %"class.std::__cxx11::_List_base.244" }
%"class.std::__cxx11::_List_base.244" = type { %"struct.std::__cxx11::_List_base<dropbox::oxygen::nn<std::shared_ptr<osgeo::proj::common::IdentifiedObject>>, std::allocator<dropbox::oxygen::nn<std::shared_ptr<osgeo::proj::common::IdentifiedObject>>>>::_List_impl" }
%"struct.std::__cxx11::_List_base<dropbox::oxygen::nn<std::shared_ptr<osgeo::proj::common::IdentifiedObject>>, std::allocator<dropbox::oxygen::nn<std::shared_ptr<osgeo::proj::common::IdentifiedObject>>>>::_List_impl" = type { %"struct.std::__detail::_List_node_header" }
%"class.std::__cxx11::list.249" = type { %"class.std::__cxx11::_List_base.250" }
%"class.std::__cxx11::_List_base.250" = type { %"struct.std::__cxx11::_List_base<dropbox::oxygen::nn<std::shared_ptr<osgeo::proj::crs::CRS>>, std::allocator<dropbox::oxygen::nn<std::shared_ptr<osgeo::proj::crs::CRS>>>>::_List_impl" }
%"struct.std::__cxx11::_List_base<dropbox::oxygen::nn<std::shared_ptr<osgeo::proj::crs::CRS>>, std::allocator<dropbox::oxygen::nn<std::shared_ptr<osgeo::proj::crs::CRS>>>>::_List_impl" = type { %"struct.std::__detail::_List_node_header" }
%"class.dropbox::oxygen::nn.255" = type { %"class.std::shared_ptr.256" }
%"class.std::shared_ptr.256" = type { %"class.std::__shared_ptr.257" }
%"class.std::__shared_ptr.257" = type { ptr, %"class.std::__shared_count" }
%"class.dropbox::oxygen::nn.274" = type { %"class.std::unique_ptr.275" }
%"class.std::unique_ptr.275" = type { %"struct.std::__uniq_ptr_data.276" }
%"struct.std::__uniq_ptr_data.276" = type { %"class.std::__uniq_ptr_impl.277" }
%"class.std::__uniq_ptr_impl.277" = type { %"class.std::tuple.278" }
%"class.std::tuple.278" = type { %"struct.std::_Tuple_impl.279" }
%"struct.std::_Tuple_impl.279" = type { %"struct.std::_Head_base.282" }
%"struct.std::_Head_base.282" = type { ptr }
%"class.dropbox::oxygen::nn.299" = type { %"class.std::unique_ptr.300" }
%"class.std::unique_ptr.300" = type { %"struct.std::__uniq_ptr_data.301" }
%"struct.std::__uniq_ptr_data.301" = type { %"class.std::__uniq_ptr_impl.302" }
%"class.std::__uniq_ptr_impl.302" = type { %"class.std::tuple.303" }
%"class.std::tuple.303" = type { %"struct.std::_Tuple_impl.304" }
%"struct.std::_Tuple_impl.304" = type { %"struct.std::_Head_base.307" }
%"struct.std::_Head_base.307" = type { ptr }
%"class.dropbox::oxygen::nn.321" = type { %"class.std::shared_ptr.322" }
%"class.std::shared_ptr.322" = type { %"class.std::__shared_ptr.323" }
%"class.std::__shared_ptr.323" = type { ptr, %"class.std::__shared_count" }
%"class.std::shared_ptr.382" = type { %"class.std::__shared_ptr.383" }
%"class.std::__shared_ptr.383" = type { ptr, %"class.std::__shared_count" }
%"class.dropbox::oxygen::nn.385" = type { %"class.std::shared_ptr.386" }
%"class.std::shared_ptr.386" = type { %"class.std::__shared_ptr.387" }
%"class.std::__shared_ptr.387" = type { ptr, %"class.std::__shared_count" }
%"class.dropbox::oxygen::nn.389" = type { %"class.std::shared_ptr.382" }
%"class.std::shared_ptr.390" = type { %"class.std::__shared_ptr.391" }
%"class.std::__shared_ptr.391" = type { ptr, %"class.std::__shared_count" }
%"class.dropbox::oxygen::nn.393" = type { %"class.std::shared_ptr.390" }
%"class.osgeo::proj::util::PropertyMap" = type { %"class.std::unique_ptr.394" }
%"class.std::unique_ptr.394" = type { %"struct.std::__uniq_ptr_data.395" }
%"struct.std::__uniq_ptr_data.395" = type { %"class.std::__uniq_ptr_impl.396" }
%"class.std::__uniq_ptr_impl.396" = type { %"class.std::tuple.397" }
%"class.std::tuple.397" = type { %"struct.std::_Tuple_impl.398" }
%"struct.std::_Tuple_impl.398" = type { %"struct.std::_Head_base.401" }
%"struct.std::_Head_base.401" = type { ptr }
%"class.std::vector.402" = type { %"struct.std::_Vector_base.403" }
%"struct.std::_Vector_base.403" = type { %"struct.std::_Vector_base<dropbox::oxygen::nn<std::shared_ptr<osgeo::proj::metadata::PositionalAccuracy>>, std::allocator<dropbox::oxygen::nn<std::shared_ptr<osgeo::proj::metadata::PositionalAccuracy>>>>::_Vector_impl" }
%"struct.std::_Vector_base<dropbox::oxygen::nn<std::shared_ptr<osgeo::proj::metadata::PositionalAccuracy>>, std::allocator<dropbox::oxygen::nn<std::shared_ptr<osgeo::proj::metadata::PositionalAccuracy>>>>::_Vector_impl" = type { %"struct.std::_Vector_base<dropbox::oxygen::nn<std::shared_ptr<osgeo::proj::metadata::PositionalAccuracy>>, std::allocator<dropbox::oxygen::nn<std::shared_ptr<osgeo::proj::metadata::PositionalAccuracy>>>>::_Vector_impl_data" }
%"struct.std::_Vector_base<dropbox::oxygen::nn<std::shared_ptr<osgeo::proj::metadata::PositionalAccuracy>>, std::allocator<dropbox::oxygen::nn<std::shared_ptr<osgeo::proj::metadata::PositionalAccuracy>>>>::_Vector_impl_data" = type { ptr, ptr, ptr }
%"class.osgeo::proj::common::Length" = type { %"class.osgeo::proj::common::Measure" }
%"class.osgeo::proj::common::Measure" = type { %"class.osgeo::proj::util::BaseObject", %"class.std::unique_ptr.83" }
%"class.std::unique_ptr.83" = type { %"struct.std::__uniq_ptr_data.84" }
%"struct.std::__uniq_ptr_data.84" = type { %"class.std::__uniq_ptr_impl.85" }
%"class.std::__uniq_ptr_impl.85" = type { %"class.std::tuple.86" }
%"class.std::tuple.86" = type { %"struct.std::_Tuple_impl.87" }
%"struct.std::_Tuple_impl.87" = type { %"struct.std::_Head_base.90" }
%"struct.std::_Head_base.90" = type { ptr }
%"class.std::__cxx11::list.469" = type { %"class.std::__cxx11::_List_base.470" }
%"class.std::__cxx11::_List_base.470" = type { %"struct.std::__cxx11::_List_base<std::pair<dropbox::oxygen::nn<std::shared_ptr<osgeo::proj::crs::CRS>>, int>, std::allocator<std::pair<dropbox::oxygen::nn<std::shared_ptr<osgeo::proj::crs::CRS>>, int>>>::_List_impl" }
%"struct.std::__cxx11::_List_base<std::pair<dropbox::oxygen::nn<std::shared_ptr<osgeo::proj::crs::CRS>>, int>, std::allocator<std::pair<dropbox::oxygen::nn<std::shared_ptr<osgeo::proj::crs::CRS>>, int>>>::_List_impl" = type { %"struct.std::__detail::_List_node_header" }
%"class.std::set" = type { %"class.std::_Rb_tree.483" }
%"class.std::_Rb_tree.483" = type { %"struct.std::_Rb_tree<std::__cxx11::basic_string<char>, std::__cxx11::basic_string<char>, std::_Identity<std::__cxx11::basic_string<char>>, std::less<std::__cxx11::basic_string<char>>>::_Rb_tree_impl" }
%"struct.std::_Rb_tree<std::__cxx11::basic_string<char>, std::__cxx11::basic_string<char>, std::_Identity<std::__cxx11::basic_string<char>>, std::less<std::__cxx11::basic_string<char>>>::_Rb_tree_impl" = type { [8 x i8], %"struct.std::_Rb_tree_header" }
%"struct.std::_Rb_tree_header" = type { %"struct.std::_Rb_tree_node_base", i64 }
%"struct.std::_Rb_tree_node_base" = type { i32, ptr, ptr, ptr }
%"class.std::__cxx11::list.487" = type { %"class.std::__cxx11::_List_base.488" }
%"class.std::__cxx11::_List_base.488" = type { %"struct.std::__cxx11::_List_base<osgeo::proj::io::AuthorityFactory::CelestialBodyInfo, std::allocator<osgeo::proj::io::AuthorityFactory::CelestialBodyInfo>>::_List_impl" }
%"struct.std::__cxx11::_List_base<osgeo::proj::io::AuthorityFactory::CelestialBodyInfo, std::allocator<osgeo::proj::io::AuthorityFactory::CelestialBodyInfo>>::_List_impl" = type { %"struct.std::__detail::_List_node_header" }
%"class.std::__cxx11::list.493" = type { %"class.std::__cxx11::_List_base.494" }
%"class.std::__cxx11::_List_base.494" = type { %"struct.std::__cxx11::_List_base<osgeo::proj::io::AuthorityFactory::CRSInfo, std::allocator<osgeo::proj::io::AuthorityFactory::CRSInfo>>::_List_impl" }
%"struct.std::__cxx11::_List_base<osgeo::proj::io::AuthorityFactory::CRSInfo, std::allocator<osgeo::proj::io::AuthorityFactory::CRSInfo>>::_List_impl" = type { %"struct.std::__detail::_List_node_header" }
%"class.std::shared_ptr.501" = type { %"class.std::__shared_ptr.502" }
%"class.std::__shared_ptr.502" = type { ptr, %"class.std::__shared_count" }
%"class.dropbox::oxygen::nn.504" = type { %"class.std::shared_ptr.501" }
%"class.dropbox::oxygen::nn.349" = type { %"class.std::shared_ptr.350" }
%"class.std::shared_ptr.350" = type { %"class.std::__shared_ptr.351" }
%"class.std::__shared_ptr.351" = type { ptr, %"class.std::__shared_count" }
%"class.std::__cxx11::list.505" = type { %"class.std::__cxx11::_List_base.506" }
%"class.std::__cxx11::_List_base.506" = type { %"struct.std::__cxx11::_List_base<osgeo::proj::io::AuthorityFactory::UnitInfo, std::allocator<osgeo::proj::io::AuthorityFactory::UnitInfo>>::_List_impl" }
%"struct.std::__cxx11::_List_base<osgeo::proj::io::AuthorityFactory::UnitInfo, std::allocator<osgeo::proj::io::AuthorityFactory::UnitInfo>>::_List_impl" = type { %"struct.std::__detail::_List_node_header" }
%"class.std::shared_ptr.511" = type { %"class.std::__shared_ptr.512" }
%"class.std::__shared_ptr.512" = type { ptr, %"class.std::__shared_count" }
%"class.dropbox::oxygen::nn.178" = type { %"class.std::shared_ptr.179" }
%"class.std::shared_ptr.179" = type { %"class.std::__shared_ptr.180" }
%"class.std::__shared_ptr.180" = type { ptr, %"class.std::__shared_count" }
%"class.dropbox::oxygen::nn.514" = type { %"class.std::shared_ptr.511" }
%"class.std::shared_ptr.515" = type { %"class.std::__shared_ptr.516" }
%"class.std::__shared_ptr.516" = type { ptr, %"class.std::__shared_count" }
%"class.dropbox::oxygen::nn.522" = type { %"class.std::shared_ptr.515" }
%"class.osgeo::proj::common::Scale" = type { %"class.osgeo::proj::common::Measure" }
%"class.osgeo::proj::common::Angle" = type { %"class.osgeo::proj::common::Measure" }
%"class.osgeo::proj::util::optional.267" = type { i8, %"class.std::__cxx11::basic_string" }
%"class.dropbox::oxygen::nn.237" = type { %"class.std::shared_ptr.99" }
%"class.dropbox::oxygen::nn.523" = type { %"class.std::shared_ptr.524" }
%"class.std::shared_ptr.524" = type { %"class.std::__shared_ptr.525" }
%"class.std::__shared_ptr.525" = type { ptr, %"class.std::__shared_count" }
%"class.dropbox::oxygen::nn.527" = type { %"class.std::shared_ptr.528" }
%"class.std::shared_ptr.528" = type { %"class.std::__shared_ptr.529" }
%"class.std::__shared_ptr.529" = type { ptr, %"class.std::__shared_count" }
%"class.dropbox::oxygen::nn.531" = type { %"class.std::shared_ptr.532" }
%"class.std::shared_ptr.532" = type { %"class.std::__shared_ptr.533" }
%"class.std::__shared_ptr.533" = type { ptr, %"class.std::__shared_count" }
%"class.osgeo::proj::util::optional.535" = type { i8, %"class.osgeo::proj::datum::RealizationMethod" }
%"class.osgeo::proj::datum::RealizationMethod" = type { %"class.osgeo::proj::util::CodeList" }
%"class.osgeo::proj::util::CodeList" = type { %"class.std::__cxx11::basic_string" }
%"class.dropbox::oxygen::nn.536" = type { %"class.std::shared_ptr.537" }
%"class.std::shared_ptr.537" = type { %"class.std::__shared_ptr.538" }
%"class.std::__shared_ptr.538" = type { ptr, %"class.std::__shared_count" }
%"class.dropbox::oxygen::nn.540" = type { %"class.std::shared_ptr.541" }
%"class.std::shared_ptr.541" = type { %"class.std::__shared_ptr.542" }
%"class.std::__shared_ptr.542" = type { ptr, %"class.std::__shared_count" }
%"class.dropbox::oxygen::nn.41" = type { %"class.std::shared_ptr.42" }
%"class.std::shared_ptr.42" = type { %"class.std::__shared_ptr.43" }
%"class.std::__shared_ptr.43" = type { ptr, %"class.std::__shared_count" }
%"class.std::vector.544" = type { %"struct.std::_Vector_base.545" }
%"struct.std::_Vector_base.545" = type { %"struct.std::_Vector_base<dropbox::oxygen::nn<std::shared_ptr<osgeo::proj::operation::OperationParameter>>, std::allocator<dropbox::oxygen::nn<std::shared_ptr<osgeo::proj::operation::OperationParameter>>>>::_Vector_impl" }
%"struct.std::_Vector_base<dropbox::oxygen::nn<std::shared_ptr<osgeo::proj::operation::OperationParameter>>, std::allocator<dropbox::oxygen::nn<std::shared_ptr<osgeo::proj::operation::OperationParameter>>>>::_Vector_impl" = type { %"struct.std::_Vector_base<dropbox::oxygen::nn<std::shared_ptr<osgeo::proj::operation::OperationParameter>>, std::allocator<dropbox::oxygen::nn<std::shared_ptr<osgeo::proj::operation::OperationParameter>>>>::_Vector_impl_data" }
%"struct.std::_Vector_base<dropbox::oxygen::nn<std::shared_ptr<osgeo::proj::operation::OperationParameter>>, std::allocator<dropbox::oxygen::nn<std::shared_ptr<osgeo::proj::operation::OperationParameter>>>>::_Vector_impl_data" = type { ptr, ptr, ptr }
%"class.std::vector.549" = type { %"struct.std::_Vector_base.550" }
%"struct.std::_Vector_base.550" = type { %"struct.std::_Vector_base<dropbox::oxygen::nn<std::shared_ptr<osgeo::proj::operation::GeneralParameterValue>>, std::allocator<dropbox::oxygen::nn<std::shared_ptr<osgeo::proj::operation::GeneralParameterValue>>>>::_Vector_impl" }
%"struct.std::_Vector_base<dropbox::oxygen::nn<std::shared_ptr<osgeo::proj::operation::GeneralParameterValue>>, std::allocator<dropbox::oxygen::nn<std::shared_ptr<osgeo::proj::operation::GeneralParameterValue>>>>::_Vector_impl" = type { %"struct.std::_Vector_base<dropbox::oxygen::nn<std::shared_ptr<osgeo::proj::operation::GeneralParameterValue>>, std::allocator<dropbox::oxygen::nn<std::shared_ptr<osgeo::proj::operation::GeneralParameterValue>>>>::_Vector_impl_data" }
%"struct.std::_Vector_base<dropbox::oxygen::nn<std::shared_ptr<osgeo::proj::operation::GeneralParameterValue>>, std::allocator<dropbox::oxygen::nn<std::shared_ptr<osgeo::proj::operation::GeneralParameterValue>>>>::_Vector_impl_data" = type { ptr, ptr, ptr }
%"class.dropbox::oxygen::nn.554" = type { %"class.std::shared_ptr.555" }
%"class.std::shared_ptr.555" = type { %"class.std::__shared_ptr.556" }
%"class.std::__shared_ptr.556" = type { ptr, %"class.std::__shared_count" }
%"class.std::vector.377" = type { %"struct.std::_Vector_base.378" }
%"struct.std::_Vector_base.378" = type { %"struct.std::_Vector_base<dropbox::oxygen::nn<std::shared_ptr<osgeo::proj::crs::CRS>>, std::allocator<dropbox::oxygen::nn<std::shared_ptr<osgeo::proj::crs::CRS>>>>::_Vector_impl" }
%"struct.std::_Vector_base<dropbox::oxygen::nn<std::shared_ptr<osgeo::proj::crs::CRS>>, std::allocator<dropbox::oxygen::nn<std::shared_ptr<osgeo::proj::crs::CRS>>>>::_Vector_impl" = type { %"struct.std::_Vector_base<dropbox::oxygen::nn<std::shared_ptr<osgeo::proj::crs::CRS>>, std::allocator<dropbox::oxygen::nn<std::shared_ptr<osgeo::proj::crs::CRS>>>>::_Vector_impl_data" }
%"struct.std::_Vector_base<dropbox::oxygen::nn<std::shared_ptr<osgeo::proj::crs::CRS>>, std::allocator<dropbox::oxygen::nn<std::shared_ptr<osgeo::proj::crs::CRS>>>>::_Vector_impl_data" = type { ptr, ptr, ptr }
%"class.dropbox::oxygen::nn.575" = type { %"class.std::shared_ptr.576" }
%"class.std::shared_ptr.576" = type { %"class.std::__shared_ptr.577" }
%"class.std::__shared_ptr.577" = type { ptr, %"class.std::__shared_count" }
%"class.dropbox::oxygen::nn.587" = type { %"class.std::shared_ptr.588" }
%"class.std::shared_ptr.588" = type { %"class.std::__shared_ptr.589" }
%"class.std::__shared_ptr.589" = type { ptr, %"class.std::__shared_count" }
%"class.dropbox::oxygen::nn.597" = type { %"class.std::shared_ptr.598" }
%"class.std::shared_ptr.598" = type { %"class.std::__shared_ptr.599" }
%"class.std::__shared_ptr.599" = type { ptr, %"class.std::__shared_count" }
%"class.dropbox::oxygen::nn.601" = type { %"class.std::shared_ptr.602" }
%"class.std::shared_ptr.602" = type { %"class.std::__shared_ptr.603" }
%"class.std::__shared_ptr.603" = type { ptr, %"class.std::__shared_count" }
%"class.dropbox::oxygen::nn.605" = type { %"class.std::shared_ptr.606" }
%"class.std::shared_ptr.606" = type { %"class.std::__shared_ptr.607" }
%"class.std::__shared_ptr.607" = type { ptr, %"class.std::__shared_count" }
%"class.std::vector.609" = type { %"struct.std::_Vector_base.610" }
%"struct.std::_Vector_base.610" = type { %"struct.std::_Vector_base<dropbox::oxygen::nn<std::shared_ptr<osgeo::proj::operation::ParameterValue>>, std::allocator<dropbox::oxygen::nn<std::shared_ptr<osgeo::proj::operation::ParameterValue>>>>::_Vector_impl" }
%"struct.std::_Vector_base<dropbox::oxygen::nn<std::shared_ptr<osgeo::proj::operation::ParameterValue>>, std::allocator<dropbox::oxygen::nn<std::shared_ptr<osgeo::proj::operation::ParameterValue>>>>::_Vector_impl" = type { %"struct.std::_Vector_base<dropbox::oxygen::nn<std::shared_ptr<osgeo::proj::operation::ParameterValue>>, std::allocator<dropbox::oxygen::nn<std::shared_ptr<osgeo::proj::operation::ParameterValue>>>>::_Vector_impl_data" }
%"struct.std::_Vector_base<dropbox::oxygen::nn<std::shared_ptr<osgeo::proj::operation::ParameterValue>>, std::allocator<dropbox::oxygen::nn<std::shared_ptr<osgeo::proj::operation::ParameterValue>>>>::_Vector_impl_data" = type { ptr, ptr, ptr }
%"class.dropbox::oxygen::nn.843" = type { %"class.std::shared_ptr.844" }
%"class.std::shared_ptr.844" = type { %"class.std::__shared_ptr.845" }
%"class.std::__shared_ptr.845" = type { ptr, %"class.std::__shared_count" }
%"class.dropbox::oxygen::nn.678" = type { %"class.std::shared_ptr.659" }
%"class.std::shared_ptr.659" = type { %"class.std::__shared_ptr.660" }
%"class.std::__shared_ptr.660" = type { ptr, %"class.std::__shared_count" }
%struct.PJ_PARAM_DESCRIPTION = type { ptr, ptr, ptr, double, ptr, double, i32 }
%"class.dropbox::oxygen::nn.596" = type { %"class.std::shared_ptr.614" }
%"class.std::shared_ptr.614" = type { %"class.std::__shared_ptr.615" }
%"class.std::__shared_ptr.615" = type { ptr, %"class.std::__shared_count" }
%"class.dropbox::oxygen::nn.617" = type { %"class.std::shared_ptr.618" }
%"class.std::shared_ptr.618" = type { %"class.std::__shared_ptr.619" }
%"class.std::__shared_ptr.619" = type { ptr, %"class.std::__shared_count" }
%"class.std::vector.591" = type { %"struct.std::_Vector_base.592" }
%"struct.std::_Vector_base.592" = type { %"struct.std::_Vector_base<dropbox::oxygen::nn<std::shared_ptr<osgeo::proj::cs::CoordinateSystemAxis>>, std::allocator<dropbox::oxygen::nn<std::shared_ptr<osgeo::proj::cs::CoordinateSystemAxis>>>>::_Vector_impl" }
%"struct.std::_Vector_base<dropbox::oxygen::nn<std::shared_ptr<osgeo::proj::cs::CoordinateSystemAxis>>, std::allocator<dropbox::oxygen::nn<std::shared_ptr<osgeo::proj::cs::CoordinateSystemAxis>>>>::_Vector_impl" = type { %"struct.std::_Vector_base<dropbox::oxygen::nn<std::shared_ptr<osgeo::proj::cs::CoordinateSystemAxis>>, std::allocator<dropbox::oxygen::nn<std::shared_ptr<osgeo::proj::cs::CoordinateSystemAxis>>>>::_Vector_impl_data" }
%"struct.std::_Vector_base<dropbox::oxygen::nn<std::shared_ptr<osgeo::proj::cs::CoordinateSystemAxis>>, std::allocator<dropbox::oxygen::nn<std::shared_ptr<osgeo::proj::cs::CoordinateSystemAxis>>>>::_Vector_impl_data" = type { ptr, ptr, ptr }
%"class.dropbox::oxygen::nn.621" = type { %"class.std::shared_ptr.622" }
%"class.std::shared_ptr.622" = type { %"class.std::__shared_ptr.623" }
%"class.std::__shared_ptr.623" = type { ptr, %"class.std::__shared_count" }
%"class.dropbox::oxygen::nn.625" = type { %"class.std::shared_ptr.626" }
%"class.std::shared_ptr.626" = type { %"class.std::__shared_ptr.627" }
%"class.std::__shared_ptr.627" = type { ptr, %"class.std::__shared_count" }
%"class.dropbox::oxygen::nn.629" = type { %"class.std::shared_ptr.630" }
%"class.std::shared_ptr.630" = type { %"class.std::__shared_ptr.631" }
%"class.std::__shared_ptr.631" = type { ptr, %"class.std::__shared_count" }
%"class.dropbox::oxygen::nn.633" = type { %"class.std::shared_ptr.634" }
%"class.std::shared_ptr.634" = type { %"class.std::__shared_ptr.635" }
%"class.std::__shared_ptr.635" = type { ptr, %"class.std::__shared_count" }
%struct.PJ_AXIS_DESCRIPTION = type { ptr, ptr, ptr, ptr, double, i32 }
%"class.std::shared_ptr.849" = type { %"class.std::__shared_ptr.850" }
%"class.std::__shared_ptr.850" = type { ptr, %"class.std::__shared_count" }
%"class.dropbox::oxygen::nn.643" = type { %"class.std::shared_ptr.644" }
%"class.std::shared_ptr.644" = type { %"class.std::__shared_ptr.645" }
%"class.std::__shared_ptr.645" = type { ptr, %"class.std::__shared_count" }
%"class.dropbox::oxygen::nn.655" = type { %"class.std::shared_ptr.656" }
%"class.std::shared_ptr.656" = type { %"class.std::__shared_ptr.657" }
%"class.std::__shared_ptr.657" = type { ptr, %"class.std::__shared_count" }
%"class.std::vector.687" = type { %"struct.std::_Vector_base.688" }
%"struct.std::_Vector_base.688" = type { %"struct.std::_Vector_base<double, std::allocator<double>>::_Vector_impl" }
%"struct.std::_Vector_base<double, std::allocator<double>>::_Vector_impl" = type { %"struct.std::_Vector_base<double, std::allocator<double>>::_Vector_impl_data" }
%"struct.std::_Vector_base<double, std::allocator<double>>::_Vector_impl_data" = type { ptr, ptr, ptr }
%"class.std::set.700" = type { %"class.std::_Rb_tree.701" }
%"class.std::_Rb_tree.701" = type { %"struct.std::_Rb_tree<osgeo::proj::operation::GridDescription, osgeo::proj::operation::GridDescription, std::_Identity<osgeo::proj::operation::GridDescription>, std::less<osgeo::proj::operation::GridDescription>>::_Rb_tree_impl" }
%"struct.std::_Rb_tree<osgeo::proj::operation::GridDescription, osgeo::proj::operation::GridDescription, std::_Identity<osgeo::proj::operation::GridDescription>, std::less<osgeo::proj::operation::GridDescription>>::_Rb_tree_impl" = type { [8 x i8], %"struct.std::_Rb_tree_header" }
%"struct.osgeo::proj::operation::GridDescription" = type <{ %"class.std::__cxx11::basic_string", %"class.std::__cxx11::basic_string", %"class.std::__cxx11::basic_string", %"class.std::__cxx11::basic_string", i8, i8, i8, [5 x i8] }>
%"class.dropbox::oxygen::nn.706" = type { %"class.std::unique_ptr.707" }
%"class.std::unique_ptr.707" = type { %"struct.std::__uniq_ptr_data.708" }
%"struct.std::__uniq_ptr_data.708" = type { %"class.std::__uniq_ptr_impl.709" }
%"class.std::__uniq_ptr_impl.709" = type { %"class.std::tuple.710" }
%"class.std::tuple.710" = type { %"struct.std::_Tuple_impl.711" }
%"struct.std::_Tuple_impl.711" = type { %"struct.std::_Head_base.714" }
%"struct.std::_Head_base.714" = type { ptr }
%"class.dropbox::oxygen::nn.715" = type { %"class.std::unique_ptr.716" }
%"class.std::unique_ptr.716" = type { %"struct.std::__uniq_ptr_data.717" }
%"struct.std::__uniq_ptr_data.717" = type { %"class.std::__uniq_ptr_impl.718" }
%"class.std::__uniq_ptr_impl.718" = type { %"class.std::tuple.719" }
%"class.std::tuple.719" = type { %"struct.std::_Tuple_impl.720" }
%"struct.std::_Tuple_impl.720" = type { %"struct.std::_Head_base.723" }
%"struct.std::_Head_base.723" = type { ptr }
%"class.std::shared_ptr.333" = type { %"class.std::__shared_ptr.334" }
%"class.std::__shared_ptr.334" = type { ptr, %"class.std::__shared_count" }
%"class.dropbox::oxygen::nn.732" = type { %"class.std::shared_ptr.333" }
%"class.std::__cxx11::list.733" = type { %"class.std::__cxx11::_List_base.734" }
%"class.std::__cxx11::_List_base.734" = type { %"struct.std::__cxx11::_List_base<std::pair<std::__cxx11::basic_string<char>, std::__cxx11::basic_string<char>>, std::allocator<std::pair<std::__cxx11::basic_string<char>, std::__cxx11::basic_string<char>>>>::_List_impl" }
%"struct.std::__cxx11::_List_base<std::pair<std::__cxx11::basic_string<char>, std::__cxx11::basic_string<char>>, std::allocator<std::pair<std::__cxx11::basic_string<char>, std::__cxx11::basic_string<char>>>>::_List_impl" = type { %"struct.std::__detail::_List_node_header" }
%"class.std::vector.742" = type { %"struct.std::_Vector_base.743" }
%"struct.std::_Vector_base.743" = type { %"struct.std::_Vector_base<std::pair<std::__cxx11::basic_string<char>, std::__cxx11::basic_string<char>>, std::allocator<std::pair<std::__cxx11::basic_string<char>, std::__cxx11::basic_string<char>>>>::_Vector_impl" }
%"struct.std::_Vector_base<std::pair<std::__cxx11::basic_string<char>, std::__cxx11::basic_string<char>>, std::allocator<std::pair<std::__cxx11::basic_string<char>, std::__cxx11::basic_string<char>>>>::_Vector_impl" = type { %"struct.std::_Vector_base<std::pair<std::__cxx11::basic_string<char>, std::__cxx11::basic_string<char>>, std::allocator<std::pair<std::__cxx11::basic_string<char>, std::__cxx11::basic_string<char>>>>::_Vector_impl_data" }
%"struct.std::_Vector_base<std::pair<std::__cxx11::basic_string<char>, std::__cxx11::basic_string<char>>, std::allocator<std::pair<std::__cxx11::basic_string<char>, std::__cxx11::basic_string<char>>>>::_Vector_impl_data" = type { ptr, ptr, ptr }
%"struct.std::pair.738" = type { %"class.std::__cxx11::basic_string", %"class.std::__cxx11::basic_string" }
%"class.std::vector.70" = type { %"struct.std::_Vector_base.71" }
%"struct.std::_Vector_base.71" = type { %"struct.std::_Vector_base<PJCoordOperation, std::allocator<PJCoordOperation>>::_Vector_impl" }
%"struct.std::_Vector_base<PJCoordOperation, std::allocator<PJCoordOperation>>::_Vector_impl" = type { %"struct.std::_Vector_base<PJCoordOperation, std::allocator<PJCoordOperation>>::_Vector_impl_data" }
%"struct.std::_Vector_base<PJCoordOperation, std::allocator<PJCoordOperation>>::_Vector_impl_data" = type { ptr, ptr, ptr }
%"class.std::vector.747" = type { %"struct.std::_Vector_base.748" }
%"struct.std::_Vector_base.748" = type { %"struct.std::_Vector_base<dropbox::oxygen::nn<std::shared_ptr<osgeo::proj::operation::CoordinateOperation>>, std::allocator<dropbox::oxygen::nn<std::shared_ptr<osgeo::proj::operation::CoordinateOperation>>>>::_Vector_impl" }
%"struct.std::_Vector_base<dropbox::oxygen::nn<std::shared_ptr<osgeo::proj::operation::CoordinateOperation>>, std::allocator<dropbox::oxygen::nn<std::shared_ptr<osgeo::proj::operation::CoordinateOperation>>>>::_Vector_impl" = type { %"struct.std::_Vector_base<dropbox::oxygen::nn<std::shared_ptr<osgeo::proj::operation::CoordinateOperation>>, std::allocator<dropbox::oxygen::nn<std::shared_ptr<osgeo::proj::operation::CoordinateOperation>>>>::_Vector_impl_data" }
%"struct.std::_Vector_base<dropbox::oxygen::nn<std::shared_ptr<osgeo::proj::operation::CoordinateOperation>>, std::allocator<dropbox::oxygen::nn<std::shared_ptr<osgeo::proj::operation::CoordinateOperation>>>>::_Vector_impl_data" = type { ptr, ptr, ptr }
%union.PJ_COORD = type { [4 x double] }
%"class.std::unique_ptr.801" = type { %"struct.std::__uniq_ptr_data.802" }
%"struct.std::__uniq_ptr_data.802" = type { %"class.std::__uniq_ptr_impl.803" }
%"class.std::__uniq_ptr_impl.803" = type { %"class.std::tuple.804" }
%"class.std::tuple.804" = type { %"struct.std::_Tuple_impl.805" }
%"struct.std::_Tuple_impl.805" = type { %"struct.std::_Head_base.808" }
%"struct.std::_Head_base.808" = type { ptr }
%"class.std::vector.817" = type { %"struct.std::_Vector_base.818" }
%"struct.std::_Vector_base.818" = type { %"struct.std::_Vector_base<dropbox::oxygen::nn<std::shared_ptr<osgeo::proj::operation::PointMotionOperation>>, std::allocator<dropbox::oxygen::nn<std::shared_ptr<osgeo::proj::operation::PointMotionOperation>>>>::_Vector_impl" }
%"struct.std::_Vector_base<dropbox::oxygen::nn<std::shared_ptr<osgeo::proj::operation::PointMotionOperation>>, std::allocator<dropbox::oxygen::nn<std::shared_ptr<osgeo::proj::operation::PointMotionOperation>>>>::_Vector_impl" = type { %"struct.std::_Vector_base<dropbox::oxygen::nn<std::shared_ptr<osgeo::proj::operation::PointMotionOperation>>, std::allocator<dropbox::oxygen::nn<std::shared_ptr<osgeo::proj::operation::PointMotionOperation>>>>::_Vector_impl_data" }
%"struct.std::_Vector_base<dropbox::oxygen::nn<std::shared_ptr<osgeo::proj::operation::PointMotionOperation>>, std::allocator<dropbox::oxygen::nn<std::shared_ptr<osgeo::proj::operation::PointMotionOperation>>>>::_Vector_impl_data" = type { ptr, ptr, ptr }

$_ZN14projCppContextD2Ev = comdat any

$_ZNSt7__cxx1112basic_stringIcSt11char_traitsIcESaIcEEC2IS3_EEPKcRKS3_ = comdat any

$_ZNSt6vectorINSt7__cxx1112basic_stringIcSt11char_traitsIcESaIcEEESaIS5_EEC2ERKS7_ = comdat any

$_ZNSt12__shared_ptrIN5osgeo4proj2io15DatabaseContextELN9__gnu_cxx12_Lock_policyE2EED2Ev = comdat any

$_ZNSt6vectorINSt7__cxx1112basic_stringIcSt11char_traitsIcESaIcEEESaIS5_EED2Ev = comdat any

$_ZN7dropbox6oxygen2nnISt10shared_ptrIN5osgeo4proj2io15DatabaseContextEEED2Ev = comdat any

$_ZN7dropbox6oxygen2nnISt10unique_ptrIN5osgeo4proj2io19PROJStringFormatterESt14default_deleteIS6_EEED2Ev = comdat any

$_ZNSt12__shared_ptrIN5osgeo4proj3crs11GeodeticCRSELN9__gnu_cxx12_Lock_policyE2EED2Ev = comdat any

$_ZNSt6vectorIN7dropbox6oxygen2nnISt10shared_ptrIN5osgeo4proj6common16IdentifiedObjectEEEESaIS9_EED2Ev = comdat any

$_ZNSt6vectorINSt7__cxx1112basic_stringIcSt11char_traitsIcESaIcEEESaIS5_EEaSERKS7_ = comdat any

$__clang_call_terminate = comdat any

$_ZN16PJCoordOperationC2EP6pj_ctxRKS_ = comdat any

$_ZN7dropbox6oxygen2nnISt10shared_ptrIN5osgeo4proj4util10BaseObjectEEED2Ev = comdat any

$_ZNSt12__shared_ptrIN5osgeo4proj4util10BaseObjectELN9__gnu_cxx12_Lock_policyE2EED2Ev = comdat any

$_ZNSt7__cxx1110_List_baseINS_12basic_stringIcSt11char_traitsIcESaIcEEESaIS5_EED2Ev = comdat any

$_ZNSt7__cxx114listINS_12basic_stringIcSt11char_traitsIcESaIcEEESaIS5_EE6insertISt14_List_iteratorIS5_EvEESA_St20_List_const_iteratorIS5_ET_SD_ = comdat any

$_ZNSt7__cxx114listINS_12basic_stringIcSt11char_traitsIcESaIcEEESaIS5_EEC2ESt16initializer_listIS5_ERKS6_ = comdat any

$_ZN7dropbox6oxygen2nnISt10shared_ptrIN5osgeo4proj5datum9EllipsoidEEED2Ev = comdat any

$_ZN7dropbox6oxygen2nnISt10shared_ptrIN5osgeo4proj5datum13PrimeMeridianEEED2Ev = comdat any

$_ZN7dropbox6oxygen2nnISt10shared_ptrIN5osgeo4proj5datum5DatumEEED2Ev = comdat any

$_ZN7dropbox6oxygen2nnISt10shared_ptrIN5osgeo4proj3crs3CRSEEED2Ev = comdat any

$_ZN7dropbox6oxygen2nnISt10shared_ptrIN5osgeo4proj9operation19CoordinateOperationEEED2Ev = comdat any

$_ZN7dropbox6oxygen2nnISt10shared_ptrIN5osgeo4proj5datum13DatumEnsembleEEED2Ev = comdat any

$_ZN7dropbox6oxygen2nnISt10shared_ptrIN5osgeo4proj6common16IdentifiedObjectEEED2Ev = comdat any

$_ZN7dropbox6oxygen2nnISt10shared_ptrIN5osgeo4proj2io16AuthorityFactoryEEED2Ev = comdat any

$_ZN7dropbox6oxygen2nnISt10shared_ptrIN5osgeo4proj6common13UnitOfMeasureEEED2Ev = comdat any

$_ZNSt7__cxx1110_List_baseIN7dropbox6oxygen2nnISt10shared_ptrIN5osgeo4proj3crs11GeodeticCRSEEEESaISA_EED2Ev = comdat any

$_ZNSt7__cxx1110_List_baseIN7dropbox6oxygen2nnISt10shared_ptrIN5osgeo4proj6common16IdentifiedObjectEEEESaISA_EED2Ev = comdat any

$_ZNSt7__cxx1110_List_baseIN7dropbox6oxygen2nnISt10shared_ptrIN5osgeo4proj3crs3CRSEEEESaISA_EED2Ev = comdat any

$_ZN7dropbox6oxygen2nnISt10unique_ptrIN5osgeo4proj2io12WKTFormatterESt14default_deleteIS6_EEED2Ev = comdat any

$_ZN7dropbox6oxygen2nnISt10unique_ptrIN5osgeo4proj2io13JSONFormatterESt14default_deleteIS6_EEED2Ev = comdat any

$_ZN7dropbox6oxygen2nnISt10shared_ptrIN5osgeo4proj3crs8BoundCRSEEED2Ev = comdat any

$_ZN7dropbox6oxygen2nnISt10shared_ptrIN5osgeo4proj9operation14TransformationEEED2Ev = comdat any

$_ZNSt12__shared_ptrIN5osgeo4proj9operation14TransformationELN9__gnu_cxx12_Lock_policyE2EED2Ev = comdat any

$_ZNSt6vectorIN7dropbox6oxygen2nnISt10shared_ptrIN5osgeo4proj8metadata18PositionalAccuracyEEEESaIS9_EED2Ev = comdat any

$_ZN7dropbox6oxygen2nnISt10shared_ptrIN5osgeo4proj3crs11VerticalCRSEEED2Ev = comdat any

$_ZNSt12__shared_ptrIN5osgeo4proj3crs11VerticalCRSELN9__gnu_cxx12_Lock_policyE2EED2Ev = comdat any

$_ZN7dropbox6oxygen2nnISt10shared_ptrIN5osgeo4proj5datum22GeodeticReferenceFrameEEED2Ev = comdat any

$_ZNSt7__cxx1110_List_baseISt4pairIN7dropbox6oxygen2nnISt10shared_ptrIN5osgeo4proj3crs3CRSEEEEiESaISC_EED2Ev = comdat any

$_ZNSt3setINSt7__cxx1112basic_stringIcSt11char_traitsIcESaIcEEESt4lessIS5_ESaIS5_EED2Ev = comdat any

$_ZNSt7__cxx1110_List_baseIN5osgeo4proj2io16AuthorityFactory17CelestialBodyInfoESaIS5_EED2Ev = comdat any

$_ZNSt7__cxx1110_List_baseIN5osgeo4proj2io16AuthorityFactory7CRSInfoESaIS5_EED2Ev = comdat any

$_ZN7dropbox6oxygen2nnISt10shared_ptrIN5osgeo4proj8metadata21GeographicBoundingBoxEEED2Ev = comdat any

$_ZN7dropbox6oxygen2nnISt10shared_ptrIN5osgeo4proj8metadata16GeographicExtentEEED2Ev = comdat any

$_ZNSt7__cxx1110_List_baseIN5osgeo4proj2io16AuthorityFactory8UnitInfoESaIS5_EED2Ev = comdat any

$_ZN7dropbox6oxygen2nnISt10shared_ptrIN5osgeo4proj9operation10ConversionEEED2Ev = comdat any

$_ZN7dropbox6oxygen2nnISt10shared_ptrIN5osgeo4proj9operation15SingleOperationEEED2Ev = comdat any

$_ZNSt12__shared_ptrIN5osgeo4proj9operation15SingleOperationELN9__gnu_cxx12_Lock_policyE2EED2Ev = comdat any

$_ZN7dropbox6oxygen2nnISt10shared_ptrIN5osgeo4proj2cs13EllipsoidalCSEEED2Ev = comdat any

$_ZN7dropbox6oxygen2nnISt10shared_ptrIN5osgeo4proj3crs13GeographicCRSEEED2Ev = comdat any

$_ZNSt12__shared_ptrIN5osgeo4proj2cs13EllipsoidalCSELN9__gnu_cxx12_Lock_policyE2EED2Ev = comdat any

$_ZNSt12__shared_ptrIN5osgeo4proj5datum13DatumEnsembleELN9__gnu_cxx12_Lock_policyE2EED2Ev = comdat any

$_ZNSt12__shared_ptrIN5osgeo4proj5datum22GeodeticReferenceFrameELN9__gnu_cxx12_Lock_policyE2EED2Ev = comdat any

$_ZN7dropbox6oxygen2nnISt10shared_ptrIN5osgeo4proj2cs11CartesianCSEEED2Ev = comdat any

$_ZN7dropbox6oxygen2nnISt10shared_ptrIN5osgeo4proj3crs11GeodeticCRSEEED2Ev = comdat any

$_ZN7dropbox6oxygen2nnISt10shared_ptrIN5osgeo4proj3crs20DerivedGeographicCRSEEED2Ev = comdat any

$_ZNSt12__shared_ptrIN5osgeo4proj9operation10ConversionELN9__gnu_cxx12_Lock_policyE2EED2Ev = comdat any

$_ZNSt12__shared_ptrIN5osgeo4proj3crs13GeographicCRSELN9__gnu_cxx12_Lock_policyE2EED2Ev = comdat any

$_ZN7dropbox6oxygen2nnISt10shared_ptrIN5osgeo4proj8metadata18PositionalAccuracyEEED2Ev = comdat any

$_ZNSt6vectorIN7dropbox6oxygen2nnISt10shared_ptrIN5osgeo4proj9operation21GeneralParameterValueEEEESaIS9_EED2Ev = comdat any

$_ZN7dropbox6oxygen2nnISt10shared_ptrIN5osgeo4proj9operation15OperationMethodEEED2Ev = comdat any

$_ZNSt6vectorIN7dropbox6oxygen2nnISt10shared_ptrIN5osgeo4proj9operation18OperationParameterEEEESaIS9_EED2Ev = comdat any

$_ZN7dropbox6oxygen2nnISt10shared_ptrIN5osgeo4proj2cs10VerticalCSEEED2Ev = comdat any

$_ZN7dropbox6oxygen2nnISt10shared_ptrIN5osgeo4proj5datum22VerticalReferenceFrameEEED2Ev = comdat any

$_ZNSt6vectorIN7dropbox6oxygen2nnISt10shared_ptrIN5osgeo4proj3crs3CRSEEEESaIS9_EED2Ev = comdat any

$_ZN7dropbox6oxygen2nnISt10shared_ptrIN5osgeo4proj3crs11CompoundCRSEEED2Ev = comdat any

$_ZN7dropbox6oxygen2nnISt10shared_ptrIN5osgeo4proj3crs12ProjectedCRSEEED2Ev = comdat any

$_ZN7dropbox6oxygen2nnISt10shared_ptrIN5osgeo4proj11coordinates18CoordinateMetadataEEED2Ev = comdat any

$_ZN7dropbox6oxygen2nnISt10shared_ptrIN5osgeo4proj3crs14EngineeringCRSEEED2Ev = comdat any

$_ZN7dropbox6oxygen2nnISt10shared_ptrIN5osgeo4proj2cs16CoordinateSystemEEED2Ev = comdat any

$_ZN7dropbox6oxygen2nnISt10shared_ptrIN5osgeo4proj5datum16EngineeringDatumEEED2Ev = comdat any

$_ZNSt6vectorIN7dropbox6oxygen2nnISt10shared_ptrIN5osgeo4proj9operation14ParameterValueEEEESaIS9_EED2Ev = comdat any

$_ZN7dropbox6oxygen2nnISt10shared_ptrIN5osgeo4proj2cs20CoordinateSystemAxisEEED2Ev = comdat any

$_ZN7dropbox6oxygen2nnISt10shared_ptrIN5osgeo4proj2cs12ParametricCSEEED2Ev = comdat any

$_ZN7dropbox6oxygen2nnISt10shared_ptrIN5osgeo4proj2cs9OrdinalCSEEED2Ev = comdat any

$_ZNSt6vectorIN7dropbox6oxygen2nnISt10shared_ptrIN5osgeo4proj2cs20CoordinateSystemAxisEEEESaIS9_EED2Ev = comdat any

$_ZN7dropbox6oxygen2nnISt10shared_ptrIN5osgeo4proj2cs18DateTimeTemporalCSEEED2Ev = comdat any

$_ZN7dropbox6oxygen2nnISt10shared_ptrIN5osgeo4proj2cs15TemporalCountCSEEED2Ev = comdat any

$_ZN7dropbox6oxygen2nnISt10shared_ptrIN5osgeo4proj2cs17TemporalMeasureCSEEED2Ev = comdat any

$_ZNSt12__shared_ptrIN5osgeo4proj2cs11CartesianCSELN9__gnu_cxx12_Lock_policyE2EED2Ev = comdat any

$_ZNSt3setIN5osgeo4proj9operation15GridDescriptionESt4lessIS3_ESaIS3_EED2Ev = comdat any

$_ZNSt12__shared_ptrIN5osgeo4proj8metadata6ExtentELN9__gnu_cxx12_Lock_policyE2EED2Ev = comdat any

$_ZNSt12__shared_ptrIN5osgeo4proj2io16AuthorityFactoryELN9__gnu_cxx12_Lock_policyE2EED2Ev = comdat any

$_ZN7dropbox6oxygen2nnISt10shared_ptrIN5osgeo4proj8metadata6ExtentEEED2Ev = comdat any

$_ZNSt7__cxx1110_List_baseISt4pairINS_12basic_stringIcSt11char_traitsIcESaIcEEES6_ESaIS7_EED2Ev = comdat any

$_ZNSt4pairINSt7__cxx1112basic_stringIcSt11char_traitsIcESaIcEEES5_ED2Ev = comdat any

$_ZNSt6vectorISt4pairINSt7__cxx1112basic_stringIcSt11char_traitsIcESaIcEEES6_ESaIS7_EED2Ev = comdat any

$_ZNSt6vectorIN7dropbox6oxygen2nnISt10shared_ptrIN5osgeo4proj9operation19CoordinateOperationEEEESaIS9_EED2Ev = comdat any

$_ZNSt10unique_ptrI8PJconstsSt14default_deleteIS0_EED2Ev = comdat any

$_ZNSt6vectorINSt7__cxx1112basic_stringIcSt11char_traitsIcESaIcEEESaIS5_EE12emplace_backIJRKPKcEEERS5_DpOT_ = comdat any

$_ZNSt16_Sp_counted_baseILN9__gnu_cxx12_Lock_policyE2EE24_M_release_last_use_coldEv = comdat any

$_ZNK16PJCoordOperationeqERKS_ = comdat any

$_ZSteqIcSt11char_traitsIcESaIcEEbRKNSt7__cxx1112basic_stringIT_T0_T1_EESA_ = comdat any

$_ZNSt8_Rb_treeINSt7__cxx1112basic_stringIcSt11char_traitsIcESaIcEEES5_St9_IdentityIS5_ESt4lessIS5_ESaIS5_EE8_M_eraseEPSt13_Rb_tree_nodeIS5_E = comdat any

$_ZN5osgeo4proj2io16AuthorityFactory7CRSInfoD2Ev = comdat any

$_ZNSt7__cxx1110_List_baseIN5osgeo4proj2io16AuthorityFactory8UnitInfoESaIS5_EE15_M_destroy_nodeEPSt10_List_nodeIS5_E = comdat any

$_ZN7dropbox6oxygen2nnISt10shared_ptrIN5osgeo4proj9operation18OperationParameterEEED2Ev = comdat any

$_ZN7dropbox6oxygen2nnISt10shared_ptrIN5osgeo4proj9operation14ParameterValueEEED2Ev = comdat any

$_ZNSt12__shared_ptrIN5osgeo4proj2cs8MeridianELN9__gnu_cxx12_Lock_policyE2EED2Ev = comdat any

$_ZNSt8_Rb_treeIN5osgeo4proj9operation15GridDescriptionES3_St9_IdentityIS3_ESt4lessIS3_ESaIS3_EE8_M_eraseEPSt13_Rb_tree_nodeIS3_E = comdat any

$_ZSt8_DestroyIPNSt7__cxx1112basic_stringIcSt11char_traitsIcESaIcEEEEvT_S7_ = comdat any

$_ZNSt19_UninitDestroyGuardIPNSt7__cxx1112basic_stringIcSt11char_traitsIcESaIcEEEvED2Ev = comdat any

$_ZNSt6vectorINSt7__cxx1112basic_stringIcSt11char_traitsIcESaIcEEESaIS5_EE17_M_realloc_appendIJS5_EEEvDpOT_ = comdat any

$_ZNSt6vectorINSt7__cxx1112basic_stringIcSt11char_traitsIcESaIcEEESaIS5_EE20_M_allocate_and_copyIN9__gnu_cxx17__normal_iteratorIPKS5_S7_EEEEPS5_mT_SF_ = comdat any

$_ZNSt6vectorI16PJCoordOperationSaIS0_EE17_M_realloc_appendIJS0_EEEvDpOT_ = comdat any

$_ZN16PJCoordOperationC2EOS_ = comdat any

$_ZNSt7__cxx114listINS_12basic_stringIcSt11char_traitsIcESaIcEEESaIS5_EE12emplace_backIJRS5_EEES9_DpOT_ = comdat any

$_ZNSt7__cxx114listINS_12basic_stringIcSt11char_traitsIcESaIcEEESaIS5_EE12emplace_backIJRKS5_EEERS5_DpOT_ = comdat any

$_ZNSt12__shared_ptrIN5osgeo4proj6common16IdentifiedObjectELN9__gnu_cxx12_Lock_policyE2EED2Ev = comdat any

$_ZNSt12__shared_ptrIN5osgeo4proj8metadata21GeographicBoundingBoxELN9__gnu_cxx12_Lock_policyE2EED2Ev = comdat any

$_ZNSt12__shared_ptrIN5osgeo4proj3crs3CRSELN9__gnu_cxx12_Lock_policyE2EED2Ev = comdat any

$_ZNSt6vectorIN5osgeo4proj9operation15GridDescriptionESaIS3_EE17_M_realloc_appendIJRKS3_EEEvDpOT_ = comdat any

$_ZNSt6vectorISt4pairINSt7__cxx1112basic_stringIcSt11char_traitsIcESaIcEEES6_ESaIS7_EE17_M_realloc_appendIJS7_EEEvDpOT_ = comdat any

$_ZNSt12__shared_ptrIN5osgeo4proj11coordinates18CoordinateMetadataELN9__gnu_cxx12_Lock_policyE2EED2Ev = comdat any

$_ZN8PJconstsD2Ev = comdat any

$_ZNSt6vectorI16PJCoordOperationSaIS0_EE17_M_realloc_appendIJRKiRdS6_S6_S6_S6_S6_S6_S6_RP8PJconstsRKNSt7__cxx1112basic_stringIcSt11char_traitsIcESaIcEEERKdSJ_PKcRKS8_SN_EEEvDpOT_ = comdat any

$_ZNSt6vectorINSt7__cxx1112basic_stringIcSt11char_traitsIcESaIcEEESaIS5_EE17_M_realloc_appendIJRKPKcEEEvDpOT_ = comdat any

@_ZTIN5osgeo4proj4util10BaseObjectE = external constant ptr
@_ZTIN5osgeo4proj9operation19CoordinateOperationE = external constant ptr
@_ZTIN5osgeo4proj9operation15SingleOperationE = external constant ptr
@.str = private unnamed_addr constant [8 x i8] c"unnamed\00", align 1
@_ZTISt9exception = external constant ptr
@_ZN5osgeo4proj6common13UnitOfMeasure4YEARE = external global %"class.osgeo::proj::common::UnitOfMeasure", align 8
@.str.1 = private unnamed_addr constant [17 x i8] c"ISO-19111 object\00", align 1
@_ZTIN5osgeo4proj3crs3CRSE = external constant ptr
@.str.2 = private unnamed_addr constant [29 x i8] c"Invalid ellipsoid parameters\00", align 1
@_ZTV11PJ_OBJ_LIST = hidden unnamed_addr constant { [4 x ptr] } { [4 x ptr] [ptr null, ptr @_ZTI11PJ_OBJ_LIST, ptr @_ZN11PJ_OBJ_LISTD2Ev, ptr @_ZN11PJ_OBJ_LISTD0Ev] }, align 8
@__FUNCTION__.proj_context_set_database_path = private unnamed_addr constant [31 x i8] c"proj_context_set_database_path\00", align 1
@__FUNCTION__.proj_context_get_database_path = private unnamed_addr constant [31 x i8] c"proj_context_get_database_path\00", align 1
@__FUNCTION__.proj_context_get_database_metadata = private unnamed_addr constant [35 x i8] c"proj_context_get_database_metadata\00", align 1
@.str.3 = private unnamed_addr constant [23 x i8] c"missing required input\00", align 1
@__FUNCTION__.proj_context_get_database_structure = private unnamed_addr constant [36 x i8] c"proj_context_get_database_structure\00", align 1
@__FUNCTION__.proj_context_guess_wkt_dialect = private unnamed_addr constant [31 x i8] c"proj_context_guess_wkt_dialect\00", align 1
@__FUNCTION__.proj_clone = private unnamed_addr constant [11 x i8] c"proj_clone\00", align 1
@.str.4 = private unnamed_addr constant [29 x i8] c"Set of coordinate operations\00", align 1
@__FUNCTION__.proj_create = private unnamed_addr constant [12 x i8] c"proj_create\00", align 1
@.str.5 = private unnamed_addr constant [6 x i8] c"proj=\00", align 1
@.str.6 = private unnamed_addr constant [6 x i8] c"init=\00", align 1
@_ZTIN5osgeo4proj2io16ParsingExceptionE = external constant ptr
@_ZTIN5osgeo4proj2io28NoSuchAuthorityCodeExceptionE = external constant ptr
@.str.7 = private unnamed_addr constant [3 x i8] c": \00", align 1
@.str.8 = private unnamed_addr constant [2 x i8] c":\00", align 1
@__FUNCTION__.proj_create_from_wkt = private unnamed_addr constant [21 x i8] c"proj_create_from_wkt\00", align 1
@.str.9 = private unnamed_addr constant [8 x i8] c"STRICT=\00", align 1
@.str.10 = private unnamed_addr constant [4 x i8] c"YES\00", align 1
@.str.11 = private unnamed_addr constant [39 x i8] c"UNSET_IDENTIFIERS_IF_INCOMPATIBLE_DEF=\00", align 1
@.str.12 = private unnamed_addr constant [17 x i8] c"Unknown option :\00", align 1
@_ZTIN5osgeo4proj3crs10DerivedCRSE = external constant ptr
@__FUNCTION__.proj_create_from_database = private unnamed_addr constant [26 x i8] c"proj_create_from_database\00", align 1
@__FUNCTION__.proj_uom_get_info_from_database = private unnamed_addr constant [32 x i8] c"proj_uom_get_info_from_database\00", align 1
@__FUNCTION__.proj_grid_get_info_from_database = private unnamed_addr constant [33 x i8] c"proj_grid_get_info_from_database\00", align 1
@__FUNCTION__.proj_query_geodetic_crs_from_datum = private unnamed_addr constant [35 x i8] c"proj_query_geodetic_crs_from_datum\00", align 1
@.str.13 = private unnamed_addr constant [1 x i8] zeroinitializer, align 1
@__FUNCTION__.proj_create_from_name = private unnamed_addr constant [22 x i8] c"proj_create_from_name\00", align 1
@.str.14 = private unnamed_addr constant [14 x i8] c"invalid input\00", align 1
@_ZTIN5osgeo4proj6common16IdentifiedObjectE = external constant ptr
@__FUNCTION__.proj_get_non_deprecated = private unnamed_addr constant [24 x i8] c"proj_get_non_deprecated\00", align 1
@__FUNCTION__.proj_as_wkt = private unnamed_addr constant [12 x i8] c"proj_as_wkt\00", align 1
@_ZTIN5osgeo4proj2io14IWKTExportableE = external constant ptr
@.str.15 = private unnamed_addr constant [11 x i8] c"MULTILINE=\00", align 1
@.str.16 = private unnamed_addr constant [19 x i8] c"INDENTATION_WIDTH=\00", align 1
@.str.17 = private unnamed_addr constant [13 x i8] c"OUTPUT_AXIS=\00", align 1
@.str.18 = private unnamed_addr constant [5 x i8] c"AUTO\00", align 1
@.str.19 = private unnamed_addr constant [42 x i8] c"ALLOW_ELLIPSOIDAL_HEIGHT_AS_VERTICAL_CRS=\00", align 1
@.str.20 = private unnamed_addr constant [20 x i8] c"ALLOW_LINUNIT_NODE=\00", align 1
@__FUNCTION__.proj_as_proj_string = private unnamed_addr constant [20 x i8] c"proj_as_proj_string\00", align 1
@_ZTIN5osgeo4proj2io21IPROJStringExportableE = external constant ptr
@.str.21 = private unnamed_addr constant [35 x i8] c"Object type not exportable to PROJ\00", align 1
@.str.22 = private unnamed_addr constant [17 x i8] c"MAX_LINE_LENGTH=\00", align 1
@.str.23 = private unnamed_addr constant [18 x i8] c"USE_APPROX_TMERC=\00", align 1
@__FUNCTION__.proj_as_projjson = private unnamed_addr constant [17 x i8] c"proj_as_projjson\00", align 1
@_ZTIN5osgeo4proj2io15IJSONExportableE = external constant ptr
@.str.24 = private unnamed_addr constant [35 x i8] c"Object type not exportable to JSON\00", align 1
@.str.25 = private unnamed_addr constant [8 x i8] c"SCHEMA=\00", align 1
@_ZTIN5osgeo4proj6common11ObjectUsageE = external constant ptr
@_ZTIN5osgeo4proj8metadata16GeographicExtentE = external constant ptr
@_ZTIN5osgeo4proj8metadata21GeographicBoundingBoxE = external constant ptr
@__FUNCTION__.proj_crs_get_geodetic_crs = private unnamed_addr constant [26 x i8] c"proj_crs_get_geodetic_crs\00", align 1
@__FUNCTION__.proj_crs_is_derived = private unnamed_addr constant [20 x i8] c"proj_crs_is_derived\00", align 1
@.str.26 = private unnamed_addr constant [20 x i8] c"Object is not a CRS\00", align 1
@__FUNCTION__.proj_crs_get_sub_crs = private unnamed_addr constant [21 x i8] c"proj_crs_get_sub_crs\00", align 1
@_ZTVN5osgeo4proj3crs11CompoundCRSE = external unnamed_addr constant { [11 x ptr], [5 x ptr], [5 x ptr], [5 x ptr], [5 x ptr] }, align 8
@.str.27 = private unnamed_addr constant [28 x i8] c"Object is not a CompoundCRS\00", align 1
@__FUNCTION__.proj_crs_create_bound_crs = private unnamed_addr constant [26 x i8] c"proj_crs_create_bound_crs\00", align 1
@.str.28 = private unnamed_addr constant [22 x i8] c"base_crs is not a CRS\00", align 1
@.str.29 = private unnamed_addr constant [21 x i8] c"hub_crs is not a CRS\00", align 1
@.str.30 = private unnamed_addr constant [28 x i8] c"transformation is not a CRS\00", align 1
@__FUNCTION__.proj_crs_create_bound_crs_to_WGS84 = private unnamed_addr constant [35 x i8] c"proj_crs_create_bound_crs_to_WGS84\00", align 1
@.str.31 = private unnamed_addr constant [24 x i8] c"ALLOW_INTERMEDIATE_CRS=\00", align 1
@.str.32 = private unnamed_addr constant [7 x i8] c"ALWAYS\00", align 1
@.str.33 = private unnamed_addr constant [28 x i8] c"IF_NO_DIRECT_TRANSFORMATION\00", align 1
@__FUNCTION__.proj_crs_create_bound_vertical_crs = private unnamed_addr constant [35 x i8] c"proj_crs_create_bound_vertical_crs\00", align 1
@.str.34 = private unnamed_addr constant [30 x i8] c"vert_crs is not a VerticalCRS\00", align 1
@.str.35 = private unnamed_addr constant [35 x i8] c"hub_geographic_3D_crs is not a CRS\00", align 1
@_ZN5osgeo4proj6common16IdentifiedObject8NAME_KEYB5cxx11E = external global %"class.std::__cxx11::basic_string", align 8
@.str.36 = private unnamed_addr constant [12 x i8] c"unknown to \00", align 1
@.str.37 = private unnamed_addr constant [20 x i8] c" ellipsoidal height\00", align 1
@__FUNCTION__.proj_get_ellipsoid = private unnamed_addr constant [19 x i8] c"proj_get_ellipsoid\00", align 1
@_ZTIN5osgeo4proj5datum22GeodeticReferenceFrameE = external constant ptr
@.str.38 = private unnamed_addr constant [46 x i8] c"Object is not a CRS or GeodeticReferenceFrame\00", align 1
@__FUNCTION__.proj_get_celestial_body_name = private unnamed_addr constant [29 x i8] c"proj_get_celestial_body_name\00", align 1
@_ZN5osgeo4proj5datum9Ellipsoid5EARTHB5cxx11E = external local_unnamed_addr global %"class.std::__cxx11::basic_string", align 8
@_ZTVN5osgeo4proj5datum13DatumEnsembleE = external unnamed_addr constant { [8 x ptr], [5 x ptr], [5 x ptr], [5 x ptr] }, align 8
@_ZTIN5osgeo4proj5datum22VerticalReferenceFrameE = external constant ptr
@_ZTVN5osgeo4proj5datum9EllipsoidE = external unnamed_addr constant { [9 x ptr], [5 x ptr], [5 x ptr], [5 x ptr], [5 x ptr] }, align 8
@.str.39 = private unnamed_addr constant [40 x i8] c"Object is not a CRS, Datum or Ellipsoid\00", align 1
@__FUNCTION__.proj_crs_get_horizontal_datum = private unnamed_addr constant [30 x i8] c"proj_crs_get_horizontal_datum\00", align 1
@.str.40 = private unnamed_addr constant [17 x i8] c"CRS has no datum\00", align 1
@__FUNCTION__.proj_ellipsoid_get_parameters = private unnamed_addr constant [30 x i8] c"proj_ellipsoid_get_parameters\00", align 1
@.str.41 = private unnamed_addr constant [26 x i8] c"Object is not a Ellipsoid\00", align 1
@__FUNCTION__.proj_get_prime_meridian = private unnamed_addr constant [24 x i8] c"proj_get_prime_meridian\00", align 1
@__FUNCTION__.proj_prime_meridian_get_parameters = private unnamed_addr constant [35 x i8] c"proj_prime_meridian_get_parameters\00", align 1
@_ZTVN5osgeo4proj5datum13PrimeMeridianE = external unnamed_addr constant { [9 x ptr], [5 x ptr], [5 x ptr], [5 x ptr], [5 x ptr] }, align 8
@.str.42 = private unnamed_addr constant [30 x i8] c"Object is not a PrimeMeridian\00", align 1
@_ZTVN5osgeo4proj3crs8BoundCRSE = external unnamed_addr constant { [11 x ptr], [5 x ptr], [5 x ptr], [5 x ptr], [5 x ptr] }, align 8
@_ZTIN5osgeo4proj11coordinates18CoordinateMetadataE = external constant ptr
@__FUNCTION__.proj_get_source_crs = private unnamed_addr constant [20 x i8] c"proj_get_source_crs\00", align 1
@.str.43 = private unnamed_addr constant [72 x i8] c"Object is not a BoundCRS, a CoordinateOperation or a CoordinateMetadata\00", align 1
@__FUNCTION__.proj_get_target_crs = private unnamed_addr constant [20 x i8] c"proj_get_target_crs\00", align 1
@.str.44 = private unnamed_addr constant [50 x i8] c"Object is not a BoundCRS or a CoordinateOperation\00", align 1
@__FUNCTION__.proj_identify = private unnamed_addr constant [14 x i8] c"proj_identify\00", align 1
@__FUNCTION__.proj_get_authorities_from_database = private unnamed_addr constant [35 x i8] c"proj_get_authorities_from_database\00", align 1
@__FUNCTION__.proj_get_codes_from_database = private unnamed_addr constant [29 x i8] c"proj_get_codes_from_database\00", align 1
@__FUNCTION__.proj_get_celestial_body_list_from_database = private unnamed_addr constant [43 x i8] c"proj_get_celestial_body_list_from_database\00", align 1
@_ZSt7nothrow = external global %"struct.std::nothrow_t", align 1
@__FUNCTION__.proj_get_crs_info_list_from_database = private unnamed_addr constant [37 x i8] c"proj_get_crs_info_list_from_database\00", align 1
@__FUNCTION__.proj_get_units_from_database = private unnamed_addr constant [29 x i8] c"proj_get_units_from_database\00", align 1
@__FUNCTION__.proj_crs_get_coordoperation = private unnamed_addr constant [28 x i8] c"proj_crs_get_coordoperation\00", align 1
@.str.45 = private unnamed_addr constant [39 x i8] c"Object is not a DerivedCRS or BoundCRS\00", align 1
@__FUNCTION__.proj_coordoperation_get_method_info = private unnamed_addr constant [36 x i8] c"proj_coordoperation_get_method_info\00", align 1
@__FUNCTION__.proj_create_geographic_crs = private unnamed_addr constant [27 x i8] c"proj_create_geographic_crs\00", align 1
@__FUNCTION__.proj_create_geographic_crs_from_datum = private unnamed_addr constant [38 x i8] c"proj_create_geographic_crs_from_datum\00", align 1
@.str.46 = private unnamed_addr constant [38 x i8] c"Missing input datum_or_datum_ensemble\00", align 1
@__FUNCTION__.proj_create_geocentric_crs = private unnamed_addr constant [27 x i8] c"proj_create_geocentric_crs\00", align 1
@__FUNCTION__.proj_create_geocentric_crs_from_datum = private unnamed_addr constant [38 x i8] c"proj_create_geocentric_crs_from_datum\00", align 1
@__FUNCTION__.proj_create_derived_geographic_crs = private unnamed_addr constant [35 x i8] c"proj_create_derived_geographic_crs\00", align 1
@.str.47 = private unnamed_addr constant [10 x i8] c"ACCURACY=\00", align 1
@_ZN5osgeo4proj3crs13GeographicCRS9EPSG_4979E = external local_unnamed_addr global %"class.dropbox::oxygen::nn.518", align 8
@.str.48 = private unnamed_addr constant [12 x i8] c"GEOID_MODEL\00", align 1
@__FUNCTION__.proj_create_vertical_crs_ex = private unnamed_addr constant [28 x i8] c"proj_create_vertical_crs_ex\00", align 1
@__FUNCTION__.proj_create_compound_crs = private unnamed_addr constant [25 x i8] c"proj_create_compound_crs\00", align 1
@__FUNCTION__.proj_alter_name = private unnamed_addr constant [16 x i8] c"proj_alter_name\00", align 1
@__FUNCTION__.proj_alter_id = private unnamed_addr constant [14 x i8] c"proj_alter_id\00", align 1
@__FUNCTION__.proj_crs_alter_geodetic_crs = private unnamed_addr constant [28 x i8] c"proj_crs_alter_geodetic_crs\00", align 1
@.str.49 = private unnamed_addr constant [34 x i8] c"new_geod_crs is not a GeodeticCRS\00", align 1
@.str.50 = private unnamed_addr constant [17 x i8] c"obj is not a CRS\00", align 1
@_ZTIN5osgeo4proj3crs13GeographicCRSE = external constant ptr
@__FUNCTION__.proj_crs_alter_cs_angular_unit = private unnamed_addr constant [31 x i8] c"proj_crs_alter_cs_angular_unit\00", align 1
@__FUNCTION__.proj_crs_alter_cs_linear_unit = private unnamed_addr constant [30 x i8] c"proj_crs_alter_cs_linear_unit\00", align 1
@__FUNCTION__.proj_crs_alter_parameters_linear_unit = private unnamed_addr constant [38 x i8] c"proj_crs_alter_parameters_linear_unit\00", align 1
@_ZTVN5osgeo4proj3crs12ProjectedCRSE = external unnamed_addr constant { [12 x ptr], [5 x ptr], [15 x ptr], [5 x ptr], [5 x ptr], [5 x ptr] }, align 8
@__FUNCTION__.proj_crs_promote_to_3D = private unnamed_addr constant [23 x i8] c"proj_crs_promote_to_3D\00", align 1
@.str.51 = private unnamed_addr constant [44 x i8] c"crs_2D is not a CRS or a CoordinateMetadata\00", align 1
@__FUNCTION__.proj_crs_create_projected_3D_crs_from_2D = private unnamed_addr constant [41 x i8] c"proj_crs_create_projected_3D_crs_from_2D\00", align 1
@.str.52 = private unnamed_addr constant [40 x i8] c"projected_2D_crs is not a Projected CRS\00", align 1
@.str.53 = private unnamed_addr constant [36 x i8] c"geog_3D_crs is not a Geographic CRS\00", align 1
@.str.54 = private unnamed_addr constant [39 x i8] c"geog_3D_crs is not a Geographic 3D CRS\00", align 1
@__FUNCTION__.proj_crs_demote_to_2D = private unnamed_addr constant [22 x i8] c"proj_crs_demote_to_2D\00", align 1
@.str.55 = private unnamed_addr constant [20 x i8] c"crs_3D is not a CRS\00", align 1
@.str.56 = private unnamed_addr constant [26 x i8] c"Unknown engineering datum\00", align 1
@_ZN5osgeo4proj6common13UnitOfMeasure5METREE = external global %"class.osgeo::proj::common::UnitOfMeasure", align 8
@__FUNCTION__.proj_create_engineering_crs = private unnamed_addr constant [28 x i8] c"proj_create_engineering_crs\00", align 1
@__FUNCTION__.proj_create_conversion = private unnamed_addr constant [23 x i8] c"proj_create_conversion\00", align 1
@__FUNCTION__.proj_create_transformation = private unnamed_addr constant [27 x i8] c"proj_create_transformation\00", align 1
@.str.57 = private unnamed_addr constant [24 x i8] c"source_crs is not a CRS\00", align 1
@.str.58 = private unnamed_addr constant [24 x i8] c"target_crs is not a CRS\00", align 1
@.str.59 = private unnamed_addr constant [31 x i8] c"interpolation_crs is not a CRS\00", align 1
@__FUNCTION__.proj_convert_conversion_to_other_method = private unnamed_addr constant [40 x i8] c"proj_convert_conversion_to_other_method\00", align 1
@_ZTIN5osgeo4proj9operation10ConversionE = external constant ptr
@.str.60 = private unnamed_addr constant [17 x i8] c"not a Conversion\00", align 1
@.str.61 = private unnamed_addr constant [21 x i8] c"Mercator (variant A)\00", align 1
@.str.62 = private unnamed_addr constant [21 x i8] c"Mercator (variant B)\00", align 1
@.str.63 = private unnamed_addr constant [30 x i8] c"Lambert Conic Conformal (1SP)\00", align 1
@.str.64 = private unnamed_addr constant [30 x i8] c"Lambert Conic Conformal (2SP)\00", align 1
@__FUNCTION__.proj_create_cs = private unnamed_addr constant [15 x i8] c"proj_create_cs\00", align 1
@.str.65 = private unnamed_addr constant [27 x i8] c"Wrong value for axis_count\00", align 1
@__FUNCTION__.proj_create_cartesian_2D_cs = private unnamed_addr constant [28 x i8] c"proj_create_cartesian_2D_cs\00", align 1
@__FUNCTION__.proj_create_ellipsoidal_2D_cs = private unnamed_addr constant [30 x i8] c"proj_create_ellipsoidal_2D_cs\00", align 1
@__FUNCTION__.proj_create_ellipsoidal_3D_cs = private unnamed_addr constant [30 x i8] c"proj_create_ellipsoidal_3D_cs\00", align 1
@__FUNCTION__.proj_create_projected_crs = private unnamed_addr constant [26 x i8] c"proj_create_projected_crs\00", align 1
@__FUNCTION__.proj_create_conversion_utm = private unnamed_addr constant [27 x i8] c"proj_create_conversion_utm\00", align 1
@__FUNCTION__.proj_create_conversion_transverse_mercator = private unnamed_addr constant [43 x i8] c"proj_create_conversion_transverse_mercator\00", align 1
@__FUNCTION__.proj_create_conversion_gauss_schreiber_transverse_mercator = private unnamed_addr constant [59 x i8] c"proj_create_conversion_gauss_schreiber_transverse_mercator\00", align 1
@__FUNCTION__.proj_create_conversion_transverse_mercator_south_oriented = private unnamed_addr constant [58 x i8] c"proj_create_conversion_transverse_mercator_south_oriented\00", align 1
@__FUNCTION__.proj_create_conversion_two_point_equidistant = private unnamed_addr constant [45 x i8] c"proj_create_conversion_two_point_equidistant\00", align 1
@__FUNCTION__.proj_create_conversion_tunisia_mining_grid = private unnamed_addr constant [43 x i8] c"proj_create_conversion_tunisia_mining_grid\00", align 1
@__FUNCTION__.proj_create_conversion_tunisia_mapping_grid = private unnamed_addr constant [44 x i8] c"proj_create_conversion_tunisia_mapping_grid\00", align 1
@__FUNCTION__.proj_create_conversion_albers_equal_area = private unnamed_addr constant [41 x i8] c"proj_create_conversion_albers_equal_area\00", align 1
@__FUNCTION__.proj_create_conversion_lambert_conic_conformal_1sp = private unnamed_addr constant [51 x i8] c"proj_create_conversion_lambert_conic_conformal_1sp\00", align 1
@__FUNCTION__.proj_create_conversion_lambert_conic_conformal_1sp_variant_b = private unnamed_addr constant [61 x i8] c"proj_create_conversion_lambert_conic_conformal_1sp_variant_b\00", align 1
@__FUNCTION__.proj_create_conversion_lambert_conic_conformal_2sp = private unnamed_addr constant [51 x i8] c"proj_create_conversion_lambert_conic_conformal_2sp\00", align 1
@__FUNCTION__.proj_create_conversion_lambert_conic_conformal_2sp_michigan = private unnamed_addr constant [60 x i8] c"proj_create_conversion_lambert_conic_conformal_2sp_michigan\00", align 1
@__FUNCTION__.proj_create_conversion_lambert_conic_conformal_2sp_belgium = private unnamed_addr constant [59 x i8] c"proj_create_conversion_lambert_conic_conformal_2sp_belgium\00", align 1
@__FUNCTION__.proj_create_conversion_azimuthal_equidistant = private unnamed_addr constant [45 x i8] c"proj_create_conversion_azimuthal_equidistant\00", align 1
@__FUNCTION__.proj_create_conversion_guam_projection = private unnamed_addr constant [39 x i8] c"proj_create_conversion_guam_projection\00", align 1
@__FUNCTION__.proj_create_conversion_bonne = private unnamed_addr constant [29 x i8] c"proj_create_conversion_bonne\00", align 1
@__FUNCTION__.proj_create_conversion_lambert_cylindrical_equal_area_spherical = private unnamed_addr constant [64 x i8] c"proj_create_conversion_lambert_cylindrical_equal_area_spherical\00", align 1
@__FUNCTION__.proj_create_conversion_lambert_cylindrical_equal_area = private unnamed_addr constant [54 x i8] c"proj_create_conversion_lambert_cylindrical_equal_area\00", align 1
@__FUNCTION__.proj_create_conversion_cassini_soldner = private unnamed_addr constant [39 x i8] c"proj_create_conversion_cassini_soldner\00", align 1
@__FUNCTION__.proj_create_conversion_equidistant_conic = private unnamed_addr constant [41 x i8] c"proj_create_conversion_equidistant_conic\00", align 1
@__FUNCTION__.proj_create_conversion_eckert_i = private unnamed_addr constant [32 x i8] c"proj_create_conversion_eckert_i\00", align 1
@__FUNCTION__.proj_create_conversion_eckert_ii = private unnamed_addr constant [33 x i8] c"proj_create_conversion_eckert_ii\00", align 1
@__FUNCTION__.proj_create_conversion_eckert_iii = private unnamed_addr constant [34 x i8] c"proj_create_conversion_eckert_iii\00", align 1
@__FUNCTION__.proj_create_conversion_eckert_iv = private unnamed_addr constant [33 x i8] c"proj_create_conversion_eckert_iv\00", align 1
@__FUNCTION__.proj_create_conversion_eckert_v = private unnamed_addr constant [32 x i8] c"proj_create_conversion_eckert_v\00", align 1
@__FUNCTION__.proj_create_conversion_eckert_vi = private unnamed_addr constant [33 x i8] c"proj_create_conversion_eckert_vi\00", align 1
@__FUNCTION__.proj_create_conversion_equidistant_cylindrical = private unnamed_addr constant [47 x i8] c"proj_create_conversion_equidistant_cylindrical\00", align 1
@__FUNCTION__.proj_create_conversion_equidistant_cylindrical_spherical = private unnamed_addr constant [57 x i8] c"proj_create_conversion_equidistant_cylindrical_spherical\00", align 1
@__FUNCTION__.proj_create_conversion_gall = private unnamed_addr constant [28 x i8] c"proj_create_conversion_gall\00", align 1
@__FUNCTION__.proj_create_conversion_goode_homolosine = private unnamed_addr constant [40 x i8] c"proj_create_conversion_goode_homolosine\00", align 1
@__FUNCTION__.proj_create_conversion_interrupted_goode_homolosine = private unnamed_addr constant [52 x i8] c"proj_create_conversion_interrupted_goode_homolosine\00", align 1
@__FUNCTION__.proj_create_conversion_geostationary_satellite_sweep_x = private unnamed_addr constant [55 x i8] c"proj_create_conversion_geostationary_satellite_sweep_x\00", align 1
@__FUNCTION__.proj_create_conversion_geostationary_satellite_sweep_y = private unnamed_addr constant [55 x i8] c"proj_create_conversion_geostationary_satellite_sweep_y\00", align 1
@__FUNCTION__.proj_create_conversion_gnomonic = private unnamed_addr constant [32 x i8] c"proj_create_conversion_gnomonic\00", align 1
@__FUNCTION__.proj_create_conversion_hotine_oblique_mercator_variant_a = private unnamed_addr constant [57 x i8] c"proj_create_conversion_hotine_oblique_mercator_variant_a\00", align 1
@__FUNCTION__.proj_create_conversion_hotine_oblique_mercator_variant_b = private unnamed_addr constant [57 x i8] c"proj_create_conversion_hotine_oblique_mercator_variant_b\00", align 1
@__FUNCTION__.proj_create_conversion_hotine_oblique_mercator_two_point_natural_origin = private unnamed_addr constant [72 x i8] c"proj_create_conversion_hotine_oblique_mercator_two_point_natural_origin\00", align 1
@__FUNCTION__.proj_create_conversion_laborde_oblique_mercator = private unnamed_addr constant [48 x i8] c"proj_create_conversion_laborde_oblique_mercator\00", align 1
@__FUNCTION__.proj_create_conversion_international_map_world_polyconic = private unnamed_addr constant [57 x i8] c"proj_create_conversion_international_map_world_polyconic\00", align 1
@__FUNCTION__.proj_create_conversion_krovak_north_oriented = private unnamed_addr constant [45 x i8] c"proj_create_conversion_krovak_north_oriented\00", align 1
@__FUNCTION__.proj_create_conversion_krovak = private unnamed_addr constant [30 x i8] c"proj_create_conversion_krovak\00", align 1
@__FUNCTION__.proj_create_conversion_lambert_azimuthal_equal_area = private unnamed_addr constant [52 x i8] c"proj_create_conversion_lambert_azimuthal_equal_area\00", align 1
@__FUNCTION__.proj_create_conversion_miller_cylindrical = private unnamed_addr constant [42 x i8] c"proj_create_conversion_miller_cylindrical\00", align 1
@__FUNCTION__.proj_create_conversion_mercator_variant_a = private unnamed_addr constant [42 x i8] c"proj_create_conversion_mercator_variant_a\00", align 1
@__FUNCTION__.proj_create_conversion_mercator_variant_b = private unnamed_addr constant [42 x i8] c"proj_create_conversion_mercator_variant_b\00", align 1
@__FUNCTION__.proj_create_conversion_popular_visualisation_pseudo_mercator = private unnamed_addr constant [61 x i8] c"proj_create_conversion_popular_visualisation_pseudo_mercator\00", align 1
@__FUNCTION__.proj_create_conversion_mollweide = private unnamed_addr constant [33 x i8] c"proj_create_conversion_mollweide\00", align 1
@__FUNCTION__.proj_create_conversion_new_zealand_mapping_grid = private unnamed_addr constant [48 x i8] c"proj_create_conversion_new_zealand_mapping_grid\00", align 1
@__FUNCTION__.proj_create_conversion_oblique_stereographic = private unnamed_addr constant [45 x i8] c"proj_create_conversion_oblique_stereographic\00", align 1
@__FUNCTION__.proj_create_conversion_orthographic = private unnamed_addr constant [36 x i8] c"proj_create_conversion_orthographic\00", align 1
@__FUNCTION__.proj_create_conversion_local_orthographic = private unnamed_addr constant [42 x i8] c"proj_create_conversion_local_orthographic\00", align 1
@__FUNCTION__.proj_create_conversion_american_polyconic = private unnamed_addr constant [42 x i8] c"proj_create_conversion_american_polyconic\00", align 1
@__FUNCTION__.proj_create_conversion_polar_stereographic_variant_a = private unnamed_addr constant [53 x i8] c"proj_create_conversion_polar_stereographic_variant_a\00", align 1
@__FUNCTION__.proj_create_conversion_polar_stereographic_variant_b = private unnamed_addr constant [53 x i8] c"proj_create_conversion_polar_stereographic_variant_b\00", align 1
@__FUNCTION__.proj_create_conversion_robinson = private unnamed_addr constant [32 x i8] c"proj_create_conversion_robinson\00", align 1
@__FUNCTION__.proj_create_conversion_sinusoidal = private unnamed_addr constant [34 x i8] c"proj_create_conversion_sinusoidal\00", align 1
@__FUNCTION__.proj_create_conversion_stereographic = private unnamed_addr constant [37 x i8] c"proj_create_conversion_stereographic\00", align 1
@__FUNCTION__.proj_create_conversion_van_der_grinten = private unnamed_addr constant [39 x i8] c"proj_create_conversion_van_der_grinten\00", align 1
@__FUNCTION__.proj_create_conversion_wagner_i = private unnamed_addr constant [32 x i8] c"proj_create_conversion_wagner_i\00", align 1
@__FUNCTION__.proj_create_conversion_wagner_ii = private unnamed_addr constant [33 x i8] c"proj_create_conversion_wagner_ii\00", align 1
@__FUNCTION__.proj_create_conversion_wagner_iii = private unnamed_addr constant [34 x i8] c"proj_create_conversion_wagner_iii\00", align 1
@__FUNCTION__.proj_create_conversion_wagner_iv = private unnamed_addr constant [33 x i8] c"proj_create_conversion_wagner_iv\00", align 1
@__FUNCTION__.proj_create_conversion_wagner_v = private unnamed_addr constant [32 x i8] c"proj_create_conversion_wagner_v\00", align 1
@__FUNCTION__.proj_create_conversion_wagner_vi = private unnamed_addr constant [33 x i8] c"proj_create_conversion_wagner_vi\00", align 1
@__FUNCTION__.proj_create_conversion_wagner_vii = private unnamed_addr constant [34 x i8] c"proj_create_conversion_wagner_vii\00", align 1
@__FUNCTION__.proj_create_conversion_quadrilateralized_spherical_cube = private unnamed_addr constant [56 x i8] c"proj_create_conversion_quadrilateralized_spherical_cube\00", align 1
@__FUNCTION__.proj_create_conversion_spherical_cross_track_height = private unnamed_addr constant [52 x i8] c"proj_create_conversion_spherical_cross_track_height\00", align 1
@__FUNCTION__.proj_create_conversion_equal_earth = private unnamed_addr constant [35 x i8] c"proj_create_conversion_equal_earth\00", align 1
@__FUNCTION__.proj_create_conversion_vertical_perspective = private unnamed_addr constant [44 x i8] c"proj_create_conversion_vertical_perspective\00", align 1
@__FUNCTION__.proj_create_conversion_pole_rotation_grib_convention = private unnamed_addr constant [53 x i8] c"proj_create_conversion_pole_rotation_grib_convention\00", align 1
@__FUNCTION__.proj_create_conversion_pole_rotation_netcdf_cf_convention = private unnamed_addr constant [58 x i8] c"proj_create_conversion_pole_rotation_netcdf_cf_convention\00", align 1
@__FUNCTION__.proj_coordoperation_is_instantiable = private unnamed_addr constant [36 x i8] c"proj_coordoperation_is_instantiable\00", align 1
@.str.66 = private unnamed_addr constant [36 x i8] c"Object is not a CoordinateOperation\00", align 1
@__FUNCTION__.proj_coordoperation_has_ballpark_transformation = private unnamed_addr constant [48 x i8] c"proj_coordoperation_has_ballpark_transformation\00", align 1
@__FUNCTION__.proj_coordoperation_requires_per_coordinate_input_time = private unnamed_addr constant [55 x i8] c"proj_coordoperation_requires_per_coordinate_input_time\00", align 1
@__FUNCTION__.proj_coordoperation_get_param_count = private unnamed_addr constant [36 x i8] c"proj_coordoperation_get_param_count\00", align 1
@.str.67 = private unnamed_addr constant [32 x i8] c"Object is not a SingleOperation\00", align 1
@__FUNCTION__.proj_coordoperation_get_param_index = private unnamed_addr constant [36 x i8] c"proj_coordoperation_get_param_index\00", align 1
@__FUNCTION__.proj_coordoperation_get_param = private unnamed_addr constant [30 x i8] c"proj_coordoperation_get_param\00", align 1
@.str.68 = private unnamed_addr constant [14 x i8] c"Invalid index\00", align 1
@_ZTVN5osgeo4proj9operation23OperationParameterValueE = external unnamed_addr constant { [8 x ptr], [5 x ptr], [5 x ptr], [5 x ptr] }, align 8
@__FUNCTION__.proj_coordoperation_get_towgs84_values = private unnamed_addr constant [39 x i8] c"proj_coordoperation_get_towgs84_values\00", align 1
@_ZTIN5osgeo4proj9operation14TransformationE = external constant ptr
@.str.69 = private unnamed_addr constant [31 x i8] c"Object is not a Transformation\00", align 1
@.str.70 = private unnamed_addr constant [62 x i8] c"Transformation cannot be formatted as WKT1 TOWGS84 parameters\00", align 1
@__FUNCTION__.proj_coordoperation_get_grid_used_count = private unnamed_addr constant [40 x i8] c"proj_coordoperation_get_grid_used_count\00", align 1
@__FUNCTION__.proj_coordoperation_get_grid_used = private unnamed_addr constant [34 x i8] c"proj_coordoperation_get_grid_used\00", align 1
@__FUNCTION__.proj_create_operation_factory_context = private unnamed_addr constant [38 x i8] c"proj_create_operation_factory_context\00", align 1
@__FUNCTION__.proj_operation_factory_context_set_desired_accuracy = private unnamed_addr constant [52 x i8] c"proj_operation_factory_context_set_desired_accuracy\00", align 1
@__FUNCTION__.proj_operation_factory_context_set_area_of_interest = private unnamed_addr constant [52 x i8] c"proj_operation_factory_context_set_area_of_interest\00", align 1
@__FUNCTION__.proj_operation_factory_context_set_area_of_interest_name = private unnamed_addr constant [57 x i8] c"proj_operation_factory_context_set_area_of_interest_name\00", align 1
@.str.71 = private unnamed_addr constant [17 x i8] c"cannot find area\00", align 1
@__FUNCTION__.proj_operation_factory_context_set_crs_extent_use = private unnamed_addr constant [50 x i8] c"proj_operation_factory_context_set_crs_extent_use\00", align 1
@__FUNCTION__.proj_operation_factory_context_set_spatial_criterion = private unnamed_addr constant [53 x i8] c"proj_operation_factory_context_set_spatial_criterion\00", align 1
@__FUNCTION__.proj_operation_factory_context_set_grid_availability_use = private unnamed_addr constant [57 x i8] c"proj_operation_factory_context_set_grid_availability_use\00", align 1
@__FUNCTION__.proj_operation_factory_context_set_use_proj_alternative_grid_names = private unnamed_addr constant [67 x i8] c"proj_operation_factory_context_set_use_proj_alternative_grid_names\00", align 1
@__FUNCTION__.proj_operation_factory_context_set_allow_use_intermediate_crs = private unnamed_addr constant [62 x i8] c"proj_operation_factory_context_set_allow_use_intermediate_crs\00", align 1
@__FUNCTION__.proj_operation_factory_context_set_allowed_intermediate_crs = private unnamed_addr constant [60 x i8] c"proj_operation_factory_context_set_allowed_intermediate_crs\00", align 1
@__FUNCTION__.proj_operation_factory_context_set_discard_superseded = private unnamed_addr constant [54 x i8] c"proj_operation_factory_context_set_discard_superseded\00", align 1
@__FUNCTION__.proj_operation_factory_context_set_allow_ballpark_transformations = private unnamed_addr constant [66 x i8] c"proj_operation_factory_context_set_allow_ballpark_transformations\00", align 1
@_ZTV17PJ_OPERATION_LIST = hidden unnamed_addr constant { [4 x ptr] } { [4 x ptr] [ptr null, ptr @_ZTI17PJ_OPERATION_LIST, ptr @_ZN17PJ_OPERATION_LISTD2Ev, ptr @_ZN17PJ_OPERATION_LISTD0Ev] }, align 8
@__FUNCTION__.proj_create_operations = private unnamed_addr constant [23 x i8] c"proj_create_operations\00", align 1
@.str.72 = private unnamed_addr constant [48 x i8] c"source_crs is not a CRS or a CoordinateMetadata\00", align 1
@.str.73 = private unnamed_addr constant [48 x i8] c"target_crs is not a CRS or a CoordinateMetadata\00", align 1
@_ZTI11PJ_OBJ_LIST = hidden constant { ptr, ptr } { ptr getelementptr inbounds (ptr, ptr @_ZTVN10__cxxabiv117__class_type_infoE, i64 2), ptr @_ZTS11PJ_OBJ_LIST }, align 8
@_ZTVN10__cxxabiv117__class_type_infoE = external global [0 x ptr]
@_ZTS11PJ_OBJ_LIST = hidden constant [14 x i8] c"11PJ_OBJ_LIST\00", align 1
@_ZTI17PJ_OPERATION_LIST = hidden constant { ptr, ptr, ptr } { ptr getelementptr inbounds (ptr, ptr @_ZTVN10__cxxabiv120__si_class_type_infoE, i64 2), ptr @_ZTS17PJ_OPERATION_LIST, ptr @_ZTI11PJ_OBJ_LIST }, align 8
@_ZTVN10__cxxabiv120__si_class_type_infoE = external global [0 x ptr]
@_ZTS17PJ_OPERATION_LIST = hidden constant [20 x i8] c"17PJ_OPERATION_LIST\00", align 1
@__FUNCTION__.proj_get_suggested_operation = private unnamed_addr constant [29 x i8] c"proj_get_suggested_operation\00", align 1
@.str.74 = private unnamed_addr constant [39 x i8] c"operations is not a list of operations\00", align 1
@__FUNCTION__.proj_list_get = private unnamed_addr constant [14 x i8] c"proj_list_get\00", align 1
@__FUNCTION__.proj_coordoperation_get_accuracy = private unnamed_addr constant [33 x i8] c"proj_coordoperation_get_accuracy\00", align 1
@__FUNCTION__.proj_crs_get_datum = private unnamed_addr constant [19 x i8] c"proj_crs_get_datum\00", align 1
@_ZTIN5osgeo4proj3crs9SingleCRSE = external constant ptr
@.str.75 = private unnamed_addr constant [26 x i8] c"Object is not a SingleCRS\00", align 1
@__FUNCTION__.proj_crs_get_datum_ensemble = private unnamed_addr constant [28 x i8] c"proj_crs_get_datum_ensemble\00", align 1
@__FUNCTION__.proj_datum_ensemble_get_member_count = private unnamed_addr constant [37 x i8] c"proj_datum_ensemble_get_member_count\00", align 1
@.str.76 = private unnamed_addr constant [30 x i8] c"Object is not a DatumEnsemble\00", align 1
@__FUNCTION__.proj_datum_ensemble_get_accuracy = private unnamed_addr constant [33 x i8] c"proj_datum_ensemble_get_accuracy\00", align 1
@__FUNCTION__.proj_datum_ensemble_get_member = private unnamed_addr constant [31 x i8] c"proj_datum_ensemble_get_member\00", align 1
@.str.77 = private unnamed_addr constant [21 x i8] c"Invalid member_index\00", align 1
@__FUNCTION__.proj_crs_get_datum_forced = private unnamed_addr constant [26 x i8] c"proj_crs_get_datum_forced\00", align 1
@__FUNCTION__.proj_dynamic_datum_get_frame_reference_epoch = private unnamed_addr constant [45 x i8] c"proj_dynamic_datum_get_frame_reference_epoch\00", align 1
@_ZTVN5osgeo4proj5datum29DynamicGeodeticReferenceFrameE = external unnamed_addr constant { [8 x ptr], [5 x ptr], [5 x ptr], [5 x ptr] }, align 8
@_ZTVN5osgeo4proj5datum29DynamicVerticalReferenceFrameE = external unnamed_addr constant { [8 x ptr], [5 x ptr], [5 x ptr], [5 x ptr] }, align 8
@.str.78 = private unnamed_addr constant [79 x i8] c"Object is not a DynamicGeodeticReferenceFrame or DynamicVerticalReferenceFrame\00", align 1
@__FUNCTION__.proj_crs_get_coordinate_system = private unnamed_addr constant [31 x i8] c"proj_crs_get_coordinate_system\00", align 1
@__FUNCTION__.proj_cs_get_type = private unnamed_addr constant [17 x i8] c"proj_cs_get_type\00", align 1
@_ZTIN5osgeo4proj2cs16CoordinateSystemE = external constant ptr
@.str.79 = private unnamed_addr constant [33 x i8] c"Object is not a CoordinateSystem\00", align 1
@_ZTVN5osgeo4proj2cs11CartesianCSE = external unnamed_addr constant { [9 x ptr], [5 x ptr], [5 x ptr], [5 x ptr] }, align 8
@_ZTVN5osgeo4proj2cs13EllipsoidalCSE = external unnamed_addr constant { [9 x ptr], [5 x ptr], [5 x ptr], [5 x ptr] }, align 8
@_ZTVN5osgeo4proj2cs10VerticalCSE = external unnamed_addr constant { [9 x ptr], [5 x ptr], [5 x ptr], [5 x ptr] }, align 8
@_ZTVN5osgeo4proj2cs11SphericalCSE = external unnamed_addr constant { [9 x ptr], [5 x ptr], [5 x ptr], [5 x ptr] }, align 8
@_ZTVN5osgeo4proj2cs9OrdinalCSE = external unnamed_addr constant { [9 x ptr], [5 x ptr], [5 x ptr], [5 x ptr] }, align 8
@_ZTVN5osgeo4proj2cs12ParametricCSE = external unnamed_addr constant { [9 x ptr], [5 x ptr], [5 x ptr], [5 x ptr] }, align 8
@_ZTVN5osgeo4proj2cs18DateTimeTemporalCSE = external unnamed_addr constant { [9 x ptr], [5 x ptr], [5 x ptr], [5 x ptr] }, align 8
@_ZTVN5osgeo4proj2cs15TemporalCountCSE = external unnamed_addr constant { [9 x ptr], [5 x ptr], [5 x ptr], [5 x ptr] }, align 8
@_ZTVN5osgeo4proj2cs17TemporalMeasureCSE = external unnamed_addr constant { [9 x ptr], [5 x ptr], [5 x ptr], [5 x ptr] }, align 8
@__FUNCTION__.proj_cs_get_axis_count = private unnamed_addr constant [23 x i8] c"proj_cs_get_axis_count\00", align 1
@__FUNCTION__.proj_cs_get_axis_info = private unnamed_addr constant [22 x i8] c"proj_cs_get_axis_info\00", align 1
@__FUNCTION__.proj_normalize_for_visualization = private unnamed_addr constant [33 x i8] c"proj_normalize_for_visualization\00", align 1
@.str.80 = private unnamed_addr constant [72 x i8] c"Object is not a CoordinateOperation created with proj_create_crs_to_crs\00", align 1
@__FUNCTION__.proj_coordoperation_create_inverse = private unnamed_addr constant [35 x i8] c"proj_coordoperation_create_inverse\00", align 1
@__FUNCTION__.proj_concatoperation_get_step_count = private unnamed_addr constant [36 x i8] c"proj_concatoperation_get_step_count\00", align 1
@_ZTVN5osgeo4proj9operation21ConcatenatedOperationE = external unnamed_addr constant { [12 x ptr], [5 x ptr], [5 x ptr], [5 x ptr], [5 x ptr] }, align 8
@.str.81 = private unnamed_addr constant [38 x i8] c"Object is not a ConcatenatedOperation\00", align 1
@__FUNCTION__.proj_concatoperation_get_step = private unnamed_addr constant [30 x i8] c"proj_concatoperation_get_step\00", align 1
@.str.82 = private unnamed_addr constant [19 x i8] c"Invalid step index\00", align 1
@__FUNCTION__.proj_insert_object_session_create = private unnamed_addr constant [34 x i8] c"proj_insert_object_session_create\00", align 1
@__FUNCTION__.proj_insert_object_session_destroy = private unnamed_addr constant [35 x i8] c"proj_insert_object_session_destroy\00", align 1
@.str.83 = private unnamed_addr constant [121 x i8] c"proj_insert_object_session_destroy() called with a context different from the one of proj_insert_object_session_create()\00", align 1
@__FUNCTION__.proj_suggests_code_for = private unnamed_addr constant [23 x i8] c"proj_suggests_code_for\00", align 1
@.str.84 = private unnamed_addr constant [33 x i8] c"Object is not a IdentifiedObject\00", align 1
@__FUNCTION__.proj_get_insert_statements = private unnamed_addr constant [27 x i8] c"proj_get_insert_statements\00", align 1
@__FUNCTION__.proj_get_geoid_models_from_database = private unnamed_addr constant [36 x i8] c"proj_get_geoid_models_from_database\00", align 1
@__FUNCTION__.proj_coordinate_metadata_create = private unnamed_addr constant [32 x i8] c"proj_coordinate_metadata_create\00", align 1
@__FUNCTION__.proj_coordinate_metadata_get_epoch = private unnamed_addr constant [35 x i8] c"proj_coordinate_metadata_get_epoch\00", align 1
@.str.87 = private unnamed_addr constant [35 x i8] c"Object is not a CoordinateMetadata\00", align 1
@__FUNCTION__.proj_crs_has_point_motion_operation = private unnamed_addr constant [36 x i8] c"proj_crs_has_point_motion_operation\00", align 1
@__libc_single_threaded = external local_unnamed_addr global i8, align 1
@.str.88 = private unnamed_addr constant [8 x i8] c"unknown\00", align 1
@.str.89 = private unnamed_addr constant [5 x i8] c"none\00", align 1
@.str.90 = private unnamed_addr constant [6 x i8] c" per \00", align 1
@.str.91 = private unnamed_addr constant [17 x i8] c"angular_per_time\00", align 1
@.str.92 = private unnamed_addr constant [8 x i8] c"angular\00", align 1
@.str.93 = private unnamed_addr constant [16 x i8] c"linear_per_time\00", align 1
@.str.94 = private unnamed_addr constant [7 x i8] c"linear\00", align 1
@.str.95 = private unnamed_addr constant [10 x i8] c" per year\00", align 1
@.str.96 = private unnamed_addr constant [12 x i8] c" per second\00", align 1
@.str.97 = private unnamed_addr constant [15 x i8] c"scale_per_time\00", align 1
@.str.98 = private unnamed_addr constant [6 x i8] c"scale\00", align 1
@.str.99 = private unnamed_addr constant [5 x i8] c"time\00", align 1
@.str.100 = private unnamed_addr constant [20 x i8] c"parametric_per_time\00", align 1
@.str.101 = private unnamed_addr constant [11 x i8] c"parametric\00", align 1
@_ZTVN5osgeo4proj5datum13TemporalDatumE = external unnamed_addr constant { [8 x ptr], [5 x ptr], [5 x ptr], [5 x ptr] }, align 8
@_ZTVN5osgeo4proj5datum16EngineeringDatumE = external unnamed_addr constant { [8 x ptr], [5 x ptr], [5 x ptr], [5 x ptr] }, align 8
@_ZTVN5osgeo4proj5datum15ParametricDatumE = external unnamed_addr constant { [8 x ptr], [5 x ptr], [5 x ptr], [5 x ptr] }, align 8
@_ZTIN5osgeo4proj3crs11GeodeticCRSE = external constant ptr
@_ZTIN5osgeo4proj3crs11VerticalCRSE = external constant ptr
@_ZTVN5osgeo4proj3crs19DerivedProjectedCRSE = external unnamed_addr constant { [10 x ptr], [15 x ptr], [5 x ptr], [5 x ptr], [5 x ptr] }, align 8
@_ZTIN5osgeo4proj3crs11TemporalCRSE = external constant ptr
@_ZTIN5osgeo4proj3crs14EngineeringCRSE = external constant ptr
@__FUNCTION__._ZL30proj_is_equivalent_to_internalP6pj_ctxPK8PJconstsS3_23PJ_COMPARISON_CRITERION = private unnamed_addr constant [31 x i8] c"proj_is_equivalent_to_internal\00", align 1
@.str.102 = private unnamed_addr constant [31 x i8] c"proj_is_equivalent_to_with_ctx\00", align 1
@.str.103 = private unnamed_addr constant [24 x i8] c"CRS has no geodetic CRS\00", align 1
@__FUNCTION__._ZL28createGeodeticReferenceFrameP6pj_ctxPKcS2_ddS2_dS2_d = private unnamed_addr constant [29 x i8] c"createGeodeticReferenceFrame\00", align 1
@_ZN5osgeo4proj5datum13PrimeMeridian9GREENWICHE = external local_unnamed_addr global %"class.dropbox::oxygen::nn.206", align 8
@_ZN5osgeo4proj5datum13PrimeMeridian18REFERENCE_MERIDIANE = external local_unnamed_addr global %"class.dropbox::oxygen::nn.206", align 8
@.str.104 = private unnamed_addr constant [9 x i8] c"WGS_1984\00", align 1
@_ZN5osgeo4proj5datum22GeodeticReferenceFrame9EPSG_6326E = external local_unnamed_addr global %"class.dropbox::oxygen::nn.439", align 8
@.str.105 = private unnamed_addr constant [15 x i8] c"geodetic_datum\00", align 1
@.str.107 = private unnamed_addr constant [14 x i8] c" (deprecated)\00", align 1
@_ZN5osgeo4proj6common16IdentifiedObject14DEPRECATED_KEYB5cxx11E = external global %"class.std::__cxx11::basic_string", align 8
@_ZN5osgeo4proj8metadata10Identifier13CODESPACE_KEYB5cxx11E = external global %"class.std::__cxx11::basic_string", align 8
@_ZN5osgeo4proj8metadata10Identifier8CODE_KEYB5cxx11E = external global %"class.std::__cxx11::basic_string", align 8
@.str.108 = private unnamed_addr constant [7 x i8] c"degree\00", align 1
@_ZN5osgeo4proj6common13UnitOfMeasure6DEGREEE = external global %"class.osgeo::proj::common::UnitOfMeasure", align 8
@.str.109 = private unnamed_addr constant [5 x i8] c"grad\00", align 1
@_ZN5osgeo4proj6common13UnitOfMeasure4GRADE = external global %"class.osgeo::proj::common::UnitOfMeasure", align 8
@.str.110 = private unnamed_addr constant [26 x i8] c"vector::_M_realloc_append\00", align 1
@.str.111 = private unnamed_addr constant [33 x i8] c"invalid value for axis direction\00", align 1
@_ZTIN5osgeo4proj4util9ExceptionE = external constant ptr
@.str.112 = private unnamed_addr constant [50 x i8] c"basic_string: construction from null is not valid\00", align 1
@.str.113 = private unnamed_addr constant [21 x i8] c"basic_string::append\00", align 1

@_ZN14projCppContextC1EP6pj_ctxPKcRKSt6vectorINSt7__cxx1112basic_stringIcSt11char_traitsIcESaIcEEESaISA_EE = unnamed_addr alias void (ptr, ptr, ptr, ptr), ptr @_ZN14projCppContextC2EP6pj_ctxPKcRKSt6vectorINSt7__cxx1112basic_stringIcSt11char_traitsIcESaIcEEESaISA_EE
@_ZN11PJ_OBJ_LISTD1Ev = hidden unnamed_addr alias void (ptr), ptr @_ZN11PJ_OBJ_LISTD2Ev
@_ZN17PJ_OPERATION_LISTC1EP6pj_ctxPK8PJconstsS4_OSt6vectorIN7dropbox6oxygen2nnISt10shared_ptrIN5osgeo4proj6common16IdentifiedObjectEEEESaISF_EE = hidden unnamed_addr alias void (ptr, ptr, ptr, ptr, ptr), ptr @_ZN17PJ_OPERATION_LISTC2EP6pj_ctxPK8PJconstsS4_OSt6vectorIN7dropbox6oxygen2nnISt10shared_ptrIN5osgeo4proj6common16IdentifiedObjectEEEESaISF_EE
@_ZN17PJ_OPERATION_LISTD1Ev = hidden unnamed_addr alias void (ptr), ptr @_ZN17PJ_OPERATION_LISTD2Ev

; Function Attrs: mustprogress nounwind sspstrong uwtable
define void @_Z31proj_context_delete_cpp_contextP14projCppContext(ptr noundef %0) local_unnamed_addr #0 {
  %2 = icmp eq ptr %0, null
  br i1 %2, label %4, label %3

3:                                                ; preds = %1
  tail call void @_ZN14projCppContextD2Ev(ptr noundef nonnull align 8 dereferenceable(272) %0) #36
  tail call void @_ZdlPvm(ptr noundef nonnull %0, i64 noundef 272) #37
  br label %4

4:                                                ; preds = %3, %1
  ret void
}

; Function Attrs: inlinehint mustprogress nounwind sspstrong uwtable
define linkonce_odr void @_ZN14projCppContextD2Ev(ptr noundef nonnull align 8 dereferenceable(272) %0) unnamed_addr #1 comdat align 2 personality ptr @__gxx_personality_v0 {
  %2 = getelementptr inbounds nuw i8, ptr %0, i64 240
  %3 = load ptr, ptr %2, align 8, !tbaa !4
  %4 = getelementptr inbounds nuw i8, ptr %0, i64 256
  %5 = icmp eq ptr %3, %4
  br i1 %5, label %6, label %10

6:                                                ; preds = %1
  %7 = getelementptr inbounds nuw i8, ptr %0, i64 248
  %8 = load i64, ptr %7, align 8, !tbaa !12
  %9 = icmp ult i64 %8, 16
  tail call void @llvm.assume(i1 %9)
  br label %13

10:                                               ; preds = %1
  %11 = load i64, ptr %4, align 8, !tbaa !13
  %12 = add i64 %11, 1
  tail call void @_ZdlPvm(ptr noundef %3, i64 noundef %12) #37
  br label %13

13:                                               ; preds = %10, %6
  %14 = getelementptr inbounds nuw i8, ptr %0, i64 208
  %15 = load ptr, ptr %14, align 8, !tbaa !4
  %16 = getelementptr inbounds nuw i8, ptr %0, i64 224
  %17 = icmp eq ptr %15, %16
  br i1 %17, label %18, label %22

18:                                               ; preds = %13
  %19 = getelementptr inbounds nuw i8, ptr %0, i64 216
  %20 = load i64, ptr %19, align 8, !tbaa !12
  %21 = icmp ult i64 %20, 16
  tail call void @llvm.assume(i1 %21)
  br label %25

22:                                               ; preds = %13
  %23 = load i64, ptr %16, align 8, !tbaa !13
  %24 = add i64 %23, 1
  tail call void @_ZdlPvm(ptr noundef %15, i64 noundef %24) #37
  br label %25

25:                                               ; preds = %22, %18
  %26 = getelementptr inbounds nuw i8, ptr %0, i64 176
  %27 = load ptr, ptr %26, align 8, !tbaa !4
  %28 = getelementptr inbounds nuw i8, ptr %0, i64 192
  %29 = icmp eq ptr %27, %28
  br i1 %29, label %30, label %34

30:                                               ; preds = %25
  %31 = getelementptr inbounds nuw i8, ptr %0, i64 184
  %32 = load i64, ptr %31, align 8, !tbaa !12
  %33 = icmp ult i64 %32, 16
  tail call void @llvm.assume(i1 %33)
  br label %37

34:                                               ; preds = %25
  %35 = load i64, ptr %28, align 8, !tbaa !13
  %36 = add i64 %35, 1
  tail call void @_ZdlPvm(ptr noundef %27, i64 noundef %36) #37
  br label %37

37:                                               ; preds = %34, %30
  %38 = getelementptr inbounds nuw i8, ptr %0, i64 144
  %39 = load ptr, ptr %38, align 8, !tbaa !4
  %40 = getelementptr inbounds nuw i8, ptr %0, i64 160
  %41 = icmp eq ptr %39, %40
  br i1 %41, label %42, label %46

42:                                               ; preds = %37
  %43 = getelementptr inbounds nuw i8, ptr %0, i64 152
  %44 = load i64, ptr %43, align 8, !tbaa !12
  %45 = icmp ult i64 %44, 16
  tail call void @llvm.assume(i1 %45)
  br label %49

46:                                               ; preds = %37
  %47 = load i64, ptr %40, align 8, !tbaa !13
  %48 = add i64 %47, 1
  tail call void @_ZdlPvm(ptr noundef %39, i64 noundef %48) #37
  br label %49

49:                                               ; preds = %46, %42
  %50 = getelementptr inbounds nuw i8, ptr %0, i64 112
  %51 = load ptr, ptr %50, align 8, !tbaa !4
  %52 = getelementptr inbounds nuw i8, ptr %0, i64 128
  %53 = icmp eq ptr %51, %52
  br i1 %53, label %54, label %58

54:                                               ; preds = %49
  %55 = getelementptr inbounds nuw i8, ptr %0, i64 120
  %56 = load i64, ptr %55, align 8, !tbaa !12
  %57 = icmp ult i64 %56, 16
  tail call void @llvm.assume(i1 %57)
  br label %61

58:                                               ; preds = %49
  %59 = load i64, ptr %52, align 8, !tbaa !13
  %60 = add i64 %59, 1
  tail call void @_ZdlPvm(ptr noundef %51, i64 noundef %60) #37
  br label %61

61:                                               ; preds = %58, %54
  %62 = getelementptr inbounds nuw i8, ptr %0, i64 80
  %63 = load ptr, ptr %62, align 8, !tbaa !4
  %64 = getelementptr inbounds nuw i8, ptr %0, i64 96
  %65 = icmp eq ptr %63, %64
  br i1 %65, label %66, label %70

66:                                               ; preds = %61
  %67 = getelementptr inbounds nuw i8, ptr %0, i64 88
  %68 = load i64, ptr %67, align 8, !tbaa !12
  %69 = icmp ult i64 %68, 16
  tail call void @llvm.assume(i1 %69)
  br label %73

70:                                               ; preds = %61
  %71 = load i64, ptr %64, align 8, !tbaa !13
  %72 = add i64 %71, 1
  tail call void @_ZdlPvm(ptr noundef %63, i64 noundef %72) #37
  br label %73

73:                                               ; preds = %70, %66
  %74 = getelementptr inbounds nuw i8, ptr %0, i64 56
  %75 = load ptr, ptr %74, align 8, !tbaa !14
  %76 = getelementptr inbounds nuw i8, ptr %0, i64 64
  %77 = load ptr, ptr %76, align 8, !tbaa !17
  %78 = icmp eq ptr %75, %77
  br i1 %78, label %96, label %79

79:                                               ; preds = %91, %73
  %80 = phi ptr [ %92, %91 ], [ %75, %73 ]
  %81 = load ptr, ptr %80, align 8, !tbaa !4
  %82 = getelementptr inbounds nuw i8, ptr %80, i64 16
  %83 = icmp eq ptr %81, %82
  br i1 %83, label %84, label %88

84:                                               ; preds = %79
  %85 = getelementptr inbounds nuw i8, ptr %80, i64 8
  %86 = load i64, ptr %85, align 8, !tbaa !12
  %87 = icmp ult i64 %86, 16
  tail call void @llvm.assume(i1 %87)
  br label %91

88:                                               ; preds = %79
  %89 = load i64, ptr %82, align 8, !tbaa !13
  %90 = add i64 %89, 1
  tail call void @_ZdlPvm(ptr noundef %81, i64 noundef %90) #37
  br label %91

91:                                               ; preds = %88, %84
  %92 = getelementptr inbounds nuw i8, ptr %80, i64 32
  %93 = icmp eq ptr %92, %77
  br i1 %93, label %94, label %79, !llvm.loop !18

94:                                               ; preds = %91
  %95 = load ptr, ptr %74, align 8, !tbaa !14
  br label %96

96:                                               ; preds = %94, %73
  %97 = phi ptr [ %95, %94 ], [ %75, %73 ]
  %98 = icmp eq ptr %97, null
  br i1 %98, label %105, label %99

99:                                               ; preds = %96
  %100 = getelementptr inbounds nuw i8, ptr %0, i64 72
  %101 = load ptr, ptr %100, align 8, !tbaa !20
  %102 = ptrtoint ptr %101 to i64
  %103 = ptrtoint ptr %97 to i64
  %104 = sub i64 %102, %103
  tail call void @_ZdlPvm(ptr noundef nonnull %97, i64 noundef %104) #37
  br label %105

105:                                              ; preds = %99, %96
  %106 = getelementptr inbounds nuw i8, ptr %0, i64 24
  %107 = load ptr, ptr %106, align 8, !tbaa !4
  %108 = getelementptr inbounds nuw i8, ptr %0, i64 40
  %109 = icmp eq ptr %107, %108
  br i1 %109, label %110, label %114

110:                                              ; preds = %105
  %111 = getelementptr inbounds nuw i8, ptr %0, i64 32
  %112 = load i64, ptr %111, align 8, !tbaa !12
  %113 = icmp ult i64 %112, 16
  tail call void @llvm.assume(i1 %113)
  br label %117

114:                                              ; preds = %105
  %115 = load i64, ptr %108, align 8, !tbaa !13
  %116 = add i64 %115, 1
  tail call void @_ZdlPvm(ptr noundef %107, i64 noundef %116) #37
  br label %117

117:                                              ; preds = %114, %110
  %118 = getelementptr inbounds nuw i8, ptr %0, i64 8
  %119 = load ptr, ptr %118, align 8, !tbaa !21
  %120 = icmp eq ptr %119, null
  br i1 %120, label %145, label %121

121:                                              ; preds = %117
  %122 = getelementptr inbounds nuw i8, ptr %119, i64 8
  %123 = load atomic i64, ptr %122 acquire, align 8
  %124 = icmp eq i64 %123, 4294967297
  %125 = trunc i64 %123 to i32
  br i1 %124, label %126, label %134

126:                                              ; preds = %121
  store i32 0, ptr %122, align 8, !tbaa !24
  %127 = getelementptr inbounds nuw i8, ptr %119, i64 12
  store i32 0, ptr %127, align 4, !tbaa !27
  %128 = load ptr, ptr %119, align 8, !tbaa !28
  %129 = getelementptr inbounds nuw i8, ptr %128, i64 16
  %130 = load ptr, ptr %129, align 8
  tail call void %130(ptr noundef nonnull align 8 dereferenceable(16) %119) #36
  %131 = load ptr, ptr %119, align 8, !tbaa !28
  %132 = getelementptr inbounds nuw i8, ptr %131, i64 24
  %133 = load ptr, ptr %132, align 8
  tail call void %133(ptr noundef nonnull align 8 dereferenceable(16) %119) #36
  br label %145

134:                                              ; preds = %121
  %135 = load i8, ptr @__libc_single_threaded, align 1, !tbaa !13
  %136 = icmp eq i8 %135, 0
  br i1 %136, label %139, label %137

137:                                              ; preds = %134
  %138 = add nsw i32 %125, -1
  store i32 %138, ptr %122, align 4, !tbaa !30
  br label %141

139:                                              ; preds = %134
  %140 = atomicrmw volatile add ptr %122, i32 -1 acq_rel, align 4
  br label %141

141:                                              ; preds = %139, %137
  %142 = phi i32 [ %125, %137 ], [ %140, %139 ]
  %143 = icmp eq i32 %142, 1
  br i1 %143, label %144, label %145, !prof !31

144:                                              ; preds = %141
  tail call void @_ZNSt16_Sp_counted_baseILN9__gnu_cxx12_Lock_policyE2EE24_M_release_last_use_coldEv(ptr noundef nonnull align 8 dereferenceable(16) %119) #36
  br label %145

145:                                              ; preds = %144, %141, %126, %117
  ret void
}

; Function Attrs: nobuiltin nounwind
declare void @_ZdlPvm(ptr noundef, i64 noundef) local_unnamed_addr #2

; Function Attrs: mustprogress sspstrong uwtable
define void @_ZN14projCppContextC2EP6pj_ctxPKcRKSt6vectorINSt7__cxx1112basic_stringIcSt11char_traitsIcESaIcEEESaISA_EE(ptr noundef nonnull align 8 dereferenceable(272) initializes((0, 24)) %0, ptr noundef %1, ptr noundef readonly captures(address_is_null) %2, ptr noundef nonnull align 8 dereferenceable(24) %3) unnamed_addr #3 align 2 personality ptr @__gxx_personality_v0 {
  %5 = alloca i64, align 8
  tail call void @llvm.memset.p0.i64(ptr noundef nonnull align 8 dereferenceable(16) %0, i8 0, i64 16, i1 false)
  %6 = getelementptr inbounds nuw i8, ptr %0, i64 16
  store ptr %1, ptr %6, align 8, !tbaa !32
  %7 = getelementptr inbounds nuw i8, ptr %0, i64 24
  %8 = icmp eq ptr %2, null
  %9 = getelementptr inbounds nuw i8, ptr %0, i64 40
  store ptr %9, ptr %7, align 8, !tbaa !41
  br i1 %8, label %22, label %10

10:                                               ; preds = %4
  %11 = tail call noundef i64 @strlen(ptr noundef nonnull dereferenceable(1) %2) #36
  call void @llvm.lifetime.start.p0(ptr %5)
  store i64 %11, ptr %5, align 8, !tbaa !42
  %12 = icmp ugt i64 %11, 15
  br i1 %12, label %13, label %17

13:                                               ; preds = %10
  %14 = invoke noundef ptr @_ZNSt7__cxx1112basic_stringIcSt11char_traitsIcESaIcEE9_M_createERmm(ptr noundef nonnull align 8 dereferenceable(32) %7, ptr noundef nonnull align 8 dereferenceable(8) %5, i64 noundef 0)
          to label %15 unwind label %50

15:                                               ; preds = %13
  store ptr %14, ptr %7, align 8, !tbaa !4
  %16 = load i64, ptr %5, align 8, !tbaa !42
  store i64 %16, ptr %9, align 8, !tbaa !13
  br label %17

17:                                               ; preds = %15, %10
  %18 = phi ptr [ %14, %15 ], [ %9, %10 ]
  switch i64 %11, label %21 [
    i64 1, label %19
    i64 0, label %24
  ]

19:                                               ; preds = %17
  %20 = load i8, ptr %2, align 1, !tbaa !13
  store i8 %20, ptr %18, align 1, !tbaa !13
  br label %24

21:                                               ; preds = %17
  call void @llvm.memcpy.p0.p0.i64(ptr align 1 %18, ptr nonnull align 1 %2, i64 %11, i1 false)
  br label %24

22:                                               ; preds = %4
  %23 = getelementptr inbounds nuw i8, ptr %0, i64 32
  store i64 0, ptr %23, align 8, !tbaa !12
  store i8 0, ptr %9, align 8, !tbaa !13
  br label %29

24:                                               ; preds = %21, %19, %17
  %25 = load i64, ptr %5, align 8, !tbaa !42
  %26 = getelementptr inbounds nuw i8, ptr %0, i64 32
  store i64 %25, ptr %26, align 8, !tbaa !12
  %27 = load ptr, ptr %7, align 8, !tbaa !4
  %28 = getelementptr inbounds nuw i8, ptr %27, i64 %25
  store i8 0, ptr %28, align 1, !tbaa !13
  call void @llvm.lifetime.end.p0(ptr %5)
  br label %29

29:                                               ; preds = %24, %22
  %30 = getelementptr inbounds nuw i8, ptr %0, i64 56
  invoke void @_ZNSt6vectorINSt7__cxx1112basic_stringIcSt11char_traitsIcESaIcEEESaIS5_EEC2ERKS7_(ptr noundef nonnull align 8 dereferenceable(24) %30, ptr noundef nonnull align 8 dereferenceable(24) %3)
          to label %31 unwind label %52

31:                                               ; preds = %29
  %32 = getelementptr inbounds nuw i8, ptr %0, i64 80
  %33 = getelementptr inbounds nuw i8, ptr %0, i64 96
  store ptr %33, ptr %32, align 8, !tbaa !41
  %34 = getelementptr inbounds nuw i8, ptr %0, i64 88
  store i64 0, ptr %34, align 8, !tbaa !12
  store i8 0, ptr %33, align 8, !tbaa !13
  %35 = getelementptr inbounds nuw i8, ptr %0, i64 112
  %36 = getelementptr inbounds nuw i8, ptr %0, i64 128
  store ptr %36, ptr %35, align 8, !tbaa !41
  %37 = getelementptr inbounds nuw i8, ptr %0, i64 120
  store i64 0, ptr %37, align 8, !tbaa !12
  store i8 0, ptr %36, align 8, !tbaa !13
  %38 = getelementptr inbounds nuw i8, ptr %0, i64 144
  %39 = getelementptr inbounds nuw i8, ptr %0, i64 160
  store ptr %39, ptr %38, align 8, !tbaa !41
  %40 = getelementptr inbounds nuw i8, ptr %0, i64 152
  store i64 0, ptr %40, align 8, !tbaa !12
  store i8 0, ptr %39, align 8, !tbaa !13
  %41 = getelementptr inbounds nuw i8, ptr %0, i64 176
  %42 = getelementptr inbounds nuw i8, ptr %0, i64 192
  store ptr %42, ptr %41, align 8, !tbaa !41
  %43 = getelementptr inbounds nuw i8, ptr %0, i64 184
  store i64 0, ptr %43, align 8, !tbaa !12
  store i8 0, ptr %42, align 8, !tbaa !13
  %44 = getelementptr inbounds nuw i8, ptr %0, i64 208
  %45 = getelementptr inbounds nuw i8, ptr %0, i64 224
  store ptr %45, ptr %44, align 8, !tbaa !41
  %46 = getelementptr inbounds nuw i8, ptr %0, i64 216
  store i64 0, ptr %46, align 8, !tbaa !12
  store i8 0, ptr %45, align 8, !tbaa !13
  %47 = getelementptr inbounds nuw i8, ptr %0, i64 240
  %48 = getelementptr inbounds nuw i8, ptr %0, i64 256
  store ptr %48, ptr %47, align 8, !tbaa !41
  %49 = getelementptr inbounds nuw i8, ptr %0, i64 248
  store i64 0, ptr %49, align 8, !tbaa !12
  store i8 0, ptr %48, align 8, !tbaa !13
  ret void

50:                                               ; preds = %13
  %51 = landingpad { ptr, i32 }
          cleanup
  br label %64

52:                                               ; preds = %29
  %53 = landingpad { ptr, i32 }
          cleanup
  %54 = load ptr, ptr %7, align 8, !tbaa !4
  %55 = getelementptr inbounds nuw i8, ptr %0, i64 40
  %56 = icmp eq ptr %54, %55
  br i1 %56, label %57, label %61

57:                                               ; preds = %52
  %58 = getelementptr inbounds nuw i8, ptr %0, i64 32
  %59 = load i64, ptr %58, align 8, !tbaa !12
  %60 = icmp ult i64 %59, 16
  call void @llvm.assume(i1 %60)
  br label %64

61:                                               ; preds = %52
  %62 = load i64, ptr %55, align 8, !tbaa !13
  %63 = add i64 %62, 1
  call void @_ZdlPvm(ptr noundef %54, i64 noundef %63) #37
  br label %64

64:                                               ; preds = %61, %57, %50
  %65 = phi { ptr, i32 } [ %51, %50 ], [ %53, %57 ], [ %53, %61 ]
  call void @_ZNSt12__shared_ptrIN5osgeo4proj2io15DatabaseContextELN9__gnu_cxx12_Lock_policyE2EED2Ev(ptr noundef nonnull align 8 dereferenceable(16) %0) #36
  resume { ptr, i32 } %65
}

; Function Attrs: mustprogress sspstrong uwtable
define linkonce_odr void @_ZNSt7__cxx1112basic_stringIcSt11char_traitsIcESaIcEEC2IS3_EEPKcRKS3_(ptr noundef nonnull align 8 dereferenceable(32) %0, ptr noundef %1, ptr noundef nonnull align 1 dereferenceable(1) %2) unnamed_addr #3 comdat align 2 personality ptr @__gxx_personality_v0 {
  %4 = alloca i64, align 8
  %5 = getelementptr inbounds nuw i8, ptr %0, i64 16
  store ptr %5, ptr %0, align 8, !tbaa !41
  %6 = icmp eq ptr %1, null
  br i1 %6, label %7, label %8

7:                                                ; preds = %3
  tail call void @_ZSt19__throw_logic_errorPKc(ptr noundef nonnull @.str.112) #29
  unreachable

8:                                                ; preds = %3
  %9 = tail call noundef i64 @strlen(ptr noundef nonnull dereferenceable(1) %1) #36
  call void @llvm.lifetime.start.p0(ptr %4)
  store i64 %9, ptr %4, align 8, !tbaa !42
  %10 = icmp ugt i64 %9, 15
  br i1 %10, label %11, label %14

11:                                               ; preds = %8
  %12 = call noundef ptr @_ZNSt7__cxx1112basic_stringIcSt11char_traitsIcESaIcEE9_M_createERmm(ptr noundef nonnull align 8 dereferenceable(32) %0, ptr noundef nonnull align 8 dereferenceable(8) %4, i64 noundef 0)
  store ptr %12, ptr %0, align 8, !tbaa !4
  %13 = load i64, ptr %4, align 8, !tbaa !42
  store i64 %13, ptr %5, align 8, !tbaa !13
  br label %14

14:                                               ; preds = %11, %8
  %15 = phi ptr [ %12, %11 ], [ %5, %8 ]
  switch i64 %9, label %18 [
    i64 1, label %16
    i64 0, label %19
  ]

16:                                               ; preds = %14
  %17 = load i8, ptr %1, align 1, !tbaa !13
  store i8 %17, ptr %15, align 1, !tbaa !13
  br label %19

18:                                               ; preds = %14
  call void @llvm.memcpy.p0.p0.i64(ptr align 1 %15, ptr nonnull align 1 %1, i64 %9, i1 false)
  br label %19

19:                                               ; preds = %18, %16, %14
  %20 = load i64, ptr %4, align 8, !tbaa !42
  %21 = getelementptr inbounds nuw i8, ptr %0, i64 8
  store i64 %20, ptr %21, align 8, !tbaa !12
  %22 = load ptr, ptr %0, align 8, !tbaa !4
  %23 = getelementptr inbounds nuw i8, ptr %22, i64 %20
  store i8 0, ptr %23, align 1, !tbaa !13
  call void @llvm.lifetime.end.p0(ptr %4)
  ret void
}

declare i32 @__gxx_personality_v0(...)

; Function Attrs: mustprogress sspstrong uwtable
define linkonce_odr void @_ZNSt6vectorINSt7__cxx1112basic_stringIcSt11char_traitsIcESaIcEEESaIS5_EEC2ERKS7_(ptr noundef nonnull align 8 dereferenceable(24) %0, ptr noundef nonnull align 8 dereferenceable(24) %1) unnamed_addr #3 comdat align 2 personality ptr @__gxx_personality_v0 {
  %3 = alloca i64, align 8
  %4 = alloca ptr, align 8
  %5 = alloca %"struct.std::_UninitDestroyGuard", align 8
  %6 = getelementptr inbounds nuw i8, ptr %1, i64 8
  %7 = load ptr, ptr %6, align 8, !tbaa !17
  %8 = load ptr, ptr %1, align 8, !tbaa !14
  %9 = ptrtoint ptr %7 to i64
  %10 = ptrtoint ptr %8 to i64
  %11 = sub i64 %9, %10
  %12 = icmp sgt i64 %11, -1
  tail call void @llvm.assume(i1 %12)
  tail call void @llvm.memset.p0.i64(ptr noundef nonnull align 8 dereferenceable(24) %0, i8 0, i64 24, i1 false)
  %13 = icmp eq ptr %7, %8
  br i1 %13, label %16, label %14

14:                                               ; preds = %2
  %15 = tail call noalias noundef nonnull ptr @_Znwm(i64 noundef %11) #38
  br label %16

16:                                               ; preds = %14, %2
  %17 = phi ptr [ null, %2 ], [ %15, %14 ]
  store ptr %17, ptr %0, align 8, !tbaa !14
  %18 = getelementptr inbounds nuw i8, ptr %0, i64 8
  store ptr %17, ptr %18, align 8, !tbaa !17
  %19 = getelementptr inbounds nuw i8, ptr %17, i64 %11
  %20 = getelementptr inbounds nuw i8, ptr %0, i64 16
  store ptr %19, ptr %20, align 8, !tbaa !20
  %21 = load ptr, ptr %1, align 8, !tbaa !43
  %22 = load ptr, ptr %6, align 8, !tbaa !43
  call void @llvm.lifetime.start.p0(ptr %4)
  store ptr %17, ptr %4, align 8, !tbaa !43
  call void @llvm.lifetime.start.p0(ptr %5)
  store ptr %17, ptr %5, align 8, !tbaa !44
  %23 = getelementptr inbounds nuw i8, ptr %5, i64 8
  store ptr %4, ptr %23, align 8, !tbaa !48
  %24 = icmp eq ptr %21, %22
  br i1 %24, label %56, label %25

25:                                               ; preds = %45, %16
  %26 = phi ptr [ %50, %45 ], [ %17, %16 ]
  %27 = phi ptr [ %48, %45 ], [ %21, %16 ]
  %28 = getelementptr inbounds nuw i8, ptr %26, i64 16
  store ptr %28, ptr %26, align 8, !tbaa !41
  %29 = load ptr, ptr %27, align 8, !tbaa !4
  %30 = getelementptr inbounds nuw i8, ptr %27, i64 8
  %31 = load i64, ptr %30, align 8, !tbaa !12
  %32 = icmp ult i64 %31, 9223372036854775807
  call void @llvm.assume(i1 %32)
  call void @llvm.lifetime.start.p0(ptr %3)
  store i64 %31, ptr %3, align 8, !tbaa !42
  %33 = icmp samesign ugt i64 %31, 15
  br i1 %33, label %34, label %38

34:                                               ; preds = %25
  %35 = invoke noundef ptr @_ZNSt7__cxx1112basic_stringIcSt11char_traitsIcESaIcEE9_M_createERmm(ptr noundef nonnull align 8 dereferenceable(32) %26, ptr noundef nonnull align 8 dereferenceable(8) %3, i64 noundef 0)
          to label %36 unwind label %52

36:                                               ; preds = %34
  store ptr %35, ptr %26, align 8, !tbaa !4
  %37 = load i64, ptr %3, align 8, !tbaa !42
  store i64 %37, ptr %28, align 8, !tbaa !13
  br label %38

38:                                               ; preds = %36, %25
  %39 = phi i64 [ %37, %36 ], [ %31, %25 ]
  %40 = phi ptr [ %35, %36 ], [ %28, %25 ]
  switch i64 %39, label %43 [
    i64 0, label %41
    i64 -1, label %45
  ]

41:                                               ; preds = %38
  %42 = load i8, ptr %29, align 1, !tbaa !13
  store i8 %42, ptr %40, align 1, !tbaa !13
  br label %45

43:                                               ; preds = %38
  %44 = add nuw i64 %39, 1
  call void @llvm.memcpy.p0.p0.i64(ptr noundef nonnull align 1 dereferenceable(1) %40, ptr noundef nonnull align 1 dereferenceable(1) %29, i64 %44, i1 false)
  br label %45

45:                                               ; preds = %43, %41, %38
  %46 = load i64, ptr %3, align 8, !tbaa !42
  %47 = getelementptr inbounds nuw i8, ptr %26, i64 8
  store i64 %46, ptr %47, align 8, !tbaa !12
  call void @llvm.lifetime.end.p0(ptr %3)
  %48 = getelementptr inbounds nuw i8, ptr %27, i64 32
  %49 = load ptr, ptr %4, align 8, !tbaa !43
  %50 = getelementptr inbounds nuw i8, ptr %49, i64 32
  store ptr %50, ptr %4, align 8, !tbaa !43
  %51 = icmp eq ptr %48, %22
  br i1 %51, label %56, label %25, !llvm.loop !49

52:                                               ; preds = %34
  %53 = landingpad { ptr, i32 }
          cleanup
  call void @_ZNSt19_UninitDestroyGuardIPNSt7__cxx1112basic_stringIcSt11char_traitsIcESaIcEEEvED2Ev(ptr noundef nonnull align 8 dereferenceable(16) %5) #36
  call void @llvm.lifetime.end.p0(ptr %5)
  %54 = load ptr, ptr %0, align 8, !tbaa !14
  %55 = icmp eq ptr %54, null
  br i1 %55, label %63, label %58

56:                                               ; preds = %45, %16
  %57 = phi ptr [ %17, %16 ], [ %50, %45 ]
  call void @llvm.lifetime.end.p0(ptr %5)
  call void @llvm.lifetime.end.p0(ptr %4)
  store ptr %57, ptr %18, align 8, !tbaa !17
  ret void

58:                                               ; preds = %52
  %59 = load ptr, ptr %20, align 8, !tbaa !20
  %60 = ptrtoint ptr %59 to i64
  %61 = ptrtoint ptr %54 to i64
  %62 = sub i64 %60, %61
  call void @_ZdlPvm(ptr noundef nonnull %54, i64 noundef %62) #37
  br label %63

63:                                               ; preds = %58, %52
  resume { ptr, i32 } %53
}

; Function Attrs: mustprogress nounwind sspstrong uwtable
define linkonce_odr void @_ZNSt12__shared_ptrIN5osgeo4proj2io15DatabaseContextELN9__gnu_cxx12_Lock_policyE2EED2Ev(ptr noundef nonnull align 8 dereferenceable(16) %0) unnamed_addr #0 comdat align 2 personality ptr @__gxx_personality_v0 {
  %2 = getelementptr inbounds nuw i8, ptr %0, i64 8
  %3 = load ptr, ptr %2, align 8, !tbaa !21
  %4 = icmp eq ptr %3, null
  br i1 %4, label %29, label %5

5:                                                ; preds = %1
  %6 = getelementptr inbounds nuw i8, ptr %3, i64 8
  %7 = load atomic i64, ptr %6 acquire, align 8
  %8 = icmp eq i64 %7, 4294967297
  %9 = trunc i64 %7 to i32
  br i1 %8, label %10, label %18

10:                                               ; preds = %5
  store i32 0, ptr %6, align 8, !tbaa !24
  %11 = getelementptr inbounds nuw i8, ptr %3, i64 12
  store i32 0, ptr %11, align 4, !tbaa !27
  %12 = load ptr, ptr %3, align 8, !tbaa !28
  %13 = getelementptr inbounds nuw i8, ptr %12, i64 16
  %14 = load ptr, ptr %13, align 8
  tail call void %14(ptr noundef nonnull align 8 dereferenceable(16) %3) #36
  %15 = load ptr, ptr %3, align 8, !tbaa !28
  %16 = getelementptr inbounds nuw i8, ptr %15, i64 24
  %17 = load ptr, ptr %16, align 8
  tail call void %17(ptr noundef nonnull align 8 dereferenceable(16) %3) #36
  br label %29

18:                                               ; preds = %5
  %19 = load i8, ptr @__libc_single_threaded, align 1, !tbaa !13
  %20 = icmp eq i8 %19, 0
  br i1 %20, label %23, label %21

21:                                               ; preds = %18
  %22 = add nsw i32 %9, -1
  store i32 %22, ptr %6, align 4, !tbaa !30
  br label %25

23:                                               ; preds = %18
  %24 = atomicrmw volatile add ptr %6, i32 -1 acq_rel, align 4
  br label %25

25:                                               ; preds = %23, %21
  %26 = phi i32 [ %9, %21 ], [ %24, %23 ]
  %27 = icmp eq i32 %26, 1
  br i1 %27, label %28, label %29, !prof !31

28:                                               ; preds = %25
  tail call void @_ZNSt16_Sp_counted_baseILN9__gnu_cxx12_Lock_policyE2EE24_M_release_last_use_coldEv(ptr noundef nonnull align 8 dereferenceable(16) %3) #36
  br label %29

29:                                               ; preds = %28, %25, %10, %1
  ret void
}

; Function Attrs: mustprogress sspstrong uwtable
define void @_ZN14projCppContext8toVectorB5cxx11EPKPKc(ptr dead_on_unwind noalias writable sret(%"class.std::vector") align 8 initializes((0, 24)) %0, ptr noundef readonly captures(address_is_null) %1) local_unnamed_addr #3 align 2 personality ptr @__gxx_personality_v0 {
  %3 = alloca i64, align 8
  %4 = alloca %"class.std::__cxx11::basic_string", align 8
  tail call void @llvm.memset.p0.i64(ptr noundef nonnull align 8 dereferenceable(24) %0, i8 0, i64 24, i1 false)
  %5 = icmp eq ptr %1, null
  br i1 %5, label %79, label %6

6:                                                ; preds = %2
  %7 = getelementptr inbounds nuw i8, ptr %4, i64 16
  %8 = getelementptr inbounds nuw i8, ptr %4, i64 8
  %9 = getelementptr inbounds nuw i8, ptr %0, i64 8
  %10 = getelementptr inbounds nuw i8, ptr %0, i64 16
  %11 = load ptr, ptr %1, align 8, !tbaa !50
  %12 = icmp eq ptr %11, null
  br i1 %12, label %79, label %13

13:                                               ; preds = %61, %6
  %14 = phi ptr [ %63, %61 ], [ %11, %6 ]
  %15 = phi ptr [ %62, %61 ], [ %1, %6 ]
  call void @llvm.lifetime.start.p0(ptr %4)
  store ptr %7, ptr %4, align 8, !tbaa !41
  %16 = call noundef i64 @strlen(ptr noundef nonnull dereferenceable(1) %14) #36
  call void @llvm.lifetime.start.p0(ptr %3)
  store i64 %16, ptr %3, align 8, !tbaa !42
  %17 = icmp ugt i64 %16, 15
  br i1 %17, label %18, label %22

18:                                               ; preds = %13
  %19 = invoke noundef ptr @_ZNSt7__cxx1112basic_stringIcSt11char_traitsIcESaIcEE9_M_createERmm(ptr noundef nonnull align 8 dereferenceable(32) %4, ptr noundef nonnull align 8 dereferenceable(8) %3, i64 noundef 0)
          to label %20 unwind label %65

20:                                               ; preds = %18
  store ptr %19, ptr %4, align 8, !tbaa !4
  %21 = load i64, ptr %3, align 8, !tbaa !42
  store i64 %21, ptr %7, align 8, !tbaa !13
  br label %22

22:                                               ; preds = %20, %13
  %23 = phi ptr [ %19, %20 ], [ %7, %13 ]
  switch i64 %16, label %26 [
    i64 1, label %24
    i64 0, label %27
  ]

24:                                               ; preds = %22
  %25 = load i8, ptr %14, align 1, !tbaa !13
  store i8 %25, ptr %23, align 1, !tbaa !13
  br label %27

26:                                               ; preds = %22
  call void @llvm.memcpy.p0.p0.i64(ptr align 1 %23, ptr nonnull align 1 %14, i64 %16, i1 false)
  br label %27

27:                                               ; preds = %26, %24, %22
  %28 = load i64, ptr %3, align 8, !tbaa !42
  store i64 %28, ptr %8, align 8, !tbaa !12
  %29 = load ptr, ptr %4, align 8, !tbaa !4
  %30 = getelementptr inbounds nuw i8, ptr %29, i64 %28
  store i8 0, ptr %30, align 1, !tbaa !13
  call void @llvm.lifetime.end.p0(ptr %3)
  %31 = load ptr, ptr %9, align 8, !tbaa !17
  %32 = load ptr, ptr %10, align 8, !tbaa !20
  %33 = icmp eq ptr %31, %32
  br i1 %33, label %51, label %34

34:                                               ; preds = %27
  %35 = getelementptr inbounds nuw i8, ptr %31, i64 16
  store ptr %35, ptr %31, align 8, !tbaa !41
  %36 = load ptr, ptr %4, align 8, !tbaa !4
  %37 = icmp eq ptr %36, %7
  br i1 %37, label %38, label %42

38:                                               ; preds = %34
  %39 = load i64, ptr %8, align 8, !tbaa !12
  %40 = icmp ult i64 %39, 16
  call void @llvm.assume(i1 %40)
  %41 = add nuw nsw i64 %39, 1
  call void @llvm.memcpy.p0.p0.i64(ptr noundef nonnull align 8 dereferenceable(1) %35, ptr noundef nonnull align 8 dereferenceable(1) %7, i64 %41, i1 false)
  br label %45

42:                                               ; preds = %34
  store ptr %36, ptr %31, align 8, !tbaa !4
  %43 = load i64, ptr %7, align 8, !tbaa !13
  store i64 %43, ptr %35, align 8, !tbaa !13
  %44 = load i64, ptr %8, align 8, !tbaa !12
  br label %45

45:                                               ; preds = %42, %38
  %46 = phi i64 [ %44, %42 ], [ %39, %38 ]
  %47 = icmp ult i64 %46, 9223372036854775807
  call void @llvm.assume(i1 %47)
  %48 = getelementptr inbounds nuw i8, ptr %31, i64 8
  store i64 %46, ptr %48, align 8, !tbaa !12
  store ptr %7, ptr %4, align 8, !tbaa !4
  store i64 0, ptr %8, align 8, !tbaa !12
  %49 = load ptr, ptr %9, align 8, !tbaa !17
  %50 = getelementptr inbounds nuw i8, ptr %49, i64 32
  store ptr %50, ptr %9, align 8, !tbaa !17
  br label %55

51:                                               ; preds = %27
  invoke void @_ZNSt6vectorINSt7__cxx1112basic_stringIcSt11char_traitsIcESaIcEEESaIS5_EE17_M_realloc_appendIJS5_EEEvDpOT_(ptr noundef nonnull align 8 dereferenceable(24) %0, ptr noundef nonnull align 8 dereferenceable(32) %4)
          to label %52 unwind label %67

52:                                               ; preds = %51
  %53 = load ptr, ptr %4, align 8, !tbaa !4
  %54 = icmp eq ptr %53, %7
  br i1 %54, label %55, label %58

55:                                               ; preds = %52, %45
  %56 = load i64, ptr %8, align 8, !tbaa !12
  %57 = icmp ult i64 %56, 16
  call void @llvm.assume(i1 %57)
  br label %61

58:                                               ; preds = %52
  %59 = load i64, ptr %7, align 8, !tbaa !13
  %60 = add i64 %59, 1
  call void @_ZdlPvm(ptr noundef %53, i64 noundef %60) #37
  br label %61

61:                                               ; preds = %58, %55
  call void @llvm.lifetime.end.p0(ptr %4)
  %62 = getelementptr inbounds nuw i8, ptr %15, i64 8
  %63 = load ptr, ptr %62, align 8, !tbaa !50
  %64 = icmp eq ptr %63, null
  br i1 %64, label %79, label %13

65:                                               ; preds = %18
  %66 = landingpad { ptr, i32 }
          cleanup
  br label %77

67:                                               ; preds = %51
  %68 = landingpad { ptr, i32 }
          cleanup
  %69 = load ptr, ptr %4, align 8, !tbaa !4
  %70 = icmp eq ptr %69, %7
  br i1 %70, label %71, label %74

71:                                               ; preds = %67
  %72 = load i64, ptr %8, align 8, !tbaa !12
  %73 = icmp ult i64 %72, 16
  call void @llvm.assume(i1 %73)
  br label %77

74:                                               ; preds = %67
  %75 = load i64, ptr %7, align 8, !tbaa !13
  %76 = add i64 %75, 1
  call void @_ZdlPvm(ptr noundef %69, i64 noundef %76) #37
  br label %77

77:                                               ; preds = %74, %71, %65
  %78 = phi { ptr, i32 } [ %66, %65 ], [ %68, %71 ], [ %68, %74 ]
  call void @llvm.lifetime.end.p0(ptr %4)
  call void @_ZNSt6vectorINSt7__cxx1112basic_stringIcSt11char_traitsIcESaIcEEESaIS5_EED2Ev(ptr noundef nonnull align 8 dereferenceable(24) %0) #36
  resume { ptr, i32 } %78

79:                                               ; preds = %61, %6, %2
  ret void
}

; Function Attrs: mustprogress nounwind sspstrong uwtable
define linkonce_odr void @_ZNSt6vectorINSt7__cxx1112basic_stringIcSt11char_traitsIcESaIcEEESaIS5_EED2Ev(ptr noundef nonnull align 8 dereferenceable(24) %0) unnamed_addr #0 comdat align 2 personality ptr @__gxx_personality_v0 {
  %2 = load ptr, ptr %0, align 8, !tbaa !14
  %3 = getelementptr inbounds nuw i8, ptr %0, i64 8
  %4 = load ptr, ptr %3, align 8, !tbaa !17
  %5 = icmp eq ptr %2, %4
  br i1 %5, label %23, label %6

6:                                                ; preds = %18, %1
  %7 = phi ptr [ %19, %18 ], [ %2, %1 ]
  %8 = load ptr, ptr %7, align 8, !tbaa !4
  %9 = getelementptr inbounds nuw i8, ptr %7, i64 16
  %10 = icmp eq ptr %8, %9
  br i1 %10, label %11, label %15

11:                                               ; preds = %6
  %12 = getelementptr inbounds nuw i8, ptr %7, i64 8
  %13 = load i64, ptr %12, align 8, !tbaa !12
  %14 = icmp ult i64 %13, 16
  tail call void @llvm.assume(i1 %14)
  br label %18

15:                                               ; preds = %6
  %16 = load i64, ptr %9, align 8, !tbaa !13
  %17 = add i64 %16, 1
  tail call void @_ZdlPvm(ptr noundef %8, i64 noundef %17) #37
  br label %18

18:                                               ; preds = %15, %11
  %19 = getelementptr inbounds nuw i8, ptr %7, i64 32
  %20 = icmp eq ptr %19, %4
  br i1 %20, label %21, label %6, !llvm.loop !18

21:                                               ; preds = %18
  %22 = load ptr, ptr %0, align 8, !tbaa !14
  br label %23

23:                                               ; preds = %21, %1
  %24 = phi ptr [ %22, %21 ], [ %2, %1 ]
  %25 = icmp eq ptr %24, null
  br i1 %25, label %32, label %26

26:                                               ; preds = %23
  %27 = getelementptr inbounds nuw i8, ptr %0, i64 16
  %28 = load ptr, ptr %27, align 8, !tbaa !20
  %29 = ptrtoint ptr %28 to i64
  %30 = ptrtoint ptr %24 to i64
  %31 = sub i64 %29, %30
  tail call void @_ZdlPvm(ptr noundef nonnull %24, i64 noundef %31) #37
  br label %32

32:                                               ; preds = %26, %23
  ret void
}

; Function Attrs: mustprogress sspstrong uwtable
define noundef nonnull ptr @_ZNK14projCppContext5cloneEP6pj_ctx(ptr noundef nonnull align 8 dereferenceable(272) %0, ptr noundef %1) local_unnamed_addr #3 align 2 personality ptr @__gxx_personality_v0 {
  %3 = tail call noalias noundef nonnull dereferenceable(272) ptr @_Znwm(i64 noundef 272) #38
  %4 = getelementptr inbounds nuw i8, ptr %0, i64 24
  %5 = load ptr, ptr %4, align 8, !tbaa !4
  %6 = getelementptr inbounds nuw i8, ptr %0, i64 56
  invoke void @_ZN14projCppContextC1EP6pj_ctxPKcRKSt6vectorINSt7__cxx1112basic_stringIcSt11char_traitsIcESaIcEEESaISA_EE(ptr noundef nonnull align 8 dereferenceable(272) %3, ptr noundef %1, ptr noundef %5, ptr noundef nonnull align 8 dereferenceable(24) %6)
          to label %7 unwind label %8

7:                                                ; preds = %2
  ret ptr %3

8:                                                ; preds = %2
  %9 = landingpad { ptr, i32 }
          cleanup
  tail call void @_ZdlPvm(ptr noundef nonnull %3, i64 noundef 272) #37
  resume { ptr, i32 } %9
}

; Function Attrs: nobuiltin allocsize(0)
declare noalias noundef nonnull ptr @_Znwm(i64 noundef) local_unnamed_addr #4

; Function Attrs: mustprogress sspstrong uwtable
define void @_ZN14projCppContext18getDatabaseContextEv(ptr dead_on_unwind noalias writable sret(%"class.dropbox::oxygen::nn") align 8 %0, ptr noundef nonnull align 8 dereferenceable(272) %1) local_unnamed_addr #3 align 2 personality ptr @__gxx_personality_v0 {
  %3 = load ptr, ptr %1, align 8, !tbaa !51
  %4 = icmp eq ptr %3, null
  br i1 %4, label %19, label %5

5:                                                ; preds = %2
  store ptr %3, ptr %0, align 8, !tbaa !51
  %6 = getelementptr inbounds nuw i8, ptr %0, i64 8
  %7 = getelementptr inbounds nuw i8, ptr %1, i64 8
  %8 = load ptr, ptr %7, align 8, !tbaa !21
  store ptr %8, ptr %6, align 8, !tbaa !21
  %9 = icmp eq ptr %8, null
  br i1 %9, label %70, label %10

10:                                               ; preds = %5
  %11 = getelementptr inbounds nuw i8, ptr %8, i64 8
  %12 = load i8, ptr @__libc_single_threaded, align 1, !tbaa !13
  %13 = icmp eq i8 %12, 0
  br i1 %13, label %17, label %14

14:                                               ; preds = %10
  %15 = load i32, ptr %11, align 4, !tbaa !30
  %16 = add nsw i32 %15, 1
  store i32 %16, ptr %11, align 4, !tbaa !30
  br label %70

17:                                               ; preds = %10
  %18 = atomicrmw volatile add ptr %11, i32 1 acq_rel, align 4
  br label %70

19:                                               ; preds = %2
  %20 = getelementptr inbounds nuw i8, ptr %1, i64 24
  %21 = getelementptr inbounds nuw i8, ptr %1, i64 56
  %22 = getelementptr inbounds nuw i8, ptr %1, i64 16
  %23 = load ptr, ptr %22, align 8, !tbaa !32
  tail call void @_ZN5osgeo4proj2io15DatabaseContext6createERKNSt7__cxx1112basic_stringIcSt11char_traitsIcESaIcEEERKSt6vectorIS8_SaIS8_EEP6pj_ctx(ptr dead_on_unwind writable sret(%"class.dropbox::oxygen::nn") align 8 %0, ptr noundef nonnull align 8 dereferenceable(32) %20, ptr noundef nonnull align 8 dereferenceable(24) %21, ptr noundef %23)
  %24 = load ptr, ptr %0, align 8, !tbaa !51
  store ptr %24, ptr %1, align 8, !tbaa !51
  %25 = getelementptr inbounds nuw i8, ptr %1, i64 8
  %26 = getelementptr inbounds nuw i8, ptr %0, i64 8
  %27 = load ptr, ptr %26, align 8, !tbaa !21
  %28 = load ptr, ptr %25, align 8, !tbaa !21
  %29 = icmp eq ptr %27, %28
  br i1 %29, label %70, label %30

30:                                               ; preds = %19
  %31 = icmp eq ptr %27, null
  br i1 %31, label %42, label %32

32:                                               ; preds = %30
  %33 = getelementptr inbounds nuw i8, ptr %27, i64 8
  %34 = load i8, ptr @__libc_single_threaded, align 1, !tbaa !13
  %35 = icmp eq i8 %34, 0
  br i1 %35, label %39, label %36

36:                                               ; preds = %32
  %37 = load i32, ptr %33, align 4, !tbaa !30
  %38 = add nsw i32 %37, 1
  store i32 %38, ptr %33, align 4, !tbaa !30
  br label %42

39:                                               ; preds = %32
  %40 = atomicrmw volatile add ptr %33, i32 1 acq_rel, align 4
  %41 = load ptr, ptr %25, align 8, !tbaa !21
  br label %42

42:                                               ; preds = %39, %36, %30
  %43 = phi ptr [ %28, %30 ], [ %28, %36 ], [ %41, %39 ]
  %44 = icmp eq ptr %43, null
  br i1 %44, label %69, label %45

45:                                               ; preds = %42
  %46 = getelementptr inbounds nuw i8, ptr %43, i64 8
  %47 = load atomic i64, ptr %46 acquire, align 8
  %48 = icmp eq i64 %47, 4294967297
  %49 = trunc i64 %47 to i32
  br i1 %48, label %50, label %58

50:                                               ; preds = %45
  store i32 0, ptr %46, align 8, !tbaa !24
  %51 = getelementptr inbounds nuw i8, ptr %43, i64 12
  store i32 0, ptr %51, align 4, !tbaa !27
  %52 = load ptr, ptr %43, align 8, !tbaa !28
  %53 = getelementptr inbounds nuw i8, ptr %52, i64 16
  %54 = load ptr, ptr %53, align 8
  tail call void %54(ptr noundef nonnull align 8 dereferenceable(16) %43) #36
  %55 = load ptr, ptr %43, align 8, !tbaa !28
  %56 = getelementptr inbounds nuw i8, ptr %55, i64 24
  %57 = load ptr, ptr %56, align 8
  tail call void %57(ptr noundef nonnull align 8 dereferenceable(16) %43) #36
  br label %69

58:                                               ; preds = %45
  %59 = load i8, ptr @__libc_single_threaded, align 1, !tbaa !13
  %60 = icmp eq i8 %59, 0
  br i1 %60, label %63, label %61

61:                                               ; preds = %58
  %62 = add nsw i32 %49, -1
  store i32 %62, ptr %46, align 4, !tbaa !30
  br label %65

63:                                               ; preds = %58
  %64 = atomicrmw volatile add ptr %46, i32 -1 acq_rel, align 4
  br label %65

65:                                               ; preds = %63, %61
  %66 = phi i32 [ %49, %61 ], [ %64, %63 ]
  %67 = icmp eq i32 %66, 1
  br i1 %67, label %68, label %69, !prof !31

68:                                               ; preds = %65
  tail call void @_ZNSt16_Sp_counted_baseILN9__gnu_cxx12_Lock_policyE2EE24_M_release_last_use_coldEv(ptr noundef nonnull align 8 dereferenceable(16) %43) #36
  br label %69

69:                                               ; preds = %68, %65, %50, %42
  store ptr %27, ptr %25, align 8, !tbaa !21
  br label %70

70:                                               ; preds = %69, %19, %17, %14, %5
  ret void
}

declare void @_ZN5osgeo4proj2io15DatabaseContext6createERKNSt7__cxx1112basic_stringIcSt11char_traitsIcESaIcEEERKSt6vectorIS8_SaIS8_EEP6pj_ctx(ptr dead_on_unwind writable sret(%"class.dropbox::oxygen::nn") align 8, ptr noundef nonnull align 8 dereferenceable(32), ptr noundef nonnull align 8 dereferenceable(24), ptr noundef) local_unnamed_addr #5

; Function Attrs: inlinehint mustprogress nounwind sspstrong uwtable
define linkonce_odr hidden void @_ZN7dropbox6oxygen2nnISt10shared_ptrIN5osgeo4proj2io15DatabaseContextEEED2Ev(ptr noundef nonnull align 8 dereferenceable(16) %0) unnamed_addr #1 comdat align 2 personality ptr @__gxx_personality_v0 {
  %2 = getelementptr inbounds nuw i8, ptr %0, i64 8
  %3 = load ptr, ptr %2, align 8, !tbaa !21
  %4 = icmp eq ptr %3, null
  br i1 %4, label %29, label %5

5:                                                ; preds = %1
  %6 = getelementptr inbounds nuw i8, ptr %3, i64 8
  %7 = load atomic i64, ptr %6 acquire, align 8
  %8 = icmp eq i64 %7, 4294967297
  %9 = trunc i64 %7 to i32
  br i1 %8, label %10, label %18

10:                                               ; preds = %5
  store i32 0, ptr %6, align 8, !tbaa !24
  %11 = getelementptr inbounds nuw i8, ptr %3, i64 12
  store i32 0, ptr %11, align 4, !tbaa !27
  %12 = load ptr, ptr %3, align 8, !tbaa !28
  %13 = getelementptr inbounds nuw i8, ptr %12, i64 16
  %14 = load ptr, ptr %13, align 8
  tail call void %14(ptr noundef nonnull align 8 dereferenceable(16) %3) #36
  %15 = load ptr, ptr %3, align 8, !tbaa !28
  %16 = getelementptr inbounds nuw i8, ptr %15, i64 24
  %17 = load ptr, ptr %16, align 8
  tail call void %17(ptr noundef nonnull align 8 dereferenceable(16) %3) #36
  br label %29

18:                                               ; preds = %5
  %19 = load i8, ptr @__libc_single_threaded, align 1, !tbaa !13
  %20 = icmp eq i8 %19, 0
  br i1 %20, label %23, label %21

21:                                               ; preds = %18
  %22 = add nsw i32 %9, -1
  store i32 %22, ptr %6, align 4, !tbaa !30
  br label %25

23:                                               ; preds = %18
  %24 = atomicrmw volatile add ptr %6, i32 -1 acq_rel, align 4
  br label %25

25:                                               ; preds = %23, %21
  %26 = phi i32 [ %9, %21 ], [ %24, %23 ]
  %27 = icmp eq i32 %26, 1
  br i1 %27, label %28, label %29, !prof !31

28:                                               ; preds = %25
  tail call void @_ZNSt16_Sp_counted_baseILN9__gnu_cxx12_Lock_policyE2EE24_M_release_last_use_coldEv(ptr noundef nonnull align 8 dereferenceable(16) %3) #36
  br label %29

29:                                               ; preds = %28, %25, %10, %1
  ret void
}

; Function Attrs: mustprogress sspstrong uwtable
define hidden noundef ptr @_Z13pj_obj_createP6pj_ctxRKN5osgeo4proj4util15BaseObjectNNPtrE(ptr noundef %0, ptr noundef nonnull readonly align 8 captures(none) dereferenceable(16) %1) local_unnamed_addr #3 personality ptr @__gxx_personality_v0 {
  %3 = alloca %"class.dropbox::oxygen::nn.53", align 8
  %4 = alloca %"class.std::shared_ptr", align 8
  %5 = alloca %"class.std::__cxx11::basic_string", align 8
  %6 = alloca %"class.osgeo::proj::util::optional", align 8
  %7 = alloca %"class.osgeo::proj::util::optional", align 8
  %8 = alloca %"class.std::shared_ptr.99", align 8
  %9 = load ptr, ptr %1, align 8, !tbaa !52
  %10 = icmp eq ptr %9, null
  br i1 %10, label %223, label %11

11:                                               ; preds = %2
  %12 = tail call ptr @__dynamic_cast(ptr nonnull %9, ptr nonnull @_ZTIN5osgeo4proj4util10BaseObjectE, ptr nonnull @_ZTIN5osgeo4proj9operation19CoordinateOperationE, i64 0) #36
  %13 = icmp eq ptr %12, null
  br i1 %13, label %223, label %14

14:                                               ; preds = %11
  %15 = tail call ptr @__dynamic_cast(ptr nonnull %12, ptr nonnull @_ZTIN5osgeo4proj9operation19CoordinateOperationE, ptr nonnull @_ZTIN5osgeo4proj9operation15SingleOperationE, i64 -1) #36
  %16 = icmp eq ptr %15, null
  br i1 %16, label %30, label %17

17:                                               ; preds = %14
  %18 = tail call noundef nonnull align 8 dereferenceable(16) ptr @_ZNK5osgeo4proj9operation15SingleOperation6methodEv(ptr noundef nonnull align 8 dereferenceable(16) %15) #39
  %19 = load ptr, ptr %18, align 8, !tbaa !55
  %20 = tail call noundef nonnull align 8 dereferenceable(32) ptr @_ZNK5osgeo4proj6common16IdentifiedObject7nameStrB5cxx11Ev(ptr noundef nonnull align 8 dereferenceable(40) %19) #39
  %21 = getelementptr inbounds nuw i8, ptr %20, i64 8
  %22 = load i64, ptr %21, align 8, !tbaa !12
  %23 = icmp ult i64 %22, 9223372036854775807
  tail call void @llvm.assume(i1 %23)
  %24 = icmp eq i64 %22, 7
  br i1 %24, label %25, label %30

25:                                               ; preds = %17
  %26 = load ptr, ptr %20, align 8, !tbaa !4
  %27 = tail call i32 @bcmp(ptr noundef nonnull dereferenceable(7) %26, ptr noundef nonnull dereferenceable(7) @.str, i64 7)
  %28 = freeze i32 %27
  %29 = icmp eq i32 %28, 0
  br i1 %29, label %223, label %30

30:                                               ; preds = %25, %17, %14
  call void @llvm.lifetime.start.p0(ptr %3)
  call void @llvm.memset.p0.i64(ptr noundef nonnull align 8 dereferenceable(16) %4, i8 0, i64 16, i1 false)
  invoke void @_ZN5osgeo4proj2io19PROJStringFormatter6createENS2_10ConventionESt10shared_ptrINS1_15DatabaseContextEE(ptr dead_on_unwind nonnull writable sret(%"class.dropbox::oxygen::nn.53") align 8 %3, i32 noundef 0, ptr noundef nonnull %4)
          to label %31 unwind label %71

31:                                               ; preds = %30
  %32 = getelementptr inbounds nuw i8, ptr %4, i64 8
  %33 = load ptr, ptr %32, align 8, !tbaa !21
  %34 = icmp eq ptr %33, null
  br i1 %34, label %59, label %35

35:                                               ; preds = %31
  %36 = getelementptr inbounds nuw i8, ptr %33, i64 8
  %37 = load atomic i64, ptr %36 acquire, align 8
  %38 = icmp eq i64 %37, 4294967297
  %39 = trunc i64 %37 to i32
  br i1 %38, label %40, label %48

40:                                               ; preds = %35
  store i32 0, ptr %36, align 8, !tbaa !24
  %41 = getelementptr inbounds nuw i8, ptr %33, i64 12
  store i32 0, ptr %41, align 4, !tbaa !27
  %42 = load ptr, ptr %33, align 8, !tbaa !28
  %43 = getelementptr inbounds nuw i8, ptr %42, i64 16
  %44 = load ptr, ptr %43, align 8
  call void %44(ptr noundef nonnull align 8 dereferenceable(16) %33) #36
  %45 = load ptr, ptr %33, align 8, !tbaa !28
  %46 = getelementptr inbounds nuw i8, ptr %45, i64 24
  %47 = load ptr, ptr %46, align 8
  call void %47(ptr noundef nonnull align 8 dereferenceable(16) %33) #36
  br label %59

48:                                               ; preds = %35
  %49 = load i8, ptr @__libc_single_threaded, align 1, !tbaa !13
  %50 = icmp eq i8 %49, 0
  br i1 %50, label %53, label %51

51:                                               ; preds = %48
  %52 = add nsw i32 %39, -1
  store i32 %52, ptr %36, align 4, !tbaa !30
  br label %55

53:                                               ; preds = %48
  %54 = atomicrmw volatile add ptr %36, i32 -1 acq_rel, align 4
  br label %55

55:                                               ; preds = %53, %51
  %56 = phi i32 [ %39, %51 ], [ %54, %53 ]
  %57 = icmp eq i32 %56, 1
  br i1 %57, label %58, label %59, !prof !31

58:                                               ; preds = %55
  call void @_ZNSt16_Sp_counted_baseILN9__gnu_cxx12_Lock_policyE2EE24_M_release_last_use_coldEv(ptr noundef nonnull align 8 dereferenceable(16) %33) #36
  br label %59

59:                                               ; preds = %58, %55, %40, %31
  call void @llvm.lifetime.start.p0(ptr %5)
  %60 = getelementptr inbounds nuw i8, ptr %12, i64 48
  %61 = load ptr, ptr %3, align 8, !tbaa !58
  invoke void @_ZNK5osgeo4proj2io21IPROJStringExportable18exportToPROJStringB5cxx11EPNS1_19PROJStringFormatterE(ptr dead_on_unwind nonnull writable sret(%"class.std::__cxx11::basic_string") align 8 %5, ptr noundef nonnull align 8 dereferenceable(8) %60, ptr noundef %61)
          to label %62 unwind label %73

62:                                               ; preds = %59
  %63 = getelementptr inbounds nuw i8, ptr %0, i64 216
  %64 = load i8, ptr %63, align 8, !tbaa !60, !range !79, !noundef !80
  %65 = trunc nuw i8 %64 to i1
  br i1 %65, label %77, label %66

66:                                               ; preds = %62
  %67 = invoke i32 @proj_context_is_network_enabled(ptr noundef nonnull %0)
          to label %68 unwind label %75

68:                                               ; preds = %66
  %69 = icmp eq i32 %67, 0
  br i1 %69, label %77, label %70

70:                                               ; preds = %68
  store i8 1, ptr %63, align 8, !tbaa !60
  br label %77

71:                                               ; preds = %30
  %72 = landingpad { ptr, i32 }
          cleanup
          catch ptr @_ZTISt9exception
  call void @_ZNSt12__shared_ptrIN5osgeo4proj2io15DatabaseContextELN9__gnu_cxx12_Lock_policyE2EED2Ev(ptr noundef nonnull align 8 dereferenceable(16) %4) #36
  br label %198

73:                                               ; preds = %59
  %74 = landingpad { ptr, i32 }
          cleanup
          catch ptr @_ZTISt9exception
  br label %196

75:                                               ; preds = %66
  %76 = landingpad { ptr, i32 }
          cleanup
          catch ptr @_ZTISt9exception
  br label %184

77:                                               ; preds = %70, %68, %62
  %78 = load ptr, ptr %5, align 8, !tbaa !4
  %79 = invoke noundef ptr @_Z18pj_create_internalP6pj_ctxPKc(ptr noundef nonnull %0, ptr noundef %78)
          to label %80 unwind label %149

80:                                               ; preds = %77
  store i8 %64, ptr %63, align 8, !tbaa !60
  %81 = icmp eq ptr %79, null
  br i1 %81, label %206, label %82

82:                                               ; preds = %80
  %83 = getelementptr inbounds nuw i8, ptr %79, i64 640
  %84 = load ptr, ptr %1, align 8, !tbaa !52
  store ptr %84, ptr %83, align 8, !tbaa !52
  %85 = getelementptr inbounds nuw i8, ptr %79, i64 648
  %86 = getelementptr inbounds nuw i8, ptr %1, i64 8
  %87 = load ptr, ptr %86, align 8, !tbaa !21
  %88 = load ptr, ptr %85, align 8, !tbaa !21
  %89 = icmp eq ptr %87, %88
  br i1 %89, label %130, label %90

90:                                               ; preds = %82
  %91 = icmp eq ptr %87, null
  br i1 %91, label %102, label %92

92:                                               ; preds = %90
  %93 = getelementptr inbounds nuw i8, ptr %87, i64 8
  %94 = load i8, ptr @__libc_single_threaded, align 1, !tbaa !13
  %95 = icmp eq i8 %94, 0
  br i1 %95, label %99, label %96

96:                                               ; preds = %92
  %97 = load i32, ptr %93, align 4, !tbaa !30
  %98 = add nsw i32 %97, 1
  store i32 %98, ptr %93, align 4, !tbaa !30
  br label %102

99:                                               ; preds = %92
  %100 = atomicrmw volatile add ptr %93, i32 1 acq_rel, align 4
  %101 = load ptr, ptr %85, align 8, !tbaa !21
  br label %102

102:                                              ; preds = %99, %96, %90
  %103 = phi ptr [ %88, %90 ], [ %88, %96 ], [ %101, %99 ]
  %104 = icmp eq ptr %103, null
  br i1 %104, label %129, label %105

105:                                              ; preds = %102
  %106 = getelementptr inbounds nuw i8, ptr %103, i64 8
  %107 = load atomic i64, ptr %106 acquire, align 8
  %108 = icmp eq i64 %107, 4294967297
  %109 = trunc i64 %107 to i32
  br i1 %108, label %110, label %118

110:                                              ; preds = %105
  store i32 0, ptr %106, align 8, !tbaa !24
  %111 = getelementptr inbounds nuw i8, ptr %103, i64 12
  store i32 0, ptr %111, align 4, !tbaa !27
  %112 = load ptr, ptr %103, align 8, !tbaa !28
  %113 = getelementptr inbounds nuw i8, ptr %112, i64 16
  %114 = load ptr, ptr %113, align 8
  call void %114(ptr noundef nonnull align 8 dereferenceable(16) %103) #36
  %115 = load ptr, ptr %103, align 8, !tbaa !28
  %116 = getelementptr inbounds nuw i8, ptr %115, i64 24
  %117 = load ptr, ptr %116, align 8
  call void %117(ptr noundef nonnull align 8 dereferenceable(16) %103) #36
  br label %129

118:                                              ; preds = %105
  %119 = load i8, ptr @__libc_single_threaded, align 1, !tbaa !13
  %120 = icmp eq i8 %119, 0
  br i1 %120, label %123, label %121

121:                                              ; preds = %118
  %122 = add nsw i32 %109, -1
  store i32 %122, ptr %106, align 4, !tbaa !30
  br label %125

123:                                              ; preds = %118
  %124 = atomicrmw volatile add ptr %106, i32 -1 acq_rel, align 4
  br label %125

125:                                              ; preds = %123, %121
  %126 = phi i32 [ %109, %121 ], [ %124, %123 ]
  %127 = icmp eq i32 %126, 1
  br i1 %127, label %128, label %129, !prof !31

128:                                              ; preds = %125
  call void @_ZNSt16_Sp_counted_baseILN9__gnu_cxx12_Lock_policyE2EE24_M_release_last_use_coldEv(ptr noundef nonnull align 8 dereferenceable(16) %103) #36
  br label %129

129:                                              ; preds = %128, %125, %110, %102
  store ptr %87, ptr %85, align 8, !tbaa !21
  br label %130

130:                                              ; preds = %129, %82
  %131 = getelementptr inbounds nuw i8, ptr %79, i64 656
  store i8 1, ptr %131, align 8, !tbaa !81
  call void @llvm.lifetime.start.p0(ptr %6)
  %132 = invoke noundef nonnull align 8 dereferenceable(16) ptr @_ZNK5osgeo4proj9operation19CoordinateOperation21sourceCoordinateEpochEv(ptr noundef nonnull align 8 dereferenceable(72) %12)
          to label %133 unwind label %151

133:                                              ; preds = %130
  %134 = load i8, ptr %132, align 8, !tbaa !100, !range !79, !noundef !80
  store i8 %134, ptr %6, align 8, !tbaa !100
  %135 = getelementptr inbounds nuw i8, ptr %6, i64 8
  %136 = getelementptr inbounds nuw i8, ptr %132, i64 8
  invoke void @_ZN5osgeo4proj6common9DataEpochC1ERKS2_(ptr noundef nonnull align 8 dereferenceable(8) %135, ptr noundef nonnull align 8 dereferenceable(8) %136)
          to label %137 unwind label %151

137:                                              ; preds = %133
  call void @llvm.lifetime.start.p0(ptr %7)
  %138 = invoke noundef nonnull align 8 dereferenceable(16) ptr @_ZNK5osgeo4proj9operation19CoordinateOperation21targetCoordinateEpochEv(ptr noundef nonnull align 8 dereferenceable(72) %12)
          to label %139 unwind label %153

139:                                              ; preds = %137
  %140 = load i8, ptr %138, align 8, !tbaa !100, !range !79, !noundef !80
  store i8 %140, ptr %7, align 8, !tbaa !100
  %141 = getelementptr inbounds nuw i8, ptr %7, i64 8
  %142 = getelementptr inbounds nuw i8, ptr %138, i64 8
  invoke void @_ZN5osgeo4proj6common9DataEpochC1ERKS2_(ptr noundef nonnull align 8 dereferenceable(8) %141, ptr noundef nonnull align 8 dereferenceable(8) %142)
          to label %143 unwind label %153

143:                                              ; preds = %139
  %144 = load i8, ptr %6, align 8, !tbaa !100, !range !79, !noundef !80
  %145 = trunc nuw i8 %144 to i1
  %146 = load i8, ptr %7, align 8, !tbaa !100, !range !79, !noundef !80
  %147 = trunc nuw i8 %146 to i1
  br i1 %145, label %148, label %157

148:                                              ; preds = %143
  br i1 %147, label %165, label %158

149:                                              ; preds = %77
  %150 = landingpad { ptr, i32 }
          cleanup
          catch ptr @_ZTISt9exception
  br label %184

151:                                              ; preds = %133, %130
  %152 = landingpad { ptr, i32 }
          cleanup
          catch ptr @_ZTISt9exception
  br label %182

153:                                              ; preds = %139, %137
  %154 = landingpad { ptr, i32 }
          cleanup
          catch ptr @_ZTISt9exception
  br label %180

155:                                              ; preds = %158
  %156 = landingpad { ptr, i32 }
          cleanup
          catch ptr @_ZTISt9exception
  call void @_ZN5osgeo4proj6common9DataEpochD1Ev(ptr noundef nonnull align 8 dereferenceable(8) %141) #36
  br label %180

157:                                              ; preds = %143
  br i1 %147, label %158, label %165

158:                                              ; preds = %157, %148
  %159 = phi ptr [ %135, %148 ], [ %141, %157 ]
  %160 = getelementptr inbounds nuw i8, ptr %79, i64 672
  store i8 1, ptr %160, align 8, !tbaa !110
  %161 = invoke noundef nonnull align 8 dereferenceable(24) ptr @_ZNK5osgeo4proj6common9DataEpoch15coordinateEpochEv(ptr noundef nonnull align 8 dereferenceable(8) %159)
          to label %162 unwind label %155

162:                                              ; preds = %158
  %163 = call noundef double @_ZNK5osgeo4proj6common7Measure13convertToUnitERKNS1_13UnitOfMeasureE(ptr noundef nonnull align 8 dereferenceable(24) %161, ptr noundef nonnull align 8 dereferenceable(24) @_ZN5osgeo4proj6common13UnitOfMeasure4YEARE) #39
  %164 = getelementptr inbounds nuw i8, ptr %79, i64 664
  store double %163, ptr %164, align 8, !tbaa !111
  br label %165

165:                                              ; preds = %162, %157, %148
  call void @_ZN5osgeo4proj6common9DataEpochD1Ev(ptr noundef nonnull align 8 dereferenceable(8) %141) #36
  call void @llvm.lifetime.end.p0(ptr %7)
  call void @_ZN5osgeo4proj6common9DataEpochD1Ev(ptr noundef nonnull align 8 dereferenceable(8) %135) #36
  call void @llvm.lifetime.end.p0(ptr %6)
  %166 = load ptr, ptr %5, align 8, !tbaa !4
  %167 = getelementptr inbounds nuw i8, ptr %5, i64 16
  %168 = icmp eq ptr %166, %167
  br i1 %168, label %169, label %173

169:                                              ; preds = %165
  %170 = getelementptr inbounds nuw i8, ptr %5, i64 8
  %171 = load i64, ptr %170, align 8, !tbaa !12
  %172 = icmp ult i64 %171, 16
  call void @llvm.assume(i1 %172)
  br label %176

173:                                              ; preds = %165
  %174 = load i64, ptr %167, align 8, !tbaa !13
  %175 = add i64 %174, 1
  call void @_ZdlPvm(ptr noundef %166, i64 noundef %175) #37
  br label %176

176:                                              ; preds = %173, %169
  call void @llvm.lifetime.end.p0(ptr %5)
  %177 = load ptr, ptr %3, align 8, !tbaa !58
  %178 = icmp eq ptr %177, null
  br i1 %178, label %222, label %179

179:                                              ; preds = %176
  call void @_ZN5osgeo4proj2io19PROJStringFormatterD1Ev(ptr noundef nonnull align 8 dereferenceable(8) %177) #36
  call void @_ZdlPvm(ptr noundef nonnull %177, i64 noundef 8) #37
  br label %222

180:                                              ; preds = %155, %153
  %181 = phi { ptr, i32 } [ %156, %155 ], [ %154, %153 ]
  call void @llvm.lifetime.end.p0(ptr %7)
  call void @_ZN5osgeo4proj6common9DataEpochD1Ev(ptr noundef nonnull align 8 dereferenceable(8) %135) #36
  br label %182

182:                                              ; preds = %180, %151
  %183 = phi { ptr, i32 } [ %181, %180 ], [ %152, %151 ]
  call void @llvm.lifetime.end.p0(ptr %6)
  br label %184

184:                                              ; preds = %182, %149, %75
  %185 = phi { ptr, i32 } [ %76, %75 ], [ %183, %182 ], [ %150, %149 ]
  %186 = load ptr, ptr %5, align 8, !tbaa !4
  %187 = getelementptr inbounds nuw i8, ptr %5, i64 16
  %188 = icmp eq ptr %186, %187
  br i1 %188, label %189, label %193

189:                                              ; preds = %184
  %190 = getelementptr inbounds nuw i8, ptr %5, i64 8
  %191 = load i64, ptr %190, align 8, !tbaa !12
  %192 = icmp ult i64 %191, 16
  call void @llvm.assume(i1 %192)
  br label %196

193:                                              ; preds = %184
  %194 = load i64, ptr %187, align 8, !tbaa !13
  %195 = add i64 %194, 1
  call void @_ZdlPvm(ptr noundef %186, i64 noundef %195) #37
  br label %196

196:                                              ; preds = %193, %189, %73
  %197 = phi { ptr, i32 } [ %74, %73 ], [ %185, %189 ], [ %185, %193 ]
  call void @llvm.lifetime.end.p0(ptr %5)
  call void @_ZN7dropbox6oxygen2nnISt10unique_ptrIN5osgeo4proj2io19PROJStringFormatterESt14default_deleteIS6_EEED2Ev(ptr noundef nonnull align 8 dereferenceable(8) %3) #36
  br label %198

198:                                              ; preds = %196, %71
  %199 = phi { ptr, i32 } [ %197, %196 ], [ %72, %71 ]
  %200 = extractvalue { ptr, i32 } %199, 1
  call void @llvm.lifetime.end.p0(ptr %3)
  %201 = call i32 @llvm.eh.typeid.for.p0(ptr nonnull @_ZTISt9exception) #36
  %202 = icmp eq i32 %200, %201
  br i1 %202, label %203, label %365

203:                                              ; preds = %198
  %204 = extractvalue { ptr, i32 } %199, 0
  %205 = call ptr @__cxa_begin_catch(ptr %204) #36
  call void @__cxa_end_catch()
  br label %223

206:                                              ; preds = %80
  %207 = load ptr, ptr %5, align 8, !tbaa !4
  %208 = getelementptr inbounds nuw i8, ptr %5, i64 16
  %209 = icmp eq ptr %207, %208
  br i1 %209, label %210, label %214

210:                                              ; preds = %206
  %211 = getelementptr inbounds nuw i8, ptr %5, i64 8
  %212 = load i64, ptr %211, align 8, !tbaa !12
  %213 = icmp ult i64 %212, 16
  call void @llvm.assume(i1 %213)
  br label %217

214:                                              ; preds = %206
  %215 = load i64, ptr %208, align 8, !tbaa !13
  %216 = add i64 %215, 1
  call void @_ZdlPvm(ptr noundef %207, i64 noundef %216) #37
  br label %217

217:                                              ; preds = %214, %210
  call void @llvm.lifetime.end.p0(ptr %5)
  %218 = load ptr, ptr %3, align 8, !tbaa !58
  %219 = icmp eq ptr %218, null
  br i1 %219, label %221, label %220

220:                                              ; preds = %217
  call void @_ZN5osgeo4proj2io19PROJStringFormatterD1Ev(ptr noundef nonnull align 8 dereferenceable(8) %218) #36
  call void @_ZdlPvm(ptr noundef nonnull %218, i64 noundef 8) #37
  br label %221

221:                                              ; preds = %220, %217
  call void @llvm.lifetime.end.p0(ptr %3)
  br label %223

222:                                              ; preds = %179, %176
  call void @llvm.lifetime.end.p0(ptr %3)
  br label %363

223:                                              ; preds = %221, %203, %25, %11, %2
  %224 = phi i8 [ 0, %11 ], [ 0, %2 ], [ 1, %221 ], [ 1, %203 ], [ 1, %25 ]
  %225 = call noundef ptr @_Z6pj_newv()
  %226 = icmp eq ptr %225, null
  br i1 %226, label %362, label %227

227:                                              ; preds = %223
  store ptr %0, ptr %225, align 8, !tbaa !112
  %228 = getelementptr inbounds nuw i8, ptr %225, i64 16
  store ptr @.str.1, ptr %228, align 8, !tbaa !113
  %229 = getelementptr inbounds nuw i8, ptr %225, i64 640
  %230 = load ptr, ptr %1, align 8, !tbaa !52
  store ptr %230, ptr %229, align 8, !tbaa !52
  %231 = getelementptr inbounds nuw i8, ptr %225, i64 648
  %232 = getelementptr inbounds nuw i8, ptr %1, i64 8
  %233 = load ptr, ptr %232, align 8, !tbaa !21
  %234 = load ptr, ptr %231, align 8, !tbaa !21
  %235 = icmp eq ptr %233, %234
  br i1 %235, label %277, label %236

236:                                              ; preds = %227
  %237 = icmp eq ptr %233, null
  br i1 %237, label %248, label %238

238:                                              ; preds = %236
  %239 = getelementptr inbounds nuw i8, ptr %233, i64 8
  %240 = load i8, ptr @__libc_single_threaded, align 1, !tbaa !13
  %241 = icmp eq i8 %240, 0
  br i1 %241, label %245, label %242

242:                                              ; preds = %238
  %243 = load i32, ptr %239, align 4, !tbaa !30
  %244 = add nsw i32 %243, 1
  store i32 %244, ptr %239, align 4, !tbaa !30
  br label %248

245:                                              ; preds = %238
  %246 = atomicrmw volatile add ptr %239, i32 1 acq_rel, align 4
  %247 = load ptr, ptr %231, align 8, !tbaa !21
  br label %248

248:                                              ; preds = %245, %242, %236
  %249 = phi ptr [ %234, %236 ], [ %234, %242 ], [ %247, %245 ]
  %250 = icmp eq ptr %249, null
  br i1 %250, label %275, label %251

251:                                              ; preds = %248
  %252 = getelementptr inbounds nuw i8, ptr %249, i64 8
  %253 = load atomic i64, ptr %252 acquire, align 8
  %254 = icmp eq i64 %253, 4294967297
  %255 = trunc i64 %253 to i32
  br i1 %254, label %256, label %264

256:                                              ; preds = %251
  store i32 0, ptr %252, align 8, !tbaa !24
  %257 = getelementptr inbounds nuw i8, ptr %249, i64 12
  store i32 0, ptr %257, align 4, !tbaa !27
  %258 = load ptr, ptr %249, align 8, !tbaa !28
  %259 = getelementptr inbounds nuw i8, ptr %258, i64 16
  %260 = load ptr, ptr %259, align 8
  call void %260(ptr noundef nonnull align 8 dereferenceable(16) %249) #36
  %261 = load ptr, ptr %249, align 8, !tbaa !28
  %262 = getelementptr inbounds nuw i8, ptr %261, i64 24
  %263 = load ptr, ptr %262, align 8
  call void %263(ptr noundef nonnull align 8 dereferenceable(16) %249) #36
  br label %275

264:                                              ; preds = %251
  %265 = load i8, ptr @__libc_single_threaded, align 1, !tbaa !13
  %266 = icmp eq i8 %265, 0
  br i1 %266, label %269, label %267

267:                                              ; preds = %264
  %268 = add nsw i32 %255, -1
  store i32 %268, ptr %252, align 4, !tbaa !30
  br label %271

269:                                              ; preds = %264
  %270 = atomicrmw volatile add ptr %252, i32 -1 acq_rel, align 4
  br label %271

271:                                              ; preds = %269, %267
  %272 = phi i32 [ %255, %267 ], [ %270, %269 ]
  %273 = icmp eq i32 %272, 1
  br i1 %273, label %274, label %275, !prof !31

274:                                              ; preds = %271
  call void @_ZNSt16_Sp_counted_baseILN9__gnu_cxx12_Lock_policyE2EE24_M_release_last_use_coldEv(ptr noundef nonnull align 8 dereferenceable(16) %249) #36
  br label %275

275:                                              ; preds = %274, %271, %256, %248
  store ptr %233, ptr %231, align 8, !tbaa !21
  %276 = load ptr, ptr %1, align 8, !tbaa !52
  br label %277

277:                                              ; preds = %275, %227
  %278 = phi ptr [ %230, %227 ], [ %276, %275 ]
  %279 = getelementptr inbounds nuw i8, ptr %225, i64 656
  store i8 %224, ptr %279, align 8, !tbaa !81
  %280 = icmp eq ptr %278, null
  br i1 %280, label %362, label %281

281:                                              ; preds = %277
  %282 = call ptr @__dynamic_cast(ptr nonnull %278, ptr nonnull @_ZTIN5osgeo4proj4util10BaseObjectE, ptr nonnull @_ZTIN5osgeo4proj3crs3CRSE, i64 0) #36
  %283 = icmp eq ptr %282, null
  br i1 %283, label %362, label %284

284:                                              ; preds = %281
  call void @llvm.lifetime.start.p0(ptr %8)
  invoke void @_ZNK5osgeo4proj3crs3CRS18extractGeodeticCRSEv(ptr dead_on_unwind nonnull writable sret(%"class.std::shared_ptr.99") align 8 %8, ptr noundef nonnull align 8 dereferenceable(64) %282)
          to label %285 unwind label %304

285:                                              ; preds = %284
  %286 = load ptr, ptr %8, align 8, !tbaa !114
  %287 = icmp eq ptr %286, null
  br i1 %287, label %324, label %288

288:                                              ; preds = %285
  %289 = call noundef nonnull align 8 dereferenceable(16) ptr @_ZNK5osgeo4proj3crs11GeodeticCRS9ellipsoidEv(ptr noundef nonnull align 8 dereferenceable(16) %286) #39
  %290 = load ptr, ptr %289, align 8, !tbaa !117
  %291 = call noundef nonnull align 8 dereferenceable(24) ptr @_ZNK5osgeo4proj5datum9Ellipsoid13semiMajorAxisEv(ptr noundef nonnull align 8 dereferenceable(64) %290) #39
  %292 = call noundef double @_ZNK5osgeo4proj6common7Measure10getSIValueEv(ptr noundef nonnull align 8 dereferenceable(24) %291) #39
  %293 = call noundef double @_ZNK5osgeo4proj5datum9Ellipsoid19squaredEccentricityEv(ptr noundef nonnull align 8 dereferenceable(64) %290) #39
  %294 = fcmp ogt double %292, 0.000000e+00
  %295 = fcmp oge double %293, 0.000000e+00
  %296 = and i1 %294, %295
  %297 = fcmp olt double %293, 1.000000e+00
  %298 = and i1 %297, %296
  br i1 %298, label %308, label %299

299:                                              ; preds = %288
  invoke void (ptr, ptr, ...) @_Z14proj_log_errorPK8PJconstsPKcz(ptr noundef nonnull %225, ptr noundef nonnull @.str.2)
          to label %300 unwind label %306

300:                                              ; preds = %299
  %301 = invoke i32 @proj_errno_set(ptr noundef nonnull %225, i32 noundef 1027)
          to label %302 unwind label %306

302:                                              ; preds = %300
  %303 = invoke ptr @proj_destroy(ptr noundef nonnull %225)
          to label %324 unwind label %306

304:                                              ; preds = %284
  %305 = landingpad { ptr, i32 }
          cleanup
          catch ptr @_ZTISt9exception
  br label %353

306:                                              ; preds = %314, %308, %302, %300, %299
  %307 = landingpad { ptr, i32 }
          cleanup
          catch ptr @_ZTISt9exception
  call void @_ZNSt12__shared_ptrIN5osgeo4proj3crs11GeodeticCRSELN9__gnu_cxx12_Lock_policyE2EED2Ev(ptr noundef nonnull align 8 dereferenceable(16) %8) #36
  br label %353

308:                                              ; preds = %288
  %309 = invoke noundef i32 @_Z24pj_calc_ellipsoid_paramsP8PJconstsdd(ptr noundef nonnull %225, double noundef %292, double noundef %293)
          to label %310 unwind label %306

310:                                              ; preds = %308
  %311 = call noalias dereferenceable_or_null(408) ptr @calloc(i64 noundef 1, i64 noundef 408) #40
  %312 = getelementptr inbounds nuw i8, ptr %225, i64 80
  store ptr %311, ptr %312, align 8, !tbaa !120
  %313 = icmp eq ptr %311, null
  br i1 %313, label %324, label %314

314:                                              ; preds = %310
  %315 = getelementptr inbounds nuw i8, ptr %225, i64 168
  %316 = load double, ptr %315, align 8, !tbaa !121
  %317 = getelementptr inbounds nuw i8, ptr %225, i64 216
  %318 = load double, ptr %317, align 8, !tbaa !122
  %319 = getelementptr inbounds nuw i8, ptr %225, i64 256
  %320 = load double, ptr %319, align 8, !tbaa !123
  %321 = call double @sqrt(double noundef %320) #36, !tbaa !30
  %322 = fadd double %321, 1.000000e+00
  %323 = fdiv double %318, %322
  invoke void @geod_init(ptr noundef nonnull %311, double noundef %316, double noundef %323)
          to label %324 unwind label %306

324:                                              ; preds = %314, %310, %302, %285
  %325 = phi i1 [ true, %285 ], [ true, %310 ], [ true, %314 ], [ false, %302 ]
  %326 = getelementptr inbounds nuw i8, ptr %8, i64 8
  %327 = load ptr, ptr %326, align 8, !tbaa !21
  %328 = icmp eq ptr %327, null
  br i1 %328, label %358, label %329

329:                                              ; preds = %324
  %330 = getelementptr inbounds nuw i8, ptr %327, i64 8
  %331 = load atomic i64, ptr %330 acquire, align 8
  %332 = icmp eq i64 %331, 4294967297
  %333 = trunc i64 %331 to i32
  br i1 %332, label %334, label %342

334:                                              ; preds = %329
  store i32 0, ptr %330, align 8, !tbaa !24
  %335 = getelementptr inbounds nuw i8, ptr %327, i64 12
  store i32 0, ptr %335, align 4, !tbaa !27
  %336 = load ptr, ptr %327, align 8, !tbaa !28
  %337 = getelementptr inbounds nuw i8, ptr %336, i64 16
  %338 = load ptr, ptr %337, align 8
  call void %338(ptr noundef nonnull align 8 dereferenceable(16) %327) #36
  %339 = load ptr, ptr %327, align 8, !tbaa !28
  %340 = getelementptr inbounds nuw i8, ptr %339, i64 24
  %341 = load ptr, ptr %340, align 8
  call void %341(ptr noundef nonnull align 8 dereferenceable(16) %327) #36
  br label %358

342:                                              ; preds = %329
  %343 = load i8, ptr @__libc_single_threaded, align 1, !tbaa !13
  %344 = icmp eq i8 %343, 0
  br i1 %344, label %347, label %345

345:                                              ; preds = %342
  %346 = add nsw i32 %333, -1
  store i32 %346, ptr %330, align 4, !tbaa !30
  br label %349

347:                                              ; preds = %342
  %348 = atomicrmw volatile add ptr %330, i32 -1 acq_rel, align 4
  br label %349

349:                                              ; preds = %347, %345
  %350 = phi i32 [ %333, %345 ], [ %348, %347 ]
  %351 = icmp eq i32 %350, 1
  br i1 %351, label %352, label %358, !prof !31

352:                                              ; preds = %349
  call void @_ZNSt16_Sp_counted_baseILN9__gnu_cxx12_Lock_policyE2EE24_M_release_last_use_coldEv(ptr noundef nonnull align 8 dereferenceable(16) %327) #36
  br label %358

353:                                              ; preds = %306, %304
  %354 = phi { ptr, i32 } [ %307, %306 ], [ %305, %304 ]
  %355 = extractvalue { ptr, i32 } %354, 1
  call void @llvm.lifetime.end.p0(ptr %8)
  %356 = call i32 @llvm.eh.typeid.for.p0(ptr nonnull @_ZTISt9exception) #36
  %357 = icmp eq i32 %355, %356
  br i1 %357, label %359, label %365

358:                                              ; preds = %352, %349, %334, %324
  call void @llvm.lifetime.end.p0(ptr %8)
  br i1 %325, label %362, label %363

359:                                              ; preds = %353
  %360 = extractvalue { ptr, i32 } %354, 0
  %361 = call ptr @__cxa_begin_catch(ptr %360) #36
  call void @__cxa_end_catch()
  br label %362

362:                                              ; preds = %359, %358, %281, %277, %223
  br label %363

363:                                              ; preds = %362, %358, %222
  %364 = phi ptr [ %79, %222 ], [ %225, %362 ], [ null, %358 ]
  ret ptr %364

365:                                              ; preds = %353, %198
  %366 = phi { ptr, i32 } [ %199, %198 ], [ %354, %353 ]
  resume { ptr, i32 } %366
}

; Function Attrs: mustprogress nofree nounwind willreturn memory(read)
declare ptr @__dynamic_cast(ptr, ptr, ptr, i64) local_unnamed_addr #6

; Function Attrs: mustprogress nofree nounwind willreturn memory(read)
declare noundef nonnull align 8 dereferenceable(16) ptr @_ZNK5osgeo4proj9operation15SingleOperation6methodEv(ptr noundef nonnull align 8 dereferenceable(16)) local_unnamed_addr #7

; Function Attrs: mustprogress nofree nounwind willreturn memory(read)
declare noundef nonnull align 8 dereferenceable(32) ptr @_ZNK5osgeo4proj6common16IdentifiedObject7nameStrB5cxx11Ev(ptr noundef nonnull align 8 dereferenceable(40)) local_unnamed_addr #7

declare void @_ZN5osgeo4proj2io19PROJStringFormatter6createENS2_10ConventionESt10shared_ptrINS1_15DatabaseContextEE(ptr dead_on_unwind writable sret(%"class.dropbox::oxygen::nn.53") align 8, i32 noundef, ptr noundef) local_unnamed_addr #5

declare void @_ZNK5osgeo4proj2io21IPROJStringExportable18exportToPROJStringB5cxx11EPNS1_19PROJStringFormatterE(ptr dead_on_unwind writable sret(%"class.std::__cxx11::basic_string") align 8, ptr noundef nonnull align 8 dereferenceable(8), ptr noundef) local_unnamed_addr #5

declare i32 @proj_context_is_network_enabled(ptr noundef) local_unnamed_addr #5

declare noundef ptr @_Z18pj_create_internalP6pj_ctxPKc(ptr noundef, ptr noundef) local_unnamed_addr #5

declare noundef nonnull align 8 dereferenceable(16) ptr @_ZNK5osgeo4proj9operation19CoordinateOperation21sourceCoordinateEpochEv(ptr noundef nonnull align 8 dereferenceable(72)) local_unnamed_addr #5

declare noundef nonnull align 8 dereferenceable(16) ptr @_ZNK5osgeo4proj9operation19CoordinateOperation21targetCoordinateEpochEv(ptr noundef nonnull align 8 dereferenceable(72)) local_unnamed_addr #5

declare noundef nonnull align 8 dereferenceable(24) ptr @_ZNK5osgeo4proj6common9DataEpoch15coordinateEpochEv(ptr noundef nonnull align 8 dereferenceable(8)) local_unnamed_addr #5

; Function Attrs: mustprogress nofree nounwind willreturn memory(read)
declare noundef double @_ZNK5osgeo4proj6common7Measure13convertToUnitERKNS1_13UnitOfMeasureE(ptr noundef nonnull align 8 dereferenceable(24), ptr noundef nonnull align 8 dereferenceable(24)) local_unnamed_addr #7

; Function Attrs: inlinehint mustprogress nounwind sspstrong uwtable
define linkonce_odr hidden void @_ZN7dropbox6oxygen2nnISt10unique_ptrIN5osgeo4proj2io19PROJStringFormatterESt14default_deleteIS6_EEED2Ev(ptr noundef nonnull align 8 dereferenceable(8) %0) unnamed_addr #1 comdat align 2 personality ptr @__gxx_personality_v0 {
  %2 = load ptr, ptr %0, align 8, !tbaa !58
  %3 = icmp eq ptr %2, null
  br i1 %3, label %5, label %4

4:                                                ; preds = %1
  tail call void @_ZN5osgeo4proj2io19PROJStringFormatterD1Ev(ptr noundef nonnull align 8 dereferenceable(8) %2) #36
  tail call void @_ZdlPvm(ptr noundef nonnull %2, i64 noundef 8) #37
  br label %5

5:                                                ; preds = %4, %1
  store ptr null, ptr %0, align 8, !tbaa !58
  ret void
}

; Function Attrs: nounwind memory(none)
declare i32 @llvm.eh.typeid.for.p0(ptr) #8

declare ptr @__cxa_begin_catch(ptr) local_unnamed_addr

declare void @__cxa_end_catch() local_unnamed_addr

declare noundef ptr @_Z6pj_newv() local_unnamed_addr #5

declare void @_ZNK5osgeo4proj3crs3CRS18extractGeodeticCRSEv(ptr dead_on_unwind writable sret(%"class.std::shared_ptr.99") align 8, ptr noundef nonnull align 8 dereferenceable(64)) local_unnamed_addr #5

; Function Attrs: mustprogress nofree nounwind willreturn memory(read)
declare noundef nonnull align 8 dereferenceable(16) ptr @_ZNK5osgeo4proj3crs11GeodeticCRS9ellipsoidEv(ptr noundef nonnull align 8 dereferenceable(16)) local_unnamed_addr #7

; Function Attrs: mustprogress nofree nounwind willreturn memory(read)
declare noundef nonnull align 8 dereferenceable(24) ptr @_ZNK5osgeo4proj5datum9Ellipsoid13semiMajorAxisEv(ptr noundef nonnull align 8 dereferenceable(64)) local_unnamed_addr #7

; Function Attrs: mustprogress nofree nounwind willreturn memory(read)
declare noundef double @_ZNK5osgeo4proj6common7Measure10getSIValueEv(ptr noundef nonnull align 8 dereferenceable(24)) local_unnamed_addr #7

; Function Attrs: mustprogress nofree nounwind willreturn memory(read)
declare noundef double @_ZNK5osgeo4proj5datum9Ellipsoid19squaredEccentricityEv(ptr noundef nonnull align 8 dereferenceable(64)) local_unnamed_addr #7

declare void @_Z14proj_log_errorPK8PJconstsPKcz(ptr noundef, ptr noundef, ...) local_unnamed_addr #5

declare i32 @proj_errno_set(ptr noundef, i32 noundef) local_unnamed_addr #5

declare ptr @proj_destroy(ptr noundef) local_unnamed_addr #5

declare noundef i32 @_Z24pj_calc_ellipsoid_paramsP8PJconstsdd(ptr noundef, double noundef, double noundef) local_unnamed_addr #5

; Function Attrs: mustprogress nofree nounwind willreturn allockind("alloc,zeroed") allocsize(0,1) memory(inaccessiblemem: readwrite)
declare noalias noundef ptr @calloc(i64 noundef, i64 noundef) local_unnamed_addr #9

declare void @geod_init(ptr noundef, double noundef, double noundef) local_unnamed_addr #5

; Function Attrs: mustprogress nocallback nofree nounwind willreturn memory(errnomem: write)
declare double @sqrt(double noundef) local_unnamed_addr #10

; Function Attrs: mustprogress nounwind sspstrong uwtable
define linkonce_odr void @_ZNSt12__shared_ptrIN5osgeo4proj3crs11GeodeticCRSELN9__gnu_cxx12_Lock_policyE2EED2Ev(ptr noundef nonnull align 8 dereferenceable(16) %0) unnamed_addr #0 comdat align 2 personality ptr @__gxx_personality_v0 {
  %2 = getelementptr inbounds nuw i8, ptr %0, i64 8
  %3 = load ptr, ptr %2, align 8, !tbaa !21
  %4 = icmp eq ptr %3, null
  br i1 %4, label %29, label %5

5:                                                ; preds = %1
  %6 = getelementptr inbounds nuw i8, ptr %3, i64 8
  %7 = load atomic i64, ptr %6 acquire, align 8
  %8 = icmp eq i64 %7, 4294967297
  %9 = trunc i64 %7 to i32
  br i1 %8, label %10, label %18

10:                                               ; preds = %5
  store i32 0, ptr %6, align 8, !tbaa !24
  %11 = getelementptr inbounds nuw i8, ptr %3, i64 12
  store i32 0, ptr %11, align 4, !tbaa !27
  %12 = load ptr, ptr %3, align 8, !tbaa !28
  %13 = getelementptr inbounds nuw i8, ptr %12, i64 16
  %14 = load ptr, ptr %13, align 8
  tail call void %14(ptr noundef nonnull align 8 dereferenceable(16) %3) #36
  %15 = load ptr, ptr %3, align 8, !tbaa !28
  %16 = getelementptr inbounds nuw i8, ptr %15, i64 24
  %17 = load ptr, ptr %16, align 8
  tail call void %17(ptr noundef nonnull align 8 dereferenceable(16) %3) #36
  br label %29

18:                                               ; preds = %5
  %19 = load i8, ptr @__libc_single_threaded, align 1, !tbaa !13
  %20 = icmp eq i8 %19, 0
  br i1 %20, label %23, label %21

21:                                               ; preds = %18
  %22 = add nsw i32 %9, -1
  store i32 %22, ptr %6, align 4, !tbaa !30
  br label %25

23:                                               ; preds = %18
  %24 = atomicrmw volatile add ptr %6, i32 -1 acq_rel, align 4
  br label %25

25:                                               ; preds = %23, %21
  %26 = phi i32 [ %9, %21 ], [ %24, %23 ]
  %27 = icmp eq i32 %26, 1
  br i1 %27, label %28, label %29, !prof !31

28:                                               ; preds = %25
  tail call void @_ZNSt16_Sp_counted_baseILN9__gnu_cxx12_Lock_policyE2EE24_M_release_last_use_coldEv(ptr noundef nonnull align 8 dereferenceable(16) %3) #36
  br label %29

29:                                               ; preds = %28, %25, %10, %1
  ret void
}

; Function Attrs: mustprogress nounwind sspstrong uwtable
define hidden void @_ZN11PJ_OBJ_LISTD2Ev(ptr noundef nonnull align 8 captures(none) dereferenceable(32) initializes((0, 8)) %0) unnamed_addr #0 align 2 personality ptr @__gxx_personality_v0 {
  store ptr getelementptr inbounds nuw inrange(-16, 16) (i8, ptr @_ZTV11PJ_OBJ_LIST, i64 16), ptr %0, align 8, !tbaa !28
  %2 = getelementptr inbounds nuw i8, ptr %0, i64 8
  %3 = load ptr, ptr %2, align 8, !tbaa !124
  %4 = getelementptr inbounds nuw i8, ptr %0, i64 16
  %5 = load ptr, ptr %4, align 8, !tbaa !127
  %6 = icmp eq ptr %3, %5
  br i1 %6, label %41, label %7

7:                                                ; preds = %36, %1
  %8 = phi ptr [ %37, %36 ], [ %3, %1 ]
  %9 = getelementptr inbounds nuw i8, ptr %8, i64 8
  %10 = load ptr, ptr %9, align 8, !tbaa !21
  %11 = icmp eq ptr %10, null
  br i1 %11, label %36, label %12

12:                                               ; preds = %7
  %13 = getelementptr inbounds nuw i8, ptr %10, i64 8
  %14 = load atomic i64, ptr %13 acquire, align 8
  %15 = icmp eq i64 %14, 4294967297
  %16 = trunc i64 %14 to i32
  br i1 %15, label %17, label %25

17:                                               ; preds = %12
  store i32 0, ptr %13, align 8, !tbaa !24
  %18 = getelementptr inbounds nuw i8, ptr %10, i64 12
  store i32 0, ptr %18, align 4, !tbaa !27
  %19 = load ptr, ptr %10, align 8, !tbaa !28
  %20 = getelementptr inbounds nuw i8, ptr %19, i64 16
  %21 = load ptr, ptr %20, align 8
  tail call void %21(ptr noundef nonnull align 8 dereferenceable(16) %10) #36
  %22 = load ptr, ptr %10, align 8, !tbaa !28
  %23 = getelementptr inbounds nuw i8, ptr %22, i64 24
  %24 = load ptr, ptr %23, align 8
  tail call void %24(ptr noundef nonnull align 8 dereferenceable(16) %10) #36
  br label %36

25:                                               ; preds = %12
  %26 = load i8, ptr @__libc_single_threaded, align 1, !tbaa !13
  %27 = icmp eq i8 %26, 0
  br i1 %27, label %30, label %28

28:                                               ; preds = %25
  %29 = add nsw i32 %16, -1
  store i32 %29, ptr %13, align 4, !tbaa !30
  br label %32

30:                                               ; preds = %25
  %31 = atomicrmw volatile add ptr %13, i32 -1 acq_rel, align 4
  br label %32

32:                                               ; preds = %30, %28
  %33 = phi i32 [ %16, %28 ], [ %31, %30 ]
  %34 = icmp eq i32 %33, 1
  br i1 %34, label %35, label %36, !prof !31

35:                                               ; preds = %32
  tail call void @_ZNSt16_Sp_counted_baseILN9__gnu_cxx12_Lock_policyE2EE24_M_release_last_use_coldEv(ptr noundef nonnull align 8 dereferenceable(16) %10) #36
  br label %36

36:                                               ; preds = %35, %32, %17, %7
  %37 = getelementptr inbounds nuw i8, ptr %8, i64 16
  %38 = icmp eq ptr %37, %5
  br i1 %38, label %39, label %7, !llvm.loop !128

39:                                               ; preds = %36
  %40 = load ptr, ptr %2, align 8, !tbaa !124
  br label %41

41:                                               ; preds = %39, %1
  %42 = phi ptr [ %40, %39 ], [ %3, %1 ]
  %43 = icmp eq ptr %42, null
  br i1 %43, label %50, label %44

44:                                               ; preds = %41
  %45 = getelementptr inbounds nuw i8, ptr %0, i64 24
  %46 = load ptr, ptr %45, align 8, !tbaa !129
  %47 = ptrtoint ptr %46 to i64
  %48 = ptrtoint ptr %42 to i64
  %49 = sub i64 %47, %48
  tail call void @_ZdlPvm(ptr noundef nonnull %42, i64 noundef %49) #37
  br label %50

50:                                               ; preds = %44, %41
  ret void
}

; Function Attrs: mustprogress nounwind sspstrong uwtable
define linkonce_odr hidden void @_ZNSt6vectorIN7dropbox6oxygen2nnISt10shared_ptrIN5osgeo4proj6common16IdentifiedObjectEEEESaIS9_EED2Ev(ptr noundef nonnull align 8 dereferenceable(24) %0) unnamed_addr #0 comdat align 2 personality ptr @__gxx_personality_v0 {
  %2 = load ptr, ptr %0, align 8, !tbaa !124
  %3 = getelementptr inbounds nuw i8, ptr %0, i64 8
  %4 = load ptr, ptr %3, align 8, !tbaa !127
  %5 = icmp eq ptr %2, %4
  br i1 %5, label %40, label %6

6:                                                ; preds = %35, %1
  %7 = phi ptr [ %36, %35 ], [ %2, %1 ]
  %8 = getelementptr inbounds nuw i8, ptr %7, i64 8
  %9 = load ptr, ptr %8, align 8, !tbaa !21
  %10 = icmp eq ptr %9, null
  br i1 %10, label %35, label %11

11:                                               ; preds = %6
  %12 = getelementptr inbounds nuw i8, ptr %9, i64 8
  %13 = load atomic i64, ptr %12 acquire, align 8
  %14 = icmp eq i64 %13, 4294967297
  %15 = trunc i64 %13 to i32
  br i1 %14, label %16, label %24

16:                                               ; preds = %11
  store i32 0, ptr %12, align 8, !tbaa !24
  %17 = getelementptr inbounds nuw i8, ptr %9, i64 12
  store i32 0, ptr %17, align 4, !tbaa !27
  %18 = load ptr, ptr %9, align 8, !tbaa !28
  %19 = getelementptr inbounds nuw i8, ptr %18, i64 16
  %20 = load ptr, ptr %19, align 8
  tail call void %20(ptr noundef nonnull align 8 dereferenceable(16) %9) #36
  %21 = load ptr, ptr %9, align 8, !tbaa !28
  %22 = getelementptr inbounds nuw i8, ptr %21, i64 24
  %23 = load ptr, ptr %22, align 8
  tail call void %23(ptr noundef nonnull align 8 dereferenceable(16) %9) #36
  br label %35

24:                                               ; preds = %11
  %25 = load i8, ptr @__libc_single_threaded, align 1, !tbaa !13
  %26 = icmp eq i8 %25, 0
  br i1 %26, label %29, label %27

27:                                               ; preds = %24
  %28 = add nsw i32 %15, -1
  store i32 %28, ptr %12, align 4, !tbaa !30
  br label %31

29:                                               ; preds = %24
  %30 = atomicrmw volatile add ptr %12, i32 -1 acq_rel, align 4
  br label %31

31:                                               ; preds = %29, %27
  %32 = phi i32 [ %15, %27 ], [ %30, %29 ]
  %33 = icmp eq i32 %32, 1
  br i1 %33, label %34, label %35, !prof !31

34:                                               ; preds = %31
  tail call void @_ZNSt16_Sp_counted_baseILN9__gnu_cxx12_Lock_policyE2EE24_M_release_last_use_coldEv(ptr noundef nonnull align 8 dereferenceable(16) %9) #36
  br label %35

35:                                               ; preds = %34, %31, %16, %6
  %36 = getelementptr inbounds nuw i8, ptr %7, i64 16
  %37 = icmp eq ptr %36, %4
  br i1 %37, label %38, label %6, !llvm.loop !128

38:                                               ; preds = %35
  %39 = load ptr, ptr %0, align 8, !tbaa !124
  br label %40

40:                                               ; preds = %38, %1
  %41 = phi ptr [ %39, %38 ], [ %2, %1 ]
  %42 = icmp eq ptr %41, null
  br i1 %42, label %49, label %43

43:                                               ; preds = %40
  %44 = getelementptr inbounds nuw i8, ptr %0, i64 16
  %45 = load ptr, ptr %44, align 8, !tbaa !129
  %46 = ptrtoint ptr %45 to i64
  %47 = ptrtoint ptr %41 to i64
  %48 = sub i64 %46, %47
  tail call void @_ZdlPvm(ptr noundef nonnull %41, i64 noundef %48) #37
  br label %49

49:                                               ; preds = %43, %40
  ret void
}

; Function Attrs: mustprogress nounwind sspstrong uwtable
define hidden void @_ZN11PJ_OBJ_LISTD0Ev(ptr noundef nonnull align 8 dereferenceable(32) initializes((0, 8)) %0) unnamed_addr #0 align 2 personality ptr @__gxx_personality_v0 {
  store ptr getelementptr inbounds nuw inrange(-16, 16) (i8, ptr @_ZTV11PJ_OBJ_LIST, i64 16), ptr %0, align 8, !tbaa !28
  %2 = getelementptr inbounds nuw i8, ptr %0, i64 8
  %3 = load ptr, ptr %2, align 8, !tbaa !124
  %4 = getelementptr inbounds nuw i8, ptr %0, i64 16
  %5 = load ptr, ptr %4, align 8, !tbaa !127
  %6 = icmp eq ptr %3, %5
  br i1 %6, label %41, label %7

7:                                                ; preds = %36, %1
  %8 = phi ptr [ %37, %36 ], [ %3, %1 ]
  %9 = getelementptr inbounds nuw i8, ptr %8, i64 8
  %10 = load ptr, ptr %9, align 8, !tbaa !21
  %11 = icmp eq ptr %10, null
  br i1 %11, label %36, label %12

12:                                               ; preds = %7
  %13 = getelementptr inbounds nuw i8, ptr %10, i64 8
  %14 = load atomic i64, ptr %13 acquire, align 8
  %15 = icmp eq i64 %14, 4294967297
  %16 = trunc i64 %14 to i32
  br i1 %15, label %17, label %25

17:                                               ; preds = %12
  store i32 0, ptr %13, align 8, !tbaa !24
  %18 = getelementptr inbounds nuw i8, ptr %10, i64 12
  store i32 0, ptr %18, align 4, !tbaa !27
  %19 = load ptr, ptr %10, align 8, !tbaa !28
  %20 = getelementptr inbounds nuw i8, ptr %19, i64 16
  %21 = load ptr, ptr %20, align 8
  tail call void %21(ptr noundef nonnull align 8 dereferenceable(16) %10) #36
  %22 = load ptr, ptr %10, align 8, !tbaa !28
  %23 = getelementptr inbounds nuw i8, ptr %22, i64 24
  %24 = load ptr, ptr %23, align 8
  tail call void %24(ptr noundef nonnull align 8 dereferenceable(16) %10) #36
  br label %36

25:                                               ; preds = %12
  %26 = load i8, ptr @__libc_single_threaded, align 1, !tbaa !13
  %27 = icmp eq i8 %26, 0
  br i1 %27, label %30, label %28

28:                                               ; preds = %25
  %29 = add nsw i32 %16, -1
  store i32 %29, ptr %13, align 4, !tbaa !30
  br label %32

30:                                               ; preds = %25
  %31 = atomicrmw volatile add ptr %13, i32 -1 acq_rel, align 4
  br label %32

32:                                               ; preds = %30, %28
  %33 = phi i32 [ %16, %28 ], [ %31, %30 ]
  %34 = icmp eq i32 %33, 1
  br i1 %34, label %35, label %36, !prof !31

35:                                               ; preds = %32
  tail call void @_ZNSt16_Sp_counted_baseILN9__gnu_cxx12_Lock_policyE2EE24_M_release_last_use_coldEv(ptr noundef nonnull align 8 dereferenceable(16) %10) #36
  br label %36

36:                                               ; preds = %35, %32, %17, %7
  %37 = getelementptr inbounds nuw i8, ptr %8, i64 16
  %38 = icmp eq ptr %37, %5
  br i1 %38, label %39, label %7, !llvm.loop !128

39:                                               ; preds = %36
  %40 = load ptr, ptr %2, align 8, !tbaa !124
  br label %41

41:                                               ; preds = %39, %1
  %42 = phi ptr [ %40, %39 ], [ %3, %1 ]
  %43 = icmp eq ptr %42, null
  br i1 %43, label %50, label %44

44:                                               ; preds = %41
  %45 = getelementptr inbounds nuw i8, ptr %0, i64 24
  %46 = load ptr, ptr %45, align 8, !tbaa !129
  %47 = ptrtoint ptr %46 to i64
  %48 = ptrtoint ptr %42 to i64
  %49 = sub i64 %47, %48
  tail call void @_ZdlPvm(ptr noundef nonnull %42, i64 noundef %49) #37
  br label %50

50:                                               ; preds = %44, %41
  tail call void @_ZdlPvm(ptr noundef nonnull %0, i64 noundef 32) #37
  ret void
}

; Function Attrs: mustprogress nofree norecurse nosync nounwind sspstrong willreturn memory(none) uwtable
define void @proj_context_set_autoclose_database(ptr noundef readnone captures(none) %0, i32 noundef %1) local_unnamed_addr #11 {
  ret void
}

; Function Attrs: mustprogress sspstrong uwtable
define range(i32 0, 2) i32 @proj_context_set_database_path(ptr noundef %0, ptr noundef %1, ptr noundef readonly captures(address_is_null) %2, ptr noundef readnone captures(none) %3) local_unnamed_addr #3 personality ptr @__gxx_personality_v0 {
  %5 = alloca %"class.std::__cxx11::basic_string", align 8
  %6 = alloca %"class.std::vector", align 8
  %7 = alloca %"class.std::vector", align 8
  %8 = alloca %"class.dropbox::oxygen::nn", align 8
  %9 = icmp eq ptr %0, null
  br i1 %9, label %10, label %12

10:                                               ; preds = %4
  %11 = tail call noundef ptr @_Z18pj_get_default_ctxv()
  br label %12

12:                                               ; preds = %10, %4
  %13 = phi ptr [ %11, %10 ], [ %0, %4 ]
  call void @llvm.lifetime.start.p0(ptr %5)
  %14 = getelementptr inbounds nuw i8, ptr %5, i64 16
  store ptr %14, ptr %5, align 8, !tbaa !41
  %15 = getelementptr inbounds nuw i8, ptr %5, i64 8
  store i64 0, ptr %15, align 8, !tbaa !12
  store i8 0, ptr %14, align 8, !tbaa !13
  call void @llvm.lifetime.start.p0(ptr %6)
  call void @llvm.memset.p0.i64(ptr noundef nonnull align 8 dereferenceable(24) %6, i8 0, i64 24, i1 false)
  %16 = getelementptr inbounds nuw i8, ptr %13, i64 64
  %17 = load ptr, ptr %16, align 8, !tbaa !130
  %18 = icmp eq ptr %17, null
  br i1 %18, label %31, label %19

19:                                               ; preds = %12
  %20 = getelementptr inbounds nuw i8, ptr %17, i64 24
  invoke void @_ZNSt7__cxx1112basic_stringIcSt11char_traitsIcESaIcEE9_M_assignERKS4_(ptr noundef nonnull align 8 dereferenceable(32) %5, ptr noundef nonnull align 8 dereferenceable(32) %20)
          to label %21 unwind label %25

21:                                               ; preds = %19
  %22 = load ptr, ptr %16, align 8, !tbaa !130
  %23 = getelementptr inbounds nuw i8, ptr %22, i64 56
  %24 = invoke noundef nonnull align 8 dereferenceable(24) ptr @_ZNSt6vectorINSt7__cxx1112basic_stringIcSt11char_traitsIcESaIcEEESaIS5_EEaSERKS7_(ptr noundef nonnull align 8 dereferenceable(24) %6, ptr noundef nonnull align 8 dereferenceable(24) %23)
          to label %27 unwind label %25

25:                                               ; preds = %21, %19
  %26 = landingpad { ptr, i32 }
          cleanup
  br label %175

27:                                               ; preds = %21
  %28 = load ptr, ptr %16, align 8, !tbaa !130
  %29 = icmp eq ptr %28, null
  br i1 %29, label %31, label %30

30:                                               ; preds = %27
  call void @_ZN14projCppContextD2Ev(ptr noundef nonnull align 8 dereferenceable(272) %28) #36
  call void @_ZdlPvm(ptr noundef nonnull %28, i64 noundef 272) #37
  br label %31

31:                                               ; preds = %30, %27, %12
  store ptr null, ptr %16, align 8, !tbaa !130
  %32 = invoke noalias noundef nonnull dereferenceable(272) ptr @_Znwm(i64 noundef 272) #38
          to label %33 unwind label %96

33:                                               ; preds = %31
  call void @llvm.lifetime.start.p0(ptr %7)
  invoke void @_ZN14projCppContext8toVectorB5cxx11EPKPKc(ptr dead_on_unwind nonnull writable sret(%"class.std::vector") align 8 %7, ptr noundef %2)
          to label %34 unwind label %98

34:                                               ; preds = %33
  invoke void @_ZN14projCppContextC1EP6pj_ctxPKcRKSt6vectorINSt7__cxx1112basic_stringIcSt11char_traitsIcESaIcEEESaISA_EE(ptr noundef nonnull align 8 dereferenceable(272) %32, ptr noundef nonnull %13, ptr noundef %1, ptr noundef nonnull align 8 dereferenceable(24) %7)
          to label %35 unwind label %100

35:                                               ; preds = %34
  store ptr %32, ptr %16, align 8, !tbaa !130
  %36 = load ptr, ptr %7, align 8, !tbaa !14
  %37 = getelementptr inbounds nuw i8, ptr %7, i64 8
  %38 = load ptr, ptr %37, align 8, !tbaa !17
  %39 = icmp eq ptr %36, %38
  br i1 %39, label %57, label %40

40:                                               ; preds = %52, %35
  %41 = phi ptr [ %53, %52 ], [ %36, %35 ]
  %42 = load ptr, ptr %41, align 8, !tbaa !4
  %43 = getelementptr inbounds nuw i8, ptr %41, i64 16
  %44 = icmp eq ptr %42, %43
  br i1 %44, label %45, label %49

45:                                               ; preds = %40
  %46 = getelementptr inbounds nuw i8, ptr %41, i64 8
  %47 = load i64, ptr %46, align 8, !tbaa !12
  %48 = icmp ult i64 %47, 16
  call void @llvm.assume(i1 %48)
  br label %52

49:                                               ; preds = %40
  %50 = load i64, ptr %43, align 8, !tbaa !13
  %51 = add i64 %50, 1
  call void @_ZdlPvm(ptr noundef %42, i64 noundef %51) #37
  br label %52

52:                                               ; preds = %49, %45
  %53 = getelementptr inbounds nuw i8, ptr %41, i64 32
  %54 = icmp eq ptr %53, %38
  br i1 %54, label %55, label %40, !llvm.loop !18

55:                                               ; preds = %52
  %56 = load ptr, ptr %7, align 8, !tbaa !14
  br label %57

57:                                               ; preds = %55, %35
  %58 = phi ptr [ %56, %55 ], [ %36, %35 ]
  %59 = icmp eq ptr %58, null
  br i1 %59, label %66, label %60

60:                                               ; preds = %57
  %61 = getelementptr inbounds nuw i8, ptr %7, i64 16
  %62 = load ptr, ptr %61, align 8, !tbaa !20
  %63 = ptrtoint ptr %62 to i64
  %64 = ptrtoint ptr %58 to i64
  %65 = sub i64 %63, %64
  call void @_ZdlPvm(ptr noundef nonnull %58, i64 noundef %65) #37
  br label %66

66:                                               ; preds = %60, %57
  call void @llvm.lifetime.end.p0(ptr %7)
  %67 = load ptr, ptr %16, align 8, !tbaa !130
  invoke void @_ZN14projCppContext18getDatabaseContextEv(ptr dead_on_unwind nonnull writable sret(%"class.dropbox::oxygen::nn") align 8 %8, ptr noundef nonnull align 8 dereferenceable(272) %67)
          to label %68 unwind label %96

68:                                               ; preds = %66
  %69 = getelementptr inbounds nuw i8, ptr %8, i64 8
  %70 = load ptr, ptr %69, align 8, !tbaa !21
  %71 = icmp eq ptr %70, null
  br i1 %71, label %133, label %72

72:                                               ; preds = %68
  %73 = getelementptr inbounds nuw i8, ptr %70, i64 8
  %74 = load atomic i64, ptr %73 acquire, align 8
  %75 = icmp eq i64 %74, 4294967297
  %76 = trunc i64 %74 to i32
  br i1 %75, label %77, label %85

77:                                               ; preds = %72
  store i32 0, ptr %73, align 8, !tbaa !24
  %78 = getelementptr inbounds nuw i8, ptr %70, i64 12
  store i32 0, ptr %78, align 4, !tbaa !27
  %79 = load ptr, ptr %70, align 8, !tbaa !28
  %80 = getelementptr inbounds nuw i8, ptr %79, i64 16
  %81 = load ptr, ptr %80, align 8
  call void %81(ptr noundef nonnull align 8 dereferenceable(16) %70) #36
  %82 = load ptr, ptr %70, align 8, !tbaa !28
  %83 = getelementptr inbounds nuw i8, ptr %82, i64 24
  %84 = load ptr, ptr %83, align 8
  call void %84(ptr noundef nonnull align 8 dereferenceable(16) %70) #36
  br label %133

85:                                               ; preds = %72
  %86 = load i8, ptr @__libc_single_threaded, align 1, !tbaa !13
  %87 = icmp eq i8 %86, 0
  br i1 %87, label %90, label %88

88:                                               ; preds = %85
  %89 = add nsw i32 %76, -1
  store i32 %89, ptr %73, align 4, !tbaa !30
  br label %92

90:                                               ; preds = %85
  %91 = atomicrmw volatile add ptr %73, i32 -1 acq_rel, align 4
  br label %92

92:                                               ; preds = %90, %88
  %93 = phi i32 [ %76, %88 ], [ %91, %90 ]
  %94 = icmp eq i32 %93, 1
  br i1 %94, label %95, label %133, !prof !31

95:                                               ; preds = %92
  call void @_ZNSt16_Sp_counted_baseILN9__gnu_cxx12_Lock_policyE2EE24_M_release_last_use_coldEv(ptr noundef nonnull align 8 dereferenceable(16) %70) #36
  br label %133

96:                                               ; preds = %66, %31
  %97 = landingpad { ptr, i32 }
          cleanup
          catch ptr @_ZTISt9exception
  br label %104

98:                                               ; preds = %33
  %99 = landingpad { ptr, i32 }
          cleanup
          catch ptr @_ZTISt9exception
  br label %102

100:                                              ; preds = %34
  %101 = landingpad { ptr, i32 }
          cleanup
          catch ptr @_ZTISt9exception
  call void @_ZNSt6vectorINSt7__cxx1112basic_stringIcSt11char_traitsIcESaIcEEESaIS5_EED2Ev(ptr noundef nonnull align 8 dereferenceable(24) %7) #36
  br label %102

102:                                              ; preds = %100, %98
  %103 = phi { ptr, i32 } [ %101, %100 ], [ %99, %98 ]
  call void @llvm.lifetime.end.p0(ptr %7)
  call void @_ZdlPvm(ptr noundef nonnull %32, i64 noundef 272) #37
  br label %104

104:                                              ; preds = %102, %96
  %105 = phi { ptr, i32 } [ %97, %96 ], [ %103, %102 ]
  %106 = extractvalue { ptr, i32 } %105, 1
  %107 = call i32 @llvm.eh.typeid.for.p0(ptr nonnull @_ZTISt9exception) #36
  %108 = icmp eq i32 %106, %107
  br i1 %108, label %109, label %175

109:                                              ; preds = %104
  %110 = extractvalue { ptr, i32 } %105, 0
  %111 = call ptr @__cxa_begin_catch(ptr %110) #36
  %112 = load ptr, ptr %111, align 8, !tbaa !28
  %113 = getelementptr inbounds nuw i8, ptr %112, i64 16
  %114 = load ptr, ptr %113, align 8
  %115 = call noundef ptr %114(ptr noundef nonnull align 8 dereferenceable(8) %111) #36
  invoke fastcc void @_ZL14proj_log_errorP6pj_ctxPKcS2_(ptr noundef nonnull %13, ptr noundef nonnull @__FUNCTION__.proj_context_set_database_path, ptr noundef %115)
          to label %116 unwind label %125

116:                                              ; preds = %109
  %117 = load ptr, ptr %16, align 8, !tbaa !130
  %118 = icmp eq ptr %117, null
  br i1 %118, label %120, label %119

119:                                              ; preds = %116
  call void @_ZN14projCppContextD2Ev(ptr noundef nonnull align 8 dereferenceable(272) %117) #36
  call void @_ZdlPvm(ptr noundef nonnull %117, i64 noundef 272) #37
  br label %120

120:                                              ; preds = %119, %116
  %121 = invoke noalias noundef nonnull dereferenceable(272) ptr @_Znwm(i64 noundef 272) #38
          to label %122 unwind label %125

122:                                              ; preds = %120
  %123 = load ptr, ptr %5, align 8, !tbaa !4
  invoke void @_ZN14projCppContextC1EP6pj_ctxPKcRKSt6vectorINSt7__cxx1112basic_stringIcSt11char_traitsIcESaIcEEESaISA_EE(ptr noundef nonnull align 8 dereferenceable(272) %121, ptr noundef nonnull %13, ptr noundef %123, ptr noundef nonnull align 8 dereferenceable(24) %6)
          to label %124 unwind label %127

124:                                              ; preds = %122
  store ptr %121, ptr %16, align 8, !tbaa !130
  invoke void @__cxa_end_catch()
          to label %133 unwind label %129

125:                                              ; preds = %120, %109
  %126 = landingpad { ptr, i32 }
          cleanup
  br label %131

127:                                              ; preds = %122
  %128 = landingpad { ptr, i32 }
          cleanup
  call void @_ZdlPvm(ptr noundef nonnull %121, i64 noundef 272) #37
  br label %131

129:                                              ; preds = %124
  %130 = landingpad { ptr, i32 }
          cleanup
  br label %175

131:                                              ; preds = %127, %125
  %132 = phi { ptr, i32 } [ %128, %127 ], [ %126, %125 ]
  invoke void @__cxa_end_catch()
          to label %175 unwind label %186

133:                                              ; preds = %124, %95, %92, %77, %68
  %134 = phi i32 [ 0, %124 ], [ 1, %68 ], [ 1, %77 ], [ 1, %92 ], [ 1, %95 ]
  %135 = load ptr, ptr %6, align 8, !tbaa !14
  %136 = getelementptr inbounds nuw i8, ptr %6, i64 8
  %137 = load ptr, ptr %136, align 8, !tbaa !17
  %138 = icmp eq ptr %135, %137
  br i1 %138, label %156, label %139

139:                                              ; preds = %151, %133
  %140 = phi ptr [ %152, %151 ], [ %135, %133 ]
  %141 = load ptr, ptr %140, align 8, !tbaa !4
  %142 = getelementptr inbounds nuw i8, ptr %140, i64 16
  %143 = icmp eq ptr %141, %142
  br i1 %143, label %144, label %148

144:                                              ; preds = %139
  %145 = getelementptr inbounds nuw i8, ptr %140, i64 8
  %146 = load i64, ptr %145, align 8, !tbaa !12
  %147 = icmp ult i64 %146, 16
  call void @llvm.assume(i1 %147)
  br label %151

148:                                              ; preds = %139
  %149 = load i64, ptr %142, align 8, !tbaa !13
  %150 = add i64 %149, 1
  call void @_ZdlPvm(ptr noundef %141, i64 noundef %150) #37
  br label %151

151:                                              ; preds = %148, %144
  %152 = getelementptr inbounds nuw i8, ptr %140, i64 32
  %153 = icmp eq ptr %152, %137
  br i1 %153, label %154, label %139, !llvm.loop !18

154:                                              ; preds = %151
  %155 = load ptr, ptr %6, align 8, !tbaa !14
  br label %156

156:                                              ; preds = %154, %133
  %157 = phi ptr [ %155, %154 ], [ %135, %133 ]
  %158 = icmp eq ptr %157, null
  br i1 %158, label %165, label %159

159:                                              ; preds = %156
  %160 = getelementptr inbounds nuw i8, ptr %6, i64 16
  %161 = load ptr, ptr %160, align 8, !tbaa !20
  %162 = ptrtoint ptr %161 to i64
  %163 = ptrtoint ptr %157 to i64
  %164 = sub i64 %162, %163
  call void @_ZdlPvm(ptr noundef nonnull %157, i64 noundef %164) #37
  br label %165

165:                                              ; preds = %159, %156
  call void @llvm.lifetime.end.p0(ptr %6)
  %166 = load ptr, ptr %5, align 8, !tbaa !4
  %167 = icmp eq ptr %166, %14
  br i1 %167, label %168, label %171

168:                                              ; preds = %165
  %169 = load i64, ptr %15, align 8, !tbaa !12
  %170 = icmp ult i64 %169, 16
  call void @llvm.assume(i1 %170)
  br label %174

171:                                              ; preds = %165
  %172 = load i64, ptr %14, align 8, !tbaa !13
  %173 = add i64 %172, 1
  call void @_ZdlPvm(ptr noundef %166, i64 noundef %173) #37
  br label %174

174:                                              ; preds = %171, %168
  call void @llvm.lifetime.end.p0(ptr %5)
  ret i32 %134

175:                                              ; preds = %131, %129, %104, %25
  %176 = phi { ptr, i32 } [ %105, %104 ], [ %26, %25 ], [ %130, %129 ], [ %132, %131 ]
  call void @_ZNSt6vectorINSt7__cxx1112basic_stringIcSt11char_traitsIcESaIcEEESaIS5_EED2Ev(ptr noundef nonnull align 8 dereferenceable(24) %6) #36
  call void @llvm.lifetime.end.p0(ptr %6)
  %177 = load ptr, ptr %5, align 8, !tbaa !4
  %178 = icmp eq ptr %177, %14
  br i1 %178, label %179, label %182

179:                                              ; preds = %175
  %180 = load i64, ptr %15, align 8, !tbaa !12
  %181 = icmp ult i64 %180, 16
  call void @llvm.assume(i1 %181)
  br label %185

182:                                              ; preds = %175
  %183 = load i64, ptr %14, align 8, !tbaa !13
  %184 = add i64 %183, 1
  call void @_ZdlPvm(ptr noundef %177, i64 noundef %184) #37
  br label %185

185:                                              ; preds = %182, %179
  call void @llvm.lifetime.end.p0(ptr %5)
  resume { ptr, i32 } %176

186:                                              ; preds = %131
  %187 = landingpad { ptr, i32 }
          catch ptr null
  %188 = extractvalue { ptr, i32 } %187, 0
  call void @__clang_call_terminate(ptr %188) #41
  unreachable
}

declare noundef ptr @_Z18pj_get_default_ctxv() local_unnamed_addr #5

; Function Attrs: mustprogress sspstrong uwtable
define linkonce_odr noundef nonnull align 8 dereferenceable(24) ptr @_ZNSt6vectorINSt7__cxx1112basic_stringIcSt11char_traitsIcESaIcEEESaIS5_EEaSERKS7_(ptr noundef nonnull align 8 dereferenceable(24) %0, ptr noundef nonnull align 8 dereferenceable(24) %1) local_unnamed_addr #3 comdat align 2 personality ptr @__gxx_personality_v0 {
  %3 = alloca i64, align 8
  %4 = alloca ptr, align 8
  %5 = alloca %"struct.std::_UninitDestroyGuard", align 8
  %6 = icmp eq ptr %1, %0
  br i1 %6, label %160, label %7

7:                                                ; preds = %2
  %8 = getelementptr inbounds nuw i8, ptr %1, i64 8
  %9 = load ptr, ptr %8, align 8, !tbaa !17
  %10 = load ptr, ptr %1, align 8, !tbaa !14
  %11 = ptrtoint ptr %9 to i64
  %12 = ptrtoint ptr %10 to i64
  %13 = sub i64 %11, %12
  %14 = ashr exact i64 %13, 5
  %15 = icmp sgt i64 %14, -1
  tail call void @llvm.assume(i1 %15)
  %16 = getelementptr inbounds nuw i8, ptr %0, i64 16
  %17 = load ptr, ptr %16, align 8, !tbaa !20
  %18 = load ptr, ptr %0, align 8, !tbaa !14
  %19 = ptrtoint ptr %17 to i64
  %20 = ptrtoint ptr %18 to i64
  %21 = sub i64 %19, %20
  %22 = ashr exact i64 %21, 5
  %23 = icmp sgt i64 %22, -1
  tail call void @llvm.assume(i1 %23)
  %24 = icmp samesign ugt i64 %14, %22
  br i1 %24, label %25, label %58

25:                                               ; preds = %7
  %26 = tail call noundef ptr @_ZNSt6vectorINSt7__cxx1112basic_stringIcSt11char_traitsIcESaIcEEESaIS5_EE20_M_allocate_and_copyIN9__gnu_cxx17__normal_iteratorIPKS5_S7_EEEEPS5_mT_SF_(ptr noundef nonnull align 8 dereferenceable(24) %0, i64 noundef %14, ptr %10, ptr %9)
  %27 = load ptr, ptr %0, align 8, !tbaa !14
  %28 = getelementptr inbounds nuw i8, ptr %0, i64 8
  %29 = load ptr, ptr %28, align 8, !tbaa !17
  %30 = icmp eq ptr %27, %29
  br i1 %30, label %48, label %31

31:                                               ; preds = %43, %25
  %32 = phi ptr [ %44, %43 ], [ %27, %25 ]
  %33 = load ptr, ptr %32, align 8, !tbaa !4
  %34 = getelementptr inbounds nuw i8, ptr %32, i64 16
  %35 = icmp eq ptr %33, %34
  br i1 %35, label %36, label %40

36:                                               ; preds = %31
  %37 = getelementptr inbounds nuw i8, ptr %32, i64 8
  %38 = load i64, ptr %37, align 8, !tbaa !12
  %39 = icmp ult i64 %38, 16
  tail call void @llvm.assume(i1 %39)
  br label %43

40:                                               ; preds = %31
  %41 = load i64, ptr %34, align 8, !tbaa !13
  %42 = add i64 %41, 1
  tail call void @_ZdlPvm(ptr noundef %33, i64 noundef %42) #37
  br label %43

43:                                               ; preds = %40, %36
  %44 = getelementptr inbounds nuw i8, ptr %32, i64 32
  %45 = icmp eq ptr %44, %29
  br i1 %45, label %46, label %31, !llvm.loop !18

46:                                               ; preds = %43
  %47 = load ptr, ptr %0, align 8, !tbaa !14
  br label %48

48:                                               ; preds = %46, %25
  %49 = phi ptr [ %47, %46 ], [ %27, %25 ]
  %50 = icmp eq ptr %49, null
  br i1 %50, label %56, label %51

51:                                               ; preds = %48
  %52 = load ptr, ptr %16, align 8, !tbaa !20
  %53 = ptrtoint ptr %52 to i64
  %54 = ptrtoint ptr %49 to i64
  %55 = sub i64 %53, %54
  tail call void @_ZdlPvm(ptr noundef nonnull %49, i64 noundef %55) #37
  br label %56

56:                                               ; preds = %51, %48
  store ptr %26, ptr %0, align 8, !tbaa !14
  %57 = getelementptr inbounds nuw i8, ptr %26, i64 %13
  store ptr %57, ptr %16, align 8, !tbaa !20
  br label %156

58:                                               ; preds = %7
  %59 = getelementptr inbounds nuw i8, ptr %0, i64 8
  %60 = load ptr, ptr %59, align 8, !tbaa !17
  %61 = ptrtoint ptr %60 to i64
  %62 = sub i64 %61, %20
  %63 = ashr exact i64 %62, 5
  %64 = icmp sgt i64 %63, -1
  tail call void @llvm.assume(i1 %64)
  %65 = icmp samesign ult i64 %63, %14
  br i1 %65, label %100, label %66

66:                                               ; preds = %58
  %67 = icmp eq ptr %10, %9
  br i1 %67, label %77, label %68

68:                                               ; preds = %68, %66
  %69 = phi ptr [ %71, %68 ], [ %18, %66 ]
  %70 = phi ptr [ %72, %68 ], [ %10, %66 ]
  tail call void @_ZNSt7__cxx1112basic_stringIcSt11char_traitsIcESaIcEE9_M_assignERKS4_(ptr noundef nonnull align 8 dereferenceable(32) %69, ptr noundef nonnull align 8 dereferenceable(32) %70)
  %71 = getelementptr inbounds nuw i8, ptr %69, i64 32
  %72 = getelementptr inbounds nuw i8, ptr %70, i64 32
  %73 = icmp eq ptr %72, %9
  br i1 %73, label %74, label %68, !llvm.loop !131

74:                                               ; preds = %68
  %75 = load ptr, ptr %59, align 8, !tbaa !43
  %76 = ptrtoint ptr %71 to i64
  br label %77

77:                                               ; preds = %74, %66
  %78 = phi i64 [ %76, %74 ], [ %20, %66 ]
  %79 = phi ptr [ %75, %74 ], [ %60, %66 ]
  %80 = phi ptr [ %71, %74 ], [ %18, %66 ]
  %81 = icmp eq ptr %80, %79
  br i1 %81, label %156, label %82

82:                                               ; preds = %77
  %83 = sub i64 %78, %20
  %84 = getelementptr inbounds i8, ptr %18, i64 %83
  br label %85

85:                                               ; preds = %97, %82
  %86 = phi ptr [ %98, %97 ], [ %84, %82 ]
  %87 = load ptr, ptr %86, align 8, !tbaa !4
  %88 = getelementptr inbounds nuw i8, ptr %86, i64 16
  %89 = icmp eq ptr %87, %88
  br i1 %89, label %90, label %94

90:                                               ; preds = %85
  %91 = getelementptr inbounds nuw i8, ptr %86, i64 8
  %92 = load i64, ptr %91, align 8, !tbaa !12
  %93 = icmp ult i64 %92, 16
  tail call void @llvm.assume(i1 %93)
  br label %97

94:                                               ; preds = %85
  %95 = load i64, ptr %88, align 8, !tbaa !13
  %96 = add i64 %95, 1
  tail call void @_ZdlPvm(ptr noundef %87, i64 noundef %96) #37
  br label %97

97:                                               ; preds = %94, %90
  %98 = getelementptr inbounds nuw i8, ptr %86, i64 32
  %99 = icmp eq ptr %98, %79
  br i1 %99, label %156, label %85, !llvm.loop !132

100:                                              ; preds = %58
  %101 = getelementptr inbounds nuw i8, ptr %10, i64 %62
  %102 = icmp eq ptr %60, %18
  br i1 %102, label %117, label %103

103:                                              ; preds = %103, %100
  %104 = phi ptr [ %106, %103 ], [ %18, %100 ]
  %105 = phi ptr [ %107, %103 ], [ %10, %100 ]
  tail call void @_ZNSt7__cxx1112basic_stringIcSt11char_traitsIcESaIcEE9_M_assignERKS4_(ptr noundef nonnull align 8 dereferenceable(32) %104, ptr noundef nonnull align 8 dereferenceable(32) %105)
  %106 = getelementptr inbounds nuw i8, ptr %104, i64 32
  %107 = getelementptr inbounds nuw i8, ptr %105, i64 32
  %108 = icmp eq ptr %107, %101
  br i1 %108, label %109, label %103, !llvm.loop !133

109:                                              ; preds = %103
  %110 = load ptr, ptr %1, align 8, !tbaa !14
  %111 = load ptr, ptr %59, align 8, !tbaa !17
  %112 = load ptr, ptr %0, align 8, !tbaa !14
  %113 = load ptr, ptr %8, align 8, !tbaa !17
  %114 = ptrtoint ptr %111 to i64
  %115 = ptrtoint ptr %112 to i64
  %116 = sub i64 %114, %115
  br label %117

117:                                              ; preds = %109, %100
  %118 = phi i64 [ %116, %109 ], [ 0, %100 ]
  %119 = phi ptr [ %113, %109 ], [ %9, %100 ]
  %120 = phi ptr [ %111, %109 ], [ %60, %100 ]
  %121 = phi ptr [ %110, %109 ], [ %10, %100 ]
  %122 = icmp sgt i64 %118, -1
  tail call void @llvm.assume(i1 %122)
  %123 = getelementptr inbounds nuw i8, ptr %121, i64 %118
  call void @llvm.lifetime.start.p0(ptr %4)
  store ptr %120, ptr %4, align 8, !tbaa !43
  call void @llvm.lifetime.start.p0(ptr %5)
  store ptr %120, ptr %5, align 8, !tbaa !44
  %124 = getelementptr inbounds nuw i8, ptr %5, i64 8
  store ptr %4, ptr %124, align 8, !tbaa !48
  %125 = icmp eq ptr %123, %119
  br i1 %125, label %155, label %126

126:                                              ; preds = %146, %117
  %127 = phi ptr [ %151, %146 ], [ %120, %117 ]
  %128 = phi ptr [ %149, %146 ], [ %123, %117 ]
  %129 = getelementptr inbounds nuw i8, ptr %127, i64 16
  store ptr %129, ptr %127, align 8, !tbaa !41
  %130 = load ptr, ptr %128, align 8, !tbaa !4
  %131 = getelementptr inbounds nuw i8, ptr %128, i64 8
  %132 = load i64, ptr %131, align 8, !tbaa !12
  %133 = icmp ult i64 %132, 9223372036854775807
  call void @llvm.assume(i1 %133)
  call void @llvm.lifetime.start.p0(ptr %3)
  store i64 %132, ptr %3, align 8, !tbaa !42
  %134 = icmp samesign ugt i64 %132, 15
  br i1 %134, label %135, label %139

135:                                              ; preds = %126
  %136 = invoke noundef ptr @_ZNSt7__cxx1112basic_stringIcSt11char_traitsIcESaIcEE9_M_createERmm(ptr noundef nonnull align 8 dereferenceable(32) %127, ptr noundef nonnull align 8 dereferenceable(8) %3, i64 noundef 0)
          to label %137 unwind label %153

137:                                              ; preds = %135
  store ptr %136, ptr %127, align 8, !tbaa !4
  %138 = load i64, ptr %3, align 8, !tbaa !42
  store i64 %138, ptr %129, align 8, !tbaa !13
  br label %139

139:                                              ; preds = %137, %126
  %140 = phi i64 [ %138, %137 ], [ %132, %126 ]
  %141 = phi ptr [ %136, %137 ], [ %129, %126 ]
  switch i64 %140, label %144 [
    i64 0, label %142
    i64 -1, label %146
  ]

142:                                              ; preds = %139
  %143 = load i8, ptr %130, align 1, !tbaa !13
  store i8 %143, ptr %141, align 1, !tbaa !13
  br label %146

144:                                              ; preds = %139
  %145 = add nuw i64 %140, 1
  call void @llvm.memcpy.p0.p0.i64(ptr noundef nonnull align 1 dereferenceable(1) %141, ptr noundef nonnull align 1 dereferenceable(1) %130, i64 %145, i1 false)
  br label %146

146:                                              ; preds = %144, %142, %139
  %147 = load i64, ptr %3, align 8, !tbaa !42
  %148 = getelementptr inbounds nuw i8, ptr %127, i64 8
  store i64 %147, ptr %148, align 8, !tbaa !12
  call void @llvm.lifetime.end.p0(ptr %3)
  %149 = getelementptr inbounds nuw i8, ptr %128, i64 32
  %150 = load ptr, ptr %4, align 8, !tbaa !43
  %151 = getelementptr inbounds nuw i8, ptr %150, i64 32
  store ptr %151, ptr %4, align 8, !tbaa !43
  %152 = icmp eq ptr %149, %119
  br i1 %152, label %155, label %126, !llvm.loop !134

153:                                              ; preds = %135
  %154 = landingpad { ptr, i32 }
          cleanup
  call void @_ZNSt19_UninitDestroyGuardIPNSt7__cxx1112basic_stringIcSt11char_traitsIcESaIcEEEvED2Ev(ptr noundef nonnull align 8 dereferenceable(16) %5) #36
  call void @llvm.lifetime.end.p0(ptr %5)
  resume { ptr, i32 } %154

155:                                              ; preds = %146, %117
  call void @llvm.lifetime.end.p0(ptr %5)
  call void @llvm.lifetime.end.p0(ptr %4)
  br label %156

156:                                              ; preds = %155, %97, %77, %56
  %157 = load ptr, ptr %0, align 8, !tbaa !14
  %158 = getelementptr inbounds nuw i8, ptr %157, i64 %13
  %159 = getelementptr inbounds nuw i8, ptr %0, i64 8
  store ptr %158, ptr %159, align 8, !tbaa !17
  br label %160

160:                                              ; preds = %156, %2
  ret ptr %0
}

; Function Attrs: mustprogress noinline sspstrong uwtable
define internal fastcc void @_ZL14proj_log_errorP6pj_ctxPKcS2_(ptr noundef %0, ptr noundef readonly captures(address_is_null) %1, ptr noundef %2) unnamed_addr #12 personality ptr @__gxx_personality_v0 {
  %4 = alloca i64, align 8
  %5 = alloca %"class.std::__cxx11::basic_string", align 8
  %6 = getelementptr inbounds nuw i8, ptr %0, i64 36
  %7 = load i32, ptr %6, align 4, !tbaa !135
  %8 = icmp eq i32 %7, 0
  br i1 %8, label %71, label %9

9:                                                ; preds = %3
  call void @llvm.lifetime.start.p0(ptr %5)
  %10 = getelementptr inbounds nuw i8, ptr %5, i64 16
  store ptr %10, ptr %5, align 8, !tbaa !41
  %11 = icmp eq ptr %1, null
  br i1 %11, label %12, label %13

12:                                               ; preds = %9
  call void @_ZSt19__throw_logic_errorPKc(ptr noundef nonnull @.str.112) #29
  unreachable

13:                                               ; preds = %9
  %14 = call noundef i64 @strlen(ptr noundef nonnull dereferenceable(1) %1) #36
  call void @llvm.lifetime.start.p0(ptr %4)
  store i64 %14, ptr %4, align 8, !tbaa !42
  %15 = icmp ugt i64 %14, 15
  br i1 %15, label %16, label %19

16:                                               ; preds = %13
  %17 = call noundef ptr @_ZNSt7__cxx1112basic_stringIcSt11char_traitsIcESaIcEE9_M_createERmm(ptr noundef nonnull align 8 dereferenceable(32) %5, ptr noundef nonnull align 8 dereferenceable(8) %4, i64 noundef 0)
  store ptr %17, ptr %5, align 8, !tbaa !4
  %18 = load i64, ptr %4, align 8, !tbaa !42
  store i64 %18, ptr %10, align 8, !tbaa !13
  br label %19

19:                                               ; preds = %16, %13
  %20 = phi ptr [ %17, %16 ], [ %10, %13 ]
  switch i64 %14, label %23 [
    i64 1, label %21
    i64 0, label %24
  ]

21:                                               ; preds = %19
  %22 = load i8, ptr %1, align 1, !tbaa !13
  store i8 %22, ptr %20, align 1, !tbaa !13
  br label %24

23:                                               ; preds = %19
  call void @llvm.memcpy.p0.p0.i64(ptr align 1 %20, ptr nonnull align 1 %1, i64 %14, i1 false)
  br label %24

24:                                               ; preds = %23, %21, %19
  %25 = load i64, ptr %4, align 8, !tbaa !42
  %26 = getelementptr inbounds nuw i8, ptr %5, i64 8
  store i64 %25, ptr %26, align 8, !tbaa !12
  %27 = load ptr, ptr %5, align 8, !tbaa !4
  %28 = getelementptr inbounds nuw i8, ptr %27, i64 %25
  store i8 0, ptr %28, align 1, !tbaa !13
  call void @llvm.lifetime.end.p0(ptr %4)
  %29 = load i64, ptr %26, align 8, !tbaa !12
  %30 = icmp ult i64 %29, 9223372036854775807
  call void @llvm.assume(i1 %30)
  %31 = icmp samesign ugt i64 %29, 9223372036854775804
  br i1 %31, label %40, label %32

32:                                               ; preds = %24
  %33 = invoke noundef nonnull align 8 dereferenceable(32) ptr @_ZNSt7__cxx1112basic_stringIcSt11char_traitsIcESaIcEE9_M_appendEPKcm(ptr noundef nonnull align 8 dereferenceable(32) %5, ptr noundef nonnull @.str.7, i64 noundef 2)
          to label %34 unwind label %60

34:                                               ; preds = %32
  %35 = call noundef i64 @strlen(ptr noundef nonnull dereferenceable(1) %2) #36
  %36 = load i64, ptr %26, align 8, !tbaa !12
  %37 = icmp ult i64 %36, 9223372036854775807
  call void @llvm.assume(i1 %37)
  %38 = sub nuw nsw i64 9223372036854775806, %36
  %39 = icmp ult i64 %38, %35
  br i1 %39, label %40, label %42

40:                                               ; preds = %34, %24
  invoke void @_ZSt20__throw_length_errorPKc(ptr noundef nonnull @.str.113) #29
          to label %41 unwind label %60

41:                                               ; preds = %40
  unreachable

42:                                               ; preds = %34
  %43 = invoke noundef nonnull align 8 dereferenceable(32) ptr @_ZNSt7__cxx1112basic_stringIcSt11char_traitsIcESaIcEE9_M_appendEPKcm(ptr noundef nonnull align 8 dereferenceable(32) %5, ptr noundef nonnull %2, i64 noundef %35)
          to label %44 unwind label %60

44:                                               ; preds = %42
  %45 = getelementptr inbounds nuw i8, ptr %0, i64 48
  %46 = load ptr, ptr %45, align 8, !tbaa !136
  %47 = getelementptr inbounds nuw i8, ptr %0, i64 56
  %48 = load ptr, ptr %47, align 8, !tbaa !137
  %49 = load ptr, ptr %5, align 8, !tbaa !4
  invoke void %46(ptr noundef %48, i32 noundef 1, ptr noundef %49)
          to label %50 unwind label %60

50:                                               ; preds = %44
  %51 = load ptr, ptr %5, align 8, !tbaa !4
  %52 = icmp eq ptr %51, %10
  br i1 %52, label %53, label %56

53:                                               ; preds = %50
  %54 = load i64, ptr %26, align 8, !tbaa !12
  %55 = icmp ult i64 %54, 16
  call void @llvm.assume(i1 %55)
  br label %59

56:                                               ; preds = %50
  %57 = load i64, ptr %10, align 8, !tbaa !13
  %58 = add i64 %57, 1
  call void @_ZdlPvm(ptr noundef %51, i64 noundef %58) #37
  br label %59

59:                                               ; preds = %56, %53
  call void @llvm.lifetime.end.p0(ptr %5)
  br label %71

60:                                               ; preds = %44, %42, %40, %32
  %61 = landingpad { ptr, i32 }
          cleanup
  %62 = load ptr, ptr %5, align 8, !tbaa !4
  %63 = icmp eq ptr %62, %10
  br i1 %63, label %64, label %67

64:                                               ; preds = %60
  %65 = load i64, ptr %26, align 8, !tbaa !12
  %66 = icmp ult i64 %65, 16
  call void @llvm.assume(i1 %66)
  br label %70

67:                                               ; preds = %60
  %68 = load i64, ptr %10, align 8, !tbaa !13
  %69 = add i64 %68, 1
  call void @_ZdlPvm(ptr noundef %62, i64 noundef %69) #37
  br label %70

70:                                               ; preds = %67, %64
  call void @llvm.lifetime.end.p0(ptr %5)
  resume { ptr, i32 } %61

71:                                               ; preds = %59, %3
  %72 = call i32 @proj_context_errno(ptr noundef nonnull %0)
  %73 = icmp eq i32 %72, 0
  br i1 %73, label %74, label %75

74:                                               ; preds = %71
  call void @_Z22proj_context_errno_setP6pj_ctxi(ptr noundef nonnull %0, i32 noundef 4096)
  br label %75

75:                                               ; preds = %74, %71
  ret void
}

; Function Attrs: noinline noreturn nounwind sspstrong uwtable
define linkonce_odr hidden void @__clang_call_terminate(ptr noundef %0) local_unnamed_addr #13 comdat {
  %2 = tail call ptr @__cxa_begin_catch(ptr %0) #36
  tail call void @_ZSt9terminatev() #41
  unreachable
}

; Function Attrs: cold nofree noreturn
declare void @_ZSt9terminatev() local_unnamed_addr #14

; Function Attrs: mustprogress sspstrong uwtable
define ptr @proj_context_get_database_path(ptr noundef %0) local_unnamed_addr #3 personality ptr @__gxx_personality_v0 {
  %2 = alloca i64, align 8
  %3 = alloca %"class.std::__cxx11::basic_string", align 8
  %4 = alloca %"class.dropbox::oxygen::nn", align 8
  %5 = icmp eq ptr %0, null
  br i1 %5, label %6, label %8

6:                                                ; preds = %1
  %7 = tail call noundef ptr @_Z18pj_get_default_ctxv()
  br label %8

8:                                                ; preds = %6, %1
  %9 = phi ptr [ %7, %6 ], [ %0, %1 ]
  call void @llvm.lifetime.start.p0(ptr %3)
  call void @llvm.lifetime.start.p0(ptr %4)
  invoke fastcc void @_ZL12getDBcontextP6pj_ctx(ptr dead_on_unwind noalias writable align 8 %4, ptr noundef %9)
          to label %10 unwind label %79

10:                                               ; preds = %8
  %11 = load ptr, ptr %4, align 8, !tbaa !51
  %12 = invoke noundef nonnull align 8 dereferenceable(32) ptr @_ZNK5osgeo4proj2io15DatabaseContext7getPathB5cxx11Ev(ptr noundef nonnull align 8 dereferenceable(8) %11)
          to label %13 unwind label %81

13:                                               ; preds = %10
  %14 = getelementptr inbounds nuw i8, ptr %3, i64 16
  store ptr %14, ptr %3, align 8, !tbaa !41
  %15 = load ptr, ptr %12, align 8, !tbaa !4
  %16 = getelementptr inbounds nuw i8, ptr %12, i64 8
  %17 = load i64, ptr %16, align 8, !tbaa !12
  %18 = icmp ult i64 %17, 9223372036854775807
  call void @llvm.assume(i1 %18)
  call void @llvm.lifetime.start.p0(ptr %2)
  store i64 %17, ptr %2, align 8, !tbaa !42
  %19 = icmp samesign ugt i64 %17, 15
  br i1 %19, label %20, label %24

20:                                               ; preds = %13
  %21 = invoke noundef ptr @_ZNSt7__cxx1112basic_stringIcSt11char_traitsIcESaIcEE9_M_createERmm(ptr noundef nonnull align 8 dereferenceable(32) %3, ptr noundef nonnull align 8 dereferenceable(8) %2, i64 noundef 0)
          to label %22 unwind label %81

22:                                               ; preds = %20
  store ptr %21, ptr %3, align 8, !tbaa !4
  %23 = load i64, ptr %2, align 8, !tbaa !42
  store i64 %23, ptr %14, align 8, !tbaa !13
  br label %24

24:                                               ; preds = %22, %13
  %25 = phi i64 [ %23, %22 ], [ %17, %13 ]
  %26 = phi ptr [ %21, %22 ], [ %14, %13 ]
  switch i64 %25, label %29 [
    i64 0, label %27
    i64 -1, label %31
  ]

27:                                               ; preds = %24
  %28 = load i8, ptr %15, align 1, !tbaa !13
  store i8 %28, ptr %26, align 1, !tbaa !13
  br label %31

29:                                               ; preds = %24
  %30 = add nuw i64 %25, 1
  call void @llvm.memcpy.p0.p0.i64(ptr noundef nonnull align 1 dereferenceable(1) %26, ptr noundef nonnull align 1 dereferenceable(1) %15, i64 %30, i1 false)
  br label %31

31:                                               ; preds = %29, %27, %24
  %32 = load i64, ptr %2, align 8, !tbaa !42
  %33 = getelementptr inbounds nuw i8, ptr %3, i64 8
  store i64 %32, ptr %33, align 8, !tbaa !12
  call void @llvm.lifetime.end.p0(ptr %2)
  %34 = getelementptr inbounds nuw i8, ptr %4, i64 8
  %35 = load ptr, ptr %34, align 8, !tbaa !21
  %36 = icmp eq ptr %35, null
  br i1 %36, label %61, label %37

37:                                               ; preds = %31
  %38 = getelementptr inbounds nuw i8, ptr %35, i64 8
  %39 = load atomic i64, ptr %38 acquire, align 8
  %40 = icmp eq i64 %39, 4294967297
  %41 = trunc i64 %39 to i32
  br i1 %40, label %42, label %50

42:                                               ; preds = %37
  store i32 0, ptr %38, align 8, !tbaa !24
  %43 = getelementptr inbounds nuw i8, ptr %35, i64 12
  store i32 0, ptr %43, align 4, !tbaa !27
  %44 = load ptr, ptr %35, align 8, !tbaa !28
  %45 = getelementptr inbounds nuw i8, ptr %44, i64 16
  %46 = load ptr, ptr %45, align 8
  call void %46(ptr noundef nonnull align 8 dereferenceable(16) %35) #36
  %47 = load ptr, ptr %35, align 8, !tbaa !28
  %48 = getelementptr inbounds nuw i8, ptr %47, i64 24
  %49 = load ptr, ptr %48, align 8
  call void %49(ptr noundef nonnull align 8 dereferenceable(16) %35) #36
  br label %61

50:                                               ; preds = %37
  %51 = load i8, ptr @__libc_single_threaded, align 1, !tbaa !13
  %52 = icmp eq i8 %51, 0
  br i1 %52, label %55, label %53

53:                                               ; preds = %50
  %54 = add nsw i32 %41, -1
  store i32 %54, ptr %38, align 4, !tbaa !30
  br label %57

55:                                               ; preds = %50
  %56 = atomicrmw volatile add ptr %38, i32 -1 acq_rel, align 4
  br label %57

57:                                               ; preds = %55, %53
  %58 = phi i32 [ %41, %53 ], [ %56, %55 ]
  %59 = icmp eq i32 %58, 1
  br i1 %59, label %60, label %61, !prof !31

60:                                               ; preds = %57
  call void @_ZNSt16_Sp_counted_baseILN9__gnu_cxx12_Lock_policyE2EE24_M_release_last_use_coldEv(ptr noundef nonnull align 8 dereferenceable(16) %35) #36
  br label %61

61:                                               ; preds = %60, %57, %42, %31
  call void @llvm.lifetime.end.p0(ptr %4)
  %62 = invoke noundef ptr @_ZN6pj_ctx15get_cpp_contextEv(ptr noundef nonnull align 8 dereferenceable(572) %9)
          to label %63 unwind label %85

63:                                               ; preds = %61
  %64 = getelementptr inbounds nuw i8, ptr %62, i64 80
  invoke void @_ZNSt7__cxx1112basic_stringIcSt11char_traitsIcESaIcEE9_M_assignERKS4_(ptr noundef nonnull align 8 dereferenceable(32) %64, ptr noundef nonnull align 8 dereferenceable(32) %3)
          to label %65 unwind label %85

65:                                               ; preds = %63
  %66 = getelementptr inbounds nuw i8, ptr %9, i64 64
  %67 = load ptr, ptr %66, align 8, !tbaa !130
  %68 = getelementptr inbounds nuw i8, ptr %67, i64 80
  %69 = load ptr, ptr %68, align 8, !tbaa !4
  %70 = load ptr, ptr %3, align 8, !tbaa !4
  %71 = icmp eq ptr %70, %14
  br i1 %71, label %72, label %75

72:                                               ; preds = %65
  %73 = load i64, ptr %33, align 8, !tbaa !12
  %74 = icmp ult i64 %73, 16
  call void @llvm.assume(i1 %74)
  br label %78

75:                                               ; preds = %65
  %76 = load i64, ptr %14, align 8, !tbaa !13
  %77 = add i64 %76, 1
  call void @_ZdlPvm(ptr noundef %70, i64 noundef %77) #37
  br label %78

78:                                               ; preds = %75, %72
  call void @llvm.lifetime.end.p0(ptr %3)
  br label %110

79:                                               ; preds = %8
  %80 = landingpad { ptr, i32 }
          cleanup
          catch ptr @_ZTISt9exception
  br label %83

81:                                               ; preds = %20, %10
  %82 = landingpad { ptr, i32 }
          cleanup
          catch ptr @_ZTISt9exception
  call void @_ZN7dropbox6oxygen2nnISt10shared_ptrIN5osgeo4proj2io15DatabaseContextEEED2Ev(ptr noundef nonnull align 8 dereferenceable(16) %4) #36
  br label %83

83:                                               ; preds = %81, %79
  %84 = phi { ptr, i32 } [ %82, %81 ], [ %80, %79 ]
  call void @llvm.lifetime.end.p0(ptr %4)
  br label %95

85:                                               ; preds = %63, %61
  %86 = landingpad { ptr, i32 }
          cleanup
          catch ptr @_ZTISt9exception
  %87 = load ptr, ptr %3, align 8, !tbaa !4
  %88 = icmp eq ptr %87, %14
  br i1 %88, label %89, label %92

89:                                               ; preds = %85
  %90 = load i64, ptr %33, align 8, !tbaa !12
  %91 = icmp ult i64 %90, 16
  call void @llvm.assume(i1 %91)
  br label %95

92:                                               ; preds = %85
  %93 = load i64, ptr %14, align 8, !tbaa !13
  %94 = add i64 %93, 1
  call void @_ZdlPvm(ptr noundef %87, i64 noundef %94) #37
  br label %95

95:                                               ; preds = %92, %89, %83
  %96 = phi { ptr, i32 } [ %84, %83 ], [ %86, %89 ], [ %86, %92 ]
  %97 = extractvalue { ptr, i32 } %96, 1
  call void @llvm.lifetime.end.p0(ptr %3)
  %98 = call i32 @llvm.eh.typeid.for.p0(ptr nonnull @_ZTISt9exception) #36
  %99 = icmp eq i32 %97, %98
  br i1 %99, label %100, label %112

100:                                              ; preds = %95
  %101 = extractvalue { ptr, i32 } %96, 0
  %102 = call ptr @__cxa_begin_catch(ptr %101) #36
  %103 = load ptr, ptr %102, align 8, !tbaa !28
  %104 = getelementptr inbounds nuw i8, ptr %103, i64 16
  %105 = load ptr, ptr %104, align 8
  %106 = call noundef ptr %105(ptr noundef nonnull align 8 dereferenceable(8) %102) #36
  invoke fastcc void @_ZL14proj_log_errorP6pj_ctxPKcS2_(ptr noundef nonnull %9, ptr noundef nonnull @__FUNCTION__.proj_context_get_database_path, ptr noundef %106)
          to label %107 unwind label %108

107:                                              ; preds = %100
  call void @__cxa_end_catch()
  br label %110

108:                                              ; preds = %100
  %109 = landingpad { ptr, i32 }
          cleanup
  invoke void @__cxa_end_catch()
          to label %112 unwind label %114

110:                                              ; preds = %107, %78
  %111 = phi ptr [ %69, %78 ], [ null, %107 ]
  ret ptr %111

112:                                              ; preds = %108, %95
  %113 = phi { ptr, i32 } [ %96, %95 ], [ %109, %108 ]
  resume { ptr, i32 } %113

114:                                              ; preds = %108
  %115 = landingpad { ptr, i32 }
          catch ptr null
  %116 = extractvalue { ptr, i32 } %115, 0
  call void @__clang_call_terminate(ptr %116) #41
  unreachable
}

; Function Attrs: mustprogress noinline sspstrong uwtable
define internal fastcc void @_ZL12getDBcontextP6pj_ctx(ptr dead_on_unwind noalias nonnull writable align 8 %0, ptr noundef nonnull %1) unnamed_addr #12 {
  %3 = tail call noundef ptr @_ZN6pj_ctx15get_cpp_contextEv(ptr noundef nonnull align 8 dereferenceable(572) %1)
  tail call void @_ZN14projCppContext18getDatabaseContextEv(ptr dead_on_unwind nonnull writable sret(%"class.dropbox::oxygen::nn") align 8 %0, ptr noundef nonnull align 8 dereferenceable(272) %3)
  ret void
}

declare noundef nonnull align 8 dereferenceable(32) ptr @_ZNK5osgeo4proj2io15DatabaseContext7getPathB5cxx11Ev(ptr noundef nonnull align 8 dereferenceable(8)) local_unnamed_addr #5

declare noundef ptr @_ZN6pj_ctx15get_cpp_contextEv(ptr noundef nonnull align 8 dereferenceable(572)) local_unnamed_addr #5

; Function Attrs: mustprogress sspstrong uwtable
define ptr @proj_context_get_database_metadata(ptr noundef %0, ptr noundef %1) local_unnamed_addr #3 personality ptr @__gxx_personality_v0 {
  %3 = alloca %"class.dropbox::oxygen::nn", align 8
  %4 = icmp eq ptr %0, null
  br i1 %4, label %5, label %7

5:                                                ; preds = %2
  %6 = tail call noundef ptr @_Z18pj_get_default_ctxv()
  br label %7

7:                                                ; preds = %5, %2
  %8 = phi ptr [ %6, %5 ], [ %0, %2 ]
  %9 = icmp eq ptr %1, null
  br i1 %9, label %10, label %11

10:                                               ; preds = %7
  tail call void @_Z22proj_context_errno_setP6pj_ctxi(ptr noundef %8, i32 noundef 4097)
  tail call fastcc void @_ZL14proj_log_errorP6pj_ctxPKcS2_(ptr noundef %8, ptr noundef nonnull @__FUNCTION__.proj_context_get_database_metadata, ptr noundef nonnull @.str.3)
  br label %82

11:                                               ; preds = %7
  call void @llvm.lifetime.start.p0(ptr %3)
  invoke fastcc void @_ZL12getDBcontextP6pj_ctx(ptr dead_on_unwind noalias writable align 8 %3, ptr noundef %8)
          to label %12 unwind label %45

12:                                               ; preds = %11
  %13 = load ptr, ptr %3, align 8, !tbaa !51
  %14 = invoke noundef ptr @_ZNK5osgeo4proj2io15DatabaseContext11getMetadataEPKc(ptr noundef nonnull align 8 dereferenceable(8) %13, ptr noundef nonnull %1)
          to label %15 unwind label %47

15:                                               ; preds = %12
  %16 = getelementptr inbounds nuw i8, ptr %3, i64 8
  %17 = load ptr, ptr %16, align 8, !tbaa !21
  %18 = icmp eq ptr %17, null
  br i1 %18, label %43, label %19

19:                                               ; preds = %15
  %20 = getelementptr inbounds nuw i8, ptr %17, i64 8
  %21 = load atomic i64, ptr %20 acquire, align 8
  %22 = icmp eq i64 %21, 4294967297
  %23 = trunc i64 %21 to i32
  br i1 %22, label %24, label %32

24:                                               ; preds = %19
  store i32 0, ptr %20, align 8, !tbaa !24
  %25 = getelementptr inbounds nuw i8, ptr %17, i64 12
  store i32 0, ptr %25, align 4, !tbaa !27
  %26 = load ptr, ptr %17, align 8, !tbaa !28
  %27 = getelementptr inbounds nuw i8, ptr %26, i64 16
  %28 = load ptr, ptr %27, align 8
  call void %28(ptr noundef nonnull align 8 dereferenceable(16) %17) #36
  %29 = load ptr, ptr %17, align 8, !tbaa !28
  %30 = getelementptr inbounds nuw i8, ptr %29, i64 24
  %31 = load ptr, ptr %30, align 8
  call void %31(ptr noundef nonnull align 8 dereferenceable(16) %17) #36
  br label %43

32:                                               ; preds = %19
  %33 = load i8, ptr @__libc_single_threaded, align 1, !tbaa !13
  %34 = icmp eq i8 %33, 0
  br i1 %34, label %37, label %35

35:                                               ; preds = %32
  %36 = add nsw i32 %23, -1
  store i32 %36, ptr %20, align 4, !tbaa !30
  br label %39

37:                                               ; preds = %32
  %38 = atomicrmw volatile add ptr %20, i32 -1 acq_rel, align 4
  br label %39

39:                                               ; preds = %37, %35
  %40 = phi i32 [ %23, %35 ], [ %38, %37 ]
  %41 = icmp eq i32 %40, 1
  br i1 %41, label %42, label %43, !prof !31

42:                                               ; preds = %39
  call void @_ZNSt16_Sp_counted_baseILN9__gnu_cxx12_Lock_policyE2EE24_M_release_last_use_coldEv(ptr noundef nonnull align 8 dereferenceable(16) %17) #36
  br label %43

43:                                               ; preds = %42, %39, %24, %15
  call void @llvm.lifetime.end.p0(ptr %3)
  %44 = icmp eq ptr %14, null
  br i1 %44, label %82, label %51

45:                                               ; preds = %11
  %46 = landingpad { ptr, i32 }
          cleanup
          catch ptr @_ZTISt9exception
  br label %49

47:                                               ; preds = %12
  %48 = landingpad { ptr, i32 }
          cleanup
          catch ptr @_ZTISt9exception
  call void @_ZN7dropbox6oxygen2nnISt10shared_ptrIN5osgeo4proj2io15DatabaseContextEEED2Ev(ptr noundef nonnull align 8 dereferenceable(16) %3) #36
  br label %49

49:                                               ; preds = %47, %45
  %50 = phi { ptr, i32 } [ %48, %47 ], [ %46, %45 ]
  call void @llvm.lifetime.end.p0(ptr %3)
  br label %67

51:                                               ; preds = %43
  %52 = invoke noundef ptr @_ZN6pj_ctx15get_cpp_contextEv(ptr noundef nonnull align 8 dereferenceable(572) %8)
          to label %53 unwind label %65

53:                                               ; preds = %51
  %54 = getelementptr inbounds nuw i8, ptr %52, i64 112
  %55 = getelementptr inbounds nuw i8, ptr %52, i64 120
  %56 = load i64, ptr %55, align 8, !tbaa !12
  %57 = icmp ult i64 %56, 9223372036854775807
  call void @llvm.assume(i1 %57)
  %58 = call noundef i64 @strlen(ptr noundef nonnull dereferenceable(1) %14) #36
  %59 = invoke noundef nonnull align 8 dereferenceable(32) ptr @_ZNSt7__cxx1112basic_stringIcSt11char_traitsIcESaIcEE10_M_replaceEmmPKcm(ptr noundef nonnull align 8 dereferenceable(32) %54, i64 noundef 0, i64 noundef %56, ptr noundef nonnull %14, i64 noundef %58)
          to label %60 unwind label %65

60:                                               ; preds = %53
  %61 = getelementptr inbounds nuw i8, ptr %8, i64 64
  %62 = load ptr, ptr %61, align 8, !tbaa !130
  %63 = getelementptr inbounds nuw i8, ptr %62, i64 112
  %64 = load ptr, ptr %63, align 8, !tbaa !4
  br label %82

65:                                               ; preds = %53, %51
  %66 = landingpad { ptr, i32 }
          cleanup
          catch ptr @_ZTISt9exception
  br label %67

67:                                               ; preds = %65, %49
  %68 = phi { ptr, i32 } [ %66, %65 ], [ %50, %49 ]
  %69 = extractvalue { ptr, i32 } %68, 1
  %70 = call i32 @llvm.eh.typeid.for.p0(ptr nonnull @_ZTISt9exception) #36
  %71 = icmp eq i32 %69, %70
  br i1 %71, label %72, label %84

72:                                               ; preds = %67
  %73 = extractvalue { ptr, i32 } %68, 0
  %74 = call ptr @__cxa_begin_catch(ptr %73) #36
  %75 = load ptr, ptr %74, align 8, !tbaa !28
  %76 = getelementptr inbounds nuw i8, ptr %75, i64 16
  %77 = load ptr, ptr %76, align 8
  %78 = call noundef ptr %77(ptr noundef nonnull align 8 dereferenceable(8) %74) #36
  invoke fastcc void @_ZL14proj_log_errorP6pj_ctxPKcS2_(ptr noundef nonnull %8, ptr noundef nonnull @__FUNCTION__.proj_context_get_database_metadata, ptr noundef %78)
          to label %79 unwind label %80

79:                                               ; preds = %72
  call void @__cxa_end_catch()
  br label %82

80:                                               ; preds = %72
  %81 = landingpad { ptr, i32 }
          cleanup
  invoke void @__cxa_end_catch()
          to label %84 unwind label %86

82:                                               ; preds = %79, %60, %43, %10
  %83 = phi ptr [ null, %79 ], [ null, %10 ], [ %64, %60 ], [ null, %43 ]
  ret ptr %83

84:                                               ; preds = %80, %67
  %85 = phi { ptr, i32 } [ %68, %67 ], [ %81, %80 ]
  resume { ptr, i32 } %85

86:                                               ; preds = %80
  %87 = landingpad { ptr, i32 }
          catch ptr null
  %88 = extractvalue { ptr, i32 } %87, 0
  call void @__clang_call_terminate(ptr %88) #41
  unreachable
}

declare void @_Z22proj_context_errno_setP6pj_ctxi(ptr noundef, i32 noundef) local_unnamed_addr #5

declare noundef ptr @_ZNK5osgeo4proj2io15DatabaseContext11getMetadataEPKc(ptr noundef nonnull align 8 dereferenceable(8), ptr noundef) local_unnamed_addr #5

; Function Attrs: mustprogress sspstrong uwtable
define noundef ptr @proj_context_get_database_structure(ptr noundef %0, ptr noundef readnone captures(none) %1) local_unnamed_addr #3 personality ptr @__gxx_personality_v0 {
  %3 = alloca %"class.std::vector", align 8
  %4 = alloca %"class.dropbox::oxygen::nn", align 8
  %5 = icmp eq ptr %0, null
  br i1 %5, label %6, label %8

6:                                                ; preds = %2
  %7 = tail call noundef ptr @_Z18pj_get_default_ctxv()
  br label %8

8:                                                ; preds = %6, %2
  %9 = phi ptr [ %7, %6 ], [ %0, %2 ]
  call void @llvm.lifetime.start.p0(ptr %3)
  call void @llvm.lifetime.start.p0(ptr %4)
  invoke fastcc void @_ZL12getDBcontextP6pj_ctx(ptr dead_on_unwind noalias writable align 8 %4, ptr noundef %9)
          to label %10 unwind label %76

10:                                               ; preds = %8
  %11 = load ptr, ptr %4, align 8, !tbaa !51
  invoke void @_ZNK5osgeo4proj2io15DatabaseContext20getDatabaseStructureB5cxx11Ev(ptr dead_on_unwind nonnull writable sret(%"class.std::vector") align 8 %3, ptr noundef nonnull align 8 dereferenceable(8) %11)
          to label %12 unwind label %78

12:                                               ; preds = %10
  %13 = load ptr, ptr %3, align 8, !tbaa !14
  %14 = getelementptr inbounds nuw i8, ptr %3, i64 8
  %15 = load ptr, ptr %14, align 8, !tbaa !17
  %16 = invoke fastcc noundef ptr @_ZL14to_string_listISt6vectorINSt7__cxx1112basic_stringIcSt11char_traitsIcESaIcEEESaIS6_EEEPPcOT_(ptr %13, ptr %15)
          to label %17 unwind label %80

17:                                               ; preds = %12
  %18 = load ptr, ptr %3, align 8, !tbaa !14
  %19 = load ptr, ptr %14, align 8, !tbaa !17
  %20 = icmp eq ptr %18, %19
  br i1 %20, label %38, label %21

21:                                               ; preds = %33, %17
  %22 = phi ptr [ %34, %33 ], [ %18, %17 ]
  %23 = load ptr, ptr %22, align 8, !tbaa !4
  %24 = getelementptr inbounds nuw i8, ptr %22, i64 16
  %25 = icmp eq ptr %23, %24
  br i1 %25, label %26, label %30

26:                                               ; preds = %21
  %27 = getelementptr inbounds nuw i8, ptr %22, i64 8
  %28 = load i64, ptr %27, align 8, !tbaa !12
  %29 = icmp ult i64 %28, 16
  call void @llvm.assume(i1 %29)
  br label %33

30:                                               ; preds = %21
  %31 = load i64, ptr %24, align 8, !tbaa !13
  %32 = add i64 %31, 1
  call void @_ZdlPvm(ptr noundef %23, i64 noundef %32) #37
  br label %33

33:                                               ; preds = %30, %26
  %34 = getelementptr inbounds nuw i8, ptr %22, i64 32
  %35 = icmp eq ptr %34, %19
  br i1 %35, label %36, label %21, !llvm.loop !18

36:                                               ; preds = %33
  %37 = load ptr, ptr %3, align 8, !tbaa !14
  br label %38

38:                                               ; preds = %36, %17
  %39 = phi ptr [ %37, %36 ], [ %18, %17 ]
  %40 = icmp eq ptr %39, null
  br i1 %40, label %47, label %41

41:                                               ; preds = %38
  %42 = getelementptr inbounds nuw i8, ptr %3, i64 16
  %43 = load ptr, ptr %42, align 8, !tbaa !20
  %44 = ptrtoint ptr %43 to i64
  %45 = ptrtoint ptr %39 to i64
  %46 = sub i64 %44, %45
  call void @_ZdlPvm(ptr noundef nonnull %39, i64 noundef %46) #37
  br label %47

47:                                               ; preds = %41, %38
  %48 = getelementptr inbounds nuw i8, ptr %4, i64 8
  %49 = load ptr, ptr %48, align 8, !tbaa !21
  %50 = icmp eq ptr %49, null
  br i1 %50, label %75, label %51

51:                                               ; preds = %47
  %52 = getelementptr inbounds nuw i8, ptr %49, i64 8
  %53 = load atomic i64, ptr %52 acquire, align 8
  %54 = icmp eq i64 %53, 4294967297
  %55 = trunc i64 %53 to i32
  br i1 %54, label %56, label %64

56:                                               ; preds = %51
  store i32 0, ptr %52, align 8, !tbaa !24
  %57 = getelementptr inbounds nuw i8, ptr %49, i64 12
  store i32 0, ptr %57, align 4, !tbaa !27
  %58 = load ptr, ptr %49, align 8, !tbaa !28
  %59 = getelementptr inbounds nuw i8, ptr %58, i64 16
  %60 = load ptr, ptr %59, align 8
  call void %60(ptr noundef nonnull align 8 dereferenceable(16) %49) #36
  %61 = load ptr, ptr %49, align 8, !tbaa !28
  %62 = getelementptr inbounds nuw i8, ptr %61, i64 24
  %63 = load ptr, ptr %62, align 8
  call void %63(ptr noundef nonnull align 8 dereferenceable(16) %49) #36
  br label %75

64:                                               ; preds = %51
  %65 = load i8, ptr @__libc_single_threaded, align 1, !tbaa !13
  %66 = icmp eq i8 %65, 0
  br i1 %66, label %69, label %67

67:                                               ; preds = %64
  %68 = add nsw i32 %55, -1
  store i32 %68, ptr %52, align 4, !tbaa !30
  br label %71

69:                                               ; preds = %64
  %70 = atomicrmw volatile add ptr %52, i32 -1 acq_rel, align 4
  br label %71

71:                                               ; preds = %69, %67
  %72 = phi i32 [ %55, %67 ], [ %70, %69 ]
  %73 = icmp eq i32 %72, 1
  br i1 %73, label %74, label %75, !prof !31

74:                                               ; preds = %71
  call void @_ZNSt16_Sp_counted_baseILN9__gnu_cxx12_Lock_policyE2EE24_M_release_last_use_coldEv(ptr noundef nonnull align 8 dereferenceable(16) %49) #36
  br label %75

75:                                               ; preds = %74, %71, %56, %47
  call void @llvm.lifetime.end.p0(ptr %4)
  call void @llvm.lifetime.end.p0(ptr %3)
  br label %99

76:                                               ; preds = %8
  %77 = landingpad { ptr, i32 }
          cleanup
          catch ptr @_ZTISt9exception
  br label %84

78:                                               ; preds = %10
  %79 = landingpad { ptr, i32 }
          cleanup
          catch ptr @_ZTISt9exception
  br label %82

80:                                               ; preds = %12
  %81 = landingpad { ptr, i32 }
          cleanup
          catch ptr @_ZTISt9exception
  call void @_ZNSt6vectorINSt7__cxx1112basic_stringIcSt11char_traitsIcESaIcEEESaIS5_EED2Ev(ptr noundef nonnull align 8 dereferenceable(24) %3) #36
  br label %82

82:                                               ; preds = %80, %78
  %83 = phi { ptr, i32 } [ %81, %80 ], [ %79, %78 ]
  call void @_ZN7dropbox6oxygen2nnISt10shared_ptrIN5osgeo4proj2io15DatabaseContextEEED2Ev(ptr noundef nonnull align 8 dereferenceable(16) %4) #36
  br label %84

84:                                               ; preds = %82, %76
  %85 = phi { ptr, i32 } [ %83, %82 ], [ %77, %76 ]
  %86 = extractvalue { ptr, i32 } %85, 1
  call void @llvm.lifetime.end.p0(ptr %4)
  call void @llvm.lifetime.end.p0(ptr %3)
  %87 = call i32 @llvm.eh.typeid.for.p0(ptr nonnull @_ZTISt9exception) #36
  %88 = icmp eq i32 %86, %87
  br i1 %88, label %89, label %101

89:                                               ; preds = %84
  %90 = extractvalue { ptr, i32 } %85, 0
  %91 = call ptr @__cxa_begin_catch(ptr %90) #36
  %92 = load ptr, ptr %91, align 8, !tbaa !28
  %93 = getelementptr inbounds nuw i8, ptr %92, i64 16
  %94 = load ptr, ptr %93, align 8
  %95 = call noundef ptr %94(ptr noundef nonnull align 8 dereferenceable(8) %91) #36
  invoke fastcc void @_ZL14proj_log_errorP6pj_ctxPKcS2_(ptr noundef nonnull %9, ptr noundef nonnull @__FUNCTION__.proj_context_get_database_structure, ptr noundef %95)
          to label %96 unwind label %97

