; ModuleID = 'temp/PROJ/common.cpp.ll'
source_filename = "/home/mitch/Documents/PROJ/src/iso19111/common.cpp"
target datalayout = "e-m:e-p270:32:32-p271:32:32-p272:64:64-i64:64-i128:128-f80:128-n8:16:32:64-S128"
target triple = "x86_64-pc-linux-gnu"

%"class.std::__cxx11::basic_string" = type { %"struct.std::__cxx11::basic_string<char>::_Alloc_hider", i64, %union.anon }
%"struct.std::__cxx11::basic_string<char>::_Alloc_hider" = type { ptr }
%union.anon = type { i64, [8 x i8] }
%"class.osgeo::proj::common::UnitOfMeasure" = type { %"class.osgeo::proj::util::BaseObject", %"class.std::unique_ptr.2" }
%"class.osgeo::proj::util::BaseObject" = type { ptr, %"class.std::unique_ptr" }
%"class.std::unique_ptr" = type { %"struct.std::__uniq_ptr_data" }
%"struct.std::__uniq_ptr_data" = type { %"class.std::__uniq_ptr_impl" }
%"class.std::__uniq_ptr_impl" = type { %"class.std::tuple" }
%"class.std::tuple" = type { %"struct.std::_Tuple_impl" }
%"struct.std::_Tuple_impl" = type { %"struct.std::_Head_base.1" }
%"struct.std::_Head_base.1" = type { ptr }
%"class.std::unique_ptr.2" = type { %"struct.std::__uniq_ptr_data.3" }
%"struct.std::__uniq_ptr_data.3" = type { %"class.std::__uniq_ptr_impl.4" }
%"class.std::__uniq_ptr_impl.4" = type { %"class.std::tuple.5" }
%"class.std::tuple.5" = type { %"struct.std::_Tuple_impl.6" }
%"struct.std::_Tuple_impl.6" = type { %"struct.std::_Head_base.9" }
%"struct.std::_Head_base.9" = type { ptr }
%"class.dropbox::oxygen::nn" = type { %"class.std::shared_ptr" }
%"class.std::shared_ptr" = type { %"class.std::__shared_ptr" }
%"class.std::__shared_ptr" = type { ptr, %"class.std::__shared_count" }
%"class.std::__shared_count" = type { ptr }
%"struct.osgeo::proj::io::JSONFormatter::ObjectContext" = type { ptr }
%struct.PJ_UNITS = type { ptr, ptr, ptr, double }
%"class.osgeo::proj::common::DateTime" = type { %"class.std::unique_ptr.37" }
%"class.std::unique_ptr.37" = type { %"struct.std::__uniq_ptr_data.38" }
%"struct.std::__uniq_ptr_data.38" = type { %"class.std::__uniq_ptr_impl.39" }
%"class.std::__uniq_ptr_impl.39" = type { %"class.std::tuple.40" }
%"class.std::tuple.40" = type { %"struct.std::_Tuple_impl.41" }
%"struct.std::_Tuple_impl.41" = type { %"struct.std::_Head_base.44" }
%"struct.std::_Head_base.44" = type { ptr }
%"class.std::unique_ptr.45" = type { %"struct.std::__uniq_ptr_data.46" }
%"struct.std::__uniq_ptr_data.46" = type { %"class.std::__uniq_ptr_impl.47" }
%"class.std::__uniq_ptr_impl.47" = type { %"class.std::tuple.48" }
%"class.std::tuple.48" = type { %"struct.std::_Tuple_impl.49" }
%"struct.std::_Tuple_impl.49" = type { %"struct.std::_Head_base.52" }
%"struct.std::_Head_base.52" = type { ptr }
%"class.osgeo::proj::util::PropertyMap" = type { %"class.std::unique_ptr.87" }
%"class.std::unique_ptr.87" = type { %"struct.std::__uniq_ptr_data.88" }
%"struct.std::__uniq_ptr_data.88" = type { %"class.std::__uniq_ptr_impl.89" }
%"class.std::__uniq_ptr_impl.89" = type { %"class.std::tuple.90" }
%"class.std::tuple.90" = type { %"struct.std::_Tuple_impl.91" }
%"struct.std::_Tuple_impl.91" = type { %"struct.std::_Head_base.94" }
%"struct.std::_Head_base.94" = type { ptr }
%"class.dropbox::oxygen::nn.53" = type { %"class.std::shared_ptr.54" }
%"class.std::shared_ptr.54" = type { %"class.std::__shared_ptr.55" }
%"class.std::__shared_ptr.55" = type { ptr, %"class.std::__shared_count" }
%"class.dropbox::oxygen::nn.75" = type { %"class.std::shared_ptr.76" }
%"class.std::shared_ptr.76" = type { %"class.std::__shared_ptr.77" }
%"class.std::__shared_ptr.77" = type { ptr, %"class.std::__shared_count" }
%"class.dropbox::oxygen::nn.116" = type { %"class.std::shared_ptr.117" }
%"class.std::shared_ptr.117" = type { %"class.std::__shared_ptr.118" }
%"class.std::__shared_ptr.118" = type { ptr, %"class.std::__shared_count" }
%"class.std::shared_ptr.120" = type { %"class.std::__shared_ptr.121" }
%"class.std::__shared_ptr.121" = type { ptr, %"class.std::__shared_count" }
%"struct.osgeo::proj::CPLJSonStreamingWriter::ArrayContext" = type <{ ptr, i8, i8, [6 x i8] }>
%"class.dropbox::oxygen::nn.137" = type { %"class.std::shared_ptr.138" }
%"class.std::shared_ptr.138" = type { %"class.std::__shared_ptr.139" }
%"class.std::__shared_ptr.139" = type { ptr, %"class.std::__shared_count" }
%"class.dropbox::oxygen::nn.179" = type { %"class.std::shared_ptr.180" }
%"class.std::shared_ptr.180" = type { %"class.std::__shared_ptr.181" }
%"class.std::__shared_ptr.181" = type { ptr, %"class.std::__shared_count" }
%"class.dropbox::oxygen::nn.196" = type { %"class.std::shared_ptr.197" }
%"class.std::shared_ptr.197" = type { %"class.std::__shared_ptr.198" }
%"class.std::__shared_ptr.198" = type { ptr, %"class.std::__shared_count" }
%"class.osgeo::proj::util::optional" = type { i8, %"class.std::__cxx11::basic_string" }
%"class.std::shared_ptr.134" = type { %"class.std::__shared_ptr.135" }
%"class.std::__shared_ptr.135" = type { ptr, %"class.std::__shared_count" }
%"class.std::vector.216" = type { %"struct.std::_Vector_base.217" }
%"struct.std::_Vector_base.217" = type { %"struct.std::_Vector_base<dropbox::oxygen::nn<std::shared_ptr<osgeo::proj::common::ObjectDomain>>, std::allocator<dropbox::oxygen::nn<std::shared_ptr<osgeo::proj::common::ObjectDomain>>>>::_Vector_impl" }
%"struct.std::_Vector_base<dropbox::oxygen::nn<std::shared_ptr<osgeo::proj::common::ObjectDomain>>, std::allocator<dropbox::oxygen::nn<std::shared_ptr<osgeo::proj::common::ObjectDomain>>>>::_Vector_impl" = type { %"struct.std::_Vector_base<dropbox::oxygen::nn<std::shared_ptr<osgeo::proj::common::ObjectDomain>>, std::allocator<dropbox::oxygen::nn<std::shared_ptr<osgeo::proj::common::ObjectDomain>>>>::_Vector_impl_data" }
%"struct.std::_Vector_base<dropbox::oxygen::nn<std::shared_ptr<osgeo::proj::common::ObjectDomain>>, std::allocator<dropbox::oxygen::nn<std::shared_ptr<osgeo::proj::common::ObjectDomain>>>>::_Vector_impl_data" = type { ptr, ptr, ptr }
%"class.osgeo::proj::common::Measure" = type { %"class.osgeo::proj::util::BaseObject", %"class.std::unique_ptr.29" }
%"class.std::unique_ptr.29" = type { %"struct.std::__uniq_ptr_data.30" }
%"struct.std::__uniq_ptr_data.30" = type { %"class.std::__uniq_ptr_impl.31" }
%"class.std::__uniq_ptr_impl.31" = type { %"class.std::tuple.32" }
%"class.std::tuple.32" = type { %"struct.std::_Tuple_impl.33" }
%"struct.std::_Tuple_impl.33" = type { %"struct.std::_Head_base.36" }
%"struct.std::_Head_base.36" = type { ptr }

$_ZN5osgeo4proj6common13UnitOfMeasure7PrivateaSEOS3_ = comdat any

$__clang_call_terminate = comdat any

$_ZSt11make_uniqueIN5osgeo4proj6common16IdentifiedObject7PrivateEJEENSt8__detail9_MakeUniqIT_E15__single_objectEDpOT0_ = comdat any

$_ZN7dropbox6oxygen2nnISt10shared_ptrIN5osgeo4proj4util11GenericNameEEED2Ev = comdat any

$_ZN7dropbox6oxygen2nnISt10shared_ptrIN5osgeo4proj8metadata10IdentifierEEED2Ev = comdat any

$_ZStplIcSt11char_traitsIcESaIcEENSt7__cxx1112basic_stringIT_T0_T1_EEPKS5_RKS8_ = comdat any

$_ZN7dropbox6oxygen2nnISt10shared_ptrIN5osgeo4proj4util9LocalNameEEED2Ev = comdat any

$_ZNSt12__shared_ptrIN5osgeo4proj4util9NameSpaceELN9__gnu_cxx12_Lock_policyE2EED2Ev = comdat any

$_ZN5osgeo4proj22CPLJSonStreamingWriter12ArrayContextD2Ev = comdat any

$_ZN5osgeo4proj6common12ObjectDomain14nn_make_sharedIS2_JRKNS0_4util8optionalINSt7__cxx1112basic_stringIcSt11char_traitsIcESaIcEEEEERKSt10shared_ptrINS0_8metadata6ExtentEEEEEN7dropbox6oxygen2nnISF_IT_EEEDpOT0_ = comdat any

$_ZN7dropbox6oxygen2nnISt10shared_ptrIN5osgeo4proj8metadata14VerticalExtentEEED2Ev = comdat any

$_ZN7dropbox6oxygen2nnISt10shared_ptrIN5osgeo4proj8metadata14TemporalExtentEEED2Ev = comdat any

$_ZN7dropbox6oxygen2nnISt10shared_ptrIN5osgeo4proj6common12ObjectDomainEEED2Ev = comdat any

$_ZNSt6vectorIN7dropbox6oxygen2nnISt10shared_ptrIN5osgeo4proj6common12ObjectDomainEEEESaIS9_EED2Ev = comdat any

$_ZNSt16_Sp_counted_baseILN9__gnu_cxx12_Lock_policyE2EE24_M_release_last_use_coldEv = comdat any

$_ZN5osgeo4proj6common13UnitOfMeasure7PrivateC2ERKNSt7__cxx1112basic_stringIcSt11char_traitsIcESaIcEEEdNS2_4TypeESB_SB_ = comdat any

$_ZN5osgeo4proj6common13UnitOfMeasure7PrivateC2ERKS3_ = comdat any

$_ZNSt23_Sp_counted_ptr_inplaceIN5osgeo4proj6common13UnitOfMeasureESaIvELN9__gnu_cxx12_Lock_policyE2EED0Ev = comdat any

$_ZNSt23_Sp_counted_ptr_inplaceIN5osgeo4proj6common13UnitOfMeasureESaIvELN9__gnu_cxx12_Lock_policyE2EE10_M_disposeEv = comdat any

$_ZNSt23_Sp_counted_ptr_inplaceIN5osgeo4proj6common13UnitOfMeasureESaIvELN9__gnu_cxx12_Lock_policyE2EE10_M_destroyEv = comdat any

$_ZNSt23_Sp_counted_ptr_inplaceIN5osgeo4proj6common13UnitOfMeasureESaIvELN9__gnu_cxx12_Lock_policyE2EE14_M_get_deleterERKSt9type_info = comdat any

$_ZN5osgeo4proj6common16IdentifiedObject7PrivateD2Ev = comdat any

$_ZNSt6vectorIN7dropbox6oxygen2nnISt10shared_ptrIN5osgeo4proj4util11GenericNameEEEESaIS9_EED2Ev = comdat any

$_ZNSt6vectorIN7dropbox6oxygen2nnISt10shared_ptrIN5osgeo4proj8metadata10IdentifierEEEESaIS9_EED2Ev = comdat any

$_ZN5osgeo4proj6common16IdentifiedObject7PrivateC2ERKS3_ = comdat any

$_ZNSt12__shared_ptrIN5osgeo4proj8metadata10IdentifierELN9__gnu_cxx12_Lock_policyE2EED2Ev = comdat any

$_ZNSt12__shared_ptrIN5osgeo4proj4util11GenericNameELN9__gnu_cxx12_Lock_policyE2EED2Ev = comdat any

$_ZNSt16_Sp_counted_baseILN9__gnu_cxx12_Lock_policyE2EED2Ev = comdat any

$_ZNSt15_Sp_counted_ptrIPN5osgeo4proj6common12ObjectDomainELN9__gnu_cxx12_Lock_policyE2EED0Ev = comdat any

$_ZNSt15_Sp_counted_ptrIPN5osgeo4proj6common12ObjectDomainELN9__gnu_cxx12_Lock_policyE2EE10_M_disposeEv = comdat any

$_ZNSt15_Sp_counted_ptrIPN5osgeo4proj6common12ObjectDomainELN9__gnu_cxx12_Lock_policyE2EE10_M_destroyEv = comdat any

$_ZNSt15_Sp_counted_ptrIPN5osgeo4proj6common12ObjectDomainELN9__gnu_cxx12_Lock_policyE2EE14_M_get_deleterERKSt9type_info = comdat any

$_ZNKSt14default_deleteIN5osgeo4proj6common11ObjectUsage7PrivateEEclEPS4_ = comdat any

$_ZNSt12__shared_ptrIN5osgeo4proj8metadata6ExtentELN9__gnu_cxx12_Lock_policyE2EED2Ev = comdat any

$_ZNSt12__shared_ptrIN5osgeo4proj6common12ObjectDomainELN9__gnu_cxx12_Lock_policyE2EED2Ev = comdat any

$_ZTVSt23_Sp_counted_ptr_inplaceIN5osgeo4proj6common13UnitOfMeasureESaIvELN9__gnu_cxx12_Lock_policyE2EE = comdat any

$_ZTISt23_Sp_counted_ptr_inplaceIN5osgeo4proj6common13UnitOfMeasureESaIvELN9__gnu_cxx12_Lock_policyE2EE = comdat any

$_ZTSSt23_Sp_counted_ptr_inplaceIN5osgeo4proj6common13UnitOfMeasureESaIvELN9__gnu_cxx12_Lock_policyE2EE = comdat any

$_ZTISt16_Sp_counted_baseILN9__gnu_cxx12_Lock_policyE2EE = comdat any

$_ZTSSt16_Sp_counted_baseILN9__gnu_cxx12_Lock_policyE2EE = comdat any

$_ZTISt11_Mutex_baseILN9__gnu_cxx12_Lock_policyE2EE = comdat any

$_ZTSSt11_Mutex_baseILN9__gnu_cxx12_Lock_policyE2EE = comdat any

$_ZTSSt19_Sp_make_shared_tag = comdat any

$_ZZNSt19_Sp_make_shared_tag5_S_tiEvE5__tag = comdat any

$_ZTVSt15_Sp_counted_ptrIPN5osgeo4proj6common12ObjectDomainELN9__gnu_cxx12_Lock_policyE2EE = comdat any

$_ZTISt15_Sp_counted_ptrIPN5osgeo4proj6common12ObjectDomainELN9__gnu_cxx12_Lock_policyE2EE = comdat any

$_ZTSSt15_Sp_counted_ptrIPN5osgeo4proj6common12ObjectDomainELN9__gnu_cxx12_Lock_policyE2EE = comdat any

@_ZTVN5osgeo4proj6common13UnitOfMeasureE = unnamed_addr constant { [4 x ptr] } { [4 x ptr] [ptr null, ptr @_ZTIN5osgeo4proj6common13UnitOfMeasureE, ptr @_ZN5osgeo4proj6common13UnitOfMeasureD1Ev, ptr @_ZN5osgeo4proj6common13UnitOfMeasureD0Ev] }, align 8
@_ZN5osgeo4proj2io12WKTConstants4UNITB5cxx11E = external global %"class.std::__cxx11::basic_string", align 8
@_ZN5osgeo4proj2io12WKTConstants10LENGTHUNITB5cxx11E = external global %"class.std::__cxx11::basic_string", align 8
@_ZN5osgeo4proj2io12WKTConstants9ANGLEUNITB5cxx11E = external global %"class.std::__cxx11::basic_string", align 8
@_ZN5osgeo4proj2io12WKTConstants9SCALEUNITB5cxx11E = external global %"class.std::__cxx11::basic_string", align 8
@_ZN5osgeo4proj2io12WKTConstants8TIMEUNITB5cxx11E = external global %"class.std::__cxx11::basic_string", align 8
@_ZN5osgeo4proj2io12WKTConstants14PARAMETRICUNITB5cxx11E = external global %"class.std::__cxx11::basic_string", align 8
@.str = private unnamed_addr constant [7 x i8] c"degree\00", align 1
@.str.1 = private unnamed_addr constant [7 x i8] c"Degree\00", align 1
@.str.2 = private unnamed_addr constant [5 x i8] c"grad\00", align 1
@.str.3 = private unnamed_addr constant [5 x i8] c"Grad\00", align 1
@.str.4 = private unnamed_addr constant [6 x i8] c"metre\00", align 1
@.str.5 = private unnamed_addr constant [6 x i8] c"Meter\00", align 1
@_ZN5osgeo4proj2io12WKTConstants2IDB5cxx11E = external global %"class.std::__cxx11::basic_string", align 8
@_ZN5osgeo4proj2io12WKTConstants9AUTHORITYB5cxx11E = external global %"class.std::__cxx11::basic_string", align 8
@_ZTISt9exception = external constant ptr
@.str.7 = private unnamed_addr constant [11 x i8] c"LinearUnit\00", align 1
@.str.8 = private unnamed_addr constant [12 x i8] c"AngularUnit\00", align 1
@.str.9 = private unnamed_addr constant [10 x i8] c"ScaleUnit\00", align 1
@.str.10 = private unnamed_addr constant [9 x i8] c"TimeUnit\00", align 1
@.str.11 = private unnamed_addr constant [15 x i8] c"ParametricUnit\00", align 1
@.str.12 = private unnamed_addr constant [5 x i8] c"Unit\00", align 1
@.str.14 = private unnamed_addr constant [18 x i8] c"conversion_factor\00", align 1
@.str.16 = private unnamed_addr constant [10 x i8] c"authority\00", align 1
@_ZTVN5osgeo4proj6common7MeasureE = hidden unnamed_addr constant { [4 x ptr] } { [4 x ptr] [ptr null, ptr @_ZTIN5osgeo4proj6common7MeasureE, ptr @_ZN5osgeo4proj6common7MeasureD1Ev, ptr @_ZN5osgeo4proj6common7MeasureD0Ev] }, align 8
@_ZN5osgeo4proj6common13UnitOfMeasure11SCALE_UNITYE = external global %"class.osgeo::proj::common::UnitOfMeasure", align 8
@_ZTVN5osgeo4proj6common5ScaleE = hidden unnamed_addr constant { [4 x ptr] } { [4 x ptr] [ptr null, ptr @_ZTIN5osgeo4proj6common5ScaleE, ptr @_ZN5osgeo4proj6common5ScaleD1Ev, ptr @_ZN5osgeo4proj6common5ScaleD0Ev] }, align 8
@_ZN5osgeo4proj6common13UnitOfMeasure6DEGREEE = external global %"class.osgeo::proj::common::UnitOfMeasure", align 8
@_ZTVN5osgeo4proj6common5AngleE = hidden unnamed_addr constant { [4 x ptr] } { [4 x ptr] [ptr null, ptr @_ZTIN5osgeo4proj6common5AngleE, ptr @_ZN5osgeo4proj6common5AngleD1Ev, ptr @_ZN5osgeo4proj6common5AngleD0Ev] }, align 8
@_ZN5osgeo4proj6common13UnitOfMeasure5METREE = external global %"class.osgeo::proj::common::UnitOfMeasure", align 8
@_ZTVN5osgeo4proj6common6LengthE = hidden unnamed_addr constant { [4 x ptr] } { [4 x ptr] [ptr null, ptr @_ZTIN5osgeo4proj6common6LengthE, ptr @_ZN5osgeo4proj6common6LengthD1Ev, ptr @_ZN5osgeo4proj6common6LengthD0Ev] }, align 8
@_ZTVN5osgeo4proj6common16IdentifiedObjectE = unnamed_addr constant { [6 x ptr], [5 x ptr], [5 x ptr] } { [6 x ptr] [ptr null, ptr @_ZTIN5osgeo4proj6common16IdentifiedObjectE, ptr @_ZN5osgeo4proj6common16IdentifiedObjectD1Ev, ptr @_ZN5osgeo4proj6common16IdentifiedObjectD0Ev, ptr @_ZNK5osgeo4proj6common16IdentifiedObject15_isEquivalentToEPKNS0_4util11IComparableENS4_9CriterionERKSt10shared_ptrINS0_2io15DatabaseContextEE, ptr @_ZNK5osgeo4proj6common16IdentifiedObject29hasEquivalentNameToUsingAliasEPKS2_RKSt10shared_ptrINS0_2io15DatabaseContextEE], [5 x ptr] [ptr inttoptr (i64 -16 to ptr), ptr @_ZTIN5osgeo4proj6common16IdentifiedObjectE, ptr @_ZThn16_N5osgeo4proj6common16IdentifiedObjectD1Ev, ptr @_ZThn16_N5osgeo4proj6common16IdentifiedObjectD0Ev, ptr @_ZThn16_NK5osgeo4proj6common16IdentifiedObject15_isEquivalentToEPKNS0_4util11IComparableENS4_9CriterionERKSt10shared_ptrINS0_2io15DatabaseContextEE], [5 x ptr] [ptr inttoptr (i64 -24 to ptr), ptr @_ZTIN5osgeo4proj6common16IdentifiedObjectE, ptr @_ZThn24_N5osgeo4proj6common16IdentifiedObjectD1Ev, ptr @_ZThn24_N5osgeo4proj6common16IdentifiedObjectD0Ev, ptr @__cxa_pure_virtual] }, align 8
@_ZN5osgeo4proj8metadata10Identifier4EPSGB5cxx11E = external global %"class.std::__cxx11::basic_string", align 8
@_ZN5osgeo4proj6common16IdentifiedObject8NAME_KEYB5cxx11E = external global %"class.std::__cxx11::basic_string", align 8
@_ZTVN5osgeo4proj4util10BoxedValueE = external unnamed_addr constant { [4 x ptr] }, align 8
@.str.18 = private unnamed_addr constant [24 x i8] c"Invalid value type for \00", align 1
@_ZTIN5osgeo4proj4util25InvalidValueTypeExceptionE = external constant ptr
@_ZN5osgeo4proj6common16IdentifiedObject15IDENTIFIERS_KEYB5cxx11E = external global %"class.std::__cxx11::basic_string", align 8
@_ZN5osgeo4proj8metadata10Identifier8CODE_KEYB5cxx11E = external global %"class.std::__cxx11::basic_string", align 8
@_ZTVN5osgeo4proj4util17ArrayOfBaseObjectE = external unnamed_addr constant { [4 x ptr] }, align 8
@_ZN5osgeo4proj6common16IdentifiedObject9ALIAS_KEYB5cxx11E = external global %"class.std::__cxx11::basic_string", align 8
@_ZN5osgeo4proj6common16IdentifiedObject11REMARKS_KEYB5cxx11E = external global %"class.std::__cxx11::basic_string", align 8
@_ZN5osgeo4proj6common16IdentifiedObject14DEPRECATED_KEYB5cxx11E = external global %"class.std::__cxx11::basic_string", align 8
@_ZN5osgeo4proj2io12WKTConstants6REMARKB5cxx11E = external global %"class.std::__cxx11::basic_string", align 8
@.str.19 = private unnamed_addr constant [4 x i8] c"ids\00", align 1
@.str.20 = private unnamed_addr constant [8 x i8] c"remarks\00", align 1
@_ZTIN5osgeo4proj4util11IComparableE = external constant ptr
@_ZTIN5osgeo4proj6common16IdentifiedObjectE = constant { ptr, ptr, i32, i32, ptr, i64, ptr, i64, ptr, i64 } { ptr getelementptr inbounds (ptr, ptr @_ZTVN10__cxxabiv121__vmi_class_type_infoE, i64 2), ptr @_ZTSN5osgeo4proj6common16IdentifiedObjectE, i32 0, i32 3, ptr @_ZTIN5osgeo4proj4util10BaseObjectE, i64 2, ptr @_ZTIN5osgeo4proj4util11IComparableE, i64 4098, ptr @_ZTIN5osgeo4proj2io14IWKTExportableE, i64 6146 }, align 8
@_ZTVN10__cxxabiv121__vmi_class_type_infoE = external global [0 x ptr]
@_ZTSN5osgeo4proj6common16IdentifiedObjectE = constant [39 x i8] c"N5osgeo4proj6common16IdentifiedObjectE\00", align 1
@_ZTIN5osgeo4proj4util10BaseObjectE = external constant ptr
@_ZTIN5osgeo4proj2io14IWKTExportableE = external constant ptr
@_ZTVN5osgeo4proj6common12ObjectDomainE = unnamed_addr constant { [5 x ptr], [5 x ptr] } { [5 x ptr] [ptr null, ptr @_ZTIN5osgeo4proj6common12ObjectDomainE, ptr @_ZN5osgeo4proj6common12ObjectDomainD1Ev, ptr @_ZN5osgeo4proj6common12ObjectDomainD0Ev, ptr @_ZNK5osgeo4proj6common12ObjectDomain15_isEquivalentToEPKNS0_4util11IComparableENS4_9CriterionERKSt10shared_ptrINS0_2io15DatabaseContextEE], [5 x ptr] [ptr inttoptr (i64 -16 to ptr), ptr @_ZTIN5osgeo4proj6common12ObjectDomainE, ptr @_ZThn16_N5osgeo4proj6common12ObjectDomainD1Ev, ptr @_ZThn16_N5osgeo4proj6common12ObjectDomainD0Ev, ptr @_ZThn16_NK5osgeo4proj6common12ObjectDomain15_isEquivalentToEPKNS0_4util11IComparableENS4_9CriterionERKSt10shared_ptrINS0_2io15DatabaseContextEE] }, align 8
@_ZN5osgeo4proj2io12WKTConstants5SCOPEB5cxx11E = external global %"class.std::__cxx11::basic_string", align 8
@.str.21 = private unnamed_addr constant [8 x i8] c"unknown\00", align 1
@_ZN5osgeo4proj2io12WKTConstants4AREAB5cxx11E = external global %"class.std::__cxx11::basic_string", align 8
@_ZTIN5osgeo4proj8metadata16GeographicExtentE = external constant ptr
@_ZTIN5osgeo4proj8metadata21GeographicBoundingBoxE = external constant ptr
@_ZN5osgeo4proj2io12WKTConstants4BBOXB5cxx11E = external global %"class.std::__cxx11::basic_string", align 8
@_ZN5osgeo4proj2io12WKTConstants14VERTICALEXTENTB5cxx11E = external global %"class.std::__cxx11::basic_string", align 8
@_ZN5osgeo4proj2io12WKTConstants10TIMEEXTENTB5cxx11E = external global %"class.std::__cxx11::basic_string", align 8
@.str.22 = private unnamed_addr constant [6 x i8] c"scope\00", align 1
@.str.25 = private unnamed_addr constant [15 x i8] c"south_latitude\00", align 1
@.str.26 = private unnamed_addr constant [15 x i8] c"west_longitude\00", align 1
@.str.27 = private unnamed_addr constant [15 x i8] c"north_latitude\00", align 1
@.str.28 = private unnamed_addr constant [15 x i8] c"east_longitude\00", align 1
@.str.29 = private unnamed_addr constant [16 x i8] c"vertical_extent\00", align 1
@.str.30 = private unnamed_addr constant [8 x i8] c"minimum\00", align 1
@.str.31 = private unnamed_addr constant [8 x i8] c"maximum\00", align 1
@.str.33 = private unnamed_addr constant [16 x i8] c"temporal_extent\00", align 1
@.str.34 = private unnamed_addr constant [6 x i8] c"start\00", align 1
@.str.35 = private unnamed_addr constant [4 x i8] c"end\00", align 1
@_ZTIN5osgeo4proj6common12ObjectDomainE = constant { ptr, ptr, i32, i32, ptr, i64, ptr, i64 } { ptr getelementptr inbounds (ptr, ptr @_ZTVN10__cxxabiv121__vmi_class_type_infoE, i64 2), ptr @_ZTSN5osgeo4proj6common12ObjectDomainE, i32 0, i32 2, ptr @_ZTIN5osgeo4proj4util10BaseObjectE, i64 2, ptr @_ZTIN5osgeo4proj4util11IComparableE, i64 4098 }, align 8
@_ZTSN5osgeo4proj6common12ObjectDomainE = constant [35 x i8] c"N5osgeo4proj6common12ObjectDomainE\00", align 1
@_ZTVN5osgeo4proj6common11ObjectUsageE = unnamed_addr constant { [6 x ptr], [5 x ptr], [5 x ptr] } { [6 x ptr] [ptr null, ptr @_ZTIN5osgeo4proj6common11ObjectUsageE, ptr @_ZN5osgeo4proj6common11ObjectUsageD1Ev, ptr @_ZN5osgeo4proj6common11ObjectUsageD0Ev, ptr @_ZNK5osgeo4proj6common11ObjectUsage15_isEquivalentToEPKNS0_4util11IComparableENS4_9CriterionERKSt10shared_ptrINS0_2io15DatabaseContextEE, ptr @_ZNK5osgeo4proj6common16IdentifiedObject29hasEquivalentNameToUsingAliasEPKS2_RKSt10shared_ptrINS0_2io15DatabaseContextEE], [5 x ptr] [ptr inttoptr (i64 -16 to ptr), ptr @_ZTIN5osgeo4proj6common11ObjectUsageE, ptr @_ZThn16_N5osgeo4proj6common11ObjectUsageD1Ev, ptr @_ZThn16_N5osgeo4proj6common11ObjectUsageD0Ev, ptr @_ZThn16_NK5osgeo4proj6common11ObjectUsage15_isEquivalentToEPKNS0_4util11IComparableENS4_9CriterionERKSt10shared_ptrINS0_2io15DatabaseContextEE], [5 x ptr] [ptr inttoptr (i64 -24 to ptr), ptr @_ZTIN5osgeo4proj6common11ObjectUsageE, ptr @_ZThn24_N5osgeo4proj6common11ObjectUsageD1Ev, ptr @_ZThn24_N5osgeo4proj6common11ObjectUsageD0Ev, ptr @__cxa_pure_virtual] }, align 8
@_ZN5osgeo4proj6common11ObjectUsage9SCOPE_KEYB5cxx11E = external global %"class.std::__cxx11::basic_string", align 8
@_ZN5osgeo4proj6common11ObjectUsage22DOMAIN_OF_VALIDITY_KEYB5cxx11E = external global %"class.std::__cxx11::basic_string", align 8
@_ZN5osgeo4proj6common11ObjectUsage17OBJECT_DOMAIN_KEYB5cxx11E = external global %"class.std::__cxx11::basic_string", align 8
@_ZN5osgeo4proj2io12WKTConstants5USAGEB5cxx11E = external global %"class.std::__cxx11::basic_string", align 8
@.str.36 = private unnamed_addr constant [7 x i8] c"usages\00", align 1
@_ZTIN5osgeo4proj6common11ObjectUsageE = constant { ptr, ptr, ptr } { ptr getelementptr inbounds (ptr, ptr @_ZTVN10__cxxabiv120__si_class_type_infoE, i64 2), ptr @_ZTSN5osgeo4proj6common11ObjectUsageE, ptr @_ZTIN5osgeo4proj6common16IdentifiedObjectE }, align 8
@_ZTVN10__cxxabiv120__si_class_type_infoE = external global [0 x ptr]
@_ZTSN5osgeo4proj6common11ObjectUsageE = constant [34 x i8] c"N5osgeo4proj6common11ObjectUsageE\00", align 1
@_ZTIN5osgeo4proj6common5ScaleE = hidden constant { ptr, ptr, ptr } { ptr getelementptr inbounds (ptr, ptr @_ZTVN10__cxxabiv120__si_class_type_infoE, i64 2), ptr @_ZTSN5osgeo4proj6common5ScaleE, ptr @_ZTIN5osgeo4proj6common7MeasureE }, align 8
@_ZTSN5osgeo4proj6common5ScaleE = hidden constant [27 x i8] c"N5osgeo4proj6common5ScaleE\00", align 1
@_ZTIN5osgeo4proj6common7MeasureE = hidden constant { ptr, ptr, ptr } { ptr getelementptr inbounds (ptr, ptr @_ZTVN10__cxxabiv120__si_class_type_infoE, i64 2), ptr @_ZTSN5osgeo4proj6common7MeasureE, ptr @_ZTIN5osgeo4proj4util10BaseObjectE }, align 8
@_ZTSN5osgeo4proj6common7MeasureE = hidden constant [29 x i8] c"N5osgeo4proj6common7MeasureE\00", align 1
@_ZTIN5osgeo4proj6common5AngleE = hidden constant { ptr, ptr, ptr } { ptr getelementptr inbounds (ptr, ptr @_ZTVN10__cxxabiv120__si_class_type_infoE, i64 2), ptr @_ZTSN5osgeo4proj6common5AngleE, ptr @_ZTIN5osgeo4proj6common7MeasureE }, align 8
@_ZTSN5osgeo4proj6common5AngleE = hidden constant [27 x i8] c"N5osgeo4proj6common5AngleE\00", align 1
@_ZTIN5osgeo4proj6common6LengthE = hidden constant { ptr, ptr, ptr } { ptr getelementptr inbounds (ptr, ptr @_ZTVN10__cxxabiv120__si_class_type_infoE, i64 2), ptr @_ZTSN5osgeo4proj6common6LengthE, ptr @_ZTIN5osgeo4proj6common7MeasureE }, align 8
@_ZTSN5osgeo4proj6common6LengthE = hidden constant [28 x i8] c"N5osgeo4proj6common6LengthE\00", align 1
@_ZTIN5osgeo4proj6common13UnitOfMeasureE = constant { ptr, ptr, ptr } { ptr getelementptr inbounds (ptr, ptr @_ZTVN10__cxxabiv120__si_class_type_infoE, i64 2), ptr @_ZTSN5osgeo4proj6common13UnitOfMeasureE, ptr @_ZTIN5osgeo4proj4util10BaseObjectE }, align 8
@_ZTSN5osgeo4proj6common13UnitOfMeasureE = constant [36 x i8] c"N5osgeo4proj6common13UnitOfMeasureE\00", align 1
@.str.37 = private unnamed_addr constant [5 x i8] c"stoi\00", align 1
@__libc_single_threaded = external local_unnamed_addr global i8, align 1
@_ZTVSt23_Sp_counted_ptr_inplaceIN5osgeo4proj6common13UnitOfMeasureESaIvELN9__gnu_cxx12_Lock_policyE2EE = linkonce_odr unnamed_addr constant { [7 x ptr] } { [7 x ptr] [ptr null, ptr @_ZTISt23_Sp_counted_ptr_inplaceIN5osgeo4proj6common13UnitOfMeasureESaIvELN9__gnu_cxx12_Lock_policyE2EE, ptr @_ZNSt16_Sp_counted_baseILN9__gnu_cxx12_Lock_policyE2EED2Ev, ptr @_ZNSt23_Sp_counted_ptr_inplaceIN5osgeo4proj6common13UnitOfMeasureESaIvELN9__gnu_cxx12_Lock_policyE2EED0Ev, ptr @_ZNSt23_Sp_counted_ptr_inplaceIN5osgeo4proj6common13UnitOfMeasureESaIvELN9__gnu_cxx12_Lock_policyE2EE10_M_disposeEv, ptr @_ZNSt23_Sp_counted_ptr_inplaceIN5osgeo4proj6common13UnitOfMeasureESaIvELN9__gnu_cxx12_Lock_policyE2EE10_M_destroyEv, ptr @_ZNSt23_Sp_counted_ptr_inplaceIN5osgeo4proj6common13UnitOfMeasureESaIvELN9__gnu_cxx12_Lock_policyE2EE14_M_get_deleterERKSt9type_info] }, comdat, align 8
@_ZTISt23_Sp_counted_ptr_inplaceIN5osgeo4proj6common13UnitOfMeasureESaIvELN9__gnu_cxx12_Lock_policyE2EE = linkonce_odr constant { ptr, ptr, ptr } { ptr getelementptr inbounds (ptr, ptr @_ZTVN10__cxxabiv120__si_class_type_infoE, i64 2), ptr @_ZTSSt23_Sp_counted_ptr_inplaceIN5osgeo4proj6common13UnitOfMeasureESaIvELN9__gnu_cxx12_Lock_policyE2EE, ptr @_ZTISt16_Sp_counted_baseILN9__gnu_cxx12_Lock_policyE2EE }, comdat, align 8
@_ZTSSt23_Sp_counted_ptr_inplaceIN5osgeo4proj6common13UnitOfMeasureESaIvELN9__gnu_cxx12_Lock_policyE2EE = linkonce_odr constant [99 x i8] c"St23_Sp_counted_ptr_inplaceIN5osgeo4proj6common13UnitOfMeasureESaIvELN9__gnu_cxx12_Lock_policyE2EE\00", comdat, align 1
@_ZTISt16_Sp_counted_baseILN9__gnu_cxx12_Lock_policyE2EE = linkonce_odr constant { ptr, ptr, ptr } { ptr getelementptr inbounds (ptr, ptr @_ZTVN10__cxxabiv120__si_class_type_infoE, i64 2), ptr @_ZTSSt16_Sp_counted_baseILN9__gnu_cxx12_Lock_policyE2EE, ptr @_ZTISt11_Mutex_baseILN9__gnu_cxx12_Lock_policyE2EE }, comdat, align 8
@_ZTSSt16_Sp_counted_baseILN9__gnu_cxx12_Lock_policyE2EE = linkonce_odr constant [52 x i8] c"St16_Sp_counted_baseILN9__gnu_cxx12_Lock_policyE2EE\00", comdat, align 1
@_ZTISt11_Mutex_baseILN9__gnu_cxx12_Lock_policyE2EE = linkonce_odr constant { ptr, ptr } { ptr getelementptr inbounds (ptr, ptr @_ZTVN10__cxxabiv117__class_type_infoE, i64 2), ptr @_ZTSSt11_Mutex_baseILN9__gnu_cxx12_Lock_policyE2EE }, comdat, align 8
@_ZTVN10__cxxabiv117__class_type_infoE = external global [0 x ptr]
@_ZTSSt11_Mutex_baseILN9__gnu_cxx12_Lock_policyE2EE = linkonce_odr constant [47 x i8] c"St11_Mutex_baseILN9__gnu_cxx12_Lock_policyE2EE\00", comdat, align 1
@_ZTSSt19_Sp_make_shared_tag = linkonce_odr constant [24 x i8] c"St19_Sp_make_shared_tag\00", comdat, align 1
@_ZZNSt19_Sp_make_shared_tag5_S_tiEvE5__tag = linkonce_odr constant [16 x i8] zeroinitializer, comdat, align 8
@.str.39 = private unnamed_addr constant [21 x i8] c"basic_string::append\00", align 1
@_ZTIN5osgeo4proj8metadata10IdentifierE = external constant ptr
@.str.40 = private unnamed_addr constant [26 x i8] c"vector::_M_realloc_append\00", align 1
@_ZTIN5osgeo4proj4util11GenericNameE = external constant ptr
@_ZTVSt15_Sp_counted_ptrIPN5osgeo4proj6common12ObjectDomainELN9__gnu_cxx12_Lock_policyE2EE = linkonce_odr unnamed_addr constant { [7 x ptr] } { [7 x ptr] [ptr null, ptr @_ZTISt15_Sp_counted_ptrIPN5osgeo4proj6common12ObjectDomainELN9__gnu_cxx12_Lock_policyE2EE, ptr @_ZNSt16_Sp_counted_baseILN9__gnu_cxx12_Lock_policyE2EED2Ev, ptr @_ZNSt15_Sp_counted_ptrIPN5osgeo4proj6common12ObjectDomainELN9__gnu_cxx12_Lock_policyE2EED0Ev, ptr @_ZNSt15_Sp_counted_ptrIPN5osgeo4proj6common12ObjectDomainELN9__gnu_cxx12_Lock_policyE2EE10_M_disposeEv, ptr @_ZNSt15_Sp_counted_ptrIPN5osgeo4proj6common12ObjectDomainELN9__gnu_cxx12_Lock_policyE2EE10_M_destroyEv, ptr @_ZNSt15_Sp_counted_ptrIPN5osgeo4proj6common12ObjectDomainELN9__gnu_cxx12_Lock_policyE2EE14_M_get_deleterERKSt9type_info] }, comdat, align 8
@_ZTISt15_Sp_counted_ptrIPN5osgeo4proj6common12ObjectDomainELN9__gnu_cxx12_Lock_policyE2EE = linkonce_odr constant { ptr, ptr, ptr } { ptr getelementptr inbounds (ptr, ptr @_ZTVN10__cxxabiv120__si_class_type_infoE, i64 2), ptr @_ZTSSt15_Sp_counted_ptrIPN5osgeo4proj6common12ObjectDomainELN9__gnu_cxx12_Lock_policyE2EE, ptr @_ZTISt16_Sp_counted_baseILN9__gnu_cxx12_Lock_policyE2EE }, comdat, align 8
@_ZTSSt15_Sp_counted_ptrIPN5osgeo4proj6common12ObjectDomainELN9__gnu_cxx12_Lock_policyE2EE = linkonce_odr constant [86 x i8] c"St15_Sp_counted_ptrIPN5osgeo4proj6common12ObjectDomainELN9__gnu_cxx12_Lock_policyE2EE\00", comdat, align 1
@_ZTIN5osgeo4proj8metadata6ExtentE = external constant ptr
@switch.table._ZNK5osgeo4proj6common13UnitOfMeasure13_exportToJSONEPNS0_2io13JSONFormatterE.rel = private unnamed_addr constant [5 x i32] [i32 trunc (i64 sub (i64 ptrtoint (ptr @.str.8 to i64), i64 ptrtoint (ptr @switch.table._ZNK5osgeo4proj6common13UnitOfMeasure13_exportToJSONEPNS0_2io13JSONFormatterE.rel to i64)) to i32), i32 trunc (i64 sub (i64 ptrtoint (ptr @.str.7 to i64), i64 ptrtoint (ptr @switch.table._ZNK5osgeo4proj6common13UnitOfMeasure13_exportToJSONEPNS0_2io13JSONFormatterE.rel to i64)) to i32), i32 trunc (i64 sub (i64 ptrtoint (ptr @.str.9 to i64), i64 ptrtoint (ptr @switch.table._ZNK5osgeo4proj6common13UnitOfMeasure13_exportToJSONEPNS0_2io13JSONFormatterE.rel to i64)) to i32), i32 trunc (i64 sub (i64 ptrtoint (ptr @.str.10 to i64), i64 ptrtoint (ptr @switch.table._ZNK5osgeo4proj6common13UnitOfMeasure13_exportToJSONEPNS0_2io13JSONFormatterE.rel to i64)) to i32), i32 trunc (i64 sub (i64 ptrtoint (ptr @.str.11 to i64), i64 ptrtoint (ptr @switch.table._ZNK5osgeo4proj6common13UnitOfMeasure13_exportToJSONEPNS0_2io13JSONFormatterE.rel to i64)) to i32)], align 4

@_ZN5osgeo4proj6common13UnitOfMeasureC1ERKNSt7__cxx1112basic_stringIcSt11char_traitsIcESaIcEEEdNS2_4TypeESA_SA_ = unnamed_addr alias void (ptr, ptr, double, i32, ptr, ptr), ptr @_ZN5osgeo4proj6common13UnitOfMeasureC2ERKNSt7__cxx1112basic_stringIcSt11char_traitsIcESaIcEEEdNS2_4TypeESA_SA_
@_ZN5osgeo4proj6common13UnitOfMeasureC1ERKS2_ = unnamed_addr alias void (ptr, ptr), ptr @_ZN5osgeo4proj6common13UnitOfMeasureC2ERKS2_
@_ZN5osgeo4proj6common13UnitOfMeasureD1Ev = unnamed_addr alias void (ptr), ptr @_ZN5osgeo4proj6common13UnitOfMeasureD2Ev
@_ZN5osgeo4proj6common7MeasureC1EdRKNS1_13UnitOfMeasureE = unnamed_addr alias void (ptr, double, ptr), ptr @_ZN5osgeo4proj6common7MeasureC2EdRKNS1_13UnitOfMeasureE
@_ZN5osgeo4proj6common7MeasureC1ERKS2_ = unnamed_addr alias void (ptr, ptr), ptr @_ZN5osgeo4proj6common7MeasureC2ERKS2_
@_ZN5osgeo4proj6common7MeasureD1Ev = unnamed_addr alias void (ptr), ptr @_ZN5osgeo4proj6common7MeasureD2Ev
@_ZN5osgeo4proj6common5ScaleC1Ed = unnamed_addr alias void (ptr, double), ptr @_ZN5osgeo4proj6common5ScaleC2Ed
@_ZN5osgeo4proj6common5ScaleC1EdRKNS1_13UnitOfMeasureE = unnamed_addr alias void (ptr, double, ptr), ptr @_ZN5osgeo4proj6common5ScaleC2EdRKNS1_13UnitOfMeasureE
@_ZN5osgeo4proj6common5ScaleC1ERKS2_ = unnamed_addr alias void (ptr, ptr), ptr @_ZN5osgeo4proj6common5ScaleC2ERKS2_
@_ZN5osgeo4proj6common5ScaleD2Ev = unnamed_addr alias void (ptr), ptr @_ZN5osgeo4proj6common7MeasureD2Ev
@_ZN5osgeo4proj6common5ScaleD1Ev = unnamed_addr alias void (ptr), ptr @_ZN5osgeo4proj6common5ScaleD2Ev
@_ZN5osgeo4proj6common5AngleC1Ed = unnamed_addr alias void (ptr, double), ptr @_ZN5osgeo4proj6common5AngleC2Ed
@_ZN5osgeo4proj6common5AngleC1EdRKNS1_13UnitOfMeasureE = unnamed_addr alias void (ptr, double, ptr), ptr @_ZN5osgeo4proj6common5AngleC2EdRKNS1_13UnitOfMeasureE
@_ZN5osgeo4proj6common5AngleC1ERKS2_ = unnamed_addr alias void (ptr, ptr), ptr @_ZN5osgeo4proj6common5AngleC2ERKS2_
@_ZN5osgeo4proj6common5AngleD2Ev = unnamed_addr alias void (ptr), ptr @_ZN5osgeo4proj6common7MeasureD2Ev
@_ZN5osgeo4proj6common5AngleD1Ev = unnamed_addr alias void (ptr), ptr @_ZN5osgeo4proj6common5AngleD2Ev
@_ZN5osgeo4proj6common6LengthC1Ed = unnamed_addr alias void (ptr, double), ptr @_ZN5osgeo4proj6common6LengthC2Ed
@_ZN5osgeo4proj6common6LengthC1EdRKNS1_13UnitOfMeasureE = unnamed_addr alias void (ptr, double, ptr), ptr @_ZN5osgeo4proj6common6LengthC2EdRKNS1_13UnitOfMeasureE
@_ZN5osgeo4proj6common6LengthC1ERKS2_ = unnamed_addr alias void (ptr, ptr), ptr @_ZN5osgeo4proj6common6LengthC2ERKS2_
@_ZN5osgeo4proj6common6LengthD2Ev = unnamed_addr alias void (ptr), ptr @_ZN5osgeo4proj6common7MeasureD2Ev
@_ZN5osgeo4proj6common6LengthD1Ev = unnamed_addr alias void (ptr), ptr @_ZN5osgeo4proj6common6LengthD2Ev
@_ZN5osgeo4proj6common8DateTimeC1Ev = hidden unnamed_addr alias void (ptr), ptr @_ZN5osgeo4proj6common8DateTimeC2Ev
@_ZN5osgeo4proj6common8DateTimeC1ERKNSt7__cxx1112basic_stringIcSt11char_traitsIcESaIcEEE = hidden unnamed_addr alias void (ptr, ptr), ptr @_ZN5osgeo4proj6common8DateTimeC2ERKNSt7__cxx1112basic_stringIcSt11char_traitsIcESaIcEEE
@_ZN5osgeo4proj6common8DateTimeC1ERKS2_ = unnamed_addr alias void (ptr, ptr), ptr @_ZN5osgeo4proj6common8DateTimeC2ERKS2_
@_ZN5osgeo4proj6common8DateTimeD1Ev = unnamed_addr alias void (ptr), ptr @_ZN5osgeo4proj6common8DateTimeD2Ev
@_ZN5osgeo4proj6common16IdentifiedObjectD1Ev = unnamed_addr alias void (ptr), ptr @_ZN5osgeo4proj6common16IdentifiedObjectD2Ev
@_ZN5osgeo4proj6common12ObjectDomainC1ERKNS0_4util8optionalINSt7__cxx1112basic_stringIcSt11char_traitsIcESaIcEEEEERKSt10shared_ptrINS0_8metadata6ExtentEE = unnamed_addr alias void (ptr, ptr, ptr), ptr @_ZN5osgeo4proj6common12ObjectDomainC2ERKNS0_4util8optionalINSt7__cxx1112basic_stringIcSt11char_traitsIcESaIcEEEEERKSt10shared_ptrINS0_8metadata6ExtentEE
@_ZN5osgeo4proj6common12ObjectDomainC1ERKS2_ = unnamed_addr alias void (ptr, ptr), ptr @_ZN5osgeo4proj6common12ObjectDomainC2ERKS2_
@_ZN5osgeo4proj6common12ObjectDomainD1Ev = unnamed_addr alias void (ptr), ptr @_ZN5osgeo4proj6common12ObjectDomainD2Ev
@_ZN5osgeo4proj6common11ObjectUsageD1Ev = unnamed_addr alias void (ptr), ptr @_ZN5osgeo4proj6common11ObjectUsageD2Ev
@_ZN5osgeo4proj6common9DataEpochC1Ev = hidden unnamed_addr alias void (ptr), ptr @_ZN5osgeo4proj6common9DataEpochC2Ev
@_ZN5osgeo4proj6common9DataEpochC1ERKNS1_7MeasureE = unnamed_addr alias void (ptr, ptr), ptr @_ZN5osgeo4proj6common9DataEpochC2ERKNS1_7MeasureE
@_ZN5osgeo4proj6common9DataEpochC1ERKS2_ = unnamed_addr alias void (ptr, ptr), ptr @_ZN5osgeo4proj6common9DataEpochC2ERKS2_
@_ZN5osgeo4proj6common9DataEpochD1Ev = unnamed_addr alias void (ptr), ptr @_ZN5osgeo4proj6common9DataEpochD2Ev

; Function Attrs: mustprogress sspstrong uwtable
define void @_ZN5osgeo4proj6common13UnitOfMeasureC2ERKNSt7__cxx1112basic_stringIcSt11char_traitsIcESaIcEEEdNS2_4TypeESA_SA_(ptr noundef nonnull align 8 dereferenceable(24) %0, ptr noundef nonnull align 8 dereferenceable(32) %1, double noundef %2, i32 noundef %3, ptr noundef nonnull align 8 dereferenceable(32) %4, ptr noundef nonnull align 8 dereferenceable(32) %5) unnamed_addr #0 align 2 personality ptr @__gxx_personality_v0 {
  tail call void @_ZN5osgeo4proj4util10BaseObjectC2Ev(ptr noundef nonnull align 8 dereferenceable(16) %0)
  store ptr getelementptr inbounds nuw inrange(-16, 16) (i8, ptr @_ZTVN5osgeo4proj6common13UnitOfMeasureE, i64 16), ptr %0, align 8, !tbaa !4
  tail call void @llvm.experimental.noalias.scope.decl(metadata !7)
  %7 = invoke noalias noundef nonnull dereferenceable(112) ptr @_Znwm(i64 noundef 112) #38
          to label %8 unwind label %13

8:                                                ; preds = %6
  invoke void @_ZN5osgeo4proj6common13UnitOfMeasure7PrivateC2ERKNSt7__cxx1112basic_stringIcSt11char_traitsIcESaIcEEEdNS2_4TypeESB_SB_(ptr noundef nonnull align 8 dereferenceable(112) %7, ptr noundef nonnull align 8 dereferenceable(32) %1, double noundef %2, i32 noundef %3, ptr noundef nonnull align 8 dereferenceable(32) %4, ptr noundef nonnull align 8 dereferenceable(32) %5)
          to label %11 unwind label %9, !noalias !7

9:                                                ; preds = %8
  %10 = landingpad { ptr, i32 }
          cleanup
  tail call void @_ZdlPvm(ptr noundef nonnull %7, i64 noundef 112) #39, !noalias !7
  br label %15

11:                                               ; preds = %8
  %12 = getelementptr inbounds nuw i8, ptr %0, i64 16
  store ptr %7, ptr %12, align 8, !tbaa !10, !alias.scope !7
  ret void

13:                                               ; preds = %6
  %14 = landingpad { ptr, i32 }
          cleanup
  br label %15

15:                                               ; preds = %13, %9
  %16 = phi { ptr, i32 } [ %14, %13 ], [ %10, %9 ]
  tail call void @_ZN5osgeo4proj4util10BaseObjectD2Ev(ptr noundef nonnull align 8 dereferenceable(16) %0) #40
  resume { ptr, i32 } %16
}

declare hidden void @_ZN5osgeo4proj4util10BaseObjectC2Ev(ptr noundef nonnull align 8 dereferenceable(16)) unnamed_addr #1

declare i32 @__gxx_personality_v0(...)

; Function Attrs: nounwind
declare void @_ZN5osgeo4proj4util10BaseObjectD2Ev(ptr noundef nonnull align 8 dereferenceable(16)) unnamed_addr #2

; Function Attrs: mustprogress sspstrong uwtable
define void @_ZN5osgeo4proj6common13UnitOfMeasureC2ERKS2_(ptr noundef nonnull align 8 dereferenceable(24) %0, ptr noundef nonnull readonly align 8 captures(none) dereferenceable(24) %1) unnamed_addr #0 align 2 personality ptr @__gxx_personality_v0 {
  tail call void @_ZN5osgeo4proj4util10BaseObjectC2Ev(ptr noundef nonnull align 8 dereferenceable(16) %0)
  store ptr getelementptr inbounds nuw inrange(-16, 16) (i8, ptr @_ZTVN5osgeo4proj6common13UnitOfMeasureE, i64 16), ptr %0, align 8, !tbaa !4
  %3 = getelementptr inbounds nuw i8, ptr %1, i64 16
  %4 = load ptr, ptr %3, align 8, !tbaa !10
  tail call void @llvm.experimental.noalias.scope.decl(metadata !14)
  %5 = invoke noalias noundef nonnull dereferenceable(112) ptr @_Znwm(i64 noundef 112) #38
          to label %6 unwind label %11

6:                                                ; preds = %2
  invoke void @_ZN5osgeo4proj6common13UnitOfMeasure7PrivateC2ERKS3_(ptr noundef nonnull align 8 dereferenceable(112) %5, ptr noundef nonnull align 8 dereferenceable(112) %4)
          to label %9 unwind label %7, !noalias !14

7:                                                ; preds = %6
  %8 = landingpad { ptr, i32 }
          cleanup
  tail call void @_ZdlPvm(ptr noundef nonnull %5, i64 noundef 112) #39, !noalias !14
  br label %13

9:                                                ; preds = %6
  %10 = getelementptr inbounds nuw i8, ptr %0, i64 16
  store ptr %5, ptr %10, align 8, !tbaa !10, !alias.scope !14
  ret void

11:                                               ; preds = %2
  %12 = landingpad { ptr, i32 }
          cleanup
  br label %13

13:                                               ; preds = %11, %7
  %14 = phi { ptr, i32 } [ %12, %11 ], [ %8, %7 ]
  tail call void @_ZN5osgeo4proj4util10BaseObjectD2Ev(ptr noundef nonnull align 8 dereferenceable(16) %0) #40
  resume { ptr, i32 } %14
}

; Function Attrs: mustprogress nounwind sspstrong uwtable
define void @_ZN5osgeo4proj6common13UnitOfMeasureD2Ev(ptr noundef nonnull align 8 dereferenceable(24) initializes((0, 8)) %0) unnamed_addr #3 align 2 personality ptr @__gxx_personality_v0 {
  store ptr getelementptr inbounds nuw inrange(-16, 16) (i8, ptr @_ZTVN5osgeo4proj6common13UnitOfMeasureE, i64 16), ptr %0, align 8, !tbaa !4
  %2 = getelementptr inbounds nuw i8, ptr %0, i64 16
  %3 = load ptr, ptr %2, align 8, !tbaa !10
  %4 = icmp eq ptr %3, null
  br i1 %4, label %41, label %5

5:                                                ; preds = %1
  %6 = getelementptr inbounds nuw i8, ptr %3, i64 80
  %7 = load ptr, ptr %6, align 8, !tbaa !17
  %8 = getelementptr inbounds nuw i8, ptr %3, i64 96
  %9 = icmp eq ptr %7, %8
  br i1 %9, label %10, label %14

10:                                               ; preds = %5
  %11 = getelementptr inbounds nuw i8, ptr %3, i64 88
  %12 = load i64, ptr %11, align 8, !tbaa !22
  %13 = icmp ult i64 %12, 16
  tail call void @llvm.assume(i1 %13)
  br label %17

14:                                               ; preds = %5
  %15 = load i64, ptr %8, align 8, !tbaa !23
  %16 = add i64 %15, 1
  tail call void @_ZdlPvm(ptr noundef %7, i64 noundef %16) #39
  br label %17

17:                                               ; preds = %14, %10
  %18 = getelementptr inbounds nuw i8, ptr %3, i64 48
  %19 = load ptr, ptr %18, align 8, !tbaa !17
  %20 = getelementptr inbounds nuw i8, ptr %3, i64 64
  %21 = icmp eq ptr %19, %20
  br i1 %21, label %22, label %26

22:                                               ; preds = %17
  %23 = getelementptr inbounds nuw i8, ptr %3, i64 56
  %24 = load i64, ptr %23, align 8, !tbaa !22
  %25 = icmp ult i64 %24, 16
  tail call void @llvm.assume(i1 %25)
  br label %29

26:                                               ; preds = %17
  %27 = load i64, ptr %20, align 8, !tbaa !23
  %28 = add i64 %27, 1
  tail call void @_ZdlPvm(ptr noundef %19, i64 noundef %28) #39
  br label %29

29:                                               ; preds = %26, %22
  %30 = load ptr, ptr %3, align 8, !tbaa !17
  %31 = getelementptr inbounds nuw i8, ptr %3, i64 16
  %32 = icmp eq ptr %30, %31
  br i1 %32, label %33, label %37

33:                                               ; preds = %29
  %34 = getelementptr inbounds nuw i8, ptr %3, i64 8
  %35 = load i64, ptr %34, align 8, !tbaa !22
  %36 = icmp ult i64 %35, 16
  tail call void @llvm.assume(i1 %36)
  br label %40

37:                                               ; preds = %29
  %38 = load i64, ptr %31, align 8, !tbaa !23
  %39 = add i64 %38, 1
  tail call void @_ZdlPvm(ptr noundef %30, i64 noundef %39) #39
  br label %40

40:                                               ; preds = %37, %33
  tail call void @_ZdlPvm(ptr noundef nonnull %3, i64 noundef 112) #39
  br label %41

41:                                               ; preds = %40, %1
  store ptr null, ptr %2, align 8, !tbaa !10
  tail call void @_ZN5osgeo4proj4util10BaseObjectD2Ev(ptr noundef nonnull align 8 dereferenceable(16) %0) #40
  ret void
}

; Function Attrs: mustprogress nounwind sspstrong uwtable
define void @_ZN5osgeo4proj6common13UnitOfMeasureD0Ev(ptr noundef nonnull align 8 dereferenceable(24) %0) unnamed_addr #3 align 2 {
  tail call void @_ZN5osgeo4proj6common13UnitOfMeasureD1Ev(ptr noundef nonnull align 8 dereferenceable(24) %0) #40
  tail call void @_ZdlPvm(ptr noundef nonnull %0, i64 noundef 24) #39
  ret void
}

; Function Attrs: nobuiltin nounwind
declare void @_ZdlPvm(ptr noundef, i64 noundef) local_unnamed_addr #4

; Function Attrs: mustprogress sspstrong uwtable
define noundef nonnull align 8 dereferenceable(24) ptr @_ZN5osgeo4proj6common13UnitOfMeasureaSERKS2_(ptr noundef nonnull readonly returned align 8 captures(address, ret: address, provenance) dereferenceable(24) %0, ptr noundef nonnull readonly align 8 captures(address) dereferenceable(24) %1) local_unnamed_addr #0 align 2 {
  %3 = icmp eq ptr %0, %1
  br i1 %3, label %15, label %4

4:                                                ; preds = %2
  %5 = getelementptr inbounds nuw i8, ptr %1, i64 16
  %6 = load ptr, ptr %5, align 8, !tbaa !10
  %7 = getelementptr inbounds nuw i8, ptr %0, i64 16
  %8 = load ptr, ptr %7, align 8, !tbaa !10
  tail call void @_ZNSt7__cxx1112basic_stringIcSt11char_traitsIcESaIcEE9_M_assignERKS4_(ptr noundef nonnull align 8 dereferenceable(112) %8, ptr noundef nonnull align 8 dereferenceable(112) %6)
  %9 = getelementptr inbounds nuw i8, ptr %8, i64 32
  %10 = getelementptr inbounds nuw i8, ptr %6, i64 32
  tail call void @llvm.memcpy.p0.p0.i64(ptr noundef nonnull align 8 dereferenceable(12) %9, ptr noundef nonnull align 8 dereferenceable(12) %10, i64 12, i1 false)
  %11 = getelementptr inbounds nuw i8, ptr %8, i64 48
  %12 = getelementptr inbounds nuw i8, ptr %6, i64 48
  tail call void @_ZNSt7__cxx1112basic_stringIcSt11char_traitsIcESaIcEE9_M_assignERKS4_(ptr noundef nonnull align 8 dereferenceable(32) %11, ptr noundef nonnull align 8 dereferenceable(32) %12)
  %13 = getelementptr inbounds nuw i8, ptr %8, i64 80
  %14 = getelementptr inbounds nuw i8, ptr %6, i64 80
  tail call void @_ZNSt7__cxx1112basic_stringIcSt11char_traitsIcESaIcEE9_M_assignERKS4_(ptr noundef nonnull align 8 dereferenceable(32) %13, ptr noundef nonnull align 8 dereferenceable(32) %14)
  br label %15

15:                                               ; preds = %4, %2
  ret ptr %0
}

; Function Attrs: mustprogress sspstrong uwtable
define noundef nonnull align 8 dereferenceable(24) ptr @_ZN5osgeo4proj6common13UnitOfMeasureaSEOS2_(ptr noundef nonnull returned align 8 dereferenceable(24) %0, ptr noundef nonnull align 8 dereferenceable(24) %1) local_unnamed_addr #0 align 2 personality ptr @__gxx_personality_v0 {
  %3 = getelementptr inbounds nuw i8, ptr %1, i64 16
  %4 = load ptr, ptr %3, align 8, !tbaa !10
  %5 = getelementptr inbounds nuw i8, ptr %0, i64 16
  %6 = load ptr, ptr %5, align 8, !tbaa !10
  %7 = tail call noundef nonnull align 8 dereferenceable(112) ptr @_ZN5osgeo4proj6common13UnitOfMeasure7PrivateaSEOS3_(ptr noundef nonnull align 8 dereferenceable(112) %6, ptr noundef nonnull align 8 dereferenceable(112) %4) #40
  %8 = load ptr, ptr %3, align 8, !tbaa !10
  store ptr null, ptr %3, align 8, !tbaa !10
  %9 = icmp eq ptr %8, null
  br i1 %9, label %46, label %10

10:                                               ; preds = %2
  %11 = getelementptr inbounds nuw i8, ptr %8, i64 80
  %12 = load ptr, ptr %11, align 8, !tbaa !17
  %13 = getelementptr inbounds nuw i8, ptr %8, i64 96
  %14 = icmp eq ptr %12, %13
  br i1 %14, label %15, label %19

15:                                               ; preds = %10
  %16 = getelementptr inbounds nuw i8, ptr %8, i64 88
  %17 = load i64, ptr %16, align 8, !tbaa !22
  %18 = icmp ult i64 %17, 16
  tail call void @llvm.assume(i1 %18)
  br label %22

19:                                               ; preds = %10
  %20 = load i64, ptr %13, align 8, !tbaa !23
  %21 = add i64 %20, 1
  tail call void @_ZdlPvm(ptr noundef %12, i64 noundef %21) #39
  br label %22

22:                                               ; preds = %19, %15
  %23 = getelementptr inbounds nuw i8, ptr %8, i64 48
  %24 = load ptr, ptr %23, align 8, !tbaa !17
  %25 = getelementptr inbounds nuw i8, ptr %8, i64 64
  %26 = icmp eq ptr %24, %25
  br i1 %26, label %27, label %31

27:                                               ; preds = %22
  %28 = getelementptr inbounds nuw i8, ptr %8, i64 56
  %29 = load i64, ptr %28, align 8, !tbaa !22
  %30 = icmp ult i64 %29, 16
  tail call void @llvm.assume(i1 %30)
  br label %34

31:                                               ; preds = %22
  %32 = load i64, ptr %25, align 8, !tbaa !23
  %33 = add i64 %32, 1
  tail call void @_ZdlPvm(ptr noundef %24, i64 noundef %33) #39
  br label %34

34:                                               ; preds = %31, %27
  %35 = load ptr, ptr %8, align 8, !tbaa !17
  %36 = getelementptr inbounds nuw i8, ptr %8, i64 16
  %37 = icmp eq ptr %35, %36
  br i1 %37, label %38, label %42

38:                                               ; preds = %34
  %39 = getelementptr inbounds nuw i8, ptr %8, i64 8
  %40 = load i64, ptr %39, align 8, !tbaa !22
  %41 = icmp ult i64 %40, 16
  tail call void @llvm.assume(i1 %41)
  br label %45

42:                                               ; preds = %34
  %43 = load i64, ptr %36, align 8, !tbaa !23
  %44 = add i64 %43, 1
  tail call void @_ZdlPvm(ptr noundef %35, i64 noundef %44) #39
  br label %45

45:                                               ; preds = %42, %38
  tail call void @_ZdlPvm(ptr noundef nonnull %8, i64 noundef 112) #39
  br label %46

46:                                               ; preds = %45, %2
  %47 = tail call noundef nonnull align 8 dereferenceable(16) ptr @_ZN5osgeo4proj4util10BaseObjectaSEOS2_(ptr noundef nonnull align 8 dereferenceable(16) %0, ptr noundef nonnull align 8 dereferenceable(16) %1)
  ret ptr %0
}

; Function Attrs: inlinehint mustprogress nounwind sspstrong uwtable
define linkonce_odr hidden noundef nonnull align 8 dereferenceable(112) ptr @_ZN5osgeo4proj6common13UnitOfMeasure7PrivateaSEOS3_(ptr noundef nonnull align 8 dereferenceable(112) %0, ptr noundef nonnull align 8 dereferenceable(112) %1) local_unnamed_addr #5 comdat align 2 personality ptr @__gxx_personality_v0 {
  %3 = load ptr, ptr %0, align 8, !tbaa !17
  %4 = getelementptr inbounds nuw i8, ptr %0, i64 16
  %5 = icmp eq ptr %3, %4
  br i1 %5, label %6, label %13

6:                                                ; preds = %2
  %7 = getelementptr inbounds nuw i8, ptr %0, i64 8
  %8 = load i64, ptr %7, align 8, !tbaa !22
  %9 = icmp ult i64 %8, 16
  tail call void @llvm.assume(i1 %9)
  %10 = load ptr, ptr %1, align 8, !tbaa !17
  %11 = getelementptr inbounds nuw i8, ptr %1, i64 16
  %12 = icmp eq ptr %10, %11
  br i1 %12, label %17, label %36

13:                                               ; preds = %2
  %14 = load ptr, ptr %1, align 8, !tbaa !17
  %15 = getelementptr inbounds nuw i8, ptr %1, i64 16
  %16 = icmp eq ptr %14, %15
  br i1 %16, label %17, label %34

17:                                               ; preds = %13, %6
  %18 = phi ptr [ %14, %13 ], [ %10, %6 ]
  %19 = getelementptr inbounds nuw i8, ptr %1, i64 8
  %20 = load i64, ptr %19, align 8, !tbaa !22
  %21 = icmp ult i64 %20, 16
  tail call void @llvm.assume(i1 %21)
  %22 = icmp eq ptr %1, %0
  br i1 %22, label %49, label %23, !prof !24

23:                                               ; preds = %17
  switch i64 %20, label %26 [
    i64 0, label %27
    i64 1, label %24
  ]

24:                                               ; preds = %23
  %25 = load i8, ptr %18, align 1, !tbaa !23
  store i8 %25, ptr %3, align 1, !tbaa !23
  br label %27

26:                                               ; preds = %23
  tail call void @llvm.memcpy.p0.p0.i64(ptr align 1 %3, ptr align 1 %18, i64 %20, i1 false)
  br label %27

27:                                               ; preds = %26, %24, %23
  %28 = load i64, ptr %19, align 8, !tbaa !22
  %29 = icmp ult i64 %28, 9223372036854775807
  tail call void @llvm.assume(i1 %29)
  %30 = getelementptr inbounds nuw i8, ptr %0, i64 8
  store i64 %28, ptr %30, align 8, !tbaa !22
  %31 = load ptr, ptr %0, align 8, !tbaa !17
  %32 = getelementptr inbounds nuw i8, ptr %31, i64 %28
  store i8 0, ptr %32, align 1, !tbaa !23
  %33 = load ptr, ptr %1, align 8, !tbaa !17
  br label %49

34:                                               ; preds = %13
  %35 = load i64, ptr %4, align 8, !tbaa !23
  br label %36

36:                                               ; preds = %34, %6
  %37 = phi ptr [ %15, %34 ], [ %11, %6 ]
  %38 = phi ptr [ %14, %34 ], [ %10, %6 ]
  %39 = phi ptr [ %3, %34 ], [ null, %6 ]
  %40 = phi i64 [ %35, %34 ], [ undef, %6 ]
  store ptr %38, ptr %0, align 8, !tbaa !17
  %41 = getelementptr inbounds nuw i8, ptr %1, i64 8
  %42 = load i64, ptr %41, align 8, !tbaa !22
  %43 = icmp ult i64 %42, 9223372036854775807
  tail call void @llvm.assume(i1 %43)
  %44 = getelementptr inbounds nuw i8, ptr %0, i64 8
  store i64 %42, ptr %44, align 8, !tbaa !22
  %45 = load i64, ptr %37, align 8, !tbaa !23
  store i64 %45, ptr %4, align 8, !tbaa !23
  %46 = icmp eq ptr %39, null
  br i1 %46, label %48, label %47

47:                                               ; preds = %36
  store ptr %39, ptr %1, align 8, !tbaa !17
  store i64 %40, ptr %37, align 8, !tbaa !23
  br label %49

48:                                               ; preds = %36
  store ptr %37, ptr %1, align 8, !tbaa !17
  br label %49

49:                                               ; preds = %48, %47, %27, %17
  %50 = phi ptr [ %33, %27 ], [ %39, %47 ], [ %37, %48 ], [ %18, %17 ]
  %51 = getelementptr inbounds nuw i8, ptr %1, i64 8
  store i64 0, ptr %51, align 8, !tbaa !22
  store i8 0, ptr %50, align 1, !tbaa !23
  %52 = getelementptr inbounds nuw i8, ptr %0, i64 32
  %53 = getelementptr inbounds nuw i8, ptr %1, i64 32
  tail call void @llvm.memcpy.p0.p0.i64(ptr noundef nonnull align 8 dereferenceable(12) %52, ptr noundef nonnull align 8 dereferenceable(12) %53, i64 12, i1 false)
  %54 = getelementptr inbounds nuw i8, ptr %0, i64 48
  %55 = getelementptr inbounds nuw i8, ptr %1, i64 48
  %56 = load ptr, ptr %54, align 8, !tbaa !17
  %57 = getelementptr inbounds nuw i8, ptr %0, i64 64
  %58 = icmp eq ptr %56, %57
  br i1 %58, label %59, label %66

59:                                               ; preds = %49
  %60 = getelementptr inbounds nuw i8, ptr %0, i64 56
  %61 = load i64, ptr %60, align 8, !tbaa !22
  %62 = icmp ult i64 %61, 16
  tail call void @llvm.assume(i1 %62)
  %63 = load ptr, ptr %55, align 8, !tbaa !17
  %64 = getelementptr inbounds nuw i8, ptr %1, i64 64
  %65 = icmp eq ptr %63, %64
  br i1 %65, label %70, label %89

66:                                               ; preds = %49
  %67 = load ptr, ptr %55, align 8, !tbaa !17
  %68 = getelementptr inbounds nuw i8, ptr %1, i64 64
  %69 = icmp eq ptr %67, %68
  br i1 %69, label %70, label %87

70:                                               ; preds = %66, %59
  %71 = phi ptr [ %67, %66 ], [ %63, %59 ]
  %72 = getelementptr inbounds nuw i8, ptr %1, i64 56
  %73 = load i64, ptr %72, align 8, !tbaa !22
  %74 = icmp ult i64 %73, 16
  tail call void @llvm.assume(i1 %74)
  %75 = icmp eq ptr %1, %0
  br i1 %75, label %102, label %76, !prof !24

76:                                               ; preds = %70
  switch i64 %73, label %79 [
    i64 0, label %80
    i64 1, label %77
  ]

77:                                               ; preds = %76
  %78 = load i8, ptr %71, align 1, !tbaa !23
  store i8 %78, ptr %56, align 1, !tbaa !23
  br label %80

79:                                               ; preds = %76
  tail call void @llvm.memcpy.p0.p0.i64(ptr align 1 %56, ptr align 1 %71, i64 %73, i1 false)
  br label %80

80:                                               ; preds = %79, %77, %76
  %81 = load i64, ptr %72, align 8, !tbaa !22
  %82 = icmp ult i64 %81, 9223372036854775807
  tail call void @llvm.assume(i1 %82)
  %83 = getelementptr inbounds nuw i8, ptr %0, i64 56
  store i64 %81, ptr %83, align 8, !tbaa !22
  %84 = load ptr, ptr %54, align 8, !tbaa !17
  %85 = getelementptr inbounds nuw i8, ptr %84, i64 %81
  store i8 0, ptr %85, align 1, !tbaa !23
  %86 = load ptr, ptr %55, align 8, !tbaa !17
  br label %102

87:                                               ; preds = %66
  %88 = load i64, ptr %57, align 8, !tbaa !23
  br label %89

89:                                               ; preds = %87, %59
  %90 = phi ptr [ %68, %87 ], [ %64, %59 ]
  %91 = phi ptr [ %67, %87 ], [ %63, %59 ]
  %92 = phi ptr [ %56, %87 ], [ null, %59 ]
  %93 = phi i64 [ %88, %87 ], [ undef, %59 ]
  store ptr %91, ptr %54, align 8, !tbaa !17
  %94 = getelementptr inbounds nuw i8, ptr %1, i64 56
  %95 = load i64, ptr %94, align 8, !tbaa !22
  %96 = icmp ult i64 %95, 9223372036854775807
  tail call void @llvm.assume(i1 %96)
  %97 = getelementptr inbounds nuw i8, ptr %0, i64 56
  store i64 %95, ptr %97, align 8, !tbaa !22
  %98 = load i64, ptr %90, align 8, !tbaa !23
  store i64 %98, ptr %57, align 8, !tbaa !23
  %99 = icmp eq ptr %92, null
  br i1 %99, label %101, label %100

100:                                              ; preds = %89
  store ptr %92, ptr %55, align 8, !tbaa !17
  store i64 %93, ptr %90, align 8, !tbaa !23
  br label %102

101:                                              ; preds = %89
  store ptr %90, ptr %55, align 8, !tbaa !17
  br label %102

102:                                              ; preds = %101, %100, %80, %70
  %103 = phi ptr [ %86, %80 ], [ %92, %100 ], [ %90, %101 ], [ %71, %70 ]
  %104 = getelementptr inbounds nuw i8, ptr %1, i64 56
  store i64 0, ptr %104, align 8, !tbaa !22
  store i8 0, ptr %103, align 1, !tbaa !23
  %105 = getelementptr inbounds nuw i8, ptr %0, i64 80
  %106 = getelementptr inbounds nuw i8, ptr %1, i64 80
  %107 = load ptr, ptr %105, align 8, !tbaa !17
  %108 = getelementptr inbounds nuw i8, ptr %0, i64 96
  %109 = icmp eq ptr %107, %108
  br i1 %109, label %110, label %117

110:                                              ; preds = %102
  %111 = getelementptr inbounds nuw i8, ptr %0, i64 88
  %112 = load i64, ptr %111, align 8, !tbaa !22
  %113 = icmp ult i64 %112, 16
  tail call void @llvm.assume(i1 %113)
  %114 = load ptr, ptr %106, align 8, !tbaa !17
  %115 = getelementptr inbounds nuw i8, ptr %1, i64 96
  %116 = icmp eq ptr %114, %115
  br i1 %116, label %121, label %140

117:                                              ; preds = %102
  %118 = load ptr, ptr %106, align 8, !tbaa !17
  %119 = getelementptr inbounds nuw i8, ptr %1, i64 96
  %120 = icmp eq ptr %118, %119
  br i1 %120, label %121, label %138

121:                                              ; preds = %117, %110
  %122 = phi ptr [ %118, %117 ], [ %114, %110 ]
  %123 = getelementptr inbounds nuw i8, ptr %1, i64 88
  %124 = load i64, ptr %123, align 8, !tbaa !22
  %125 = icmp ult i64 %124, 16
  tail call void @llvm.assume(i1 %125)
  %126 = icmp eq ptr %1, %0
  br i1 %126, label %153, label %127, !prof !24

127:                                              ; preds = %121
  switch i64 %124, label %130 [
    i64 0, label %131
    i64 1, label %128
  ]

128:                                              ; preds = %127
  %129 = load i8, ptr %122, align 1, !tbaa !23
  store i8 %129, ptr %107, align 1, !tbaa !23
  br label %131

130:                                              ; preds = %127
  tail call void @llvm.memcpy.p0.p0.i64(ptr align 1 %107, ptr align 1 %122, i64 %124, i1 false)
  br label %131

131:                                              ; preds = %130, %128, %127
  %132 = load i64, ptr %123, align 8, !tbaa !22
  %133 = icmp ult i64 %132, 9223372036854775807
  tail call void @llvm.assume(i1 %133)
  %134 = getelementptr inbounds nuw i8, ptr %0, i64 88
  store i64 %132, ptr %134, align 8, !tbaa !22
  %135 = load ptr, ptr %105, align 8, !tbaa !17
  %136 = getelementptr inbounds nuw i8, ptr %135, i64 %132
  store i8 0, ptr %136, align 1, !tbaa !23
  %137 = load ptr, ptr %106, align 8, !tbaa !17
  br label %153

138:                                              ; preds = %117
  %139 = load i64, ptr %108, align 8, !tbaa !23
  br label %140

140:                                              ; preds = %138, %110
  %141 = phi ptr [ %119, %138 ], [ %115, %110 ]
  %142 = phi ptr [ %118, %138 ], [ %114, %110 ]
  %143 = phi ptr [ %107, %138 ], [ null, %110 ]
  %144 = phi i64 [ %139, %138 ], [ undef, %110 ]
  store ptr %142, ptr %105, align 8, !tbaa !17
  %145 = getelementptr inbounds nuw i8, ptr %1, i64 88
  %146 = load i64, ptr %145, align 8, !tbaa !22
  %147 = icmp ult i64 %146, 9223372036854775807
  tail call void @llvm.assume(i1 %147)
  %148 = getelementptr inbounds nuw i8, ptr %0, i64 88
  store i64 %146, ptr %148, align 8, !tbaa !22
  %149 = load i64, ptr %141, align 8, !tbaa !23
  store i64 %149, ptr %108, align 8, !tbaa !23
  %150 = icmp eq ptr %143, null
  br i1 %150, label %152, label %151

151:                                              ; preds = %140
  store ptr %143, ptr %106, align 8, !tbaa !17
  store i64 %144, ptr %141, align 8, !tbaa !23
  br label %153

152:                                              ; preds = %140
  store ptr %141, ptr %106, align 8, !tbaa !17
  br label %153

153:                                              ; preds = %152, %151, %131, %121
  %154 = phi ptr [ %137, %131 ], [ %143, %151 ], [ %141, %152 ], [ %122, %121 ]
  %155 = getelementptr inbounds nuw i8, ptr %1, i64 88
  store i64 0, ptr %155, align 8, !tbaa !22
  store i8 0, ptr %154, align 1, !tbaa !23
  ret ptr %0
}

declare hidden noundef nonnull align 8 dereferenceable(16) ptr @_ZN5osgeo4proj4util10BaseObjectaSEOS2_(ptr noundef nonnull align 8 dereferenceable(16), ptr noundef nonnull align 8 dereferenceable(16)) local_unnamed_addr #1

; Function Attrs: mustprogress sspstrong uwtable
define hidden void @_ZN5osgeo4proj6common13UnitOfMeasure6createERKS2_(ptr dead_on_unwind noalias writable writeonly sret(%"class.dropbox::oxygen::nn") align 8 captures(none) %0, ptr noundef nonnull align 8 dereferenceable(24) %1) local_unnamed_addr #0 align 2 personality ptr @__gxx_personality_v0 {
  tail call void @llvm.experimental.noalias.scope.decl(metadata !25)
  %3 = tail call noalias noundef nonnull dereferenceable(40) ptr @_Znwm(i64 noundef 40) #38, !noalias !28
  %4 = getelementptr inbounds nuw i8, ptr %3, i64 8
  store i32 1, ptr %4, align 8, !tbaa !31, !noalias !28
  %5 = getelementptr inbounds nuw i8, ptr %3, i64 12
  store i32 1, ptr %5, align 4, !tbaa !34, !noalias !28
  store ptr getelementptr inbounds nuw inrange(-16, 40) (i8, ptr @_ZTVSt23_Sp_counted_ptr_inplaceIN5osgeo4proj6common13UnitOfMeasureESaIvELN9__gnu_cxx12_Lock_policyE2EE, i64 16), ptr %3, align 8, !tbaa !4, !noalias !28
  %6 = getelementptr inbounds nuw i8, ptr %3, i64 16
  invoke void @_ZN5osgeo4proj6common13UnitOfMeasureC1ERKS2_(ptr noundef nonnull align 8 dereferenceable(24) %6, ptr noundef nonnull align 8 dereferenceable(24) %1)
          to label %9 unwind label %7, !noalias !28

7:                                                ; preds = %2
  %8 = landingpad { ptr, i32 }
          cleanup
  tail call void @_ZdlPvm(ptr noundef nonnull %3, i64 noundef 40) #39, !noalias !28
  resume { ptr, i32 } %8

9:                                                ; preds = %2
  store ptr %6, ptr %0, align 8, !tbaa !35, !alias.scope !25
  %10 = getelementptr inbounds nuw i8, ptr %0, i64 8
  store ptr %3, ptr %10, align 8, !tbaa !40, !alias.scope !25
  ret void
}

; Function Attrs: mustprogress nofree norecurse nosync nounwind sspstrong willreturn memory(argmem: read) uwtable
define noundef nonnull align 8 dereferenceable(32) ptr @_ZNK5osgeo4proj6common13UnitOfMeasure4nameB5cxx11Ev(ptr noundef nonnull readonly align 8 captures(none) dereferenceable(24) %0) local_unnamed_addr #6 align 2 {
  %2 = getelementptr inbounds nuw i8, ptr %0, i64 16
  %3 = load ptr, ptr %2, align 8, !tbaa !10
  ret ptr %3
}

; Function Attrs: mustprogress nofree norecurse nosync nounwind sspstrong willreturn memory(read, inaccessiblemem: none) uwtable
define noundef double @_ZNK5osgeo4proj6common13UnitOfMeasure14conversionToSIEv(ptr noundef nonnull readonly align 8 captures(none) dereferenceable(24) %0) local_unnamed_addr #7 align 2 {
  %2 = getelementptr inbounds nuw i8, ptr %0, i64 16
  %3 = load ptr, ptr %2, align 8, !tbaa !10
  %4 = getelementptr inbounds nuw i8, ptr %3, i64 32
  %5 = load double, ptr %4, align 8, !tbaa !41
  ret double %5
}

; Function Attrs: mustprogress nofree norecurse nosync nounwind sspstrong willreturn memory(read, inaccessiblemem: none) uwtable
define noundef i32 @_ZNK5osgeo4proj6common13UnitOfMeasure4typeEv(ptr noundef nonnull readonly align 8 captures(none) dereferenceable(24) %0) local_unnamed_addr #7 align 2 {
  %2 = getelementptr inbounds nuw i8, ptr %0, i64 16
  %3 = load ptr, ptr %2, align 8, !tbaa !10
  %4 = getelementptr inbounds nuw i8, ptr %3, i64 40
  %5 = load i32, ptr %4, align 8, !tbaa !45
  ret i32 %5
}

; Function Attrs: mustprogress nofree norecurse nosync nounwind sspstrong willreturn memory(argmem: read) uwtable
define noundef nonnull align 8 dereferenceable(32) ptr @_ZNK5osgeo4proj6common13UnitOfMeasure9codeSpaceB5cxx11Ev(ptr noundef nonnull readonly align 8 captures(none) dereferenceable(24) %0) local_unnamed_addr #6 align 2 {
  %2 = getelementptr inbounds nuw i8, ptr %0, i64 16
  %3 = load ptr, ptr %2, align 8, !tbaa !10
  %4 = getelementptr inbounds nuw i8, ptr %3, i64 48
  ret ptr %4
}

; Function Attrs: mustprogress nofree norecurse nosync nounwind sspstrong willreturn memory(argmem: read) uwtable
define noundef nonnull align 8 dereferenceable(32) ptr @_ZNK5osgeo4proj6common13UnitOfMeasure4codeB5cxx11Ev(ptr noundef nonnull readonly align 8 captures(none) dereferenceable(24) %0) local_unnamed_addr #6 align 2 {
  %2 = getelementptr inbounds nuw i8, ptr %0, i64 16
  %3 = load ptr, ptr %2, align 8, !tbaa !10
  %4 = getelementptr inbounds nuw i8, ptr %3, i64 80
  ret ptr %4
}

; Function Attrs: mustprogress sspstrong uwtable
define hidden void @_ZNK5osgeo4proj6common13UnitOfMeasure12_exportToWKTEPNS0_2io12WKTFormatterERKNSt7__cxx1112basic_stringIcSt11char_traitsIcESaIcEEE(ptr noundef nonnull readonly align 8 captures(none) dereferenceable(24) %0, ptr noundef nonnull %1, ptr noundef nonnull align 8 dereferenceable(32) %2) local_unnamed_addr #0 align 2 personality ptr @__gxx_personality_v0 {
  %4 = alloca ptr, align 8
  %5 = tail call noundef i32 @_ZNK5osgeo4proj2io12WKTFormatter7versionEv(ptr noundef nonnull align 8 dereferenceable(8) %1)
  %6 = icmp eq i32 %5, 1
  %7 = getelementptr inbounds nuw i8, ptr %0, i64 16
  %8 = load ptr, ptr %7, align 8, !tbaa !10
  %9 = getelementptr inbounds nuw i8, ptr %8, i64 40
  %10 = load i32, ptr %9, align 8, !tbaa !45
  %11 = getelementptr inbounds nuw i8, ptr %2, i64 8
  %12 = load i64, ptr %11, align 8, !tbaa !22
  %13 = icmp eq i64 %12, 0
  br i1 %13, label %18, label %14

14:                                               ; preds = %3
  %15 = getelementptr inbounds nuw i8, ptr %8, i64 56
  %16 = load i64, ptr %15, align 8, !tbaa !22
  %17 = icmp ne i64 %16, 0
  tail call void @_ZN5osgeo4proj2io12WKTFormatter9startNodeERKNSt7__cxx1112basic_stringIcSt11char_traitsIcESaIcEEEb(ptr noundef nonnull align 8 dereferenceable(8) %1, ptr noundef nonnull align 8 dereferenceable(32) %2, i1 noundef zeroext %17)
  br label %68

18:                                               ; preds = %3
  %19 = tail call noundef zeroext i1 @_ZNK5osgeo4proj2io12WKTFormatter16forceUNITKeywordEv(ptr noundef nonnull align 8 dereferenceable(8) %1)
  %20 = icmp ne i32 %10, 6
  %21 = and i1 %20, %19
  br i1 %21, label %22, label %27

22:                                               ; preds = %18
  %23 = load ptr, ptr %7, align 8, !tbaa !10
  %24 = getelementptr inbounds nuw i8, ptr %23, i64 56
  %25 = load i64, ptr %24, align 8, !tbaa !22
  %26 = icmp ne i64 %25, 0
  tail call void @_ZN5osgeo4proj2io12WKTFormatter9startNodeERKNSt7__cxx1112basic_stringIcSt11char_traitsIcESaIcEEEb(ptr noundef nonnull align 8 dereferenceable(8) %1, ptr noundef nonnull align 8 dereferenceable(32) @_ZN5osgeo4proj2io12WKTConstants4UNITB5cxx11E, i1 noundef zeroext %26)
  br label %68

27:                                               ; preds = %18
  %28 = icmp eq i32 %10, 3
  %29 = and i1 %6, %28
  br i1 %29, label %30, label %35

30:                                               ; preds = %27
  %31 = load ptr, ptr %7, align 8, !tbaa !10
  %32 = getelementptr inbounds nuw i8, ptr %31, i64 56
  %33 = load i64, ptr %32, align 8, !tbaa !22
  %34 = icmp ne i64 %33, 0
  tail call void @_ZN5osgeo4proj2io12WKTFormatter9startNodeERKNSt7__cxx1112basic_stringIcSt11char_traitsIcESaIcEEEb(ptr noundef nonnull align 8 dereferenceable(8) %1, ptr noundef nonnull align 8 dereferenceable(32) @_ZN5osgeo4proj2io12WKTConstants10LENGTHUNITB5cxx11E, i1 noundef zeroext %34)
  br label %68

35:                                               ; preds = %27
  %36 = icmp eq i32 %10, 2
  %37 = and i1 %6, %36
  br i1 %37, label %38, label %43

38:                                               ; preds = %35
  %39 = load ptr, ptr %7, align 8, !tbaa !10
  %40 = getelementptr inbounds nuw i8, ptr %39, i64 56
  %41 = load i64, ptr %40, align 8, !tbaa !22
  %42 = icmp ne i64 %41, 0
  tail call void @_ZN5osgeo4proj2io12WKTFormatter9startNodeERKNSt7__cxx1112basic_stringIcSt11char_traitsIcESaIcEEEb(ptr noundef nonnull align 8 dereferenceable(8) %1, ptr noundef nonnull align 8 dereferenceable(32) @_ZN5osgeo4proj2io12WKTConstants9ANGLEUNITB5cxx11E, i1 noundef zeroext %42)
  br label %68

43:                                               ; preds = %35
  %44 = icmp eq i32 %10, 4
  %45 = and i1 %6, %44
  br i1 %45, label %46, label %51

46:                                               ; preds = %43
  %47 = load ptr, ptr %7, align 8, !tbaa !10
  %48 = getelementptr inbounds nuw i8, ptr %47, i64 56
  %49 = load i64, ptr %48, align 8, !tbaa !22
  %50 = icmp ne i64 %49, 0
  tail call void @_ZN5osgeo4proj2io12WKTFormatter9startNodeERKNSt7__cxx1112basic_stringIcSt11char_traitsIcESaIcEEEb(ptr noundef nonnull align 8 dereferenceable(8) %1, ptr noundef nonnull align 8 dereferenceable(32) @_ZN5osgeo4proj2io12WKTConstants9SCALEUNITB5cxx11E, i1 noundef zeroext %50)
  br label %68

51:                                               ; preds = %43
  %52 = icmp eq i32 %10, 5
  %53 = and i1 %6, %52
  br i1 %53, label %54, label %59

54:                                               ; preds = %51
  %55 = load ptr, ptr %7, align 8, !tbaa !10
  %56 = getelementptr inbounds nuw i8, ptr %55, i64 56
  %57 = load i64, ptr %56, align 8, !tbaa !22
  %58 = icmp ne i64 %57, 0
  tail call void @_ZN5osgeo4proj2io12WKTFormatter9startNodeERKNSt7__cxx1112basic_stringIcSt11char_traitsIcESaIcEEEb(ptr noundef nonnull align 8 dereferenceable(8) %1, ptr noundef nonnull align 8 dereferenceable(32) @_ZN5osgeo4proj2io12WKTConstants8TIMEUNITB5cxx11E, i1 noundef zeroext %58)
  br label %68

59:                                               ; preds = %51
  %60 = icmp eq i32 %10, 6
  %61 = and i1 %6, %60
  %62 = load ptr, ptr %7, align 8, !tbaa !10
  %63 = getelementptr inbounds nuw i8, ptr %62, i64 56
  %64 = load i64, ptr %63, align 8, !tbaa !22
  %65 = icmp ne i64 %64, 0
  br i1 %61, label %66, label %67

66:                                               ; preds = %59
  tail call void @_ZN5osgeo4proj2io12WKTFormatter9startNodeERKNSt7__cxx1112basic_stringIcSt11char_traitsIcESaIcEEEb(ptr noundef nonnull align 8 dereferenceable(8) %1, ptr noundef nonnull align 8 dereferenceable(32) @_ZN5osgeo4proj2io12WKTConstants14PARAMETRICUNITB5cxx11E, i1 noundef zeroext %65)
  br label %68

67:                                               ; preds = %59
  tail call void @_ZN5osgeo4proj2io12WKTFormatter9startNodeERKNSt7__cxx1112basic_stringIcSt11char_traitsIcESaIcEEEb(ptr noundef nonnull align 8 dereferenceable(8) %1, ptr noundef nonnull align 8 dereferenceable(32) @_ZN5osgeo4proj2io12WKTConstants4UNITB5cxx11E, i1 noundef zeroext %65)
  br label %68

68:                                               ; preds = %67, %66, %54, %46, %38, %30, %22, %14
  %69 = load ptr, ptr %7, align 8, !tbaa !10
  %70 = tail call noundef zeroext i1 @_ZNK5osgeo4proj2io12WKTFormatter14useESRIDialectEv(ptr noundef nonnull align 8 dereferenceable(8) %1)
  br i1 %70, label %71, label %81

71:                                               ; preds = %68
  %72 = tail call noundef zeroext i1 @_ZN5osgeo4proj8internal8ci_equalERKNSt7__cxx1112basic_stringIcSt11char_traitsIcESaIcEEEPKc(ptr noundef nonnull align 8 dereferenceable(32) %69, ptr noundef nonnull @.str) #40
  br i1 %72, label %73, label %74

73:                                               ; preds = %71
  tail call void @_ZN5osgeo4proj2io12WKTFormatter15addQuotedStringEPKc(ptr noundef nonnull align 8 dereferenceable(8) %1, ptr noundef nonnull @.str.1)
  br label %82

74:                                               ; preds = %71
  %75 = tail call noundef zeroext i1 @_ZN5osgeo4proj8internal8ci_equalERKNSt7__cxx1112basic_stringIcSt11char_traitsIcESaIcEEEPKc(ptr noundef nonnull align 8 dereferenceable(32) %69, ptr noundef nonnull @.str.2) #40
  br i1 %75, label %76, label %77

76:                                               ; preds = %74
  tail call void @_ZN5osgeo4proj2io12WKTFormatter15addQuotedStringEPKc(ptr noundef nonnull align 8 dereferenceable(8) %1, ptr noundef nonnull @.str.3)
  br label %82

77:                                               ; preds = %74
  %78 = tail call noundef zeroext i1 @_ZN5osgeo4proj8internal8ci_equalERKNSt7__cxx1112basic_stringIcSt11char_traitsIcESaIcEEEPKc(ptr noundef nonnull align 8 dereferenceable(32) %69, ptr noundef nonnull @.str.4) #40
  br i1 %78, label %79, label %80

79:                                               ; preds = %77
  tail call void @_ZN5osgeo4proj2io12WKTFormatter15addQuotedStringEPKc(ptr noundef nonnull align 8 dereferenceable(8) %1, ptr noundef nonnull @.str.5)
  br label %82

80:                                               ; preds = %77
  tail call void @_ZN5osgeo4proj2io12WKTFormatter15addQuotedStringERKNSt7__cxx1112basic_stringIcSt11char_traitsIcESaIcEEE(ptr noundef nonnull align 8 dereferenceable(8) %1, ptr noundef nonnull align 8 dereferenceable(32) %69)
  br label %82

81:                                               ; preds = %68
  tail call void @_ZN5osgeo4proj2io12WKTFormatter15addQuotedStringERKNSt7__cxx1112basic_stringIcSt11char_traitsIcESaIcEEE(ptr noundef nonnull align 8 dereferenceable(8) %1, ptr noundef nonnull align 8 dereferenceable(32) %69)
  br label %82

82:                                               ; preds = %81, %80, %79, %76, %73
  %83 = load ptr, ptr %7, align 8, !tbaa !10
  %84 = getelementptr inbounds nuw i8, ptr %83, i64 32
  %85 = load double, ptr %84, align 8, !tbaa !41
  %86 = icmp eq i32 %10, 5
  %87 = fcmp oeq double %85, 0.000000e+00
  %88 = and i1 %86, %87
  %89 = and i1 %6, %88
  br i1 %89, label %92, label %90

90:                                               ; preds = %82
  tail call void @_ZN5osgeo4proj2io12WKTFormatter3addEdi(ptr noundef nonnull align 8 dereferenceable(8) %1, double noundef %85, i32 noundef 15)
  %91 = load ptr, ptr %7, align 8, !tbaa !10
  br label %92

92:                                               ; preds = %90, %82
  %93 = phi ptr [ %83, %82 ], [ %91, %90 ]
  %94 = getelementptr inbounds nuw i8, ptr %93, i64 56
  %95 = load i64, ptr %94, align 8, !tbaa !22
  %96 = icmp eq i64 %95, 0
  br i1 %96, label %149, label %97

97:                                               ; preds = %92
  %98 = tail call noundef zeroext i1 @_ZNK5osgeo4proj2io12WKTFormatter8outputIdEv(ptr noundef nonnull align 8 dereferenceable(8) %1)
  br i1 %98, label %99, label %149

99:                                               ; preds = %97
  %100 = select i1 %6, ptr @_ZN5osgeo4proj2io12WKTConstants2IDB5cxx11E, ptr @_ZN5osgeo4proj2io12WKTConstants9AUTHORITYB5cxx11E
  tail call void @_ZN5osgeo4proj2io12WKTFormatter9startNodeERKNSt7__cxx1112basic_stringIcSt11char_traitsIcESaIcEEEb(ptr noundef nonnull align 8 dereferenceable(8) %1, ptr noundef nonnull align 8 dereferenceable(32) %100, i1 noundef zeroext false)
  %101 = load ptr, ptr %7, align 8, !tbaa !10
  %102 = getelementptr inbounds nuw i8, ptr %101, i64 48
  tail call void @_ZN5osgeo4proj2io12WKTFormatter15addQuotedStringERKNSt7__cxx1112basic_stringIcSt11char_traitsIcESaIcEEE(ptr noundef nonnull align 8 dereferenceable(8) %1, ptr noundef nonnull align 8 dereferenceable(32) %102)
  %103 = load ptr, ptr %7, align 8, !tbaa !10
  %104 = getelementptr inbounds nuw i8, ptr %103, i64 80
  br i1 %6, label %105, label %145

105:                                              ; preds = %99
  %106 = load ptr, ptr %104, align 8, !tbaa !17
  call void @llvm.lifetime.start.p0(ptr %4)
  %107 = tail call ptr @__errno_location() #41
  %108 = load i32, ptr %107, align 4, !tbaa !46
  store i32 0, ptr %107, align 4, !tbaa !46
  %109 = call noundef i64 @__isoc23_strtol(ptr noundef %106, ptr noundef nonnull %4, i32 noundef 10)
  %110 = load ptr, ptr %4, align 8, !tbaa !47
  %111 = icmp eq ptr %110, %106
  br i1 %111, label %112, label %120

112:                                              ; preds = %105
  invoke void @_ZSt24__throw_invalid_argumentPKc(ptr noundef nonnull @.str.37) #22
          to label %113 unwind label %114

113:                                              ; preds = %112
  unreachable

114:                                              ; preds = %126, %112
  %115 = landingpad { ptr, i32 }
          cleanup
          catch ptr @_ZTISt9exception
  %116 = load i32, ptr %107, align 4, !tbaa !46
  %117 = icmp eq i32 %116, 0
  br i1 %117, label %118, label %119

118:                                              ; preds = %114
  store i32 %108, ptr %107, align 4, !tbaa !46
  br label %119

119:                                              ; preds = %118, %114
  call void @llvm.lifetime.end.p0(ptr %4)
  br label %134

120:                                              ; preds = %105
  %121 = load i32, ptr %107, align 4, !tbaa !46
  %122 = icmp eq i32 %121, 34
  %123 = add i64 %109, -2147483648
  %124 = icmp ult i64 %123, -4294967296
  %125 = or i1 %124, %122
  br i1 %125, label %126, label %128

126:                                              ; preds = %120
  invoke void @_ZSt20__throw_out_of_rangePKc(ptr noundef nonnull @.str.37) #22
          to label %127 unwind label %114

127:                                              ; preds = %126
  unreachable

128:                                              ; preds = %120
  %129 = icmp eq i32 %121, 0
  br i1 %129, label %130, label %131

130:                                              ; preds = %128
  store i32 %108, ptr %107, align 4, !tbaa !46
  br label %131

131:                                              ; preds = %130, %128
  call void @llvm.lifetime.end.p0(ptr %4)
  invoke void @_ZN5osgeo4proj2io12WKTFormatter3addERKNSt7__cxx1112basic_stringIcSt11char_traitsIcESaIcEEE(ptr noundef nonnull align 8 dereferenceable(8) %1, ptr noundef nonnull align 8 dereferenceable(32) %104)
          to label %146 unwind label %132

132:                                              ; preds = %131
  %133 = landingpad { ptr, i32 }
          cleanup
          catch ptr @_ZTISt9exception
  br label %134

134:                                              ; preds = %132, %119
  %135 = phi { ptr, i32 } [ %133, %132 ], [ %115, %119 ]
  %136 = extractvalue { ptr, i32 } %135, 1
  %137 = call i32 @llvm.eh.typeid.for.p0(ptr nonnull @_ZTISt9exception) #40
  %138 = icmp eq i32 %136, %137
  br i1 %138, label %139, label %147

139:                                              ; preds = %134
  %140 = extractvalue { ptr, i32 } %135, 0
  %141 = call ptr @__cxa_begin_catch(ptr %140) #40
  invoke void @_ZN5osgeo4proj2io12WKTFormatter15addQuotedStringERKNSt7__cxx1112basic_stringIcSt11char_traitsIcESaIcEEE(ptr noundef nonnull align 8 dereferenceable(8) %1, ptr noundef nonnull align 8 dereferenceable(32) %104)
          to label %142 unwind label %143

142:                                              ; preds = %139
  call void @__cxa_end_catch()
  br label %146

143:                                              ; preds = %139
  %144 = landingpad { ptr, i32 }
          cleanup
  invoke void @__cxa_end_catch()
          to label %147 unwind label %150

145:                                              ; preds = %99
  tail call void @_ZN5osgeo4proj2io12WKTFormatter15addQuotedStringERKNSt7__cxx1112basic_stringIcSt11char_traitsIcESaIcEEE(ptr noundef nonnull align 8 dereferenceable(8) %1, ptr noundef nonnull align 8 dereferenceable(32) %104)
  br label %146

146:                                              ; preds = %145, %142, %131
  call void @_ZN5osgeo4proj2io12WKTFormatter7endNodeEv(ptr noundef nonnull align 8 dereferenceable(8) %1)
  br label %149

147:                                              ; preds = %143, %134
  %148 = phi { ptr, i32 } [ %135, %134 ], [ %144, %143 ]
  resume { ptr, i32 } %148

149:                                              ; preds = %146, %97, %92
  call void @_ZN5osgeo4proj2io12WKTFormatter7endNodeEv(ptr noundef nonnull align 8 dereferenceable(8) %1)
  ret void

150:                                              ; preds = %143
  %151 = landingpad { ptr, i32 }
          catch ptr null
  %152 = extractvalue { ptr, i32 } %151, 0
  call void @__clang_call_terminate(ptr %152) #42
  unreachable
}

declare hidden noundef i32 @_ZNK5osgeo4proj2io12WKTFormatter7versionEv(ptr noundef nonnull align 8 dereferenceable(8)) local_unnamed_addr #1

declare hidden void @_ZN5osgeo4proj2io12WKTFormatter9startNodeERKNSt7__cxx1112basic_stringIcSt11char_traitsIcESaIcEEEb(ptr noundef nonnull align 8 dereferenceable(8), ptr noundef nonnull align 8 dereferenceable(32), i1 noundef zeroext) local_unnamed_addr #1

declare hidden noundef zeroext i1 @_ZNK5osgeo4proj2io12WKTFormatter16forceUNITKeywordEv(ptr noundef nonnull align 8 dereferenceable(8)) local_unnamed_addr #1

declare hidden noundef zeroext i1 @_ZNK5osgeo4proj2io12WKTFormatter14useESRIDialectEv(ptr noundef nonnull align 8 dereferenceable(8)) local_unnamed_addr #1

; Function Attrs: nounwind
declare noundef zeroext i1 @_ZN5osgeo4proj8internal8ci_equalERKNSt7__cxx1112basic_stringIcSt11char_traitsIcESaIcEEEPKc(ptr noundef nonnull align 8 dereferenceable(32), ptr noundef) local_unnamed_addr #2

declare hidden void @_ZN5osgeo4proj2io12WKTFormatter15addQuotedStringEPKc(ptr noundef nonnull align 8 dereferenceable(8), ptr noundef) local_unnamed_addr #1

declare hidden void @_ZN5osgeo4proj2io12WKTFormatter15addQuotedStringERKNSt7__cxx1112basic_stringIcSt11char_traitsIcESaIcEEE(ptr noundef nonnull align 8 dereferenceable(8), ptr noundef nonnull align 8 dereferenceable(32)) local_unnamed_addr #1

declare hidden void @_ZN5osgeo4proj2io12WKTFormatter3addEdi(ptr noundef nonnull align 8 dereferenceable(8), double noundef, i32 noundef) local_unnamed_addr #1

declare hidden noundef zeroext i1 @_ZNK5osgeo4proj2io12WKTFormatter8outputIdEv(ptr noundef nonnull align 8 dereferenceable(8)) local_unnamed_addr #1

declare hidden void @_ZN5osgeo4proj2io12WKTFormatter3addERKNSt7__cxx1112basic_stringIcSt11char_traitsIcESaIcEEE(ptr noundef nonnull align 8 dereferenceable(8), ptr noundef nonnull align 8 dereferenceable(32)) local_unnamed_addr #1

; Function Attrs: nounwind memory(none)
declare i32 @llvm.eh.typeid.for.p0(ptr) #8

declare ptr @__cxa_begin_catch(ptr) local_unnamed_addr

declare void @__cxa_end_catch() local_unnamed_addr

; Function Attrs: noinline noreturn nounwind sspstrong uwtable
define linkonce_odr hidden void @__clang_call_terminate(ptr noundef %0) local_unnamed_addr #9 comdat {
  %2 = tail call ptr @__cxa_begin_catch(ptr %0) #40
  tail call void @_ZSt9terminatev() #42
  unreachable
}

; Function Attrs: cold nofree noreturn
declare void @_ZSt9terminatev() local_unnamed_addr #10

declare hidden void @_ZN5osgeo4proj2io12WKTFormatter7endNodeEv(ptr noundef nonnull align 8 dereferenceable(8)) local_unnamed_addr #1

; Function Attrs: mustprogress sspstrong uwtable
define hidden void @_ZNK5osgeo4proj6common13UnitOfMeasure13_exportToJSONEPNS0_2io13JSONFormatterE(ptr noundef nonnull readonly align 8 captures(none) dereferenceable(24) %0, ptr noundef nonnull %1) local_unnamed_addr #0 align 2 personality ptr @__gxx_personality_v0 {
  %3 = alloca ptr, align 8
  %4 = alloca i64, align 8
  %5 = alloca %"struct.osgeo::proj::io::JSONFormatter::ObjectContext", align 8
  %6 = alloca %"class.std::__cxx11::basic_string", align 8
  %7 = alloca %"class.std::__cxx11::basic_string", align 8
  %8 = alloca %"class.std::__cxx11::basic_string", align 8
  %9 = alloca %"class.std::__cxx11::basic_string", align 8
  %10 = alloca %"struct.osgeo::proj::io::JSONFormatter::ObjectContext", align 8
  %11 = alloca %"class.std::__cxx11::basic_string", align 8
  %12 = alloca %"class.std::__cxx11::basic_string", align 8
  %13 = tail call noundef ptr @_ZNK5osgeo4proj2io13JSONFormatter6writerEv(ptr noundef nonnull align 8 dereferenceable(8) %1)
  %14 = getelementptr inbounds nuw i8, ptr %0, i64 16
  %15 = load ptr, ptr %14, align 8, !tbaa !10
  %16 = getelementptr inbounds nuw i8, ptr %15, i64 48
  call void @llvm.lifetime.start.p0(ptr %5)
  %17 = getelementptr inbounds nuw i8, ptr %15, i64 56
  %18 = load i64, ptr %17, align 8, !tbaa !22
  %19 = icmp ne i64 %18, 0
  call void @_ZN5osgeo4proj2io13JSONFormatter13ObjectContextC1ERS2_PKcb(ptr noundef nonnull align 8 dereferenceable(8) %5, ptr noundef nonnull align 8 dereferenceable(8) %1, ptr noundef null, i1 noundef zeroext %19)
  call void @llvm.lifetime.start.p0(ptr %6)
  %20 = getelementptr inbounds nuw i8, ptr %6, i64 16
  store ptr %20, ptr %6, align 8, !tbaa !48
  store i32 1701869940, ptr %20, align 8
  %21 = getelementptr inbounds nuw i8, ptr %6, i64 8
  store i64 4, ptr %21, align 8, !tbaa !22
  %22 = getelementptr inbounds nuw i8, ptr %6, i64 20
  store i8 0, ptr %22, align 4, !tbaa !23
  invoke void @_ZN5osgeo4proj22CPLJSonStreamingWriter9AddObjKeyERKNSt7__cxx1112basic_stringIcSt11char_traitsIcESaIcEEE(ptr noundef nonnull align 8 dereferenceable(153) %13, ptr noundef nonnull align 8 dereferenceable(32) %6)
          to label %23 unwind label %38

23:                                               ; preds = %2
  %24 = load ptr, ptr %6, align 8, !tbaa !17
  %25 = icmp eq ptr %24, %20
  br i1 %25, label %26, label %29

26:                                               ; preds = %23
  %27 = load i64, ptr %21, align 8, !tbaa !22
  %28 = icmp ult i64 %27, 16
  call void @llvm.assume(i1 %28)
  br label %32

29:                                               ; preds = %23
  %30 = load i64, ptr %20, align 8, !tbaa !23
  %31 = add i64 %30, 1
  call void @_ZdlPvm(ptr noundef %24, i64 noundef %31) #39
  br label %32

32:                                               ; preds = %29, %26
  call void @llvm.lifetime.end.p0(ptr %6)
  %33 = load ptr, ptr %14, align 8, !tbaa !10
  %34 = getelementptr inbounds nuw i8, ptr %33, i64 40
  %35 = load i32, ptr %34, align 8, !tbaa !45
  %36 = add i32 %35, -2
  %37 = icmp ult i32 %36, 5
  br i1 %37, label %51, label %55

38:                                               ; preds = %2
  %39 = landingpad { ptr, i32 }
          cleanup
  %40 = load ptr, ptr %6, align 8, !tbaa !17
  %41 = icmp eq ptr %40, %20
  br i1 %41, label %42, label %45

42:                                               ; preds = %38
  %43 = load i64, ptr %21, align 8, !tbaa !22
  %44 = icmp ult i64 %43, 16
  call void @llvm.assume(i1 %44)
  br label %48

45:                                               ; preds = %38
  %46 = load i64, ptr %20, align 8, !tbaa !23
  %47 = add i64 %46, 1
  call void @_ZdlPvm(ptr noundef %40, i64 noundef %47) #39
  br label %48

48:                                               ; preds = %45, %42
  call void @llvm.lifetime.end.p0(ptr %6)
  br label %256

49:                                               ; preds = %55
  %50 = landingpad { ptr, i32 }
          cleanup
  br label %256

51:                                               ; preds = %32
  %52 = zext nneg i32 %36 to i64
  %53 = shl i64 %52, 2
  %54 = call ptr @llvm.load.relative.i64(ptr @switch.table._ZNK5osgeo4proj6common13UnitOfMeasure13_exportToJSONEPNS0_2io13JSONFormatterE.rel, i64 %53)
  br label %55

55:                                               ; preds = %51, %32
  %56 = phi ptr [ %54, %51 ], [ @.str.12, %32 ]
  invoke void @_ZN5osgeo4proj22CPLJSonStreamingWriter3AddEPKc(ptr noundef nonnull align 8 dereferenceable(153) %13, ptr noundef nonnull %56)
          to label %57 unwind label %49

57:                                               ; preds = %55
  call void @llvm.lifetime.start.p0(ptr %7)
  %58 = getelementptr inbounds nuw i8, ptr %7, i64 16
  store ptr %58, ptr %7, align 8, !tbaa !48
  store i32 1701667182, ptr %58, align 8
  %59 = getelementptr inbounds nuw i8, ptr %7, i64 8
  store i64 4, ptr %59, align 8, !tbaa !22
  %60 = getelementptr inbounds nuw i8, ptr %7, i64 20
  store i8 0, ptr %60, align 4, !tbaa !23
  invoke void @_ZN5osgeo4proj22CPLJSonStreamingWriter9AddObjKeyERKNSt7__cxx1112basic_stringIcSt11char_traitsIcESaIcEEE(ptr noundef nonnull align 8 dereferenceable(153) %13, ptr noundef nonnull align 8 dereferenceable(32) %7)
          to label %61 unwind label %169

61:                                               ; preds = %57
  %62 = load ptr, ptr %7, align 8, !tbaa !17
  %63 = icmp eq ptr %62, %58
  br i1 %63, label %64, label %67

64:                                               ; preds = %61
  %65 = load i64, ptr %59, align 8, !tbaa !22
  %66 = icmp ult i64 %65, 16
  call void @llvm.assume(i1 %66)
  br label %70

67:                                               ; preds = %61
  %68 = load i64, ptr %58, align 8, !tbaa !23
  %69 = add i64 %68, 1
  call void @_ZdlPvm(ptr noundef %62, i64 noundef %69) #39
  br label %70

70:                                               ; preds = %67, %64
  call void @llvm.lifetime.end.p0(ptr %7)
  %71 = load ptr, ptr %14, align 8, !tbaa !10
  invoke void @_ZN5osgeo4proj22CPLJSonStreamingWriter3AddERKNSt7__cxx1112basic_stringIcSt11char_traitsIcESaIcEEE(ptr noundef nonnull align 8 dereferenceable(153) %13, ptr noundef nonnull align 8 dereferenceable(32) %71)
          to label %72 unwind label %180

72:                                               ; preds = %70
  %73 = load ptr, ptr %14, align 8, !tbaa !10
  %74 = getelementptr inbounds nuw i8, ptr %73, i64 32
  %75 = load double, ptr %74, align 8, !tbaa !41
  call void @llvm.lifetime.start.p0(ptr %8)
  %76 = getelementptr inbounds nuw i8, ptr %8, i64 16
  store ptr %76, ptr %8, align 8, !tbaa !48
  call void @llvm.lifetime.start.p0(ptr %4)
  store i64 17, ptr %4, align 8, !tbaa !49
  %77 = invoke noundef ptr @_ZNSt7__cxx1112basic_stringIcSt11char_traitsIcESaIcEE9_M_createERmm(ptr noundef nonnull align 8 dereferenceable(32) %8, ptr noundef nonnull align 8 dereferenceable(8) %4, i64 noundef 0)
          to label %78 unwind label %182

78:                                               ; preds = %72
  store ptr %77, ptr %8, align 8, !tbaa !17
  %79 = load i64, ptr %4, align 8, !tbaa !49
  store i64 %79, ptr %76, align 8, !tbaa !23
  call void @llvm.memcpy.p0.p0.i64(ptr noundef nonnull align 1 dereferenceable(17) %77, ptr noundef nonnull align 1 dereferenceable(17) @.str.14, i64 17, i1 false)
  %80 = getelementptr inbounds nuw i8, ptr %8, i64 8
  store i64 %79, ptr %80, align 8, !tbaa !22
  %81 = load ptr, ptr %8, align 8, !tbaa !17
  %82 = getelementptr inbounds nuw i8, ptr %81, i64 %79
  store i8 0, ptr %82, align 1, !tbaa !23
  call void @llvm.lifetime.end.p0(ptr %4)
  invoke void @_ZN5osgeo4proj22CPLJSonStreamingWriter9AddObjKeyERKNSt7__cxx1112basic_stringIcSt11char_traitsIcESaIcEEE(ptr noundef nonnull align 8 dereferenceable(153) %13, ptr noundef nonnull align 8 dereferenceable(32) %8)
          to label %83 unwind label %184

83:                                               ; preds = %78
  %84 = load ptr, ptr %8, align 8, !tbaa !17
  %85 = icmp eq ptr %84, %76
  br i1 %85, label %86, label %89

86:                                               ; preds = %83
  %87 = load i64, ptr %80, align 8, !tbaa !22
  %88 = icmp ult i64 %87, 16
  call void @llvm.assume(i1 %88)
  br label %92

89:                                               ; preds = %83
  %90 = load i64, ptr %76, align 8, !tbaa !23
  %91 = add i64 %90, 1
  call void @_ZdlPvm(ptr noundef %84, i64 noundef %91) #39
  br label %92

92:                                               ; preds = %89, %86
  call void @llvm.lifetime.end.p0(ptr %8)
  invoke void @_ZN5osgeo4proj22CPLJSonStreamingWriter3AddEdi(ptr noundef nonnull align 8 dereferenceable(153) %13, double noundef %75, i32 noundef 15)
          to label %93 unwind label %196

93:                                               ; preds = %92
  %94 = load i64, ptr %17, align 8, !tbaa !22
  %95 = icmp eq i64 %94, 0
  br i1 %95, label %255, label %96

96:                                               ; preds = %93
  %97 = invoke noundef zeroext i1 @_ZNK5osgeo4proj2io13JSONFormatter8outputIdEv(ptr noundef nonnull align 8 dereferenceable(8) %1)
          to label %98 unwind label %196

98:                                               ; preds = %96
  br i1 %97, label %99, label %255

99:                                               ; preds = %98
  call void @llvm.lifetime.start.p0(ptr %9)
  %100 = getelementptr inbounds nuw i8, ptr %9, i64 16
  store ptr %100, ptr %9, align 8, !tbaa !48
  store i16 25705, ptr %100, align 8
  %101 = getelementptr inbounds nuw i8, ptr %9, i64 8
  store i64 2, ptr %101, align 8, !tbaa !22
  %102 = getelementptr inbounds nuw i8, ptr %9, i64 18
  store i8 0, ptr %102, align 2, !tbaa !23
  invoke void @_ZN5osgeo4proj22CPLJSonStreamingWriter9AddObjKeyERKNSt7__cxx1112basic_stringIcSt11char_traitsIcESaIcEEE(ptr noundef nonnull align 8 dereferenceable(153) %13, ptr noundef nonnull align 8 dereferenceable(32) %9)
          to label %103 unwind label %198

103:                                              ; preds = %99
  %104 = load ptr, ptr %9, align 8, !tbaa !17
  %105 = icmp eq ptr %104, %100
  br i1 %105, label %106, label %109

106:                                              ; preds = %103
  %107 = load i64, ptr %101, align 8, !tbaa !22
  %108 = icmp ult i64 %107, 16
  call void @llvm.assume(i1 %108)
  br label %112

109:                                              ; preds = %103
  %110 = load i64, ptr %100, align 8, !tbaa !23
  %111 = add i64 %110, 1
  call void @_ZdlPvm(ptr noundef %104, i64 noundef %111) #39
  br label %112

112:                                              ; preds = %109, %106
  call void @llvm.lifetime.end.p0(ptr %9)
  call void @llvm.lifetime.start.p0(ptr %10)
  invoke void @_ZN5osgeo4proj2io13JSONFormatter13ObjectContextC1ERS2_PKcb(ptr noundef nonnull align 8 dereferenceable(8) %10, ptr noundef nonnull align 8 dereferenceable(8) %1, ptr noundef null, i1 noundef zeroext false)
          to label %113 unwind label %209

113:                                              ; preds = %112
  call void @llvm.lifetime.start.p0(ptr %11)
  %114 = getelementptr inbounds nuw i8, ptr %11, i64 16
  store ptr %114, ptr %11, align 8, !tbaa !48
  call void @llvm.memcpy.p0.p0.i64(ptr noundef nonnull align 8 dereferenceable(9) %114, ptr noundef nonnull align 1 dereferenceable(9) @.str.16, i64 9, i1 false)
  %115 = getelementptr inbounds nuw i8, ptr %11, i64 8
  store i64 9, ptr %115, align 8, !tbaa !22
  %116 = getelementptr inbounds nuw i8, ptr %11, i64 25
  store i8 0, ptr %116, align 1, !tbaa !23
  invoke void @_ZN5osgeo4proj22CPLJSonStreamingWriter9AddObjKeyERKNSt7__cxx1112basic_stringIcSt11char_traitsIcESaIcEEE(ptr noundef nonnull align 8 dereferenceable(153) %13, ptr noundef nonnull align 8 dereferenceable(32) %11)
          to label %117 unwind label %211

117:                                              ; preds = %113
  %118 = load ptr, ptr %11, align 8, !tbaa !17
  %119 = icmp eq ptr %118, %114
  br i1 %119, label %120, label %123

120:                                              ; preds = %117
  %121 = load i64, ptr %115, align 8, !tbaa !22
  %122 = icmp ult i64 %121, 16
  call void @llvm.assume(i1 %122)
  br label %126

123:                                              ; preds = %117
  %124 = load i64, ptr %114, align 8, !tbaa !23
  %125 = add i64 %124, 1
  call void @_ZdlPvm(ptr noundef %118, i64 noundef %125) #39
  br label %126

126:                                              ; preds = %123, %120
  call void @llvm.lifetime.end.p0(ptr %11)
  invoke void @_ZN5osgeo4proj22CPLJSonStreamingWriter3AddERKNSt7__cxx1112basic_stringIcSt11char_traitsIcESaIcEEE(ptr noundef nonnull align 8 dereferenceable(153) %13, ptr noundef nonnull align 8 dereferenceable(32) %16)
          to label %127 unwind label %222

127:                                              ; preds = %126
  call void @llvm.lifetime.start.p0(ptr %12)
  %128 = getelementptr inbounds nuw i8, ptr %12, i64 16
  store ptr %128, ptr %12, align 8, !tbaa !48
  store i32 1701080931, ptr %128, align 8
  %129 = getelementptr inbounds nuw i8, ptr %12, i64 8
  store i64 4, ptr %129, align 8, !tbaa !22
  %130 = getelementptr inbounds nuw i8, ptr %12, i64 20
  store i8 0, ptr %130, align 4, !tbaa !23
  invoke void @_ZN5osgeo4proj22CPLJSonStreamingWriter9AddObjKeyERKNSt7__cxx1112basic_stringIcSt11char_traitsIcESaIcEEE(ptr noundef nonnull align 8 dereferenceable(153) %13, ptr noundef nonnull align 8 dereferenceable(32) %12)
          to label %131 unwind label %224

131:                                              ; preds = %127
  %132 = load ptr, ptr %12, align 8, !tbaa !17
  %133 = icmp eq ptr %132, %128
  br i1 %133, label %134, label %137

134:                                              ; preds = %131
  %135 = load i64, ptr %129, align 8, !tbaa !22
  %136 = icmp ult i64 %135, 16
  call void @llvm.assume(i1 %136)
  br label %140

137:                                              ; preds = %131
  %138 = load i64, ptr %128, align 8, !tbaa !23
  %139 = add i64 %138, 1
  call void @_ZdlPvm(ptr noundef %132, i64 noundef %139) #39
  br label %140

140:                                              ; preds = %137, %134
  call void @llvm.lifetime.end.p0(ptr %12)
  %141 = load ptr, ptr %14, align 8, !tbaa !10
  %142 = getelementptr inbounds nuw i8, ptr %141, i64 80
  %143 = load ptr, ptr %142, align 8, !tbaa !17
  call void @llvm.lifetime.start.p0(ptr %3)
  %144 = tail call ptr @__errno_location() #41
  %145 = load i32, ptr %144, align 4, !tbaa !46
  store i32 0, ptr %144, align 4, !tbaa !46
  %146 = call noundef i64 @__isoc23_strtol(ptr noundef %143, ptr noundef nonnull %3, i32 noundef 10)
  %147 = load ptr, ptr %3, align 8, !tbaa !47
  %148 = icmp eq ptr %147, %143
  br i1 %148, label %149, label %157

149:                                              ; preds = %140
  invoke void @_ZSt24__throw_invalid_argumentPKc(ptr noundef nonnull @.str.37) #22
          to label %150 unwind label %151

150:                                              ; preds = %149
  unreachable

151:                                              ; preds = %163, %149
  %152 = landingpad { ptr, i32 }
          cleanup
          catch ptr @_ZTISt9exception
  %153 = load i32, ptr %144, align 4, !tbaa !46
  %154 = icmp eq i32 %153, 0
  br i1 %154, label %155, label %156

155:                                              ; preds = %151
  store i32 %145, ptr %144, align 4, !tbaa !46
  br label %156

156:                                              ; preds = %155, %151
  call void @llvm.lifetime.end.p0(ptr %3)
  br label %237

157:                                              ; preds = %140
  %158 = load i32, ptr %144, align 4, !tbaa !46
  %159 = icmp eq i32 %158, 34
  %160 = add i64 %146, -2147483648
  %161 = icmp ult i64 %160, -4294967296
  %162 = or i1 %161, %159
  br i1 %162, label %163, label %165

163:                                              ; preds = %157
  invoke void @_ZSt20__throw_out_of_rangePKc(ptr noundef nonnull @.str.37) #22
          to label %164 unwind label %151

164:                                              ; preds = %163
  unreachable

165:                                              ; preds = %157
  %166 = icmp eq i32 %158, 0
  br i1 %166, label %167, label %168

167:                                              ; preds = %165
  store i32 %145, ptr %144, align 4, !tbaa !46
  br label %168

168:                                              ; preds = %167, %165
  call void @llvm.lifetime.end.p0(ptr %3)
  invoke void @_ZN5osgeo4proj22CPLJSonStreamingWriter3AddEl(ptr noundef nonnull align 8 dereferenceable(153) %13, i64 noundef %146)
          to label %246 unwind label %235

169:                                              ; preds = %57
  %170 = landingpad { ptr, i32 }
          cleanup
  %171 = load ptr, ptr %7, align 8, !tbaa !17
  %172 = icmp eq ptr %171, %58
  br i1 %172, label %173, label %176

173:                                              ; preds = %169
  %174 = load i64, ptr %59, align 8, !tbaa !22
  %175 = icmp ult i64 %174, 16
  call void @llvm.assume(i1 %175)
  br label %179

176:                                              ; preds = %169
  %177 = load i64, ptr %58, align 8, !tbaa !23
  %178 = add i64 %177, 1
  call void @_ZdlPvm(ptr noundef %171, i64 noundef %178) #39
  br label %179

179:                                              ; preds = %176, %173
  call void @llvm.lifetime.end.p0(ptr %7)
  br label %256

180:                                              ; preds = %70
  %181 = landingpad { ptr, i32 }
          cleanup
  br label %256

182:                                              ; preds = %72
  %183 = landingpad { ptr, i32 }
          cleanup
  br label %194

184:                                              ; preds = %78
  %185 = landingpad { ptr, i32 }
          cleanup
  %186 = load ptr, ptr %8, align 8, !tbaa !17
  %187 = icmp eq ptr %186, %76
  br i1 %187, label %188, label %191

188:                                              ; preds = %184
  %189 = load i64, ptr %80, align 8, !tbaa !22
  %190 = icmp ult i64 %189, 16
  call void @llvm.assume(i1 %190)
  br label %194

191:                                              ; preds = %184
  %192 = load i64, ptr %76, align 8, !tbaa !23
  %193 = add i64 %192, 1
  call void @_ZdlPvm(ptr noundef %186, i64 noundef %193) #39
  br label %194

194:                                              ; preds = %191, %188, %182
  %195 = phi { ptr, i32 } [ %183, %182 ], [ %185, %188 ], [ %185, %191 ]
  call void @llvm.lifetime.end.p0(ptr %8)
  br label %256

196:                                              ; preds = %96, %92
  %197 = landingpad { ptr, i32 }
          cleanup
  br label %256

198:                                              ; preds = %99
  %199 = landingpad { ptr, i32 }
          cleanup
  %200 = load ptr, ptr %9, align 8, !tbaa !17
  %201 = icmp eq ptr %200, %100
  br i1 %201, label %202, label %205

202:                                              ; preds = %198
  %203 = load i64, ptr %101, align 8, !tbaa !22
  %204 = icmp ult i64 %203, 16
  call void @llvm.assume(i1 %204)
  br label %208

205:                                              ; preds = %198
  %206 = load i64, ptr %100, align 8, !tbaa !23
  %207 = add i64 %206, 1
  call void @_ZdlPvm(ptr noundef %200, i64 noundef %207) #39
  br label %208

208:                                              ; preds = %205, %202
  call void @llvm.lifetime.end.p0(ptr %9)
  br label %256

209:                                              ; preds = %112
  %210 = landingpad { ptr, i32 }
          cleanup
  br label %253

211:                                              ; preds = %113
  %212 = landingpad { ptr, i32 }
          cleanup
  %213 = load ptr, ptr %11, align 8, !tbaa !17
  %214 = icmp eq ptr %213, %114
  br i1 %214, label %215, label %218

215:                                              ; preds = %211
  %216 = load i64, ptr %115, align 8, !tbaa !22
  %217 = icmp ult i64 %216, 16
  call void @llvm.assume(i1 %217)
  br label %221

218:                                              ; preds = %211
  %219 = load i64, ptr %114, align 8, !tbaa !23
  %220 = add i64 %219, 1
  call void @_ZdlPvm(ptr noundef %213, i64 noundef %220) #39
  br label %221

221:                                              ; preds = %218, %215
  call void @llvm.lifetime.end.p0(ptr %11)
  br label %251

222:                                              ; preds = %126
  %223 = landingpad { ptr, i32 }
          cleanup
  br label %251

224:                                              ; preds = %127
  %225 = landingpad { ptr, i32 }
          cleanup
  %226 = load ptr, ptr %12, align 8, !tbaa !17
  %227 = icmp eq ptr %226, %128
  br i1 %227, label %228, label %231

228:                                              ; preds = %224
  %229 = load i64, ptr %129, align 8, !tbaa !22
  %230 = icmp ult i64 %229, 16
  call void @llvm.assume(i1 %230)
  br label %234

231:                                              ; preds = %224
  %232 = load i64, ptr %128, align 8, !tbaa !23
  %233 = add i64 %232, 1
  call void @_ZdlPvm(ptr noundef %226, i64 noundef %233) #39
  br label %234

234:                                              ; preds = %231, %228
  call void @llvm.lifetime.end.p0(ptr %12)
  br label %251

235:                                              ; preds = %168
  %236 = landingpad { ptr, i32 }
          cleanup
          catch ptr @_ZTISt9exception
  br label %237

237:                                              ; preds = %235, %156
  %238 = phi { ptr, i32 } [ %236, %235 ], [ %152, %156 ]
  %239 = extractvalue { ptr, i32 } %238, 1
  %240 = call i32 @llvm.eh.typeid.for.p0(ptr nonnull @_ZTISt9exception) #40
  %241 = icmp eq i32 %239, %240
  br i1 %241, label %242, label %251

242:                                              ; preds = %237
  %243 = extractvalue { ptr, i32 } %238, 0
  %244 = call ptr @__cxa_begin_catch(ptr %243) #40
  invoke void @_ZN5osgeo4proj22CPLJSonStreamingWriter3AddERKNSt7__cxx1112basic_stringIcSt11char_traitsIcESaIcEEE(ptr noundef nonnull align 8 dereferenceable(153) %13, ptr noundef nonnull align 8 dereferenceable(32) %142)
          to label %245 unwind label %247

245:                                              ; preds = %242
  invoke void @__cxa_end_catch()
          to label %246 unwind label %249

246:                                              ; preds = %245, %168
  call void @_ZN5osgeo4proj2io13JSONFormatter13ObjectContextD1Ev(ptr noundef nonnull align 8 dereferenceable(8) %10) #40
  call void @llvm.lifetime.end.p0(ptr %10)
  br label %255

247:                                              ; preds = %242
  %248 = landingpad { ptr, i32 }
          cleanup
  invoke void @__cxa_end_catch()
          to label %251 unwind label %258

249:                                              ; preds = %245
  %250 = landingpad { ptr, i32 }
          cleanup
  br label %251

251:                                              ; preds = %249, %247, %237, %234, %222, %221
  %252 = phi { ptr, i32 } [ %225, %234 ], [ %223, %222 ], [ %212, %221 ], [ %238, %237 ], [ %250, %249 ], [ %248, %247 ]
  call void @_ZN5osgeo4proj2io13JSONFormatter13ObjectContextD1Ev(ptr noundef nonnull align 8 dereferenceable(8) %10) #40
  br label %253

253:                                              ; preds = %251, %209
  %254 = phi { ptr, i32 } [ %252, %251 ], [ %210, %209 ]
  call void @llvm.lifetime.end.p0(ptr %10)
  br label %256

255:                                              ; preds = %246, %98, %93
  call void @_ZN5osgeo4proj2io13JSONFormatter13ObjectContextD1Ev(ptr noundef nonnull align 8 dereferenceable(8) %5) #40
  call void @llvm.lifetime.end.p0(ptr %5)
  ret void

256:                                              ; preds = %253, %208, %196, %194, %180, %179, %49, %48
  %257 = phi { ptr, i32 } [ %39, %48 ], [ %170, %179 ], [ %50, %49 ], [ %181, %180 ], [ %254, %253 ], [ %199, %208 ], [ %197, %196 ], [ %195, %194 ]
  call void @_ZN5osgeo4proj2io13JSONFormatter13ObjectContextD1Ev(ptr noundef nonnull align 8 dereferenceable(8) %5) #40
  call void @llvm.lifetime.end.p0(ptr %5)
  resume { ptr, i32 } %257

258:                                              ; preds = %247
  %259 = landingpad { ptr, i32 }
          catch ptr null
  %260 = extractvalue { ptr, i32 } %259, 0
  call void @__clang_call_terminate(ptr %260) #42
  unreachable
}

declare hidden noundef ptr @_ZNK5osgeo4proj2io13JSONFormatter6writerEv(ptr noundef nonnull align 8 dereferenceable(8)) local_unnamed_addr #1

declare void @_ZN5osgeo4proj22CPLJSonStreamingWriter9AddObjKeyERKNSt7__cxx1112basic_stringIcSt11char_traitsIcESaIcEEE(ptr noundef nonnull align 8 dereferenceable(153), ptr noundef nonnull align 8 dereferenceable(32)) local_unnamed_addr #1

declare void @_ZN5osgeo4proj22CPLJSonStreamingWriter3AddEPKc(ptr noundef nonnull align 8 dereferenceable(153), ptr noundef) local_unnamed_addr #1

declare void @_ZN5osgeo4proj22CPLJSonStreamingWriter3AddERKNSt7__cxx1112basic_stringIcSt11char_traitsIcESaIcEEE(ptr noundef nonnull align 8 dereferenceable(153), ptr noundef nonnull align 8 dereferenceable(32)) local_unnamed_addr #1

declare void @_ZN5osgeo4proj22CPLJSonStreamingWriter3AddEdi(ptr noundef nonnull align 8 dereferenceable(153), double noundef, i32 noundef) local_unnamed_addr #1

declare hidden noundef zeroext i1 @_ZNK5osgeo4proj2io13JSONFormatter8outputIdEv(ptr noundef nonnull align 8 dereferenceable(8)) local_unnamed_addr #1

; Function Attrs: nounwind
declare void @_ZN5osgeo4proj2io13JSONFormatter13ObjectContextD1Ev(ptr noundef nonnull align 8 dereferenceable(8)) unnamed_addr #2

; Function Attrs: mustprogress nofree norecurse nounwind sspstrong willreturn memory(read, inaccessiblemem: none) uwtable
define noundef zeroext i1 @_ZNK5osgeo4proj6common13UnitOfMeasureeqERKS2_(ptr noundef nonnull readonly align 8 captures(none) dereferenceable(24) %0, ptr noundef nonnull readonly align 8 captures(none) dereferenceable(24) %1) local_unnamed_addr #11 align 2 personality ptr @__gxx_personality_v0 {
  %3 = getelementptr inbounds nuw i8, ptr %0, i64 16
  %4 = load ptr, ptr %3, align 8, !tbaa !10
  %5 = getelementptr inbounds nuw i8, ptr %1, i64 16
  %6 = load ptr, ptr %5, align 8, !tbaa !10
  %7 = getelementptr inbounds nuw i8, ptr %4, i64 8
  %8 = load i64, ptr %7, align 8, !tbaa !22
  %9 = icmp ult i64 %8, 9223372036854775807
  tail call void @llvm.assume(i1 %9)
  %10 = getelementptr inbounds nuw i8, ptr %6, i64 8
  %11 = load i64, ptr %10, align 8, !tbaa !22
  %12 = icmp ult i64 %11, 9223372036854775807
  tail call void @llvm.assume(i1 %12)
  %13 = icmp eq i64 %8, %11
  br i1 %13, label %14, label %21

14:                                               ; preds = %2
  %15 = icmp eq i64 %8, 0
  br i1 %15, label %21, label %16

16:                                               ; preds = %14
  %17 = load ptr, ptr %6, align 8, !tbaa !17
  %18 = load ptr, ptr %4, align 8, !tbaa !17
  %19 = tail call i32 @bcmp(ptr %18, ptr %17, i64 %8)
  %20 = icmp eq i32 %19, 0
  br label %21

21:                                               ; preds = %16, %14, %2
  %22 = phi i1 [ false, %2 ], [ %20, %16 ], [ true, %14 ]
  ret i1 %22
}

; Function Attrs: mustprogress nofree norecurse nounwind sspstrong willreturn memory(read, inaccessiblemem: none) uwtable
define noundef zeroext i1 @_ZNK5osgeo4proj6common13UnitOfMeasureneERKS2_(ptr noundef nonnull readonly align 8 captures(none) dereferenceable(24) %0, ptr noundef nonnull readonly align 8 captures(none) dereferenceable(24) %1) local_unnamed_addr #11 align 2 personality ptr @__gxx_personality_v0 {
  %3 = getelementptr inbounds nuw i8, ptr %0, i64 16
  %4 = load ptr, ptr %3, align 8, !tbaa !10
  %5 = getelementptr inbounds nuw i8, ptr %1, i64 16
  %6 = load ptr, ptr %5, align 8, !tbaa !10
  %7 = getelementptr inbounds nuw i8, ptr %4, i64 8
  %8 = load i64, ptr %7, align 8, !tbaa !22
  %9 = icmp ult i64 %8, 9223372036854775807
  tail call void @llvm.assume(i1 %9)
  %10 = getelementptr inbounds nuw i8, ptr %6, i64 8
  %11 = load i64, ptr %10, align 8, !tbaa !22
  %12 = icmp ult i64 %11, 9223372036854775807
  tail call void @llvm.assume(i1 %12)
  %13 = icmp eq i64 %8, %11
  br i1 %13, label %14, label %21

14:                                               ; preds = %2
  %15 = icmp eq i64 %8, 0
  br i1 %15, label %21, label %16

16:                                               ; preds = %14
  %17 = load ptr, ptr %6, align 8, !tbaa !17
  %18 = load ptr, ptr %4, align 8, !tbaa !17
  %19 = tail call i32 @bcmp(ptr %18, ptr %17, i64 %8)
  %20 = icmp ne i32 %19, 0
  br label %21

21:                                               ; preds = %16, %14, %2
  %22 = phi i1 [ true, %2 ], [ %20, %16 ], [ false, %14 ]
  ret i1 %22
}

; Function Attrs: mustprogress sspstrong uwtable
define hidden void @_ZNK5osgeo4proj6common13UnitOfMeasure18exportToPROJStringB5cxx11Ev(ptr dead_on_unwind noalias writable sret(%"class.std::__cxx11::basic_string") align 8 %0, ptr noundef nonnull readonly align 8 captures(none) dereferenceable(24) %1) local_unnamed_addr #0 align 2 personality ptr @__gxx_personality_v0 {
  %3 = alloca i64, align 8
  %4 = alloca i64, align 8
  %5 = getelementptr inbounds nuw i8, ptr %1, i64 16
  %6 = load ptr, ptr %5, align 8, !tbaa !10
  %7 = getelementptr inbounds nuw i8, ptr %6, i64 40
  %8 = load i32, ptr %7, align 8, !tbaa !45
  switch i32 %8, label %97 [
    i32 3, label %9
    i32 2, label %53
  ]

9:                                                ; preds = %2
  %10 = tail call noundef ptr @_Z20pj_list_linear_unitsv()
  %11 = load ptr, ptr %10, align 8, !tbaa !50
  %12 = icmp eq ptr %11, null
  br i1 %12, label %97, label %13

13:                                               ; preds = %9
  %14 = load ptr, ptr %5, align 8, !tbaa !10
  %15 = getelementptr inbounds nuw i8, ptr %14, i64 32
  %16 = load double, ptr %15, align 8, !tbaa !41
  %17 = fmul double %16, 1.000000e-10
  %18 = getelementptr inbounds nuw i8, ptr %10, i64 24
  %19 = load double, ptr %18, align 8, !tbaa !52
  %20 = fsub double %19, %16
  %21 = tail call double @llvm.fabs.f64(double %20)
  %22 = fcmp olt double %21, %17
  br i1 %22, label %35, label %23

23:                                               ; preds = %29, %13
  %24 = phi i64 [ %25, %29 ], [ 0, %13 ]
  %25 = add nuw nsw i64 %24, 1
  %26 = getelementptr inbounds nuw %struct.PJ_UNITS, ptr %10, i64 %25
  %27 = load ptr, ptr %26, align 8, !tbaa !50
  %28 = icmp eq ptr %27, null
  br i1 %28, label %97, label %29, !llvm.loop !53

29:                                               ; preds = %23
  %30 = getelementptr inbounds nuw %struct.PJ_UNITS, ptr %10, i64 %25, i32 3
  %31 = load double, ptr %30, align 8, !tbaa !52
  %32 = fsub double %31, %16
  %33 = tail call double @llvm.fabs.f64(double %32)
  %34 = fcmp olt double %33, %17
  br i1 %34, label %35, label %23, !llvm.loop !53

35:                                               ; preds = %29, %13
  %36 = phi ptr [ %11, %13 ], [ %27, %29 ]
  %37 = getelementptr inbounds nuw i8, ptr %0, i64 16
  store ptr %37, ptr %0, align 8, !tbaa !48
  %38 = tail call noundef i64 @strlen(ptr noundef nonnull dereferenceable(1) %36) #40
  call void @llvm.lifetime.start.p0(ptr %4)
  store i64 %38, ptr %4, align 8, !tbaa !49
  %39 = icmp ugt i64 %38, 15
  br i1 %39, label %40, label %43

40:                                               ; preds = %35
  %41 = call noundef ptr @_ZNSt7__cxx1112basic_stringIcSt11char_traitsIcESaIcEE9_M_createERmm(ptr noundef nonnull align 8 dereferenceable(32) %0, ptr noundef nonnull align 8 dereferenceable(8) %4, i64 noundef 0)
  store ptr %41, ptr %0, align 8, !tbaa !17
  %42 = load i64, ptr %4, align 8, !tbaa !49
  store i64 %42, ptr %37, align 8, !tbaa !23
  br label %43

43:                                               ; preds = %40, %35
  %44 = phi ptr [ %41, %40 ], [ %37, %35 ]
  switch i64 %38, label %47 [
    i64 1, label %45
    i64 0, label %48
  ]

45:                                               ; preds = %43
  %46 = load i8, ptr %36, align 1, !tbaa !23
  store i8 %46, ptr %44, align 1, !tbaa !23
  br label %48

47:                                               ; preds = %43
  call void @llvm.memcpy.p0.p0.i64(ptr align 1 %44, ptr nonnull align 1 %36, i64 %38, i1 false)
  br label %48

48:                                               ; preds = %47, %45, %43
  %49 = load i64, ptr %4, align 8, !tbaa !49
  %50 = getelementptr inbounds nuw i8, ptr %0, i64 8
  store i64 %49, ptr %50, align 8, !tbaa !22
  %51 = load ptr, ptr %0, align 8, !tbaa !17
  %52 = getelementptr inbounds nuw i8, ptr %51, i64 %49
  store i8 0, ptr %52, align 1, !tbaa !23
  call void @llvm.lifetime.end.p0(ptr %4)
  br label %100

53:                                               ; preds = %2
  %54 = tail call noundef ptr @_Z21pj_list_angular_unitsv()
  %55 = load ptr, ptr %54, align 8, !tbaa !50
  %56 = icmp eq ptr %55, null
  br i1 %56, label %97, label %57

57:                                               ; preds = %53
  %58 = load ptr, ptr %5, align 8, !tbaa !10
  %59 = getelementptr inbounds nuw i8, ptr %58, i64 32
  %60 = load double, ptr %59, align 8, !tbaa !41
  %61 = fmul double %60, 1.000000e-10
  %62 = getelementptr inbounds nuw i8, ptr %54, i64 24
  %63 = load double, ptr %62, align 8, !tbaa !52
  %64 = fsub double %63, %60
  %65 = tail call double @llvm.fabs.f64(double %64)
  %66 = fcmp olt double %65, %61
  br i1 %66, label %79, label %67

67:                                               ; preds = %73, %57
  %68 = phi i64 [ %69, %73 ], [ 0, %57 ]
  %69 = add nuw nsw i64 %68, 1
  %70 = getelementptr inbounds nuw %struct.PJ_UNITS, ptr %54, i64 %69
  %71 = load ptr, ptr %70, align 8, !tbaa !50
  %72 = icmp eq ptr %71, null
  br i1 %72, label %97, label %73, !llvm.loop !55

73:                                               ; preds = %67
  %74 = getelementptr inbounds nuw %struct.PJ_UNITS, ptr %54, i64 %69, i32 3
  %75 = load double, ptr %74, align 8, !tbaa !52
  %76 = fsub double %75, %60
  %77 = tail call double @llvm.fabs.f64(double %76)
  %78 = fcmp olt double %77, %61
  br i1 %78, label %79, label %67, !llvm.loop !55

79:                                               ; preds = %73, %57
  %80 = phi ptr [ %55, %57 ], [ %71, %73 ]
  %81 = getelementptr inbounds nuw i8, ptr %0, i64 16
  store ptr %81, ptr %0, align 8, !tbaa !48
  %82 = tail call noundef i64 @strlen(ptr noundef nonnull dereferenceable(1) %80) #40
  call void @llvm.lifetime.start.p0(ptr %3)
  store i64 %82, ptr %3, align 8, !tbaa !49
  %83 = icmp ugt i64 %82, 15
  br i1 %83, label %84, label %87

84:                                               ; preds = %79
  %85 = call noundef ptr @_ZNSt7__cxx1112basic_stringIcSt11char_traitsIcESaIcEE9_M_createERmm(ptr noundef nonnull align 8 dereferenceable(32) %0, ptr noundef nonnull align 8 dereferenceable(8) %3, i64 noundef 0)
  store ptr %85, ptr %0, align 8, !tbaa !17
  %86 = load i64, ptr %3, align 8, !tbaa !49
  store i64 %86, ptr %81, align 8, !tbaa !23
  br label %87

87:                                               ; preds = %84, %79
  %88 = phi ptr [ %85, %84 ], [ %81, %79 ]
  switch i64 %82, label %91 [
    i64 1, label %89
    i64 0, label %92
  ]

89:                                               ; preds = %87
  %90 = load i8, ptr %80, align 1, !tbaa !23
  store i8 %90, ptr %88, align 1, !tbaa !23
  br label %92

91:                                               ; preds = %87
  call void @llvm.memcpy.p0.p0.i64(ptr align 1 %88, ptr nonnull align 1 %80, i64 %82, i1 false)
  br label %92

92:                                               ; preds = %91, %89, %87
  %93 = load i64, ptr %3, align 8, !tbaa !49
  %94 = getelementptr inbounds nuw i8, ptr %0, i64 8
  store i64 %93, ptr %94, align 8, !tbaa !22
  %95 = load ptr, ptr %0, align 8, !tbaa !17
  %96 = getelementptr inbounds nuw i8, ptr %95, i64 %93
  store i8 0, ptr %96, align 1, !tbaa !23
  call void @llvm.lifetime.end.p0(ptr %3)
  br label %100

97:                                               ; preds = %67, %53, %23, %9, %2
  %98 = getelementptr inbounds nuw i8, ptr %0, i64 16
  store ptr %98, ptr %0, align 8, !tbaa !48
  %99 = getelementptr inbounds nuw i8, ptr %0, i64 8
  store i64 0, ptr %99, align 8, !tbaa !22
  store i8 0, ptr %98, align 8, !tbaa !23
  br label %100

100:                                              ; preds = %97, %92, %48
  ret void
}

declare noundef ptr @_Z20pj_list_linear_unitsv() local_unnamed_addr #1

; Function Attrs: nocallback nocreateundeforpoison nofree nosync nounwind speculatable willreturn memory(none)
declare double @llvm.fabs.f64(double) #12

declare noundef ptr @_Z21pj_list_angular_unitsv() local_unnamed_addr #1

; Function Attrs: mustprogress nofree norecurse nounwind sspstrong willreturn memory(read, inaccessiblemem: write) uwtable
define hidden noundef zeroext i1 @_ZNK5osgeo4proj6common13UnitOfMeasure15_isEquivalentToERKS2_NS0_4util11IComparable9CriterionE(ptr noundef nonnull readonly align 8 captures(none) dereferenceable(24) %0, ptr noundef nonnull readonly align 8 captures(none) dereferenceable(24) %1, i32 noundef %2) local_unnamed_addr #13 align 2 personality ptr @__gxx_personality_v0 {
  %4 = icmp eq i32 %2, 0
  %5 = getelementptr inbounds nuw i8, ptr %0, i64 16
  %6 = load ptr, ptr %5, align 8, !tbaa !10
  br i1 %4, label %7, label %24

7:                                                ; preds = %3
  %8 = getelementptr inbounds nuw i8, ptr %1, i64 16
  %9 = load ptr, ptr %8, align 8, !tbaa !10
  %10 = getelementptr inbounds nuw i8, ptr %6, i64 8
  %11 = load i64, ptr %10, align 8, !tbaa !22
  %12 = icmp ult i64 %11, 9223372036854775807
  tail call void @llvm.assume(i1 %12)
  %13 = getelementptr inbounds nuw i8, ptr %9, i64 8
  %14 = load i64, ptr %13, align 8, !tbaa !22
  %15 = icmp ult i64 %14, 9223372036854775807
  tail call void @llvm.assume(i1 %15)
  %16 = icmp eq i64 %11, %14
  br i1 %16, label %17, label %36

17:                                               ; preds = %7
  %18 = icmp eq i64 %11, 0
  br i1 %18, label %36, label %19

19:                                               ; preds = %17
  %20 = load ptr, ptr %9, align 8, !tbaa !17
  %21 = load ptr, ptr %6, align 8, !tbaa !17
  %22 = tail call i32 @bcmp(ptr %21, ptr %20, i64 %11)
  %23 = icmp eq i32 %22, 0
  br label %36

24:                                               ; preds = %3
  %25 = getelementptr inbounds nuw i8, ptr %6, i64 32
  %26 = load double, ptr %25, align 8, !tbaa !41
  %27 = getelementptr inbounds nuw i8, ptr %1, i64 16
  %28 = load ptr, ptr %27, align 8, !tbaa !10
  %29 = getelementptr inbounds nuw i8, ptr %28, i64 32
  %30 = load double, ptr %29, align 8, !tbaa !41
  %31 = fsub double %26, %30
  %32 = tail call double @llvm.fabs.f64(double %31)
  %33 = tail call double @llvm.fabs.f64(double %26)
  %34 = fmul double %33, 1.000000e-10
  %35 = fcmp ole double %32, %34
  br label %36

36:                                               ; preds = %24, %19, %17, %7
  %37 = phi i1 [ %35, %24 ], [ false, %7 ], [ %23, %19 ], [ true, %17 ]
  ret i1 %37
}

; Function Attrs: mustprogress sspstrong uwtable
define void @_ZN5osgeo4proj6common7MeasureC2EdRKNS1_13UnitOfMeasureE(ptr noundef nonnull align 8 dereferenceable(24) %0, double noundef %1, ptr noundef nonnull align 8 dereferenceable(24) %2) unnamed_addr #0 align 2 personality ptr @__gxx_personality_v0 {
  tail call void @_ZN5osgeo4proj4util10BaseObjectC2Ev(ptr noundef nonnull align 8 dereferenceable(16) %0)
  store ptr getelementptr inbounds nuw inrange(-16, 16) (i8, ptr @_ZTVN5osgeo4proj6common7MeasureE, i64 16), ptr %0, align 8, !tbaa !4
  tail call void @llvm.experimental.noalias.scope.decl(metadata !56)
  %4 = invoke noalias noundef nonnull dereferenceable(32) ptr @_Znwm(i64 noundef 32) #38
          to label %5 unwind label %11

5:                                                ; preds = %3
  store double %1, ptr %4, align 8, !tbaa !59, !noalias !56
  %6 = getelementptr inbounds nuw i8, ptr %4, i64 8
  invoke void @_ZN5osgeo4proj6common13UnitOfMeasureC1ERKS2_(ptr noundef nonnull align 8 dereferenceable(24) %6, ptr noundef nonnull align 8 dereferenceable(24) %2)
          to label %9 unwind label %7, !noalias !56

7:                                                ; preds = %5
  %8 = landingpad { ptr, i32 }
          cleanup
  tail call void @_ZdlPvm(ptr noundef nonnull %4, i64 noundef 32) #39, !noalias !56
  br label %13

9:                                                ; preds = %5
  %10 = getelementptr inbounds nuw i8, ptr %0, i64 16
  store ptr %4, ptr %10, align 8, !tbaa !76, !alias.scope !56
  ret void

11:                                               ; preds = %3
  %12 = landingpad { ptr, i32 }
          cleanup
  br label %13

13:                                               ; preds = %11, %7
  %14 = phi { ptr, i32 } [ %12, %11 ], [ %8, %7 ]
  tail call void @_ZN5osgeo4proj4util10BaseObjectD2Ev(ptr noundef nonnull align 8 dereferenceable(16) %0) #40
  resume { ptr, i32 } %14
}

; Function Attrs: mustprogress sspstrong uwtable
define void @_ZN5osgeo4proj6common7MeasureC2ERKS2_(ptr noundef nonnull align 8 dereferenceable(24) %0, ptr noundef nonnull readonly align 8 captures(none) dereferenceable(24) %1) unnamed_addr #0 align 2 personality ptr @__gxx_personality_v0 {
  tail call void @_ZN5osgeo4proj4util10BaseObjectC2Ev(ptr noundef nonnull align 8 dereferenceable(16) %0)
  store ptr getelementptr inbounds nuw inrange(-16, 16) (i8, ptr @_ZTVN5osgeo4proj6common7MeasureE, i64 16), ptr %0, align 8, !tbaa !4
  %3 = getelementptr inbounds nuw i8, ptr %1, i64 16
  %4 = load ptr, ptr %3, align 8, !tbaa !76
  tail call void @llvm.experimental.noalias.scope.decl(metadata !78)
  %5 = invoke noalias noundef nonnull dereferenceable(32) ptr @_Znwm(i64 noundef 32) #38
          to label %6 unwind label %14

6:                                                ; preds = %2
  %7 = load double, ptr %4, align 8, !tbaa !59, !noalias !78
  store double %7, ptr %5, align 8, !tbaa !59, !noalias !78
  %8 = getelementptr inbounds nuw i8, ptr %5, i64 8
  %9 = getelementptr inbounds nuw i8, ptr %4, i64 8
  invoke void @_ZN5osgeo4proj6common13UnitOfMeasureC1ERKS2_(ptr noundef nonnull align 8 dereferenceable(24) %8, ptr noundef nonnull align 8 dereferenceable(24) %9)
          to label %12 unwind label %10, !noalias !78

10:                                               ; preds = %6
  %11 = landingpad { ptr, i32 }
          cleanup
  tail call void @_ZdlPvm(ptr noundef nonnull %5, i64 noundef 32) #39, !noalias !78
  br label %16

12:                                               ; preds = %6
  %13 = getelementptr inbounds nuw i8, ptr %0, i64 16
  store ptr %5, ptr %13, align 8, !tbaa !76, !alias.scope !78
  ret void

14:                                               ; preds = %2
  %15 = landingpad { ptr, i32 }
          cleanup
  br label %16

16:                                               ; preds = %14, %10
  %17 = phi { ptr, i32 } [ %15, %14 ], [ %11, %10 ]
  tail call void @_ZN5osgeo4proj4util10BaseObjectD2Ev(ptr noundef nonnull align 8 dereferenceable(16) %0) #40
  resume { ptr, i32 } %17
}

; Function Attrs: mustprogress nounwind sspstrong uwtable
define void @_ZN5osgeo4proj6common7MeasureD2Ev(ptr noundef nonnull align 8 dereferenceable(24) initializes((0, 8)) %0) unnamed_addr #3 align 2 personality ptr @__gxx_personality_v0 {
  store ptr getelementptr inbounds nuw inrange(-16, 16) (i8, ptr @_ZTVN5osgeo4proj6common7MeasureE, i64 16), ptr %0, align 8, !tbaa !4
  %2 = getelementptr inbounds nuw i8, ptr %0, i64 16
  %3 = load ptr, ptr %2, align 8, !tbaa !76
  %4 = icmp eq ptr %3, null
  br i1 %4, label %7, label %5

5:                                                ; preds = %1
  %6 = getelementptr inbounds nuw i8, ptr %3, i64 8
  tail call void @_ZN5osgeo4proj6common13UnitOfMeasureD1Ev(ptr noundef nonnull align 8 dereferenceable(24) %6) #40
  tail call void @_ZdlPvm(ptr noundef nonnull %3, i64 noundef 32) #39
  br label %7

7:                                                ; preds = %5, %1
  store ptr null, ptr %2, align 8, !tbaa !76
  tail call void @_ZN5osgeo4proj4util10BaseObjectD2Ev(ptr noundef nonnull align 8 dereferenceable(16) %0) #40
  ret void
}

; Function Attrs: mustprogress nounwind sspstrong uwtable
define void @_ZN5osgeo4proj6common7MeasureD0Ev(ptr noundef nonnull align 8 dereferenceable(24) %0) unnamed_addr #3 align 2 {
  tail call void @_ZN5osgeo4proj6common7MeasureD1Ev(ptr noundef nonnull align 8 dereferenceable(24) %0) #40
  tail call void @_ZdlPvm(ptr noundef nonnull %0, i64 noundef 24) #39
  ret void
}

; Function Attrs: mustprogress nofree norecurse nosync nounwind sspstrong willreturn memory(argmem: read) uwtable
define noundef nonnull align 8 dereferenceable(24) ptr @_ZNK5osgeo4proj6common7Measure4unitEv(ptr noundef nonnull readonly align 8 captures(none) dereferenceable(24) %0) local_unnamed_addr #6 align 2 {
  %2 = getelementptr inbounds nuw i8, ptr %0, i64 16
  %3 = load ptr, ptr %2, align 8, !tbaa !76
  %4 = getelementptr inbounds nuw i8, ptr %3, i64 8
  ret ptr %4
}

; Function Attrs: mustprogress nofree norecurse nosync nounwind sspstrong willreturn memory(read, inaccessiblemem: none) uwtable
define noundef double @_ZNK5osgeo4proj6common7Measure10getSIValueEv(ptr noundef nonnull readonly align 8 captures(none) dereferenceable(24) %0) local_unnamed_addr #7 align 2 {
  %2 = getelementptr inbounds nuw i8, ptr %0, i64 16
  %3 = load ptr, ptr %2, align 8, !tbaa !76
  %4 = load double, ptr %3, align 8, !tbaa !59
  %5 = getelementptr inbounds nuw i8, ptr %3, i64 24
  %6 = load ptr, ptr %5, align 8, !tbaa !10
  %7 = getelementptr inbounds nuw i8, ptr %6, i64 32
  %8 = load double, ptr %7, align 8, !tbaa !41
  %9 = fmul double %4, %8
  ret double %9
}

; Function Attrs: mustprogress nofree norecurse nosync nounwind sspstrong willreturn memory(read, inaccessiblemem: none) uwtable
define noundef double @_ZNK5osgeo4proj6common7Measure5valueEv(ptr noundef nonnull readonly align 8 captures(none) dereferenceable(24) %0) local_unnamed_addr #7 align 2 {
  %2 = getelementptr inbounds nuw i8, ptr %0, i64 16
  %3 = load ptr, ptr %2, align 8, !tbaa !76
  %4 = load double, ptr %3, align 8, !tbaa !59
  ret double %4
}

; Function Attrs: mustprogress nofree norecurse nosync nounwind sspstrong willreturn memory(read, inaccessiblemem: none) uwtable
define noundef double @_ZNK5osgeo4proj6common7Measure13convertToUnitERKNS1_13UnitOfMeasureE(ptr noundef nonnull readonly align 8 captures(none) dereferenceable(24) %0, ptr noundef nonnull readonly align 8 captures(none) dereferenceable(24) %1) local_unnamed_addr #7 align 2 {
  %3 = getelementptr inbounds nuw i8, ptr %0, i64 16
  %4 = load ptr, ptr %3, align 8, !tbaa !76
  %5 = load double, ptr %4, align 8, !tbaa !59
  %6 = getelementptr inbounds nuw i8, ptr %4, i64 24
  %7 = load ptr, ptr %6, align 8, !tbaa !10
  %8 = getelementptr inbounds nuw i8, ptr %7, i64 32
  %9 = load double, ptr %8, align 8, !tbaa !41
  %10 = fmul double %5, %9
  %11 = getelementptr inbounds nuw i8, ptr %1, i64 16
  %12 = load ptr, ptr %11, align 8, !tbaa !10
  %13 = getelementptr inbounds nuw i8, ptr %12, i64 32
  %14 = load double, ptr %13, align 8, !tbaa !41
  %15 = fdiv double %10, %14
  ret double %15
}

; Function Attrs: mustprogress nofree norecurse nounwind sspstrong willreturn memory(read, inaccessiblemem: none) uwtable
define noundef zeroext i1 @_ZNK5osgeo4proj6common7MeasureeqERKS2_(ptr noundef nonnull readonly align 8 captures(none) dereferenceable(24) %0, ptr noundef nonnull readonly align 8 captures(none) dereferenceable(24) %1) local_unnamed_addr #11 align 2 personality ptr @__gxx_personality_v0 {
  %3 = getelementptr inbounds nuw i8, ptr %0, i64 16
  %4 = load ptr, ptr %3, align 8, !tbaa !76
  %5 = load double, ptr %4, align 8, !tbaa !59
  %6 = getelementptr inbounds nuw i8, ptr %1, i64 16
  %7 = load ptr, ptr %6, align 8, !tbaa !76
  %8 = load double, ptr %7, align 8, !tbaa !59
  %9 = fcmp oeq double %5, %8
  br i1 %9, label %10, label %29

10:                                               ; preds = %2
  %11 = getelementptr inbounds nuw i8, ptr %4, i64 24
  %12 = load ptr, ptr %11, align 8, !tbaa !10
  %13 = getelementptr inbounds nuw i8, ptr %7, i64 24
  %14 = load ptr, ptr %13, align 8, !tbaa !10
  %15 = getelementptr inbounds nuw i8, ptr %12, i64 8
  %16 = load i64, ptr %15, align 8, !tbaa !22
  %17 = icmp ult i64 %16, 9223372036854775807
  tail call void @llvm.assume(i1 %17)
  %18 = getelementptr inbounds nuw i8, ptr %14, i64 8
  %19 = load i64, ptr %18, align 8, !tbaa !22
  %20 = icmp ult i64 %19, 9223372036854775807
  tail call void @llvm.assume(i1 %20)
  %21 = icmp eq i64 %16, %19
  br i1 %21, label %22, label %29

22:                                               ; preds = %10
  %23 = icmp eq i64 %16, 0
  br i1 %23, label %29, label %24

24:                                               ; preds = %22
  %25 = load ptr, ptr %14, align 8, !tbaa !17
  %26 = load ptr, ptr %12, align 8, !tbaa !17
  %27 = tail call i32 @bcmp(ptr %26, ptr %25, i64 %16)
  %28 = icmp eq i32 %27, 0
  br label %29

29:                                               ; preds = %24, %22, %10, %2
  %30 = phi i1 [ false, %2 ], [ false, %10 ], [ %28, %24 ], [ true, %22 ]
  ret i1 %30
}

; Function Attrs: mustprogress nofree norecurse nounwind sspstrong willreturn memory(read, inaccessiblemem: write) uwtable
define hidden noundef zeroext i1 @_ZNK5osgeo4proj6common7Measure15_isEquivalentToERKS2_NS0_4util11IComparable9CriterionEd(ptr noundef nonnull readonly align 8 captures(none) dereferenceable(24) %0, ptr noundef nonnull readonly align 8 captures(none) dereferenceable(24) %1, i32 noundef %2, double noundef %3) local_unnamed_addr #13 align 2 personality ptr @__gxx_personality_v0 {
  %5 = icmp eq i32 %2, 0
  %6 = getelementptr inbounds nuw i8, ptr %0, i64 16
  %7 = load ptr, ptr %6, align 8, !tbaa !76
  %8 = load double, ptr %7, align 8, !tbaa !59
  br i1 %5, label %9, label %33

9:                                                ; preds = %4
  %10 = getelementptr inbounds nuw i8, ptr %1, i64 16
  %11 = load ptr, ptr %10, align 8, !tbaa !76
  %12 = load double, ptr %11, align 8, !tbaa !59
  %13 = fcmp oeq double %8, %12
  br i1 %13, label %14, label %60

14:                                               ; preds = %9
  %15 = getelementptr inbounds nuw i8, ptr %7, i64 24
  %16 = load ptr, ptr %15, align 8, !tbaa !10
  %17 = getelementptr inbounds nuw i8, ptr %11, i64 24
  %18 = load ptr, ptr %17, align 8, !tbaa !10
  %19 = getelementptr inbounds nuw i8, ptr %16, i64 8
  %20 = load i64, ptr %19, align 8, !tbaa !22
  %21 = icmp ult i64 %20, 9223372036854775807
  tail call void @llvm.assume(i1 %21)
  %22 = getelementptr inbounds nuw i8, ptr %18, i64 8
  %23 = load i64, ptr %22, align 8, !tbaa !22
  %24 = icmp ult i64 %23, 9223372036854775807
  tail call void @llvm.assume(i1 %24)
  %25 = icmp eq i64 %20, %23
  br i1 %25, label %26, label %60

26:                                               ; preds = %14
  %27 = icmp eq i64 %20, 0
  br i1 %27, label %60, label %28

28:                                               ; preds = %26
  %29 = load ptr, ptr %18, align 8, !tbaa !17
  %30 = load ptr, ptr %16, align 8, !tbaa !17
  %31 = tail call i32 @bcmp(ptr %30, ptr %29, i64 %20)
  %32 = icmp eq i32 %31, 0
  br label %60

33:                                               ; preds = %4
  %34 = getelementptr inbounds nuw i8, ptr %7, i64 24
  %35 = load ptr, ptr %34, align 8, !tbaa !10
  %36 = getelementptr inbounds nuw i8, ptr %35, i64 32
  %37 = load double, ptr %36, align 8, !tbaa !41
  %38 = fmul double %8, %37
  %39 = getelementptr inbounds nuw i8, ptr %1, i64 16
  %40 = load ptr, ptr %39, align 8, !tbaa !76
  %41 = load double, ptr %40, align 8, !tbaa !59
  %42 = getelementptr inbounds nuw i8, ptr %40, i64 24
  %43 = load ptr, ptr %42, align 8, !tbaa !10
  %44 = getelementptr inbounds nuw i8, ptr %43, i64 32
  %45 = load double, ptr %44, align 8, !tbaa !41
  %46 = fmul double %41, %45
  %47 = tail call double @llvm.fabs.f64(double %38)
  %48 = fcmp oeq double %47, 0x7FF0000000000000
  %49 = tail call double @llvm.fabs.f64(double %46)
  %50 = fcmp oeq double %49, 0x7FF0000000000000
  %51 = select i1 %48, i1 %50, i1 false
  br i1 %51, label %52, label %55

52:                                               ; preds = %33
  %53 = fmul double %38, %46
  %54 = fcmp ogt double %53, 0.000000e+00
  br label %60

55:                                               ; preds = %33
  %56 = fsub double %38, %46
  %57 = tail call double @llvm.fabs.f64(double %56)
  %58 = fmul double %3, %47
  %59 = fcmp ole double %57, %58
  br label %60

60:                                               ; preds = %55, %52, %28, %26, %14, %9
  %61 = phi i1 [ %54, %52 ], [ %59, %55 ], [ false, %9 ], [ false, %14 ], [ %32, %28 ], [ true, %26 ]
  ret i1 %61
}

; Function Attrs: mustprogress sspstrong uwtable
define void @_ZN5osgeo4proj6common5ScaleC2Ed(ptr noundef nonnull align 8 dereferenceable(24) %0, double noundef %1) unnamed_addr #0 align 2 personality ptr @__gxx_personality_v0 {
  tail call void @_ZN5osgeo4proj4util10BaseObjectC2Ev(ptr noundef nonnull align 8 dereferenceable(24) %0)
  store ptr getelementptr inbounds nuw inrange(-16, 16) (i8, ptr @_ZTVN5osgeo4proj6common7MeasureE, i64 16), ptr %0, align 8, !tbaa !4
  tail call void @llvm.experimental.noalias.scope.decl(metadata !81)
  %3 = invoke noalias noundef nonnull dereferenceable(32) ptr @_Znwm(i64 noundef 32) #38
          to label %4 unwind label %8

4:                                                ; preds = %2
  store double %1, ptr %3, align 8, !tbaa !59, !noalias !81
  %5 = getelementptr inbounds nuw i8, ptr %3, i64 8
  invoke void @_ZN5osgeo4proj6common13UnitOfMeasureC1ERKS2_(ptr noundef nonnull align 8 dereferenceable(24) %5, ptr noundef nonnull align 8 dereferenceable(24) @_ZN5osgeo4proj6common13UnitOfMeasure11SCALE_UNITYE)
          to label %12 unwind label %6, !noalias !81

6:                                                ; preds = %4
  %7 = landingpad { ptr, i32 }
          cleanup
  tail call void @_ZdlPvm(ptr noundef nonnull %3, i64 noundef 32) #39, !noalias !81
  br label %10

8:                                                ; preds = %2
  %9 = landingpad { ptr, i32 }
          cleanup
  br label %10

10:                                               ; preds = %8, %6
  %11 = phi { ptr, i32 } [ %9, %8 ], [ %7, %6 ]
  tail call void @_ZN5osgeo4proj4util10BaseObjectD2Ev(ptr noundef nonnull align 8 dereferenceable(24) %0) #40
  resume { ptr, i32 } %11

12:                                               ; preds = %4
  %13 = getelementptr inbounds nuw i8, ptr %0, i64 16
  store ptr %3, ptr %13, align 8, !tbaa !76, !alias.scope !81
  store ptr getelementptr inbounds nuw inrange(-16, 16) (i8, ptr @_ZTVN5osgeo4proj6common5ScaleE, i64 16), ptr %0, align 8, !tbaa !4
  ret void
}

; Function Attrs: mustprogress sspstrong uwtable
define void @_ZN5osgeo4proj6common5ScaleC2EdRKNS1_13UnitOfMeasureE(ptr noundef nonnull align 8 dereferenceable(24) %0, double noundef %1, ptr noundef nonnull align 8 dereferenceable(24) %2) unnamed_addr #0 align 2 personality ptr @__gxx_personality_v0 {
  tail call void @_ZN5osgeo4proj4util10BaseObjectC2Ev(ptr noundef nonnull align 8 dereferenceable(24) %0)
  store ptr getelementptr inbounds nuw inrange(-16, 16) (i8, ptr @_ZTVN5osgeo4proj6common7MeasureE, i64 16), ptr %0, align 8, !tbaa !4
  tail call void @llvm.experimental.noalias.scope.decl(metadata !84)
  %4 = invoke noalias noundef nonnull dereferenceable(32) ptr @_Znwm(i64 noundef 32) #38
          to label %5 unwind label %9

5:                                                ; preds = %3
  store double %1, ptr %4, align 8, !tbaa !59, !noalias !84
  %6 = getelementptr inbounds nuw i8, ptr %4, i64 8
  invoke void @_ZN5osgeo4proj6common13UnitOfMeasureC1ERKS2_(ptr noundef nonnull align 8 dereferenceable(24) %6, ptr noundef nonnull align 8 dereferenceable(24) %2)
          to label %13 unwind label %7, !noalias !84

7:                                                ; preds = %5
  %8 = landingpad { ptr, i32 }
          cleanup
  tail call void @_ZdlPvm(ptr noundef nonnull %4, i64 noundef 32) #39, !noalias !84
  br label %11

9:                                                ; preds = %3
  %10 = landingpad { ptr, i32 }
          cleanup
  br label %11

11:                                               ; preds = %9, %7
  %12 = phi { ptr, i32 } [ %10, %9 ], [ %8, %7 ]
  tail call void @_ZN5osgeo4proj4util10BaseObjectD2Ev(ptr noundef nonnull align 8 dereferenceable(24) %0) #40
  resume { ptr, i32 } %12

13:                                               ; preds = %5
  %14 = getelementptr inbounds nuw i8, ptr %0, i64 16
  store ptr %4, ptr %14, align 8, !tbaa !76, !alias.scope !84
  store ptr getelementptr inbounds nuw inrange(-16, 16) (i8, ptr @_ZTVN5osgeo4proj6common5ScaleE, i64 16), ptr %0, align 8, !tbaa !4
  ret void
}

; Function Attrs: mustprogress sspstrong uwtable
define void @_ZN5osgeo4proj6common5ScaleC2ERKS2_(ptr noundef nonnull align 8 dereferenceable(24) %0, ptr noundef nonnull readonly align 8 captures(none) dereferenceable(24) %1) unnamed_addr #0 align 2 personality ptr @__gxx_personality_v0 {
  tail call void @_ZN5osgeo4proj4util10BaseObjectC2Ev(ptr noundef nonnull align 8 dereferenceable(24) %0)
  store ptr getelementptr inbounds nuw inrange(-16, 16) (i8, ptr @_ZTVN5osgeo4proj6common7MeasureE, i64 16), ptr %0, align 8, !tbaa !4
  %3 = getelementptr inbounds nuw i8, ptr %1, i64 16
  %4 = load ptr, ptr %3, align 8, !tbaa !76
  tail call void @llvm.experimental.noalias.scope.decl(metadata !87)
  %5 = invoke noalias noundef nonnull dereferenceable(32) ptr @_Znwm(i64 noundef 32) #38
          to label %6 unwind label %12

6:                                                ; preds = %2
  %7 = load double, ptr %4, align 8, !tbaa !59, !noalias !87
  store double %7, ptr %5, align 8, !tbaa !59, !noalias !87
  %8 = getelementptr inbounds nuw i8, ptr %5, i64 8
  %9 = getelementptr inbounds nuw i8, ptr %4, i64 8
  invoke void @_ZN5osgeo4proj6common13UnitOfMeasureC1ERKS2_(ptr noundef nonnull align 8 dereferenceable(24) %8, ptr noundef nonnull align 8 dereferenceable(24) %9)
          to label %16 unwind label %10, !noalias !87

10:                                               ; preds = %6
  %11 = landingpad { ptr, i32 }
          cleanup
  tail call void @_ZdlPvm(ptr noundef nonnull %5, i64 noundef 32) #39, !noalias !87
  br label %14

12:                                               ; preds = %2
  %13 = landingpad { ptr, i32 }
          cleanup
  br label %14

14:                                               ; preds = %12, %10
  %15 = phi { ptr, i32 } [ %13, %12 ], [ %11, %10 ]
  tail call void @_ZN5osgeo4proj4util10BaseObjectD2Ev(ptr noundef nonnull align 8 dereferenceable(24) %0) #40
  resume { ptr, i32 } %15

16:                                               ; preds = %6
  %17 = getelementptr inbounds nuw i8, ptr %0, i64 16
  store ptr %5, ptr %17, align 8, !tbaa !76, !alias.scope !87
  store ptr getelementptr inbounds nuw inrange(-16, 16) (i8, ptr @_ZTVN5osgeo4proj6common5ScaleE, i64 16), ptr %0, align 8, !tbaa !4
  ret void
}

; Function Attrs: mustprogress nounwind sspstrong uwtable
define void @_ZN5osgeo4proj6common5ScaleD0Ev(ptr noundef nonnull align 8 dereferenceable(24) %0) unnamed_addr #3 align 2 {
  tail call void @_ZN5osgeo4proj6common5ScaleD1Ev(ptr noundef nonnull align 8 dereferenceable(24) %0) #40
  tail call void @_ZdlPvm(ptr noundef nonnull %0, i64 noundef 24) #39
  ret void
}

; Function Attrs: mustprogress sspstrong uwtable
define void @_ZN5osgeo4proj6common5AngleC2Ed(ptr noundef nonnull align 8 dereferenceable(24) %0, double noundef %1) unnamed_addr #0 align 2 personality ptr @__gxx_personality_v0 {
  tail call void @_ZN5osgeo4proj4util10BaseObjectC2Ev(ptr noundef nonnull align 8 dereferenceable(24) %0)
  store ptr getelementptr inbounds nuw inrange(-16, 16) (i8, ptr @_ZTVN5osgeo4proj6common7MeasureE, i64 16), ptr %0, align 8, !tbaa !4
  tail call void @llvm.experimental.noalias.scope.decl(metadata !90)
  %3 = invoke noalias noundef nonnull dereferenceable(32) ptr @_Znwm(i64 noundef 32) #38
          to label %4 unwind label %8

4:                                                ; preds = %2
  store double %1, ptr %3, align 8, !tbaa !59, !noalias !90
  %5 = getelementptr inbounds nuw i8, ptr %3, i64 8
  invoke void @_ZN5osgeo4proj6common13UnitOfMeasureC1ERKS2_(ptr noundef nonnull align 8 dereferenceable(24) %5, ptr noundef nonnull align 8 dereferenceable(24) @_ZN5osgeo4proj6common13UnitOfMeasure6DEGREEE)
          to label %12 unwind label %6, !noalias !90

6:                                                ; preds = %4
  %7 = landingpad { ptr, i32 }
          cleanup
  tail call void @_ZdlPvm(ptr noundef nonnull %3, i64 noundef 32) #39, !noalias !90
  br label %10

8:                                                ; preds = %2
  %9 = landingpad { ptr, i32 }
          cleanup
  br label %10

10:                                               ; preds = %8, %6
  %11 = phi { ptr, i32 } [ %9, %8 ], [ %7, %6 ]
  tail call void @_ZN5osgeo4proj4util10BaseObjectD2Ev(ptr noundef nonnull align 8 dereferenceable(24) %0) #40
  resume { ptr, i32 } %11

12:                                               ; preds = %4
  %13 = getelementptr inbounds nuw i8, ptr %0, i64 16
  store ptr %3, ptr %13, align 8, !tbaa !76, !alias.scope !90
  store ptr getelementptr inbounds nuw inrange(-16, 16) (i8, ptr @_ZTVN5osgeo4proj6common5AngleE, i64 16), ptr %0, align 8, !tbaa !4
  ret void
}

; Function Attrs: mustprogress sspstrong uwtable
define void @_ZN5osgeo4proj6common5AngleC2EdRKNS1_13UnitOfMeasureE(ptr noundef nonnull align 8 dereferenceable(24) %0, double noundef %1, ptr noundef nonnull align 8 dereferenceable(24) %2) unnamed_addr #0 align 2 personality ptr @__gxx_personality_v0 {
  tail call void @_ZN5osgeo4proj4util10BaseObjectC2Ev(ptr noundef nonnull align 8 dereferenceable(24) %0)
  store ptr getelementptr inbounds nuw inrange(-16, 16) (i8, ptr @_ZTVN5osgeo4proj6common7MeasureE, i64 16), ptr %0, align 8, !tbaa !4
  tail call void @llvm.experimental.noalias.scope.decl(metadata !93)
  %4 = invoke noalias noundef nonnull dereferenceable(32) ptr @_Znwm(i64 noundef 32) #38
          to label %5 unwind label %9

5:                                                ; preds = %3
  store double %1, ptr %4, align 8, !tbaa !59, !noalias !93
  %6 = getelementptr inbounds nuw i8, ptr %4, i64 8
  invoke void @_ZN5osgeo4proj6common13UnitOfMeasureC1ERKS2_(ptr noundef nonnull align 8 dereferenceable(24) %6, ptr noundef nonnull align 8 dereferenceable(24) %2)
          to label %13 unwind label %7, !noalias !93

7:                                                ; preds = %5
  %8 = landingpad { ptr, i32 }
          cleanup
  tail call void @_ZdlPvm(ptr noundef nonnull %4, i64 noundef 32) #39, !noalias !93
  br label %11

9:                                                ; preds = %3
  %10 = landingpad { ptr, i32 }
          cleanup
  br label %11

11:                                               ; preds = %9, %7
  %12 = phi { ptr, i32 } [ %10, %9 ], [ %8, %7 ]
  tail call void @_ZN5osgeo4proj4util10BaseObjectD2Ev(ptr noundef nonnull align 8 dereferenceable(24) %0) #40
  resume { ptr, i32 } %12

13:                                               ; preds = %5
  %14 = getelementptr inbounds nuw i8, ptr %0, i64 16
  store ptr %4, ptr %14, align 8, !tbaa !76, !alias.scope !93
  store ptr getelementptr inbounds nuw inrange(-16, 16) (i8, ptr @_ZTVN5osgeo4proj6common5AngleE, i64 16), ptr %0, align 8, !tbaa !4
  ret void
}

; Function Attrs: mustprogress sspstrong uwtable
define void @_ZN5osgeo4proj6common5AngleC2ERKS2_(ptr noundef nonnull align 8 dereferenceable(24) %0, ptr noundef nonnull readonly align 8 captures(none) dereferenceable(24) %1) unnamed_addr #0 align 2 personality ptr @__gxx_personality_v0 {
  tail call void @_ZN5osgeo4proj4util10BaseObjectC2Ev(ptr noundef nonnull align 8 dereferenceable(24) %0)
  store ptr getelementptr inbounds nuw inrange(-16, 16) (i8, ptr @_ZTVN5osgeo4proj6common7MeasureE, i64 16), ptr %0, align 8, !tbaa !4
  %3 = getelementptr inbounds nuw i8, ptr %1, i64 16
  %4 = load ptr, ptr %3, align 8, !tbaa !76
  tail call void @llvm.experimental.noalias.scope.decl(metadata !96)
  %5 = invoke noalias noundef nonnull dereferenceable(32) ptr @_Znwm(i64 noundef 32) #38
          to label %6 unwind label %12

6:                                                ; preds = %2
  %7 = load double, ptr %4, align 8, !tbaa !59, !noalias !96
  store double %7, ptr %5, align 8, !tbaa !59, !noalias !96
  %8 = getelementptr inbounds nuw i8, ptr %5, i64 8
  %9 = getelementptr inbounds nuw i8, ptr %4, i64 8
  invoke void @_ZN5osgeo4proj6common13UnitOfMeasureC1ERKS2_(ptr noundef nonnull align 8 dereferenceable(24) %8, ptr noundef nonnull align 8 dereferenceable(24) %9)
          to label %16 unwind label %10, !noalias !96

10:                                               ; preds = %6
  %11 = landingpad { ptr, i32 }
          cleanup
  tail call void @_ZdlPvm(ptr noundef nonnull %5, i64 noundef 32) #39, !noalias !96
  br label %14

12:                                               ; preds = %2
  %13 = landingpad { ptr, i32 }
          cleanup
  br label %14

14:                                               ; preds = %12, %10
  %15 = phi { ptr, i32 } [ %13, %12 ], [ %11, %10 ]
  tail call void @_ZN5osgeo4proj4util10BaseObjectD2Ev(ptr noundef nonnull align 8 dereferenceable(24) %0) #40
  resume { ptr, i32 } %15

16:                                               ; preds = %6
  %17 = getelementptr inbounds nuw i8, ptr %0, i64 16
  store ptr %5, ptr %17, align 8, !tbaa !76, !alias.scope !96
  store ptr getelementptr inbounds nuw inrange(-16, 16) (i8, ptr @_ZTVN5osgeo4proj6common5AngleE, i64 16), ptr %0, align 8, !tbaa !4
  ret void
}

; Function Attrs: mustprogress nounwind sspstrong uwtable
define void @_ZN5osgeo4proj6common5AngleD0Ev(ptr noundef nonnull align 8 dereferenceable(24) %0) unnamed_addr #3 align 2 {
  tail call void @_ZN5osgeo4proj6common5AngleD1Ev(ptr noundef nonnull align 8 dereferenceable(24) %0) #40
  tail call void @_ZdlPvm(ptr noundef nonnull %0, i64 noundef 24) #39
  ret void
}

; Function Attrs: mustprogress sspstrong uwtable
define void @_ZN5osgeo4proj6common6LengthC2Ed(ptr noundef nonnull align 8 dereferenceable(24) %0, double noundef %1) unnamed_addr #0 align 2 personality ptr @__gxx_personality_v0 {
  tail call void @_ZN5osgeo4proj4util10BaseObjectC2Ev(ptr noundef nonnull align 8 dereferenceable(24) %0)
  store ptr getelementptr inbounds nuw inrange(-16, 16) (i8, ptr @_ZTVN5osgeo4proj6common7MeasureE, i64 16), ptr %0, align 8, !tbaa !4
  tail call void @llvm.experimental.noalias.scope.decl(metadata !99)
  %3 = invoke noalias noundef nonnull dereferenceable(32) ptr @_Znwm(i64 noundef 32) #38
          to label %4 unwind label %8

4:                                                ; preds = %2
  store double %1, ptr %3, align 8, !tbaa !59, !noalias !99
  %5 = getelementptr inbounds nuw i8, ptr %3, i64 8
  invoke void @_ZN5osgeo4proj6common13UnitOfMeasureC1ERKS2_(ptr noundef nonnull align 8 dereferenceable(24) %5, ptr noundef nonnull align 8 dereferenceable(24) @_ZN5osgeo4proj6common13UnitOfMeasure5METREE)
          to label %12 unwind label %6, !noalias !99

6:                                                ; preds = %4
  %7 = landingpad { ptr, i32 }
          cleanup
  tail call void @_ZdlPvm(ptr noundef nonnull %3, i64 noundef 32) #39, !noalias !99
  br label %10

8:                                                ; preds = %2
  %9 = landingpad { ptr, i32 }
          cleanup
  br label %10

10:                                               ; preds = %8, %6
  %11 = phi { ptr, i32 } [ %9, %8 ], [ %7, %6 ]
  tail call void @_ZN5osgeo4proj4util10BaseObjectD2Ev(ptr noundef nonnull align 8 dereferenceable(24) %0) #40
  resume { ptr, i32 } %11

12:                                               ; preds = %4
  %13 = getelementptr inbounds nuw i8, ptr %0, i64 16
  store ptr %3, ptr %13, align 8, !tbaa !76, !alias.scope !99
  store ptr getelementptr inbounds nuw inrange(-16, 16) (i8, ptr @_ZTVN5osgeo4proj6common6LengthE, i64 16), ptr %0, align 8, !tbaa !4
  ret void
}

; Function Attrs: mustprogress sspstrong uwtable
define void @_ZN5osgeo4proj6common6LengthC2EdRKNS1_13UnitOfMeasureE(ptr noundef nonnull align 8 dereferenceable(24) %0, double noundef %1, ptr noundef nonnull align 8 dereferenceable(24) %2) unnamed_addr #0 align 2 personality ptr @__gxx_personality_v0 {
  tail call void @_ZN5osgeo4proj4util10BaseObjectC2Ev(ptr noundef nonnull align 8 dereferenceable(24) %0)
  store ptr getelementptr inbounds nuw inrange(-16, 16) (i8, ptr @_ZTVN5osgeo4proj6common7MeasureE, i64 16), ptr %0, align 8, !tbaa !4
  tail call void @llvm.experimental.noalias.scope.decl(metadata !102)
  %4 = invoke noalias noundef nonnull dereferenceable(32) ptr @_Znwm(i64 noundef 32) #38
          to label %5 unwind label %9

5:                                                ; preds = %3
  store double %1, ptr %4, align 8, !tbaa !59, !noalias !102
  %6 = getelementptr inbounds nuw i8, ptr %4, i64 8
  invoke void @_ZN5osgeo4proj6common13UnitOfMeasureC1ERKS2_(ptr noundef nonnull align 8 dereferenceable(24) %6, ptr noundef nonnull align 8 dereferenceable(24) %2)
          to label %13 unwind label %7, !noalias !102

7:                                                ; preds = %5
  %8 = landingpad { ptr, i32 }
          cleanup
  tail call void @_ZdlPvm(ptr noundef nonnull %4, i64 noundef 32) #39, !noalias !102
  br label %11

9:                                                ; preds = %3
  %10 = landingpad { ptr, i32 }
          cleanup
  br label %11

11:                                               ; preds = %9, %7
  %12 = phi { ptr, i32 } [ %10, %9 ], [ %8, %7 ]
  tail call void @_ZN5osgeo4proj4util10BaseObjectD2Ev(ptr noundef nonnull align 8 dereferenceable(24) %0) #40
  resume { ptr, i32 } %12

13:                                               ; preds = %5
  %14 = getelementptr inbounds nuw i8, ptr %0, i64 16
  store ptr %4, ptr %14, align 8, !tbaa !76, !alias.scope !102
  store ptr getelementptr inbounds nuw inrange(-16, 16) (i8, ptr @_ZTVN5osgeo4proj6common6LengthE, i64 16), ptr %0, align 8, !tbaa !4
  ret void
}

; Function Attrs: mustprogress sspstrong uwtable
define void @_ZN5osgeo4proj6common6LengthC2ERKS2_(ptr noundef nonnull align 8 dereferenceable(24) %0, ptr noundef nonnull readonly align 8 captures(none) dereferenceable(24) %1) unnamed_addr #0 align 2 personality ptr @__gxx_personality_v0 {
  tail call void @_ZN5osgeo4proj4util10BaseObjectC2Ev(ptr noundef nonnull align 8 dereferenceable(24) %0)
  store ptr getelementptr inbounds nuw inrange(-16, 16) (i8, ptr @_ZTVN5osgeo4proj6common7MeasureE, i64 16), ptr %0, align 8, !tbaa !4
  %3 = getelementptr inbounds nuw i8, ptr %1, i64 16
  %4 = load ptr, ptr %3, align 8, !tbaa !76
  tail call void @llvm.experimental.noalias.scope.decl(metadata !105)
  %5 = invoke noalias noundef nonnull dereferenceable(32) ptr @_Znwm(i64 noundef 32) #38
          to label %6 unwind label %12

6:                                                ; preds = %2
  %7 = load double, ptr %4, align 8, !tbaa !59, !noalias !105
  store double %7, ptr %5, align 8, !tbaa !59, !noalias !105
  %8 = getelementptr inbounds nuw i8, ptr %5, i64 8
  %9 = getelementptr inbounds nuw i8, ptr %4, i64 8
  invoke void @_ZN5osgeo4proj6common13UnitOfMeasureC1ERKS2_(ptr noundef nonnull align 8 dereferenceable(24) %8, ptr noundef nonnull align 8 dereferenceable(24) %9)
          to label %16 unwind label %10, !noalias !105

10:                                               ; preds = %6
  %11 = landingpad { ptr, i32 }
          cleanup
  tail call void @_ZdlPvm(ptr noundef nonnull %5, i64 noundef 32) #39, !noalias !105
  br label %14

12:                                               ; preds = %2
  %13 = landingpad { ptr, i32 }
          cleanup
  br label %14

14:                                               ; preds = %12, %10
  %15 = phi { ptr, i32 } [ %13, %12 ], [ %11, %10 ]
  tail call void @_ZN5osgeo4proj4util10BaseObjectD2Ev(ptr noundef nonnull align 8 dereferenceable(24) %0) #40
  resume { ptr, i32 } %15

16:                                               ; preds = %6
  %17 = getelementptr inbounds nuw i8, ptr %0, i64 16
  store ptr %5, ptr %17, align 8, !tbaa !76, !alias.scope !105
  store ptr getelementptr inbounds nuw inrange(-16, 16) (i8, ptr @_ZTVN5osgeo4proj6common6LengthE, i64 16), ptr %0, align 8, !tbaa !4
  ret void
}

; Function Attrs: mustprogress nounwind sspstrong uwtable
define void @_ZN5osgeo4proj6common6LengthD0Ev(ptr noundef nonnull align 8 dereferenceable(24) %0) unnamed_addr #3 align 2 {
  tail call void @_ZN5osgeo4proj6common6LengthD1Ev(ptr noundef nonnull align 8 dereferenceable(24) %0) #40
  tail call void @_ZdlPvm(ptr noundef nonnull %0, i64 noundef 24) #39
  ret void
}

; Function Attrs: mustprogress sspstrong uwtable
define hidden void @_ZN5osgeo4proj6common8DateTimeC2Ev(ptr noundef nonnull writeonly align 8 captures(none) dereferenceable(8) initializes((0, 8)) %0) unnamed_addr #0 align 2 personality ptr @__gxx_personality_v0 {
  tail call void @llvm.experimental.noalias.scope.decl(metadata !108)
  %2 = tail call noalias noundef nonnull dereferenceable(32) ptr @_Znwm(i64 noundef 32) #38
  %3 = getelementptr inbounds nuw i8, ptr %2, i64 16
  store ptr %3, ptr %2, align 8, !tbaa !48, !noalias !108
  store i8 0, ptr %3, align 1, !tbaa !23, !noalias !108
  %4 = getelementptr inbounds nuw i8, ptr %2, i64 8
  store i64 0, ptr %4, align 8, !tbaa !22, !noalias !108
  store ptr %2, ptr %0, align 8, !tbaa !111, !alias.scope !108
  ret void
}

; Function Attrs: mustprogress sspstrong uwtable
define hidden void @_ZN5osgeo4proj6common8DateTimeC2ERKNSt7__cxx1112basic_stringIcSt11char_traitsIcESaIcEEE(ptr noundef nonnull writeonly align 8 captures(none) dereferenceable(8) %0, ptr noundef nonnull readonly align 8 captures(none) dereferenceable(32) %1) unnamed_addr #0 align 2 personality ptr @__gxx_personality_v0 {
  %3 = alloca i64, align 8
  tail call void @llvm.experimental.noalias.scope.decl(metadata !113)
  %4 = tail call noalias noundef nonnull dereferenceable(32) ptr @_Znwm(i64 noundef 32) #38, !noalias !113
  %5 = getelementptr inbounds nuw i8, ptr %4, i64 16
  store ptr %5, ptr %4, align 8, !tbaa !48, !noalias !113
  %6 = load ptr, ptr %1, align 8, !tbaa !17, !noalias !113
  %7 = getelementptr inbounds nuw i8, ptr %1, i64 8
  %8 = load i64, ptr %7, align 8, !tbaa !22, !noalias !113
  %9 = icmp ult i64 %8, 9223372036854775807
  tail call void @llvm.assume(i1 %9)
  call void @llvm.lifetime.start.p0(ptr %3)
  store i64 %8, ptr %3, align 8, !tbaa !49, !noalias !113
  %10 = icmp samesign ugt i64 %8, 15
  br i1 %10, label %11, label %15

11:                                               ; preds = %2
  %12 = invoke noundef ptr @_ZNSt7__cxx1112basic_stringIcSt11char_traitsIcESaIcEE9_M_createERmm(ptr noundef nonnull align 8 dereferenceable(32) %4, ptr noundef nonnull align 8 dereferenceable(8) %3, i64 noundef 0)
          to label %13 unwind label %22, !noalias !113

13:                                               ; preds = %11
  store ptr %12, ptr %4, align 8, !tbaa !17, !noalias !113
  %14 = load i64, ptr %3, align 8, !tbaa !49, !noalias !113
  store i64 %14, ptr %5, align 8, !tbaa !23, !noalias !113
  br label %15

15:                                               ; preds = %13, %2
  %16 = phi i64 [ %14, %13 ], [ %8, %2 ]
  %17 = phi ptr [ %12, %13 ], [ %5, %2 ]
  switch i64 %16, label %20 [
    i64 0, label %18
    i64 -1, label %24
  ]

18:                                               ; preds = %15
  %19 = load i8, ptr %6, align 1, !tbaa !23, !noalias !113
  store i8 %19, ptr %17, align 1, !tbaa !23, !noalias !113
  br label %24

20:                                               ; preds = %15
  %21 = add nuw i64 %16, 1
  call void @llvm.memcpy.p0.p0.i64(ptr noundef nonnull align 1 dereferenceable(1) %17, ptr noundef nonnull align 1 dereferenceable(1) %6, i64 %21, i1 false), !noalias !113
  br label %24

22:                                               ; preds = %11
  %23 = landingpad { ptr, i32 }
          cleanup
  call void @_ZdlPvm(ptr noundef nonnull %4, i64 noundef 32) #39, !noalias !113
  resume { ptr, i32 } %23

24:                                               ; preds = %20, %18, %15
  %25 = load i64, ptr %3, align 8, !tbaa !49, !noalias !113
  %26 = getelementptr inbounds nuw i8, ptr %4, i64 8
  store i64 %25, ptr %26, align 8, !tbaa !22, !noalias !113
  call void @llvm.lifetime.end.p0(ptr %3)
  store ptr %4, ptr %0, align 8, !tbaa !111, !alias.scope !113
  ret void
}

; Function Attrs: mustprogress sspstrong uwtable
define void @_ZN5osgeo4proj6common8DateTimeC2ERKS2_(ptr noundef nonnull writeonly align 8 captures(none) dereferenceable(8) %0, ptr noundef nonnull readonly align 8 captures(none) dereferenceable(8) %1) unnamed_addr #0 align 2 personality ptr @__gxx_personality_v0 {
  %3 = alloca i64, align 8
  %4 = load ptr, ptr %1, align 8, !tbaa !111
  tail call void @llvm.experimental.noalias.scope.decl(metadata !116)
  %5 = tail call noalias noundef nonnull dereferenceable(32) ptr @_Znwm(i64 noundef 32) #38, !noalias !116
  %6 = getelementptr inbounds nuw i8, ptr %5, i64 16
  store ptr %6, ptr %5, align 8, !tbaa !48, !noalias !116
  %7 = load ptr, ptr %4, align 8, !tbaa !17, !noalias !116
  %8 = getelementptr inbounds nuw i8, ptr %4, i64 8
  %9 = load i64, ptr %8, align 8, !tbaa !22, !noalias !116
  %10 = icmp ult i64 %9, 9223372036854775807
  tail call void @llvm.assume(i1 %10)
  call void @llvm.lifetime.start.p0(ptr %3)
  store i64 %9, ptr %3, align 8, !tbaa !49, !noalias !116
  %11 = icmp samesign ugt i64 %9, 15
  br i1 %11, label %12, label %16

12:                                               ; preds = %2
  %13 = invoke noundef ptr @_ZNSt7__cxx1112basic_stringIcSt11char_traitsIcESaIcEE9_M_createERmm(ptr noundef nonnull align 8 dereferenceable(32) %5, ptr noundef nonnull align 8 dereferenceable(8) %3, i64 noundef 0)
          to label %14 unwind label %23, !noalias !116

14:                                               ; preds = %12
  store ptr %13, ptr %5, align 8, !tbaa !17, !noalias !116
  %15 = load i64, ptr %3, align 8, !tbaa !49, !noalias !116
  store i64 %15, ptr %6, align 8, !tbaa !23, !noalias !116
  br label %16

16:                                               ; preds = %14, %2
  %17 = phi i64 [ %15, %14 ], [ %9, %2 ]
  %18 = phi ptr [ %13, %14 ], [ %6, %2 ]
  switch i64 %17, label %21 [
    i64 0, label %19
    i64 -1, label %25
  ]

19:                                               ; preds = %16
  %20 = load i8, ptr %7, align 1, !tbaa !23, !noalias !116
  store i8 %20, ptr %18, align 1, !tbaa !23, !noalias !116
  br label %25

21:                                               ; preds = %16
  %22 = add nuw i64 %17, 1
  call void @llvm.memcpy.p0.p0.i64(ptr noundef nonnull align 1 dereferenceable(1) %18, ptr noundef nonnull align 1 dereferenceable(1) %7, i64 %22, i1 false), !noalias !116
  br label %25

23:                                               ; preds = %12
  %24 = landingpad { ptr, i32 }
          cleanup
  call void @_ZdlPvm(ptr noundef nonnull %5, i64 noundef 32) #39, !noalias !116
  resume { ptr, i32 } %24

25:                                               ; preds = %21, %19, %16
  %26 = load i64, ptr %3, align 8, !tbaa !49, !noalias !116
  %27 = getelementptr inbounds nuw i8, ptr %5, i64 8
  store i64 %26, ptr %27, align 8, !tbaa !22, !noalias !116
  call void @llvm.lifetime.end.p0(ptr %3)
  store ptr %5, ptr %0, align 8, !tbaa !111, !alias.scope !116
  ret void
}

; Function Attrs: mustprogress sspstrong uwtable
define hidden noundef nonnull align 8 dereferenceable(8) ptr @_ZN5osgeo4proj6common8DateTimeaSERKS2_(ptr noundef nonnull readonly returned align 8 captures(ret: address, provenance) dereferenceable(8) %0, ptr noundef nonnull readonly align 8 captures(none) dereferenceable(8) %1) local_unnamed_addr #0 align 2 {
  %3 = load ptr, ptr %1, align 8, !tbaa !111
  %4 = load ptr, ptr %0, align 8, !tbaa !111
  tail call void @_ZNSt7__cxx1112basic_stringIcSt11char_traitsIcESaIcEE9_M_assignERKS4_(ptr noundef nonnull align 8 dereferenceable(32) %4, ptr noundef nonnull align 8 dereferenceable(32) %3)
  ret ptr %0
}

; Function Attrs: mustprogress nounwind sspstrong uwtable
define void @_ZN5osgeo4proj6common8DateTimeD2Ev(ptr noundef nonnull align 8 captures(none) dereferenceable(8) %0) unnamed_addr #3 align 2 personality ptr @__gxx_personality_v0 {
  %2 = load ptr, ptr %0, align 8, !tbaa !111
  %3 = icmp eq ptr %2, null
  br i1 %3, label %16, label %4

4:                                                ; preds = %1
  %5 = load ptr, ptr %2, align 8, !tbaa !17
  %6 = getelementptr inbounds nuw i8, ptr %2, i64 16
  %7 = icmp eq ptr %5, %6
  br i1 %7, label %8, label %12

8:                                                ; preds = %4
  %9 = getelementptr inbounds nuw i8, ptr %2, i64 8
  %10 = load i64, ptr %9, align 8, !tbaa !22
  %11 = icmp ult i64 %10, 16
  tail call void @llvm.assume(i1 %11)
  br label %15

12:                                               ; preds = %4
  %13 = load i64, ptr %6, align 8, !tbaa !23
  %14 = add i64 %13, 1
  tail call void @_ZdlPvm(ptr noundef %5, i64 noundef %14) #39
  br label %15

15:                                               ; preds = %12, %8
  tail call void @_ZdlPvm(ptr noundef nonnull %2, i64 noundef 32) #39
  br label %16

16:                                               ; preds = %15, %1
  store ptr null, ptr %0, align 8, !tbaa !111
  ret void
}

; Function Attrs: mustprogress sspstrong uwtable
define void @_ZN5osgeo4proj6common8DateTime6createERKNSt7__cxx1112basic_stringIcSt11char_traitsIcESaIcEEE(ptr dead_on_unwind noalias writable writeonly sret(%"class.osgeo::proj::common::DateTime") align 8 captures(none) %0, ptr noundef nonnull readonly align 8 captures(none) dereferenceable(32) %1) local_unnamed_addr #0 align 2 personality ptr @__gxx_personality_v0 {
  %3 = alloca i64, align 8
  tail call void @llvm.experimental.noalias.scope.decl(metadata !119)
  %4 = tail call noalias noundef nonnull dereferenceable(32) ptr @_Znwm(i64 noundef 32) #38, !noalias !119
  %5 = getelementptr inbounds nuw i8, ptr %4, i64 16
  store ptr %5, ptr %4, align 8, !tbaa !48, !noalias !119
  %6 = load ptr, ptr %1, align 8, !tbaa !17, !noalias !119
  %7 = getelementptr inbounds nuw i8, ptr %1, i64 8
  %8 = load i64, ptr %7, align 8, !tbaa !22, !noalias !119
  %9 = icmp ult i64 %8, 9223372036854775807
  tail call void @llvm.assume(i1 %9)
  call void @llvm.lifetime.start.p0(ptr %3)
  store i64 %8, ptr %3, align 8, !tbaa !49, !noalias !119
  %10 = icmp samesign ugt i64 %8, 15
  br i1 %10, label %11, label %15

11:                                               ; preds = %2
  %12 = invoke noundef ptr @_ZNSt7__cxx1112basic_stringIcSt11char_traitsIcESaIcEE9_M_createERmm(ptr noundef nonnull align 8 dereferenceable(32) %4, ptr noundef nonnull align 8 dereferenceable(8) %3, i64 noundef 0)
          to label %13 unwind label %22, !noalias !119

13:                                               ; preds = %11
  store ptr %12, ptr %4, align 8, !tbaa !17, !noalias !119
  %14 = load i64, ptr %3, align 8, !tbaa !49, !noalias !119
  store i64 %14, ptr %5, align 8, !tbaa !23, !noalias !119
  br label %15

15:                                               ; preds = %13, %2
  %16 = phi i64 [ %14, %13 ], [ %8, %2 ]
  %17 = phi ptr [ %12, %13 ], [ %5, %2 ]
  switch i64 %16, label %20 [
    i64 0, label %18
    i64 -1, label %24
  ]

18:                                               ; preds = %15
  %19 = load i8, ptr %6, align 1, !tbaa !23, !noalias !119
  store i8 %19, ptr %17, align 1, !tbaa !23, !noalias !119
  br label %24

20:                                               ; preds = %15
  %21 = add nuw i64 %16, 1
  call void @llvm.memcpy.p0.p0.i64(ptr noundef nonnull align 1 dereferenceable(1) %17, ptr noundef nonnull align 1 dereferenceable(1) %6, i64 %21, i1 false), !noalias !119
  br label %24

22:                                               ; preds = %11
  %23 = landingpad { ptr, i32 }
          cleanup
  call void @_ZdlPvm(ptr noundef nonnull %4, i64 noundef 32) #39, !noalias !119
  resume { ptr, i32 } %23

24:                                               ; preds = %20, %18, %15
  %25 = load i64, ptr %3, align 8, !tbaa !49, !noalias !119
  %26 = getelementptr inbounds nuw i8, ptr %4, i64 8
  store i64 %25, ptr %26, align 8, !tbaa !22, !noalias !119
  call void @llvm.lifetime.end.p0(ptr %3)
  store ptr %4, ptr %0, align 8, !tbaa !111, !alias.scope !119
  ret void
}

; Function Attrs: mustprogress nounwind sspstrong uwtable
define noundef zeroext i1 @_ZNK5osgeo4proj6common8DateTime10isISO_8601Ev(ptr noundef nonnull readonly align 8 captures(none) dereferenceable(8) %0) local_unnamed_addr #3 align 2 {
  %2 = load ptr, ptr %0, align 8, !tbaa !111
  %3 = getelementptr inbounds nuw i8, ptr %2, i64 8
  %4 = load i64, ptr %3, align 8, !tbaa !22
  %5 = icmp eq i64 %4, 0
  br i1 %5, label %14, label %6

6:                                                ; preds = %1
  %7 = load ptr, ptr %2, align 8, !tbaa !17
  %8 = load i8, ptr %7, align 1, !tbaa !23
  %9 = add i8 %8, -48
  %10 = icmp ult i8 %9, 10
  br i1 %10, label %11, label %14

11:                                               ; preds = %6
  %12 = tail call noundef i64 @_ZNKSt7__cxx1112basic_stringIcSt11char_traitsIcESaIcEE4findEcm(ptr noundef nonnull align 8 dereferenceable(32) %2, i8 noundef signext 32, i64 noundef 0) #40
  %13 = icmp eq i64 %12, -1
  br label %14

14:                                               ; preds = %11, %6, %1
  %15 = phi i1 [ false, %6 ], [ false, %1 ], [ %13, %11 ]
  ret i1 %15
}

; Function Attrs: nounwind
declare noundef i64 @_ZNKSt7__cxx1112basic_stringIcSt11char_traitsIcESaIcEE4findEcm(ptr noundef nonnull align 8 dereferenceable(32), i8 noundef signext, i64 noundef) local_unnamed_addr #2

; Function Attrs: mustprogress sspstrong uwtable
define void @_ZNK5osgeo4proj6common8DateTime8toStringB5cxx11Ev(ptr dead_on_unwind noalias writable sret(%"class.std::__cxx11::basic_string") align 8 %0, ptr noundef nonnull readonly align 8 captures(none) dereferenceable(8) %1) local_unnamed_addr #0 align 2 personality ptr @__gxx_personality_v0 {
  %3 = alloca i64, align 8
  %4 = load ptr, ptr %1, align 8, !tbaa !111
  %5 = getelementptr inbounds nuw i8, ptr %0, i64 16
  store ptr %5, ptr %0, align 8, !tbaa !48
  %6 = load ptr, ptr %4, align 8, !tbaa !17
  %7 = getelementptr inbounds nuw i8, ptr %4, i64 8
  %8 = load i64, ptr %7, align 8, !tbaa !22
  %9 = icmp ult i64 %8, 9223372036854775807
  tail call void @llvm.assume(i1 %9)
  call void @llvm.lifetime.start.p0(ptr %3)
  store i64 %8, ptr %3, align 8, !tbaa !49
  %10 = icmp samesign ugt i64 %8, 15
  br i1 %10, label %11, label %14

11:                                               ; preds = %2
  %12 = call noundef ptr @_ZNSt7__cxx1112basic_stringIcSt11char_traitsIcESaIcEE9_M_createERmm(ptr noundef nonnull align 8 dereferenceable(32) %0, ptr noundef nonnull align 8 dereferenceable(8) %3, i64 noundef 0)
  store ptr %12, ptr %0, align 8, !tbaa !17
  %13 = load i64, ptr %3, align 8, !tbaa !49
  store i64 %13, ptr %5, align 8, !tbaa !23
  br label %14

14:                                               ; preds = %11, %2
  %15 = phi i64 [ %13, %11 ], [ %8, %2 ]
  %16 = phi ptr [ %12, %11 ], [ %5, %2 ]
  switch i64 %15, label %19 [
    i64 0, label %17
    i64 -1, label %21
  ]

17:                                               ; preds = %14
  %18 = load i8, ptr %6, align 1, !tbaa !23
  store i8 %18, ptr %16, align 1, !tbaa !23
  br label %21

19:                                               ; preds = %14
  %20 = add nuw i64 %15, 1
  call void @llvm.memcpy.p0.p0.i64(ptr noundef nonnull align 1 dereferenceable(1) %16, ptr noundef nonnull align 1 dereferenceable(1) %6, i64 %20, i1 false)
  br label %21

21:                                               ; preds = %19, %17, %14
  %22 = load i64, ptr %3, align 8, !tbaa !49
  %23 = getelementptr inbounds nuw i8, ptr %0, i64 8
  store i64 %22, ptr %23, align 8, !tbaa !22
  call void @llvm.lifetime.end.p0(ptr %3)
  ret void
}

; Function Attrs: mustprogress sspstrong uwtable
define void @_ZN5osgeo4proj6common16IdentifiedObjectC2Ev(ptr noundef nonnull align 8 dereferenceable(40) %0) unnamed_addr #0 align 2 personality ptr @__gxx_personality_v0 {
  tail call void @_ZN5osgeo4proj4util10BaseObjectC2Ev(ptr noundef nonnull align 8 dereferenceable(16) %0)
  %2 = getelementptr inbounds nuw i8, ptr %0, i64 16
  %3 = getelementptr inbounds nuw i8, ptr %0, i64 24
  store ptr getelementptr inbounds nuw inrange(-16, 32) (i8, ptr @_ZTVN5osgeo4proj6common16IdentifiedObjectE, i64 16), ptr %0, align 8, !tbaa !4
  store ptr getelementptr inbounds nuw inrange(-16, 24) (i8, ptr @_ZTVN5osgeo4proj6common16IdentifiedObjectE, i64 64), ptr %2, align 8, !tbaa !4
  store ptr getelementptr inbounds nuw inrange(-16, 24) (i8, ptr @_ZTVN5osgeo4proj6common16IdentifiedObjectE, i64 104), ptr %3, align 8, !tbaa !4
  %4 = getelementptr inbounds nuw i8, ptr %0, i64 32
  invoke void @_ZSt11make_uniqueIN5osgeo4proj6common16IdentifiedObject7PrivateEJEENSt8__detail9_MakeUniqIT_E15__single_objectEDpOT0_(ptr dead_on_unwind nonnull writable sret(%"class.std::unique_ptr.45") align 8 %4)
          to label %5 unwind label %6

5:                                                ; preds = %1
  ret void

6:                                                ; preds = %1
  %7 = landingpad { ptr, i32 }
          cleanup
  tail call void @_ZN5osgeo4proj2io14IWKTExportableD2Ev(ptr noundef nonnull align 8 dereferenceable(8) %3) #40
  tail call void @_ZN5osgeo4proj4util11IComparableD2Ev(ptr noundef nonnull align 8 dereferenceable(8) %2) #40
  tail call void @_ZN5osgeo4proj4util10BaseObjectD2Ev(ptr noundef nonnull align 8 dereferenceable(16) %0) #40
  resume { ptr, i32 } %7
}

; Function Attrs: inlinehint mustprogress sspstrong uwtable
define linkonce_odr hidden void @_ZSt11make_uniqueIN5osgeo4proj6common16IdentifiedObject7PrivateEJEENSt8__detail9_MakeUniqIT_E15__single_objectEDpOT0_(ptr dead_on_unwind noalias writable sret(%"class.std::unique_ptr.45") align 8 %0) local_unnamed_addr #14 comdat personality ptr @__gxx_personality_v0 {
  %2 = alloca %"class.std::__cxx11::basic_string", align 8
  %3 = alloca %"class.osgeo::proj::util::PropertyMap", align 8
  %4 = tail call noalias noundef nonnull dereferenceable(104) ptr @_Znwm(i64 noundef 104) #38
  tail call void @llvm.memset.p0.i64(ptr noundef nonnull align 16 dereferenceable(104) %4, i8 0, i64 104, i1 false)
  call void @llvm.lifetime.start.p0(ptr %2)
  %5 = getelementptr inbounds nuw i8, ptr %2, i64 16
  store ptr %5, ptr %2, align 8, !tbaa !48
  %6 = getelementptr inbounds nuw i8, ptr %2, i64 8
  store i64 0, ptr %6, align 8, !tbaa !22
  store i8 0, ptr %5, align 8, !tbaa !23
  call void @llvm.lifetime.start.p0(ptr %3)
  invoke void @_ZN5osgeo4proj4util11PropertyMapC1Ev(ptr noundef nonnull align 8 dereferenceable(8) %3)
          to label %7 unwind label %17

7:                                                ; preds = %1
  invoke void @_ZN5osgeo4proj8metadata10Identifier6createERKNSt7__cxx1112basic_stringIcSt11char_traitsIcESaIcEEERKNS0_4util11PropertyMapE(ptr dead_on_unwind nonnull writable sret(%"class.dropbox::oxygen::nn.53") align 8 dereferenceable(97) %4, ptr noundef nonnull align 8 dereferenceable(32) %2, ptr noundef nonnull align 8 dereferenceable(8) %3)
          to label %8 unwind label %19

8:                                                ; preds = %7
  call void @_ZN5osgeo4proj4util11PropertyMapD1Ev(ptr noundef nonnull align 8 dereferenceable(8) %3) #40
  call void @llvm.lifetime.end.p0(ptr %3)
  %9 = load ptr, ptr %2, align 8, !tbaa !17
  %10 = icmp eq ptr %9, %5
  br i1 %10, label %11, label %14

11:                                               ; preds = %8
  %12 = load i64, ptr %6, align 8, !tbaa !22
  %13 = icmp ult i64 %12, 16
  call void @llvm.assume(i1 %13)
  br label %32

14:                                               ; preds = %8
  %15 = load i64, ptr %5, align 8, !tbaa !23
  %16 = add i64 %15, 1
  call void @_ZdlPvm(ptr noundef %9, i64 noundef %16) #39
  br label %32

17:                                               ; preds = %1
  %18 = landingpad { ptr, i32 }
          cleanup
  br label %21

19:                                               ; preds = %7
  %20 = landingpad { ptr, i32 }
          cleanup
  call void @_ZN5osgeo4proj4util11PropertyMapD1Ev(ptr noundef nonnull align 8 dereferenceable(8) %3) #40
  br label %21

21:                                               ; preds = %19, %17
  %22 = phi { ptr, i32 } [ %20, %19 ], [ %18, %17 ]
  call void @llvm.lifetime.end.p0(ptr %3)
  %23 = load ptr, ptr %2, align 8, !tbaa !17
  %24 = icmp eq ptr %23, %5
  br i1 %24, label %25, label %28

25:                                               ; preds = %21
  %26 = load i64, ptr %6, align 8, !tbaa !22
  %27 = icmp ult i64 %26, 16
  call void @llvm.assume(i1 %27)
  br label %31

28:                                               ; preds = %21
  %29 = load i64, ptr %5, align 8, !tbaa !23
  %30 = add i64 %29, 1
  call void @_ZdlPvm(ptr noundef %23, i64 noundef %30) #39
  br label %31

31:                                               ; preds = %28, %25
  call void @llvm.lifetime.end.p0(ptr %2)
  call void @_ZdlPvm(ptr noundef nonnull %4, i64 noundef 104) #39
  resume { ptr, i32 } %22

32:                                               ; preds = %14, %11
  call void @llvm.lifetime.end.p0(ptr %2)
  %33 = getelementptr inbounds nuw i8, ptr %4, i64 16
  %34 = getelementptr inbounds nuw i8, ptr %4, i64 64
  %35 = getelementptr inbounds nuw i8, ptr %4, i64 80
  call void @llvm.memset.p0.i64(ptr noundef nonnull align 8 dereferenceable(48) %33, i8 0, i64 48, i1 false)
  store ptr %35, ptr %34, align 8, !tbaa !48
  %36 = getelementptr inbounds nuw i8, ptr %4, i64 72
  store i64 0, ptr %36, align 8, !tbaa !22
  store i8 0, ptr %35, align 1, !tbaa !23
  %37 = getelementptr inbounds nuw i8, ptr %4, i64 96
  store i8 0, ptr %37, align 8, !tbaa !122
  store ptr %4, ptr %0, align 8, !tbaa !139
  ret void
}

; Function Attrs: nounwind
declare void @_ZN5osgeo4proj2io14IWKTExportableD2Ev(ptr noundef nonnull align 8 dereferenceable(8)) unnamed_addr #2

; Function Attrs: nounwind
declare void @_ZN5osgeo4proj4util11IComparableD2Ev(ptr noundef nonnull align 8 dereferenceable(8)) unnamed_addr #2

; Function Attrs: mustprogress sspstrong uwtable
define void @_ZN5osgeo4proj6common16IdentifiedObjectC2ERKS2_(ptr noundef nonnull align 8 dereferenceable(40) %0, ptr noundef nonnull readonly align 8 captures(none) dereferenceable(40) %1) unnamed_addr #0 align 2 personality ptr @__gxx_personality_v0 {
  tail call void @_ZN5osgeo4proj4util10BaseObjectC2Ev(ptr noundef nonnull align 8 dereferenceable(16) %0)
  %3 = getelementptr inbounds nuw i8, ptr %0, i64 16
  %4 = getelementptr inbounds nuw i8, ptr %0, i64 24
  store ptr getelementptr inbounds nuw inrange(-16, 32) (i8, ptr @_ZTVN5osgeo4proj6common16IdentifiedObjectE, i64 16), ptr %0, align 8, !tbaa !4
  store ptr getelementptr inbounds nuw inrange(-16, 24) (i8, ptr @_ZTVN5osgeo4proj6common16IdentifiedObjectE, i64 64), ptr %3, align 8, !tbaa !4
  store ptr getelementptr inbounds nuw inrange(-16, 24) (i8, ptr @_ZTVN5osgeo4proj6common16IdentifiedObjectE, i64 104), ptr %4, align 8, !tbaa !4
  %5 = getelementptr inbounds nuw i8, ptr %1, i64 32
  %6 = load ptr, ptr %5, align 8, !tbaa !139
  tail call void @llvm.experimental.noalias.scope.decl(metadata !141)
  %7 = invoke noalias noundef nonnull dereferenceable(104) ptr @_Znwm(i64 noundef 104) #38
          to label %8 unwind label %13

8:                                                ; preds = %2
  invoke void @_ZN5osgeo4proj6common16IdentifiedObject7PrivateC2ERKS3_(ptr noundef nonnull align 8 dereferenceable(97) %7, ptr noundef nonnull align 8 dereferenceable(97) %6)
          to label %11 unwind label %9, !noalias !141

9:                                                ; preds = %8
  %10 = landingpad { ptr, i32 }
          cleanup
  tail call void @_ZdlPvm(ptr noundef nonnull %7, i64 noundef 104) #39, !noalias !141
  br label %15

11:                                               ; preds = %8
  %12 = getelementptr inbounds nuw i8, ptr %0, i64 32
  store ptr %7, ptr %12, align 8, !tbaa !139, !alias.scope !141
  ret void

13:                                               ; preds = %2
  %14 = landingpad { ptr, i32 }
          cleanup
  br label %15

15:                                               ; preds = %13, %9
  %16 = phi { ptr, i32 } [ %14, %13 ], [ %10, %9 ]
  tail call void @_ZN5osgeo4proj2io14IWKTExportableD2Ev(ptr noundef nonnull align 8 dereferenceable(8) %4) #40
  tail call void @_ZN5osgeo4proj4util11IComparableD2Ev(ptr noundef nonnull align 8 dereferenceable(8) %3) #40
  tail call void @_ZN5osgeo4proj4util10BaseObjectD2Ev(ptr noundef nonnull align 8 dereferenceable(16) %0) #40
  resume { ptr, i32 } %16
}

; Function Attrs: mustprogress nounwind sspstrong uwtable
define void @_ZN5osgeo4proj6common16IdentifiedObjectD2Ev(ptr noundef nonnull align 8 dereferenceable(40) initializes((0, 8), (16, 32)) %0) unnamed_addr #3 align 2 personality ptr @__gxx_personality_v0 {
  store ptr getelementptr inbounds nuw inrange(-16, 32) (i8, ptr @_ZTVN5osgeo4proj6common16IdentifiedObjectE, i64 16), ptr %0, align 8, !tbaa !4
  %2 = getelementptr inbounds nuw i8, ptr %0, i64 16
  store ptr getelementptr inbounds nuw inrange(-16, 24) (i8, ptr @_ZTVN5osgeo4proj6common16IdentifiedObjectE, i64 64), ptr %2, align 8, !tbaa !4
  %3 = getelementptr inbounds nuw i8, ptr %0, i64 24
  store ptr getelementptr inbounds nuw inrange(-16, 24) (i8, ptr @_ZTVN5osgeo4proj6common16IdentifiedObjectE, i64 104), ptr %3, align 8, !tbaa !4
  %4 = getelementptr inbounds nuw i8, ptr %0, i64 32
  %5 = load ptr, ptr %4, align 8, !tbaa !139
  %6 = icmp eq ptr %5, null
  br i1 %6, label %8, label %7

7:                                                ; preds = %1
  tail call void @_ZN5osgeo4proj6common16IdentifiedObject7PrivateD2Ev(ptr noundef nonnull align 8 dereferenceable(97) %5) #40
  tail call void @_ZdlPvm(ptr noundef nonnull %5, i64 noundef 104) #39
  br label %8

8:                                                ; preds = %7, %1
  store ptr null, ptr %4, align 8, !tbaa !139
  tail call void @_ZN5osgeo4proj2io14IWKTExportableD2Ev(ptr noundef nonnull align 8 dereferenceable(8) %3) #40
  tail call void @_ZN5osgeo4proj4util11IComparableD2Ev(ptr noundef nonnull align 8 dereferenceable(8) %2) #40
  tail call void @_ZN5osgeo4proj4util10BaseObjectD2Ev(ptr noundef nonnull align 8 dereferenceable(16) %0) #40
  ret void
}

; Function Attrs: nounwind sspstrong uwtable
define void @_ZThn16_N5osgeo4proj6common16IdentifiedObjectD1Ev(ptr noundef %0) unnamed_addr #15 align 2 {
  %2 = getelementptr inbounds i8, ptr %0, i64 -16
  tail call void @_ZN5osgeo4proj6common16IdentifiedObjectD1Ev(ptr noundef nonnull align 8 dereferenceable(40) %2) #40
  ret void
}

; Function Attrs: nounwind sspstrong uwtable
define void @_ZThn24_N5osgeo4proj6common16IdentifiedObjectD1Ev(ptr noundef %0) unnamed_addr #15 align 2 {
  %2 = getelementptr inbounds i8, ptr %0, i64 -24
  tail call void @_ZN5osgeo4proj6common16IdentifiedObjectD1Ev(ptr noundef nonnull align 8 dereferenceable(40) %2) #40
  ret void
}

; Function Attrs: cold mustprogress noreturn nounwind sspstrong memory(inaccessiblemem: write) uwtable
define void @_ZN5osgeo4proj6common16IdentifiedObjectD0Ev(ptr nonnull readnone align 8 captures(none) %0) unnamed_addr #16 align 2 {
  tail call void @llvm.trap() #42
  unreachable
}

; Function Attrs: cold noreturn nounwind memory(inaccessiblemem: write)
declare void @llvm.trap() #17

; Function Attrs: cold noreturn nounwind sspstrong memory(inaccessiblemem: write) uwtable
define void @_ZThn16_N5osgeo4proj6common16IdentifiedObjectD0Ev(ptr readnone captures(none) %0) unnamed_addr #18 align 2 {
  tail call void @llvm.trap() #42
  unreachable
}

; Function Attrs: cold noreturn nounwind sspstrong memory(inaccessiblemem: write) uwtable
define void @_ZThn24_N5osgeo4proj6common16IdentifiedObjectD0Ev(ptr readnone captures(none) %0) unnamed_addr #18 align 2 {
  tail call void @llvm.trap() #42
  unreachable
}

; Function Attrs: mustprogress nofree norecurse nosync nounwind sspstrong willreturn memory(argmem: read) uwtable
define noundef nonnull align 8 dereferenceable(16) ptr @_ZNK5osgeo4proj6common16IdentifiedObject4nameEv(ptr noundef nonnull readonly align 8 captures(none) dereferenceable(40) %0) local_unnamed_addr #6 align 2 {
  %2 = getelementptr inbounds nuw i8, ptr %0, i64 32
  %3 = load ptr, ptr %2, align 8, !tbaa !139
  ret ptr %3
}

; Function Attrs: mustprogress nofree nounwind sspstrong willreturn memory(read) uwtable
define noundef nonnull align 8 dereferenceable(32) ptr @_ZNK5osgeo4proj6common16IdentifiedObject7nameStrB5cxx11Ev(ptr noundef nonnull readonly align 8 captures(none) dereferenceable(40) %0) local_unnamed_addr #19 align 2 personality ptr @__gxx_personality_v0 {
  %2 = getelementptr inbounds nuw i8, ptr %0, i64 32
  %3 = load ptr, ptr %2, align 8, !tbaa !139
  %4 = load ptr, ptr %3, align 8, !tbaa !144
  %5 = tail call noundef nonnull align 8 dereferenceable(40) ptr @_ZNK5osgeo4proj8metadata10Identifier11descriptionB5cxx11Ev(ptr noundef nonnull align 8 dereferenceable(40) %4) #43
  %6 = getelementptr inbounds nuw i8, ptr %5, i64 8
  ret ptr %6
}

; Function Attrs: mustprogress nofree nounwind willreturn memory(read)
declare noundef nonnull align 8 dereferenceable(40) ptr @_ZNK5osgeo4proj8metadata10Identifier11descriptionB5cxx11Ev(ptr noundef nonnull align 8 dereferenceable(40)) local_unnamed_addr #20

; Function Attrs: mustprogress nofree norecurse nosync nounwind sspstrong willreturn memory(argmem: read) uwtable
define noundef nonnull align 8 dereferenceable(24) ptr @_ZNK5osgeo4proj6common16IdentifiedObject11identifiersEv(ptr noundef nonnull readonly align 8 captures(none) dereferenceable(40) %0) local_unnamed_addr #6 align 2 {
  %2 = getelementptr inbounds nuw i8, ptr %0, i64 32
  %3 = load ptr, ptr %2, align 8, !tbaa !139
  %4 = getelementptr inbounds nuw i8, ptr %3, i64 16
  ret ptr %4
}

; Function Attrs: mustprogress nofree norecurse nosync nounwind sspstrong willreturn memory(argmem: read) uwtable
define noundef nonnull align 8 dereferenceable(24) ptr @_ZNK5osgeo4proj6common16IdentifiedObject7aliasesEv(ptr noundef nonnull readonly align 8 captures(none) dereferenceable(40) %0) local_unnamed_addr #6 align 2 {
  %2 = getelementptr inbounds nuw i8, ptr %0, i64 32
  %3 = load ptr, ptr %2, align 8, !tbaa !139
  %4 = getelementptr inbounds nuw i8, ptr %3, i64 40
  ret ptr %4
}

; Function Attrs: mustprogress nounwind sspstrong willreturn memory(read, argmem: readwrite) uwtable
define void @_ZNK5osgeo4proj6common16IdentifiedObject5aliasB5cxx11Ev(ptr dead_on_unwind noalias writable sret(%"class.std::__cxx11::basic_string") align 8 %0, ptr noundef nonnull readonly align 8 captures(none) dereferenceable(40) %1) local_unnamed_addr #21 align 2 personality ptr @__gxx_personality_v0 {
  %3 = alloca %"class.dropbox::oxygen::nn.75", align 8
  %4 = getelementptr inbounds nuw i8, ptr %1, i64 32
  %5 = load ptr, ptr %4, align 8, !tbaa !139
  %6 = getelementptr inbounds nuw i8, ptr %5, i64 40
  %7 = load ptr, ptr %6, align 8, !tbaa !145
  %8 = getelementptr inbounds nuw i8, ptr %5, i64 48
  %9 = load ptr, ptr %8, align 8, !tbaa !145
  %10 = icmp eq ptr %7, %9
  br i1 %10, label %11, label %14

11:                                               ; preds = %2
  %12 = getelementptr inbounds nuw i8, ptr %0, i64 16
  store ptr %12, ptr %0, align 8, !tbaa !48
  %13 = getelementptr inbounds nuw i8, ptr %0, i64 8
  store i64 0, ptr %13, align 8, !tbaa !22
  store i8 0, ptr %12, align 8, !tbaa !23
  br label %53

14:                                               ; preds = %2
  call void @llvm.lifetime.start.p0(ptr %3)
  %15 = load ptr, ptr %7, align 8, !tbaa !146
  %16 = load ptr, ptr %15, align 8, !tbaa !4
  %17 = getelementptr inbounds nuw i8, ptr %16, i64 32
  %18 = load ptr, ptr %17, align 8
  invoke void %18(ptr dead_on_unwind nonnull writable sret(%"class.dropbox::oxygen::nn.75") align 8 %3, ptr noundef nonnull align 8 dereferenceable(24) %15)
          to label %19 unwind label %54

19:                                               ; preds = %14
  %20 = load ptr, ptr %3, align 8, !tbaa !146
  %21 = load ptr, ptr %20, align 8, !tbaa !4
  %22 = getelementptr inbounds nuw i8, ptr %21, i64 24
  %23 = load ptr, ptr %22, align 8
  invoke void %23(ptr dead_on_unwind writable sret(%"class.std::__cxx11::basic_string") align 8 %0, ptr noundef nonnull align 8 dereferenceable(24) %20)
          to label %24 unwind label %54

24:                                               ; preds = %19
  %25 = getelementptr inbounds nuw i8, ptr %3, i64 8
  %26 = load ptr, ptr %25, align 8, !tbaa !40
  %27 = icmp eq ptr %26, null
  br i1 %27, label %52, label %28

28:                                               ; preds = %24
  %29 = getelementptr inbounds nuw i8, ptr %26, i64 8
  %30 = load atomic i64, ptr %29 acquire, align 8
  %31 = icmp eq i64 %30, 4294967297
  %32 = trunc i64 %30 to i32
  br i1 %31, label %33, label %41

33:                                               ; preds = %28
  store i32 0, ptr %29, align 8, !tbaa !31
  %34 = getelementptr inbounds nuw i8, ptr %26, i64 12
  store i32 0, ptr %34, align 4, !tbaa !34
  %35 = load ptr, ptr %26, align 8, !tbaa !4
  %36 = getelementptr inbounds nuw i8, ptr %35, i64 16
  %37 = load ptr, ptr %36, align 8
  call void %37(ptr noundef nonnull align 8 dereferenceable(16) %26) #40
  %38 = load ptr, ptr %26, align 8, !tbaa !4
  %39 = getelementptr inbounds nuw i8, ptr %38, i64 24
  %40 = load ptr, ptr %39, align 8
  call void %40(ptr noundef nonnull align 8 dereferenceable(16) %26) #40
  br label %52

41:                                               ; preds = %28
  %42 = load i8, ptr @__libc_single_threaded, align 1, !tbaa !23
  %43 = icmp eq i8 %42, 0
  br i1 %43, label %46, label %44

44:                                               ; preds = %41
  %45 = add nsw i32 %32, -1
  store i32 %45, ptr %29, align 4, !tbaa !46
  br label %48

46:                                               ; preds = %41
  %47 = atomicrmw volatile add ptr %29, i32 -1 acq_rel, align 4
  br label %48

48:                                               ; preds = %46, %44
  %49 = phi i32 [ %32, %44 ], [ %47, %46 ]
  %50 = icmp eq i32 %49, 1
  br i1 %50, label %51, label %52, !prof !24

51:                                               ; preds = %48
  call void @_ZNSt16_Sp_counted_baseILN9__gnu_cxx12_Lock_policyE2EE24_M_release_last_use_coldEv(ptr noundef nonnull align 8 dereferenceable(16) %26) #40
  br label %52

52:                                               ; preds = %51, %48, %33, %24
  call void @llvm.lifetime.end.p0(ptr %3)
  br label %53

53:                                               ; preds = %52, %11
  ret void

54:                                               ; preds = %19, %14
  %55 = landingpad { ptr, i32 }
          catch ptr null
  %56 = extractvalue { ptr, i32 } %55, 0
  call void @__clang_call_terminate(ptr %56) #42
  unreachable
}

; Function Attrs: inlinehint mustprogress nounwind sspstrong uwtable
define linkonce_odr hidden void @_ZN7dropbox6oxygen2nnISt10shared_ptrIN5osgeo4proj4util11GenericNameEEED2Ev(ptr noundef nonnull align 8 dereferenceable(16) %0) unnamed_addr #5 comdat align 2 personality ptr @__gxx_personality_v0 {
  %2 = getelementptr inbounds nuw i8, ptr %0, i64 8
  %3 = load ptr, ptr %2, align 8, !tbaa !40
  %4 = icmp eq ptr %3, null
  br i1 %4, label %29, label %5

5:                                                ; preds = %1
  %6 = getelementptr inbounds nuw i8, ptr %3, i64 8
  %7 = load atomic i64, ptr %6 acquire, align 8
  %8 = icmp eq i64 %7, 4294967297
  %9 = trunc i64 %7 to i32
  br i1 %8, label %10, label %18

10:                                               ; preds = %5
  store i32 0, ptr %6, align 8, !tbaa !31
  %11 = getelementptr inbounds nuw i8, ptr %3, i64 12
  store i32 0, ptr %11, align 4, !tbaa !34
  %12 = load ptr, ptr %3, align 8, !tbaa !4
  %13 = getelementptr inbounds nuw i8, ptr %12, i64 16
  %14 = load ptr, ptr %13, align 8
  tail call void %14(ptr noundef nonnull align 8 dereferenceable(16) %3) #40
  %15 = load ptr, ptr %3, align 8, !tbaa !4
  %16 = getelementptr inbounds nuw i8, ptr %15, i64 24
  %17 = load ptr, ptr %16, align 8
  tail call void %17(ptr noundef nonnull align 8 dereferenceable(16) %3) #40
  br label %29

18:                                               ; preds = %5
  %19 = load i8, ptr @__libc_single_threaded, align 1, !tbaa !23
  %20 = icmp eq i8 %19, 0
  br i1 %20, label %23, label %21

21:                                               ; preds = %18
  %22 = add nsw i32 %9, -1
  store i32 %22, ptr %6, align 4, !tbaa !46
  br label %25

23:                                               ; preds = %18
  %24 = atomicrmw volatile add ptr %6, i32 -1 acq_rel, align 4
  br label %25

25:                                               ; preds = %23, %21
  %26 = phi i32 [ %9, %21 ], [ %24, %23 ]
  %27 = icmp eq i32 %26, 1
  br i1 %27, label %28, label %29, !prof !24

28:                                               ; preds = %25
  tail call void @_ZNSt16_Sp_counted_baseILN9__gnu_cxx12_Lock_policyE2EE24_M_release_last_use_coldEv(ptr noundef nonnull align 8 dereferenceable(16) %3) #40
  br label %29

29:                                               ; preds = %28, %25, %10, %1
  ret void
}

; Function Attrs: mustprogress nofree nounwind sspstrong willreturn memory(read) uwtable
define noundef i32 @_ZNK5osgeo4proj6common16IdentifiedObject11getEPSGCodeEv(ptr noundef nonnull readonly align 8 captures(none) dereferenceable(40) %0) local_unnamed_addr #19 align 2 personality ptr @__gxx_personality_v0 {
  %2 = getelementptr inbounds nuw i8, ptr %0, i64 32
  %3 = load ptr, ptr %2, align 8, !tbaa !139
  %4 = getelementptr inbounds nuw i8, ptr %3, i64 16
  %5 = load ptr, ptr %4, align 8, !tbaa !149
  %6 = getelementptr inbounds nuw i8, ptr %3, i64 24
  %7 = load ptr, ptr %6, align 8, !tbaa !149
  %8 = icmp eq ptr %5, %7
  br i1 %8, label %24, label %9

9:                                                ; preds = %21, %1
  %10 = phi ptr [ %22, %21 ], [ %5, %1 ]
  %11 = load ptr, ptr %10, align 8, !tbaa !144
  %12 = tail call noundef nonnull align 8 dereferenceable(40) ptr @_ZNK5osgeo4proj8metadata10Identifier9codeSpaceB5cxx11Ev(ptr noundef nonnull align 8 dereferenceable(40) %11) #43
  %13 = getelementptr inbounds nuw i8, ptr %12, i64 8
  %14 = tail call noundef zeroext i1 @_ZN5osgeo4proj8internal8ci_equalERKNSt7__cxx1112basic_stringIcSt11char_traitsIcESaIcEEES9_(ptr noundef nonnull align 8 dereferenceable(32) %13, ptr noundef nonnull align 8 dereferenceable(32) @_ZN5osgeo4proj8metadata10Identifier4EPSGB5cxx11E) #40
  br i1 %14, label %15, label %21

15:                                               ; preds = %9
  %16 = load ptr, ptr %10, align 8, !tbaa !144
  %17 = tail call noundef nonnull align 8 dereferenceable(32) ptr @_ZNK5osgeo4proj8metadata10Identifier4codeB5cxx11Ev(ptr noundef nonnull align 8 dereferenceable(40) %16) #43
  %18 = load ptr, ptr %17, align 8, !tbaa !17
  %19 = tail call i64 @__isoc23_strtol(ptr noundef nonnull %18, ptr noundef null, i32 noundef 10) #40
  %20 = trunc i64 %19 to i32
  br label %24

21:                                               ; preds = %9
  %22 = getelementptr inbounds nuw i8, ptr %10, i64 16
  %23 = icmp eq ptr %22, %7
  br i1 %23, label %24, label %9

24:                                               ; preds = %21, %15, %1
  %25 = phi i32 [ %20, %15 ], [ 0, %1 ], [ 0, %21 ]
  ret i32 %25
}

; Function Attrs: nounwind
declare noundef zeroext i1 @_ZN5osgeo4proj8internal8ci_equalERKNSt7__cxx1112basic_stringIcSt11char_traitsIcESaIcEEES9_(ptr noundef nonnull align 8 dereferenceable(32), ptr noundef nonnull align 8 dereferenceable(32)) local_unnamed_addr #2

; Function Attrs: mustprogress nofree nounwind willreturn memory(read)
declare noundef nonnull align 8 dereferenceable(40) ptr @_ZNK5osgeo4proj8metadata10Identifier9codeSpaceB5cxx11Ev(ptr noundef nonnull align 8 dereferenceable(40)) local_unnamed_addr #20

; Function Attrs: mustprogress nofree nounwind willreturn memory(read)
declare noundef nonnull align 8 dereferenceable(32) ptr @_ZNK5osgeo4proj8metadata10Identifier4codeB5cxx11Ev(ptr noundef nonnull align 8 dereferenceable(40)) local_unnamed_addr #20

; Function Attrs: mustprogress nofree norecurse nosync nounwind sspstrong willreturn memory(argmem: read) uwtable
define noundef nonnull align 8 dereferenceable(32) ptr @_ZNK5osgeo4proj6common16IdentifiedObject7remarksB5cxx11Ev(ptr noundef nonnull readonly align 8 captures(none) dereferenceable(40) %0) local_unnamed_addr #6 align 2 {
  %2 = getelementptr inbounds nuw i8, ptr %0, i64 32
  %3 = load ptr, ptr %2, align 8, !tbaa !139
  %4 = getelementptr inbounds nuw i8, ptr %3, i64 64
  ret ptr %4
}

; Function Attrs: mustprogress nofree norecurse nosync nounwind sspstrong willreturn memory(read, inaccessiblemem: none) uwtable
define noundef zeroext i1 @_ZNK5osgeo4proj6common16IdentifiedObject12isDeprecatedEv(ptr noundef nonnull readonly align 8 captures(none) dereferenceable(40) %0) local_unnamed_addr #7 align 2 {
  %2 = getelementptr inbounds nuw i8, ptr %0, i64 32
  %3 = load ptr, ptr %2, align 8, !tbaa !139
  %4 = getelementptr inbounds nuw i8, ptr %3, i64 96
  %5 = load i8, ptr %4, align 8, !tbaa !122, !range !150, !noundef !151
  %6 = trunc nuw i8 %5 to i1
  ret i1 %6
}

; Function Attrs: mustprogress sspstrong uwtable
define hidden void @_ZN5osgeo4proj6common16IdentifiedObject7Private7setNameERKNS0_4util11PropertyMapE(ptr noundef nonnull align 8 captures(none) dereferenceable(97) %0, ptr noundef nonnull align 8 dereferenceable(8) %1) local_unnamed_addr #0 align 2 personality ptr @__gxx_personality_v0 {
  %3 = alloca %"class.dropbox::oxygen::nn.53", align 8
  %4 = alloca %"class.std::__cxx11::basic_string", align 8
  %5 = alloca %"class.std::shared_ptr.54", align 8
  %6 = alloca %"class.std::__cxx11::basic_string", align 8
  %7 = tail call noundef ptr @_ZNK5osgeo4proj4util11PropertyMap3getERKNSt7__cxx1112basic_stringIcSt11char_traitsIcESaIcEEE(ptr noundef nonnull align 8 dereferenceable(8) %1, ptr noundef nonnull align 8 dereferenceable(32) @_ZN5osgeo4proj6common16IdentifiedObject8NAME_KEYB5cxx11E)
  %8 = icmp eq ptr %7, null
  br i1 %8, label %214, label %9

9:                                                ; preds = %2
  %10 = load ptr, ptr %7, align 8, !tbaa !152
  %11 = icmp eq ptr %10, null
  br i1 %11, label %12, label %13

12:                                               ; preds = %9
  call void @llvm.lifetime.start.p0(ptr %5)
  br label %104

13:                                               ; preds = %9
  %14 = load ptr, ptr %10, align 8, !tbaa !4
  %15 = icmp eq ptr %14, getelementptr inbounds nuw inrange(-16, 16) (i8, ptr @_ZTVN5osgeo4proj4util10BoxedValueE, i64 16)
  br i1 %15, label %16, label %101

16:                                               ; preds = %13
  %17 = tail call noundef nonnull align 4 dereferenceable(4) ptr @_ZNK5osgeo4proj4util10BoxedValue4typeEv(ptr noundef nonnull align 8 dereferenceable(24) %10)
  %18 = load i32, ptr %17, align 4, !tbaa !155
  %19 = icmp eq i32 %18, 0
  br i1 %19, label %20, label %80

20:                                               ; preds = %16
  call void @llvm.lifetime.start.p0(ptr %3)
  %21 = tail call noundef nonnull align 8 dereferenceable(32) ptr @_ZNK5osgeo4proj4util10BoxedValue11stringValueB5cxx11Ev(ptr noundef nonnull align 8 dereferenceable(24) %10)
  call void @_ZN5osgeo4proj8metadata10Identifier21createFromDescriptionERKNSt7__cxx1112basic_stringIcSt11char_traitsIcESaIcEEE(ptr dead_on_unwind nonnull writable sret(%"class.dropbox::oxygen::nn.53") align 8 %3, ptr noundef nonnull align 8 dereferenceable(32) %21)
  %22 = load ptr, ptr %3, align 8, !tbaa !144
  %23 = getelementptr inbounds nuw i8, ptr %3, i64 8
  %24 = load ptr, ptr %23, align 8, !tbaa !40
  call void @llvm.memset.p0.i64(ptr noundef nonnull align 8 dereferenceable(16) %3, i8 0, i64 16, i1 false)
  store ptr %22, ptr %0, align 8, !tbaa !157
  %25 = getelementptr inbounds nuw i8, ptr %0, i64 8
  %26 = load ptr, ptr %25, align 8, !tbaa !40
  store ptr %24, ptr %25, align 8, !tbaa !40
  %27 = icmp eq ptr %26, null
  br i1 %27, label %52, label %28

28:                                               ; preds = %20
  %29 = getelementptr inbounds nuw i8, ptr %26, i64 8
  %30 = load atomic i64, ptr %29 acquire, align 8
  %31 = icmp eq i64 %30, 4294967297
  %32 = trunc i64 %30 to i32
  br i1 %31, label %33, label %41

33:                                               ; preds = %28
  store i32 0, ptr %29, align 8, !tbaa !31
  %34 = getelementptr inbounds nuw i8, ptr %26, i64 12
  store i32 0, ptr %34, align 4, !tbaa !34
  %35 = load ptr, ptr %26, align 8, !tbaa !4
  %36 = getelementptr inbounds nuw i8, ptr %35, i64 16
  %37 = load ptr, ptr %36, align 8
  call void %37(ptr noundef nonnull align 8 dereferenceable(16) %26) #40
  %38 = load ptr, ptr %26, align 8, !tbaa !4
  %39 = getelementptr inbounds nuw i8, ptr %38, i64 24
  %40 = load ptr, ptr %39, align 8
  call void %40(ptr noundef nonnull align 8 dereferenceable(16) %26) #40
  br label %52

41:                                               ; preds = %28
  %42 = load i8, ptr @__libc_single_threaded, align 1, !tbaa !23
  %43 = icmp eq i8 %42, 0
  br i1 %43, label %46, label %44

44:                                               ; preds = %41
  %45 = add nsw i32 %32, -1
  store i32 %45, ptr %29, align 4, !tbaa !46
  br label %48

46:                                               ; preds = %41
  %47 = atomicrmw volatile add ptr %29, i32 -1 acq_rel, align 4
  br label %48

48:                                               ; preds = %46, %44
  %49 = phi i32 [ %32, %44 ], [ %47, %46 ]
  %50 = icmp eq i32 %49, 1
  br i1 %50, label %51, label %52, !prof !24

51:                                               ; preds = %48
  call void @_ZNSt16_Sp_counted_baseILN9__gnu_cxx12_Lock_policyE2EE24_M_release_last_use_coldEv(ptr noundef nonnull align 8 dereferenceable(16) %26) #40
  br label %52

52:                                               ; preds = %51, %48, %33, %20
  %53 = load ptr, ptr %23, align 8, !tbaa !40
  %54 = icmp eq ptr %53, null
  br i1 %54, label %79, label %55

55:                                               ; preds = %52
  %56 = getelementptr inbounds nuw i8, ptr %53, i64 8
  %57 = load atomic i64, ptr %56 acquire, align 8
  %58 = icmp eq i64 %57, 4294967297
  %59 = trunc i64 %57 to i32
  br i1 %58, label %60, label %68

60:                                               ; preds = %55
  store i32 0, ptr %56, align 8, !tbaa !31
  %61 = getelementptr inbounds nuw i8, ptr %53, i64 12
  store i32 0, ptr %61, align 4, !tbaa !34
  %62 = load ptr, ptr %53, align 8, !tbaa !4
  %63 = getelementptr inbounds nuw i8, ptr %62, i64 16
  %64 = load ptr, ptr %63, align 8
  call void %64(ptr noundef nonnull align 8 dereferenceable(16) %53) #40
  %65 = load ptr, ptr %53, align 8, !tbaa !4
  %66 = getelementptr inbounds nuw i8, ptr %65, i64 24
  %67 = load ptr, ptr %66, align 8
  call void %67(ptr noundef nonnull align 8 dereferenceable(16) %53) #40
  br label %79

68:                                               ; preds = %55
  %69 = load i8, ptr @__libc_single_threaded, align 1, !tbaa !23
  %70 = icmp eq i8 %69, 0
  br i1 %70, label %73, label %71

71:                                               ; preds = %68
  %72 = add nsw i32 %59, -1
  store i32 %72, ptr %56, align 4, !tbaa !46
  br label %75

73:                                               ; preds = %68
  %74 = atomicrmw volatile add ptr %56, i32 -1 acq_rel, align 4
  br label %75

75:                                               ; preds = %73, %71
  %76 = phi i32 [ %59, %71 ], [ %74, %73 ]
  %77 = icmp eq i32 %76, 1
  br i1 %77, label %78, label %79, !prof !24

78:                                               ; preds = %75
  call void @_ZNSt16_Sp_counted_baseILN9__gnu_cxx12_Lock_policyE2EE24_M_release_last_use_coldEv(ptr noundef nonnull align 8 dereferenceable(16) %53) #40
  br label %79

79:                                               ; preds = %78, %75, %60, %52
  call void @llvm.lifetime.end.p0(ptr %3)
  br label %214

80:                                               ; preds = %16
  %81 = tail call ptr @__cxa_allocate_exception(i64 40) #40
  call void @llvm.lifetime.start.p0(ptr %4)
  invoke void @_ZStplIcSt11char_traitsIcESaIcEENSt7__cxx1112basic_stringIT_T0_T1_EEPKS5_RKS8_(ptr dead_on_unwind nonnull writable sret(%"class.std::__cxx11::basic_string") align 8 %4, ptr noundef nonnull @.str.18, ptr noundef nonnull align 8 dereferenceable(32) @_ZN5osgeo4proj6common16IdentifiedObject8NAME_KEYB5cxx11E)
          to label %82 unwind label %84

82:                                               ; preds = %80
  invoke void @_ZN5osgeo4proj4util25InvalidValueTypeExceptionC1ERKNSt7__cxx1112basic_stringIcSt11char_traitsIcESaIcEEE(ptr noundef nonnull align 8 dereferenceable(40) %81, ptr noundef nonnull align 8 dereferenceable(32) %4)
          to label %83 unwind label %86

83:                                               ; preds = %82
  invoke void @__cxa_throw(ptr nonnull %81, ptr nonnull @_ZTIN5osgeo4proj4util25InvalidValueTypeExceptionE, ptr nonnull @_ZN5osgeo4proj4util25InvalidValueTypeExceptionD1Ev) #44
          to label %217 unwind label %86

84:                                               ; preds = %80
  %85 = landingpad { ptr, i32 }
          cleanup
  call void @llvm.lifetime.end.p0(ptr %4)
  br label %99

86:                                               ; preds = %83, %82
  %87 = phi i1 [ false, %83 ], [ true, %82 ]
  %88 = landingpad { ptr, i32 }
          cleanup
  %89 = load ptr, ptr %4, align 8, !tbaa !17
  %90 = getelementptr inbounds nuw i8, ptr %4, i64 16
  %91 = icmp eq ptr %89, %90
  br i1 %91, label %92, label %96

92:                                               ; preds = %86
  %93 = getelementptr inbounds nuw i8, ptr %4, i64 8
  %94 = load i64, ptr %93, align 8, !tbaa !22
  %95 = icmp ult i64 %94, 16
  call void @llvm.assume(i1 %95)
  call void @llvm.lifetime.end.p0(ptr %4)
  br i1 %87, label %99, label %215

96:                                               ; preds = %86
  %97 = load i64, ptr %90, align 8, !tbaa !23
  %98 = add i64 %97, 1
  call void @_ZdlPvm(ptr noundef %89, i64 noundef %98) #39
  call void @llvm.lifetime.end.p0(ptr %4)
  br i1 %87, label %99, label %215

99:                                               ; preds = %96, %92, %84
  %100 = phi { ptr, i32 } [ %85, %84 ], [ %88, %96 ], [ %88, %92 ]
  call void @__cxa_free_exception(ptr %81) #40
  br label %215

101:                                              ; preds = %13
  call void @llvm.lifetime.start.p0(ptr %5)
  tail call void @llvm.experimental.noalias.scope.decl(metadata !158)
  %102 = tail call ptr @__dynamic_cast(ptr nonnull %10, ptr nonnull @_ZTIN5osgeo4proj4util10BaseObjectE, ptr nonnull @_ZTIN5osgeo4proj8metadata10IdentifierE, i64 0) #40, !noalias !158
  %103 = icmp eq ptr %102, null
  br i1 %103, label %104, label %105

104:                                              ; preds = %101, %12
  call void @llvm.memset.p0.i64(ptr noundef nonnull align 8 dereferenceable(16) %5, i8 0, i64 16, i1 false), !alias.scope !158
  br label %191

105:                                              ; preds = %101
  store ptr %102, ptr %5, align 8, !tbaa !144, !alias.scope !158
  %106 = getelementptr inbounds nuw i8, ptr %5, i64 8
  %107 = getelementptr inbounds nuw i8, ptr %7, i64 8
  %108 = load ptr, ptr %107, align 8, !tbaa !40, !noalias !158
  store ptr %108, ptr %106, align 8, !tbaa !40, !alias.scope !158
  %109 = icmp eq ptr %108, null
  br i1 %109, label %121, label %110

110:                                              ; preds = %105
  %111 = getelementptr inbounds nuw i8, ptr %108, i64 8
  %112 = load i8, ptr @__libc_single_threaded, align 1, !tbaa !23, !noalias !158
  %113 = icmp eq i8 %112, 0
  br i1 %113, label %117, label %114

114:                                              ; preds = %110
  %115 = load i32, ptr %111, align 4, !tbaa !46, !noalias !158
  %116 = add nsw i32 %115, 1
  store i32 %116, ptr %111, align 4, !tbaa !46, !noalias !158
  br label %121

117:                                              ; preds = %110
  %118 = atomicrmw volatile add ptr %111, i32 1 acq_rel, align 4, !noalias !158
  %119 = load ptr, ptr %5, align 8, !tbaa !144
  %120 = icmp eq ptr %119, null
  br i1 %120, label %191, label %121

121:                                              ; preds = %117, %114, %105
  %122 = phi ptr [ %119, %117 ], [ %102, %114 ], [ %102, %105 ]
  %123 = getelementptr inbounds nuw i8, ptr %5, i64 8
  %124 = load ptr, ptr %123, align 8, !tbaa !40
  %125 = icmp eq ptr %124, null
  br i1 %125, label %135, label %126

126:                                              ; preds = %121
  %127 = getelementptr inbounds nuw i8, ptr %124, i64 8
  %128 = load i8, ptr @__libc_single_threaded, align 1, !tbaa !23
  %129 = icmp eq i8 %128, 0
  br i1 %129, label %133, label %130

130:                                              ; preds = %126
  %131 = load i32, ptr %127, align 4, !tbaa !46
  %132 = add nsw i32 %131, 1
  store i32 %132, ptr %127, align 4, !tbaa !46
  br label %135

133:                                              ; preds = %126
  %134 = atomicrmw volatile add ptr %127, i32 1 acq_rel, align 4
  br label %135

135:                                              ; preds = %133, %130, %121
  store ptr %122, ptr %0, align 8, !tbaa !157
  %136 = getelementptr inbounds nuw i8, ptr %0, i64 8
  %137 = load ptr, ptr %136, align 8, !tbaa !40
  store ptr %124, ptr %136, align 8, !tbaa !40
  %138 = icmp eq ptr %137, null
  br i1 %138, label %163, label %139

139:                                              ; preds = %135
  %140 = getelementptr inbounds nuw i8, ptr %137, i64 8
  %141 = load atomic i64, ptr %140 acquire, align 8
  %142 = icmp eq i64 %141, 4294967297
  %143 = trunc i64 %141 to i32
  br i1 %142, label %144, label %152

144:                                              ; preds = %139
  store i32 0, ptr %140, align 8, !tbaa !31
  %145 = getelementptr inbounds nuw i8, ptr %137, i64 12
  store i32 0, ptr %145, align 4, !tbaa !34
  %146 = load ptr, ptr %137, align 8, !tbaa !4
  %147 = getelementptr inbounds nuw i8, ptr %146, i64 16
  %148 = load ptr, ptr %147, align 8
  tail call void %148(ptr noundef nonnull align 8 dereferenceable(16) %137) #40
  %149 = load ptr, ptr %137, align 8, !tbaa !4
  %150 = getelementptr inbounds nuw i8, ptr %149, i64 24
  %151 = load ptr, ptr %150, align 8
  tail call void %151(ptr noundef nonnull align 8 dereferenceable(16) %137) #40
  br label %163

152:                                              ; preds = %139
  %153 = load i8, ptr @__libc_single_threaded, align 1, !tbaa !23
  %154 = icmp eq i8 %153, 0
  br i1 %154, label %157, label %155

155:                                              ; preds = %152
  %156 = add nsw i32 %143, -1
  store i32 %156, ptr %140, align 4, !tbaa !46
  br label %159

157:                                              ; preds = %152
  %158 = atomicrmw volatile add ptr %140, i32 -1 acq_rel, align 4
  br label %159

159:                                              ; preds = %157, %155
  %160 = phi i32 [ %143, %155 ], [ %158, %157 ]
  %161 = icmp eq i32 %160, 1
  br i1 %161, label %162, label %163, !prof !24

162:                                              ; preds = %159
  tail call void @_ZNSt16_Sp_counted_baseILN9__gnu_cxx12_Lock_policyE2EE24_M_release_last_use_coldEv(ptr noundef nonnull align 8 dereferenceable(16) %137) #40
  br label %163

163:                                              ; preds = %162, %159, %144, %135
  %164 = load ptr, ptr %123, align 8, !tbaa !40
  %165 = icmp eq ptr %164, null
  br i1 %165, label %190, label %166

166:                                              ; preds = %163
  %167 = getelementptr inbounds nuw i8, ptr %164, i64 8
  %168 = load atomic i64, ptr %167 acquire, align 8
  %169 = icmp eq i64 %168, 4294967297
  %170 = trunc i64 %168 to i32
  br i1 %169, label %171, label %179

171:                                              ; preds = %166
  store i32 0, ptr %167, align 8, !tbaa !31
  %172 = getelementptr inbounds nuw i8, ptr %164, i64 12
  store i32 0, ptr %172, align 4, !tbaa !34
  %173 = load ptr, ptr %164, align 8, !tbaa !4
  %174 = getelementptr inbounds nuw i8, ptr %173, i64 16
  %175 = load ptr, ptr %174, align 8
  tail call void %175(ptr noundef nonnull align 8 dereferenceable(16) %164) #40
  %176 = load ptr, ptr %164, align 8, !tbaa !4
  %177 = getelementptr inbounds nuw i8, ptr %176, i64 24
  %178 = load ptr, ptr %177, align 8
  tail call void %178(ptr noundef nonnull align 8 dereferenceable(16) %164) #40
  br label %190

179:                                              ; preds = %166
  %180 = load i8, ptr @__libc_single_threaded, align 1, !tbaa !23
  %181 = icmp eq i8 %180, 0
  br i1 %181, label %184, label %182

182:                                              ; preds = %179
  %183 = add nsw i32 %170, -1
  store i32 %183, ptr %167, align 4, !tbaa !46
  br label %186

184:                                              ; preds = %179
  %185 = atomicrmw volatile add ptr %167, i32 -1 acq_rel, align 4
  br label %186

186:                                              ; preds = %184, %182
  %187 = phi i32 [ %170, %182 ], [ %185, %184 ]
  %188 = icmp eq i32 %187, 1
  br i1 %188, label %189, label %190, !prof !24

189:                                              ; preds = %186
  tail call void @_ZNSt16_Sp_counted_baseILN9__gnu_cxx12_Lock_policyE2EE24_M_release_last_use_coldEv(ptr noundef nonnull align 8 dereferenceable(16) %164) #40
  br label %190

190:                                              ; preds = %189, %186, %171, %163
  call void @llvm.lifetime.end.p0(ptr %5)
  br label %214

191:                                              ; preds = %117, %104
  %192 = tail call ptr @__cxa_allocate_exception(i64 40) #40
  call void @llvm.lifetime.start.p0(ptr %6)
  invoke void @_ZStplIcSt11char_traitsIcESaIcEENSt7__cxx1112basic_stringIT_T0_T1_EEPKS5_RKS8_(ptr dead_on_unwind nonnull writable sret(%"class.std::__cxx11::basic_string") align 8 %6, ptr noundef nonnull @.str.18, ptr noundef nonnull align 8 dereferenceable(32) @_ZN5osgeo4proj6common16IdentifiedObject8NAME_KEYB5cxx11E)
          to label %193 unwind label %195

193:                                              ; preds = %191
  invoke void @_ZN5osgeo4proj4util25InvalidValueTypeExceptionC1ERKNSt7__cxx1112basic_stringIcSt11char_traitsIcESaIcEEE(ptr noundef nonnull align 8 dereferenceable(40) %192, ptr noundef nonnull align 8 dereferenceable(32) %6)
          to label %194 unwind label %197

194:                                              ; preds = %193
  invoke void @__cxa_throw(ptr nonnull %192, ptr nonnull @_ZTIN5osgeo4proj4util25InvalidValueTypeExceptionE, ptr nonnull @_ZN5osgeo4proj4util25InvalidValueTypeExceptionD1Ev) #44
          to label %217 unwind label %197

195:                                              ; preds = %191
  %196 = landingpad { ptr, i32 }
          cleanup
  call void @llvm.lifetime.end.p0(ptr %6)
  br label %210

197:                                              ; preds = %194, %193
  %198 = phi i1 [ false, %194 ], [ true, %193 ]
  %199 = landingpad { ptr, i32 }
          cleanup
  %200 = load ptr, ptr %6, align 8, !tbaa !17
  %201 = getelementptr inbounds nuw i8, ptr %6, i64 16
  %202 = icmp eq ptr %200, %201
  br i1 %202, label %203, label %207

203:                                              ; preds = %197
  %204 = getelementptr inbounds nuw i8, ptr %6, i64 8
  %205 = load i64, ptr %204, align 8, !tbaa !22
  %206 = icmp ult i64 %205, 16
  call void @llvm.assume(i1 %206)
  call void @llvm.lifetime.end.p0(ptr %6)
  br i1 %198, label %210, label %212

207:                                              ; preds = %197
  %208 = load i64, ptr %201, align 8, !tbaa !23
  %209 = add i64 %208, 1
  call void @_ZdlPvm(ptr noundef %200, i64 noundef %209) #39
  call void @llvm.lifetime.end.p0(ptr %6)
  br i1 %198, label %210, label %212

210:                                              ; preds = %207, %203, %195
  %211 = phi { ptr, i32 } [ %196, %195 ], [ %199, %207 ], [ %199, %203 ]
  call void @__cxa_free_exception(ptr %192) #40
  br label %212

212:                                              ; preds = %210, %207, %203
  %213 = phi { ptr, i32 } [ %211, %210 ], [ %199, %207 ], [ %199, %203 ]
  call void @_ZNSt12__shared_ptrIN5osgeo4proj8metadata10IdentifierELN9__gnu_cxx12_Lock_policyE2EED2Ev(ptr noundef nonnull align 8 dereferenceable(16) %5) #40
  call void @llvm.lifetime.end.p0(ptr %5)
  br label %215

214:                                              ; preds = %190, %79, %2
  ret void

215:                                              ; preds = %212, %99, %96, %92
  %216 = phi { ptr, i32 } [ %100, %99 ], [ %88, %96 ], [ %213, %212 ], [ %88, %92 ]
  resume { ptr, i32 } %216

217:                                              ; preds = %194, %83
  unreachable
}

declare noundef ptr @_ZNK5osgeo4proj4util11PropertyMap3getERKNSt7__cxx1112basic_stringIcSt11char_traitsIcESaIcEEE(ptr noundef nonnull align 8 dereferenceable(8), ptr noundef nonnull align 8 dereferenceable(32)) local_unnamed_addr #1

declare hidden noundef nonnull align 4 dereferenceable(4) ptr @_ZNK5osgeo4proj4util10BoxedValue4typeEv(ptr noundef nonnull align 8 dereferenceable(24)) local_unnamed_addr #1

declare hidden void @_ZN5osgeo4proj8metadata10Identifier21createFromDescriptionERKNSt7__cxx1112basic_stringIcSt11char_traitsIcESaIcEEE(ptr dead_on_unwind writable sret(%"class.dropbox::oxygen::nn.53") align 8, ptr noundef nonnull align 8 dereferenceable(32)) local_unnamed_addr #1

declare hidden noundef nonnull align 8 dereferenceable(32) ptr @_ZNK5osgeo4proj4util10BoxedValue11stringValueB5cxx11Ev(ptr noundef nonnull align 8 dereferenceable(24)) local_unnamed_addr #1

; Function Attrs: inlinehint mustprogress nounwind sspstrong uwtable
define linkonce_odr hidden void @_ZN7dropbox6oxygen2nnISt10shared_ptrIN5osgeo4proj8metadata10IdentifierEEED2Ev(ptr noundef nonnull align 8 dereferenceable(16) %0) unnamed_addr #5 comdat align 2 personality ptr @__gxx_personality_v0 {
  %2 = getelementptr inbounds nuw i8, ptr %0, i64 8
  %3 = load ptr, ptr %2, align 8, !tbaa !40
  %4 = icmp eq ptr %3, null
  br i1 %4, label %29, label %5

5:                                                ; preds = %1
  %6 = getelementptr inbounds nuw i8, ptr %3, i64 8
  %7 = load atomic i64, ptr %6 acquire, align 8
  %8 = icmp eq i64 %7, 4294967297
  %9 = trunc i64 %7 to i32
  br i1 %8, label %10, label %18

10:                                               ; preds = %5
  store i32 0, ptr %6, align 8, !tbaa !31
  %11 = getelementptr inbounds nuw i8, ptr %3, i64 12
  store i32 0, ptr %11, align 4, !tbaa !34
  %12 = load ptr, ptr %3, align 8, !tbaa !4
  %13 = getelementptr inbounds nuw i8, ptr %12, i64 16
  %14 = load ptr, ptr %13, align 8
  tail call void %14(ptr noundef nonnull align 8 dereferenceable(16) %3) #40
  %15 = load ptr, ptr %3, align 8, !tbaa !4
  %16 = getelementptr inbounds nuw i8, ptr %15, i64 24
  %17 = load ptr, ptr %16, align 8
  tail call void %17(ptr noundef nonnull align 8 dereferenceable(16) %3) #40
  br label %29

18:                                               ; preds = %5
  %19 = load i8, ptr @__libc_single_threaded, align 1, !tbaa !23
  %20 = icmp eq i8 %19, 0
  br i1 %20, label %23, label %21

21:                                               ; preds = %18
  %22 = add nsw i32 %9, -1
  store i32 %22, ptr %6, align 4, !tbaa !46
  br label %25

23:                                               ; preds = %18
  %24 = atomicrmw volatile add ptr %6, i32 -1 acq_rel, align 4
  br label %25

25:                                               ; preds = %23, %21
  %26 = phi i32 [ %9, %21 ], [ %24, %23 ]
  %27 = icmp eq i32 %26, 1
  br i1 %27, label %28, label %29, !prof !24

28:                                               ; preds = %25
  tail call void @_ZNSt16_Sp_counted_baseILN9__gnu_cxx12_Lock_policyE2EE24_M_release_last_use_coldEv(ptr noundef nonnull align 8 dereferenceable(16) %3) #40
  br label %29

29:                                               ; preds = %28, %25, %10, %1
  ret void
}

declare ptr @__cxa_allocate_exception(i64) local_unnamed_addr

; Function Attrs: inlinehint mustprogress sspstrong uwtable
define linkonce_odr void @_ZStplIcSt11char_traitsIcESaIcEENSt7__cxx1112basic_stringIT_T0_T1_EEPKS5_RKS8_(ptr dead_on_unwind noalias writable sret(%"class.std::__cxx11::basic_string") align 8 %0, ptr noundef %1, ptr noundef nonnull align 8 dereferenceable(32) %2) local_unnamed_addr #14 comdat personality ptr @__gxx_personality_v0 {
  %4 = tail call noundef i64 @strlen(ptr noundef nonnull dereferenceable(1) %1) #40
  %5 = load ptr, ptr %2, align 8, !tbaa !17
  %6 = getelementptr inbounds nuw i8, ptr %2, i64 8
  %7 = load i64, ptr %6, align 8, !tbaa !22
  %8 = icmp ult i64 %7, 9223372036854775807
  tail call void @llvm.assume(i1 %8)
  %9 = getelementptr inbounds nuw i8, ptr %0, i64 16
  store ptr %9, ptr %0, align 8, !tbaa !48, !alias.scope !161
  %10 = getelementptr inbounds nuw i8, ptr %0, i64 8
  store i64 0, ptr %10, align 8, !tbaa !22, !alias.scope !161
  store i8 0, ptr %9, align 8, !tbaa !23, !alias.scope !161
  %11 = add i64 %7, %4
  invoke void @_ZNSt7__cxx1112basic_stringIcSt11char_traitsIcESaIcEE7reserveEm(ptr noundef nonnull align 8 dereferenceable(32) %0, i64 noundef %11)
          to label %12 unwind label %28

12:                                               ; preds = %3
  %13 = load i64, ptr %10, align 8, !tbaa !22, !alias.scope !161
  %14 = icmp ult i64 %13, 9223372036854775807
  tail call void @llvm.assume(i1 %14)
  %15 = sub nuw nsw i64 9223372036854775806, %13
  %16 = icmp ult i64 %15, %4
  br i1 %16, label %24, label %17

17:                                               ; preds = %12
  %18 = invoke noundef nonnull align 8 dereferenceable(32) ptr @_ZNSt7__cxx1112basic_stringIcSt11char_traitsIcESaIcEE9_M_appendEPKcm(ptr noundef nonnull align 8 dereferenceable(32) %0, ptr noundef nonnull %1, i64 noundef %4)
          to label %19 unwind label %28

19:                                               ; preds = %17
  %20 = load i64, ptr %10, align 8, !tbaa !22, !alias.scope !161
  %21 = icmp ult i64 %20, 9223372036854775807
  tail call void @llvm.assume(i1 %21)
  %22 = sub nuw nsw i64 9223372036854775806, %20
  %23 = icmp samesign ult i64 %22, %7
  br i1 %23, label %24, label %26

24:                                               ; preds = %19, %12
  invoke void @_ZSt20__throw_length_errorPKc(ptr noundef nonnull @.str.39) #22
          to label %25 unwind label %28

25:                                               ; preds = %24
  unreachable

26:                                               ; preds = %19
  %27 = invoke noundef nonnull align 8 dereferenceable(32) ptr @_ZNSt7__cxx1112basic_stringIcSt11char_traitsIcESaIcEE9_M_appendEPKcm(ptr noundef nonnull align 8 dereferenceable(32) %0, ptr noundef %5, i64 noundef %7)
          to label %38 unwind label %28

28:                                               ; preds = %26, %24, %17, %3
  %29 = landingpad { ptr, i32 }
          cleanup
  %30 = load ptr, ptr %0, align 8, !tbaa !17, !alias.scope !161
  %31 = icmp eq ptr %30, %9
  br i1 %31, label %32, label %35

32:                                               ; preds = %28
  %33 = load i64, ptr %10, align 8, !tbaa !22, !alias.scope !161
  %34 = icmp ult i64 %33, 16
  tail call void @llvm.assume(i1 %34)
  br label %39

35:                                               ; preds = %28
  %36 = load i64, ptr %9, align 8, !tbaa !23, !alias.scope !161
  %37 = add i64 %36, 1
  tail call void @_ZdlPvm(ptr noundef %30, i64 noundef %37) #39
  br label %39

38:                                               ; preds = %26
  ret void

39:                                               ; preds = %35, %32
  resume { ptr, i32 } %29
}

declare hidden void @_ZN5osgeo4proj4util25InvalidValueTypeExceptionC1ERKNSt7__cxx1112basic_stringIcSt11char_traitsIcESaIcEEE(ptr noundef nonnull align 8 dereferenceable(40), ptr noundef nonnull align 8 dereferenceable(32)) unnamed_addr #1

; Function Attrs: nounwind
declare void @_ZN5osgeo4proj4util25InvalidValueTypeExceptionD1Ev(ptr noundef nonnull align 8 dereferenceable(40)) unnamed_addr #2

; Function Attrs: cold noreturn
declare void @__cxa_throw(ptr, ptr, ptr) local_unnamed_addr #22

declare void @__cxa_free_exception(ptr) local_unnamed_addr

; Function Attrs: mustprogress sspstrong uwtable
define hidden void @_ZN5osgeo4proj6common16IdentifiedObject7Private14setIdentifiersERKNS0_4util11PropertyMapE(ptr noundef nonnull align 8 captures(none) dereferenceable(97) %0, ptr noundef nonnull align 8 dereferenceable(8) %1) local_unnamed_addr #0 align 2 personality ptr @__gxx_personality_v0 {
  %3 = alloca %"class.dropbox::oxygen::nn.53", align 8
  %4 = alloca %"class.std::__cxx11::basic_string", align 8
  %5 = alloca %"class.std::shared_ptr.54", align 8
  %6 = alloca %"class.dropbox::oxygen::nn.53", align 8
  %7 = alloca %"class.dropbox::oxygen::nn.53", align 8
  %8 = alloca %"class.std::__cxx11::basic_string", align 8
  %9 = alloca %"class.std::__cxx11::basic_string", align 8
  %10 = tail call noundef ptr @_ZNK5osgeo4proj4util11PropertyMap3getERKNSt7__cxx1112basic_stringIcSt11char_traitsIcESaIcEEE(ptr noundef nonnull align 8 dereferenceable(8) %1, ptr noundef nonnull align 8 dereferenceable(32) @_ZN5osgeo4proj6common16IdentifiedObject15IDENTIFIERS_KEYB5cxx11E)
  %11 = icmp eq ptr %10, null
  br i1 %11, label %12, label %161

12:                                               ; preds = %2
  %13 = tail call noundef ptr @_ZNK5osgeo4proj4util11PropertyMap3getERKNSt7__cxx1112basic_stringIcSt11char_traitsIcESaIcEEE(ptr noundef nonnull align 8 dereferenceable(8) %1, ptr noundef nonnull align 8 dereferenceable(32) @_ZN5osgeo4proj8metadata10Identifier8CODE_KEYB5cxx11E)
  %14 = icmp eq ptr %13, null
  br i1 %14, label %574, label %15

15:                                               ; preds = %12
  %16 = getelementptr inbounds nuw i8, ptr %0, i64 16
  %17 = load ptr, ptr %16, align 8, !tbaa !164
  %18 = getelementptr inbounds nuw i8, ptr %0, i64 24
  %19 = load ptr, ptr %18, align 8, !tbaa !165
  %20 = icmp eq ptr %19, %17
  br i1 %20, label %54, label %21

21:                                               ; preds = %50, %15
  %22 = phi ptr [ %51, %50 ], [ %17, %15 ]
  %23 = getelementptr inbounds nuw i8, ptr %22, i64 8
  %24 = load ptr, ptr %23, align 8, !tbaa !40
  %25 = icmp eq ptr %24, null
  br i1 %25, label %50, label %26

26:                                               ; preds = %21
  %27 = getelementptr inbounds nuw i8, ptr %24, i64 8
  %28 = load atomic i64, ptr %27 acquire, align 8
  %29 = icmp eq i64 %28, 4294967297
  %30 = trunc i64 %28 to i32
  br i1 %29, label %31, label %39

31:                                               ; preds = %26
  store i32 0, ptr %27, align 8, !tbaa !31
  %32 = getelementptr inbounds nuw i8, ptr %24, i64 12
  store i32 0, ptr %32, align 4, !tbaa !34
  %33 = load ptr, ptr %24, align 8, !tbaa !4
  %34 = getelementptr inbounds nuw i8, ptr %33, i64 16
  %35 = load ptr, ptr %34, align 8
  tail call void %35(ptr noundef nonnull align 8 dereferenceable(16) %24) #40
  %36 = load ptr, ptr %24, align 8, !tbaa !4
  %37 = getelementptr inbounds nuw i8, ptr %36, i64 24
  %38 = load ptr, ptr %37, align 8
  tail call void %38(ptr noundef nonnull align 8 dereferenceable(16) %24) #40
  br label %50

39:                                               ; preds = %26
  %40 = load i8, ptr @__libc_single_threaded, align 1, !tbaa !23
  %41 = icmp eq i8 %40, 0
  br i1 %41, label %44, label %42

42:                                               ; preds = %39
  %43 = add nsw i32 %30, -1
  store i32 %43, ptr %27, align 4, !tbaa !46
  br label %46

44:                                               ; preds = %39
  %45 = atomicrmw volatile add ptr %27, i32 -1 acq_rel, align 4
  br label %46

46:                                               ; preds = %44, %42
  %47 = phi i32 [ %30, %42 ], [ %45, %44 ]
  %48 = icmp eq i32 %47, 1
  br i1 %48, label %49, label %50, !prof !24

49:                                               ; preds = %46
  tail call void @_ZNSt16_Sp_counted_baseILN9__gnu_cxx12_Lock_policyE2EE24_M_release_last_use_coldEv(ptr noundef nonnull align 8 dereferenceable(16) %24) #40
  br label %50

50:                                               ; preds = %49, %46, %31, %21
  %51 = getelementptr inbounds nuw i8, ptr %22, i64 16
  %52 = icmp eq ptr %51, %19
  br i1 %52, label %53, label %21, !llvm.loop !166

53:                                               ; preds = %50
  store ptr %17, ptr %18, align 8, !tbaa !165
  br label %54

54:                                               ; preds = %53, %15
  call void @llvm.lifetime.start.p0(ptr %3)
  call void @llvm.lifetime.start.p0(ptr %4)
  %55 = getelementptr inbounds nuw i8, ptr %4, i64 16
  store ptr %55, ptr %4, align 8, !tbaa !48
  %56 = getelementptr inbounds nuw i8, ptr %4, i64 8
  store i64 0, ptr %56, align 8, !tbaa !22
  store i8 0, ptr %55, align 8, !tbaa !23
  invoke void @_ZN5osgeo4proj8metadata10Identifier6createERKNSt7__cxx1112basic_stringIcSt11char_traitsIcESaIcEEERKNS0_4util11PropertyMapE(ptr dead_on_unwind nonnull writable sret(%"class.dropbox::oxygen::nn.53") align 8 %3, ptr noundef nonnull align 8 dereferenceable(32) %4, ptr noundef nonnull align 8 dereferenceable(8) %1)
          to label %57 unwind label %146

57:                                               ; preds = %54
  %58 = load ptr, ptr %18, align 8, !tbaa !165
  %59 = getelementptr inbounds nuw i8, ptr %0, i64 32
  %60 = load ptr, ptr %59, align 8, !tbaa !167
  %61 = icmp eq ptr %58, %60
  br i1 %61, label %68, label %62

62:                                               ; preds = %57
  %63 = load ptr, ptr %3, align 8, !tbaa !144
  store ptr %63, ptr %58, align 8, !tbaa !144
  %64 = getelementptr inbounds nuw i8, ptr %58, i64 8
  store ptr null, ptr %64, align 8, !tbaa !40
  %65 = getelementptr inbounds nuw i8, ptr %3, i64 8
  %66 = load ptr, ptr %65, align 8, !tbaa !40
  store ptr null, ptr %65, align 8, !tbaa !40
  store ptr %66, ptr %64, align 8, !tbaa !40
  store ptr null, ptr %3, align 8, !tbaa !144
  %67 = getelementptr inbounds nuw i8, ptr %58, i64 16
  store ptr %67, ptr %18, align 8, !tbaa !165
  br label %108

68:                                               ; preds = %57
  %69 = load ptr, ptr %16, align 8, !tbaa !164
  %70 = ptrtoint ptr %58 to i64
  %71 = ptrtoint ptr %69 to i64
  %72 = sub i64 %70, %71
  %73 = ashr exact i64 %72, 4
  %74 = icmp sgt i64 %73, -1
  call void @llvm.assume(i1 %74)
  %75 = icmp eq i64 %72, 9223372036854775792
  br i1 %75, label %76, label %78

76:                                               ; preds = %68
  invoke void @_ZSt20__throw_length_errorPKc(ptr noundef nonnull @.str.40) #22
          to label %77 unwind label %148

77:                                               ; preds = %76
  unreachable

78:                                               ; preds = %68
  %79 = call i64 @llvm.umax.i64(i64 %73, i64 1)
  %80 = add nuw nsw i64 %79, %73
  %81 = call noundef i64 @llvm.umin.i64(i64 %80, i64 576460752303423487)
  %82 = shl nuw nsw i64 %81, 4
  %83 = invoke noalias noundef nonnull ptr @_Znwm(i64 noundef %82) #38
          to label %84 unwind label %148

84:                                               ; preds = %78
  %85 = getelementptr inbounds nuw i8, ptr %83, i64 %72
  %86 = load ptr, ptr %3, align 8, !tbaa !144
  store ptr %86, ptr %85, align 8, !tbaa !144
  %87 = getelementptr inbounds nuw i8, ptr %85, i64 8
  %88 = getelementptr inbounds nuw i8, ptr %3, i64 8
  %89 = load ptr, ptr %88, align 8, !tbaa !40
  store ptr null, ptr %88, align 8, !tbaa !40
  store ptr %89, ptr %87, align 8, !tbaa !40
  store ptr null, ptr %3, align 8, !tbaa !144
  %90 = icmp eq ptr %69, %58
  br i1 %90, label %101, label %91

91:                                               ; preds = %91, %84
  %92 = phi ptr [ %99, %91 ], [ %83, %84 ]
  %93 = phi ptr [ %98, %91 ], [ %69, %84 ]
  call void @llvm.experimental.noalias.scope.decl(metadata !168)
  call void @llvm.experimental.noalias.scope.decl(metadata !171)
  %94 = load ptr, ptr %93, align 8, !tbaa !144, !alias.scope !171, !noalias !168
  store ptr %94, ptr %92, align 8, !tbaa !144, !alias.scope !168, !noalias !171
  %95 = getelementptr inbounds nuw i8, ptr %92, i64 8
  %96 = getelementptr inbounds nuw i8, ptr %93, i64 8
  %97 = load ptr, ptr %96, align 8, !tbaa !40, !alias.scope !171, !noalias !168
  store ptr null, ptr %96, align 8, !tbaa !40, !alias.scope !171, !noalias !168
  store ptr %97, ptr %95, align 8, !tbaa !40, !alias.scope !168, !noalias !171
  store ptr null, ptr %93, align 8, !tbaa !144, !alias.scope !171, !noalias !168
  %98 = getelementptr inbounds nuw i8, ptr %93, i64 16
  %99 = getelementptr inbounds nuw i8, ptr %92, i64 16
  %100 = icmp eq ptr %98, %58
  br i1 %100, label %101, label %91, !llvm.loop !173

101:                                              ; preds = %91, %84
  %102 = phi ptr [ %83, %84 ], [ %99, %91 ]
  %103 = icmp eq ptr %69, null
  br i1 %103, label %105, label %104

104:                                              ; preds = %101
  call void @_ZdlPvm(ptr noundef nonnull %69, i64 noundef %72) #39
  br label %105

105:                                              ; preds = %104, %101
  %106 = getelementptr inbounds nuw i8, ptr %102, i64 16
  store ptr %83, ptr %16, align 8, !tbaa !164
  store ptr %106, ptr %18, align 8, !tbaa !165
  %107 = getelementptr inbounds nuw %"class.dropbox::oxygen::nn.53", ptr %83, i64 %81
  store ptr %107, ptr %59, align 8, !tbaa !167
  br label %108

108:                                              ; preds = %105, %62
  %109 = getelementptr inbounds nuw i8, ptr %3, i64 8
  %110 = load ptr, ptr %109, align 8, !tbaa !40
  %111 = icmp eq ptr %110, null
  br i1 %111, label %136, label %112

112:                                              ; preds = %108
  %113 = getelementptr inbounds nuw i8, ptr %110, i64 8
  %114 = load atomic i64, ptr %113 acquire, align 8
  %115 = icmp eq i64 %114, 4294967297
  %116 = trunc i64 %114 to i32
  br i1 %115, label %117, label %125

117:                                              ; preds = %112
  store i32 0, ptr %113, align 8, !tbaa !31
  %118 = getelementptr inbounds nuw i8, ptr %110, i64 12
  store i32 0, ptr %118, align 4, !tbaa !34
  %119 = load ptr, ptr %110, align 8, !tbaa !4
  %120 = getelementptr inbounds nuw i8, ptr %119, i64 16
  %121 = load ptr, ptr %120, align 8
  call void %121(ptr noundef nonnull align 8 dereferenceable(16) %110) #40
  %122 = load ptr, ptr %110, align 8, !tbaa !4
  %123 = getelementptr inbounds nuw i8, ptr %122, i64 24
  %124 = load ptr, ptr %123, align 8
  call void %124(ptr noundef nonnull align 8 dereferenceable(16) %110) #40
  br label %136

125:                                              ; preds = %112
  %126 = load i8, ptr @__libc_single_threaded, align 1, !tbaa !23
  %127 = icmp eq i8 %126, 0
  br i1 %127, label %130, label %128

128:                                              ; preds = %125
  %129 = add nsw i32 %116, -1
  store i32 %129, ptr %113, align 4, !tbaa !46
  br label %132

130:                                              ; preds = %125
  %131 = atomicrmw volatile add ptr %113, i32 -1 acq_rel, align 4
  br label %132

132:                                              ; preds = %130, %128
  %133 = phi i32 [ %116, %128 ], [ %131, %130 ]
  %134 = icmp eq i32 %133, 1
  br i1 %134, label %135, label %136, !prof !24

135:                                              ; preds = %132
  call void @_ZNSt16_Sp_counted_baseILN9__gnu_cxx12_Lock_policyE2EE24_M_release_last_use_coldEv(ptr noundef nonnull align 8 dereferenceable(16) %110) #40
  br label %136

136:                                              ; preds = %135, %132, %117, %108
  %137 = load ptr, ptr %4, align 8, !tbaa !17
  %138 = icmp eq ptr %137, %55
  br i1 %138, label %139, label %142

139:                                              ; preds = %136
  %140 = load i64, ptr %56, align 8, !tbaa !22
  %141 = icmp ult i64 %140, 16
  call void @llvm.assume(i1 %141)
  br label %145

142:                                              ; preds = %136
  %143 = load i64, ptr %55, align 8, !tbaa !23
  %144 = add i64 %143, 1
  call void @_ZdlPvm(ptr noundef %137, i64 noundef %144) #39
  br label %145

145:                                              ; preds = %142, %139
  call void @llvm.lifetime.end.p0(ptr %4)
  call void @llvm.lifetime.end.p0(ptr %3)
  br label %574

146:                                              ; preds = %54
  %147 = landingpad { ptr, i32 }
          cleanup
  br label %150

148:                                              ; preds = %78, %76
  %149 = landingpad { ptr, i32 }
          cleanup
  call void @_ZN7dropbox6oxygen2nnISt10shared_ptrIN5osgeo4proj8metadata10IdentifierEEED2Ev(ptr noundef nonnull align 8 dereferenceable(16) %3) #40
  br label %150

150:                                              ; preds = %148, %146
  %151 = phi { ptr, i32 } [ %149, %148 ], [ %147, %146 ]
  %152 = load ptr, ptr %4, align 8, !tbaa !17
  %153 = icmp eq ptr %152, %55
  br i1 %153, label %154, label %157

154:                                              ; preds = %150
  %155 = load i64, ptr %56, align 8, !tbaa !22
  %156 = icmp ult i64 %155, 16
  call void @llvm.assume(i1 %156)
  br label %160

157:                                              ; preds = %150
  %158 = load i64, ptr %55, align 8, !tbaa !23
  %159 = add i64 %158, 1
  call void @_ZdlPvm(ptr noundef %152, i64 noundef %159) #39
  br label %160

160:                                              ; preds = %157, %154
  call void @llvm.lifetime.end.p0(ptr %4)
  call void @llvm.lifetime.end.p0(ptr %3)
  br label %577

161:                                              ; preds = %2
  call void @llvm.lifetime.start.p0(ptr %5)
  tail call void @llvm.experimental.noalias.scope.decl(metadata !174)
  %162 = load ptr, ptr %10, align 8, !tbaa !152, !noalias !174
  %163 = icmp eq ptr %162, null
  br i1 %163, label %167, label %164

164:                                              ; preds = %161
  %165 = tail call ptr @__dynamic_cast(ptr nonnull %162, ptr nonnull @_ZTIN5osgeo4proj4util10BaseObjectE, ptr nonnull @_ZTIN5osgeo4proj8metadata10IdentifierE, i64 0) #40, !noalias !174
  %166 = icmp eq ptr %165, null
  br i1 %166, label %167, label %168

167:                                              ; preds = %164, %161
  call void @llvm.memset.p0.i64(ptr noundef nonnull align 8 dereferenceable(16) %5, i8 0, i64 16, i1 false), !alias.scope !174
  br label %321

168:                                              ; preds = %164
  store ptr %165, ptr %5, align 8, !tbaa !144, !alias.scope !174
  %169 = getelementptr inbounds nuw i8, ptr %5, i64 8
  %170 = getelementptr inbounds nuw i8, ptr %10, i64 8
  %171 = load ptr, ptr %170, align 8, !tbaa !40, !noalias !174
  store ptr %171, ptr %169, align 8, !tbaa !40, !alias.scope !174
  %172 = icmp eq ptr %171, null
  br i1 %172, label %186, label %173

173:                                              ; preds = %168
  %174 = getelementptr inbounds nuw i8, ptr %171, i64 8
  %175 = load i8, ptr @__libc_single_threaded, align 1, !tbaa !23, !noalias !174
  %176 = icmp eq i8 %175, 0
  br i1 %176, label %180, label %177

177:                                              ; preds = %173
  %178 = load i32, ptr %174, align 4, !tbaa !46, !noalias !174
  %179 = add nsw i32 %178, 1
  store i32 %179, ptr %174, align 4, !tbaa !46, !noalias !174
  br label %186

180:                                              ; preds = %173
  %181 = atomicrmw volatile add ptr %174, i32 1 acq_rel, align 4, !noalias !174
  %182 = load ptr, ptr %5, align 8, !tbaa !144
  %183 = icmp eq ptr %182, null
  br i1 %183, label %184, label %186

184:                                              ; preds = %180
  %185 = load ptr, ptr %10, align 8, !tbaa !152
  br label %321

186:                                              ; preds = %180, %177, %168
  %187 = phi ptr [ %182, %180 ], [ %165, %177 ], [ %165, %168 ]
  %188 = getelementptr inbounds nuw i8, ptr %0, i64 16
  %189 = load ptr, ptr %188, align 8, !tbaa !164
  %190 = getelementptr inbounds nuw i8, ptr %0, i64 24
  %191 = load ptr, ptr %190, align 8, !tbaa !165
  %192 = icmp eq ptr %191, %189
  br i1 %192, label %227, label %193

193:                                              ; preds = %222, %186
  %194 = phi ptr [ %223, %222 ], [ %189, %186 ]
  %195 = getelementptr inbounds nuw i8, ptr %194, i64 8
  %196 = load ptr, ptr %195, align 8, !tbaa !40
  %197 = icmp eq ptr %196, null
  br i1 %197, label %222, label %198

198:                                              ; preds = %193
  %199 = getelementptr inbounds nuw i8, ptr %196, i64 8
  %200 = load atomic i64, ptr %199 acquire, align 8
  %201 = icmp eq i64 %200, 4294967297
  %202 = trunc i64 %200 to i32
  br i1 %201, label %203, label %211

203:                                              ; preds = %198
  store i32 0, ptr %199, align 8, !tbaa !31
  %204 = getelementptr inbounds nuw i8, ptr %196, i64 12
  store i32 0, ptr %204, align 4, !tbaa !34
  %205 = load ptr, ptr %196, align 8, !tbaa !4
  %206 = getelementptr inbounds nuw i8, ptr %205, i64 16
  %207 = load ptr, ptr %206, align 8
  tail call void %207(ptr noundef nonnull align 8 dereferenceable(16) %196) #40
  %208 = load ptr, ptr %196, align 8, !tbaa !4
  %209 = getelementptr inbounds nuw i8, ptr %208, i64 24
  %210 = load ptr, ptr %209, align 8
  tail call void %210(ptr noundef nonnull align 8 dereferenceable(16) %196) #40
  br label %222

211:                                              ; preds = %198
  %212 = load i8, ptr @__libc_single_threaded, align 1, !tbaa !23
  %213 = icmp eq i8 %212, 0
  br i1 %213, label %216, label %214

214:                                              ; preds = %211
  %215 = add nsw i32 %202, -1
  store i32 %215, ptr %199, align 4, !tbaa !46
  br label %218

216:                                              ; preds = %211
  %217 = atomicrmw volatile add ptr %199, i32 -1 acq_rel, align 4
  br label %218

218:                                              ; preds = %216, %214
  %219 = phi i32 [ %202, %214 ], [ %217, %216 ]
  %220 = icmp eq i32 %219, 1
  br i1 %220, label %221, label %222, !prof !24

221:                                              ; preds = %218
  tail call void @_ZNSt16_Sp_counted_baseILN9__gnu_cxx12_Lock_policyE2EE24_M_release_last_use_coldEv(ptr noundef nonnull align 8 dereferenceable(16) %196) #40
  br label %222

222:                                              ; preds = %221, %218, %203, %193
  %223 = getelementptr inbounds nuw i8, ptr %194, i64 16
  %224 = icmp eq ptr %223, %191
  br i1 %224, label %225, label %193, !llvm.loop !166

225:                                              ; preds = %222
  store ptr %189, ptr %190, align 8, !tbaa !165
  %226 = load ptr, ptr %5, align 8, !tbaa !144
  br label %227

227:                                              ; preds = %225, %186
  %228 = phi ptr [ %191, %186 ], [ %189, %225 ]
  %229 = phi ptr [ %187, %186 ], [ %226, %225 ]
  call void @llvm.lifetime.start.p0(ptr %6)
  store ptr %229, ptr %6, align 8, !tbaa !144
  %230 = getelementptr inbounds nuw i8, ptr %6, i64 8
  %231 = load ptr, ptr %169, align 8, !tbaa !40
  store ptr %231, ptr %230, align 8, !tbaa !40
  %232 = icmp eq ptr %231, null
  br i1 %232, label %243, label %233

233:                                              ; preds = %227
  %234 = getelementptr inbounds nuw i8, ptr %231, i64 8
  %235 = load i8, ptr @__libc_single_threaded, align 1, !tbaa !23
  %236 = icmp eq i8 %235, 0
  br i1 %236, label %240, label %237

237:                                              ; preds = %233
  %238 = load i32, ptr %234, align 4, !tbaa !46
  %239 = add nsw i32 %238, 1
  store i32 %239, ptr %234, align 4, !tbaa !46
  br label %243

240:                                              ; preds = %233
  %241 = atomicrmw volatile add ptr %234, i32 1 acq_rel, align 4
  %242 = load ptr, ptr %190, align 8, !tbaa !165
  br label %243

243:                                              ; preds = %240, %237, %227
  %244 = phi ptr [ %228, %227 ], [ %228, %237 ], [ %242, %240 ]
  %245 = getelementptr inbounds nuw i8, ptr %0, i64 32
  %246 = load ptr, ptr %245, align 8, !tbaa !167
  %247 = icmp eq ptr %244, %246
  br i1 %247, label %248, label %287

248:                                              ; preds = %243
  %249 = load ptr, ptr %188, align 8, !tbaa !164
  %250 = ptrtoint ptr %244 to i64
  %251 = ptrtoint ptr %249 to i64
  %252 = sub i64 %250, %251
  %253 = ashr exact i64 %252, 4
  %254 = icmp sgt i64 %253, -1
  tail call void @llvm.assume(i1 %254)
  %255 = icmp eq i64 %252, 9223372036854775792
  br i1 %255, label %256, label %258

256:                                              ; preds = %248
  invoke void @_ZSt20__throw_length_errorPKc(ptr noundef nonnull @.str.40) #22
          to label %257 unwind label %319

257:                                              ; preds = %256
  unreachable

258:                                              ; preds = %248
  %259 = tail call i64 @llvm.umax.i64(i64 %253, i64 1)
  %260 = add nuw nsw i64 %259, %253
  %261 = tail call noundef i64 @llvm.umin.i64(i64 %260, i64 576460752303423487)
  %262 = shl nuw nsw i64 %261, 4
  %263 = invoke noalias noundef nonnull ptr @_Znwm(i64 noundef %262) #38
          to label %264 unwind label %319

264:                                              ; preds = %258
  %265 = getelementptr inbounds nuw i8, ptr %263, i64 %252
  %266 = load ptr, ptr %6, align 8, !tbaa !144
  store ptr %266, ptr %265, align 8, !tbaa !144
  %267 = getelementptr inbounds nuw i8, ptr %265, i64 8
  %268 = load ptr, ptr %230, align 8, !tbaa !40
  store ptr null, ptr %230, align 8, !tbaa !40
  store ptr %268, ptr %267, align 8, !tbaa !40
  store ptr null, ptr %6, align 8, !tbaa !144
  %269 = icmp eq ptr %249, %244
  br i1 %269, label %280, label %270

270:                                              ; preds = %270, %264
  %271 = phi ptr [ %278, %270 ], [ %263, %264 ]
  %272 = phi ptr [ %277, %270 ], [ %249, %264 ]
  tail call void @llvm.experimental.noalias.scope.decl(metadata !177)
  tail call void @llvm.experimental.noalias.scope.decl(metadata !180)
  %273 = load ptr, ptr %272, align 8, !tbaa !144, !alias.scope !180, !noalias !177
  store ptr %273, ptr %271, align 8, !tbaa !144, !alias.scope !177, !noalias !180
  %274 = getelementptr inbounds nuw i8, ptr %271, i64 8
  %275 = getelementptr inbounds nuw i8, ptr %272, i64 8
  %276 = load ptr, ptr %275, align 8, !tbaa !40, !alias.scope !180, !noalias !177
  store ptr null, ptr %275, align 8, !tbaa !40, !alias.scope !180, !noalias !177
  store ptr %276, ptr %274, align 8, !tbaa !40, !alias.scope !177, !noalias !180
  store ptr null, ptr %272, align 8, !tbaa !144, !alias.scope !180, !noalias !177
  %277 = getelementptr inbounds nuw i8, ptr %272, i64 16
  %278 = getelementptr inbounds nuw i8, ptr %271, i64 16
  %279 = icmp eq ptr %277, %244
  br i1 %279, label %280, label %270, !llvm.loop !173

280:                                              ; preds = %270, %264
  %281 = phi ptr [ %263, %264 ], [ %278, %270 ]
  %282 = icmp eq ptr %249, null
  br i1 %282, label %284, label %283

283:                                              ; preds = %280
  tail call void @_ZdlPvm(ptr noundef nonnull %249, i64 noundef %252) #39
  br label %284

284:                                              ; preds = %283, %280
  %285 = getelementptr inbounds nuw i8, ptr %281, i64 16
  store ptr %263, ptr %188, align 8, !tbaa !164
  store ptr %285, ptr %190, align 8, !tbaa !165
  %286 = getelementptr inbounds nuw %"class.dropbox::oxygen::nn.53", ptr %263, i64 %261
  store ptr %286, ptr %245, align 8, !tbaa !167
  br label %318

287:                                              ; preds = %243
  %288 = load ptr, ptr %6, align 8, !tbaa !144
  store ptr %288, ptr %244, align 8, !tbaa !144
  %289 = getelementptr inbounds nuw i8, ptr %244, i64 8
  store ptr null, ptr %289, align 8, !tbaa !40
  %290 = load ptr, ptr %230, align 8, !tbaa !40
  store ptr null, ptr %230, align 8, !tbaa !40
  store ptr %290, ptr %289, align 8, !tbaa !40
  store ptr null, ptr %6, align 8, !tbaa !144
  %291 = getelementptr inbounds nuw i8, ptr %244, i64 16
  store ptr %291, ptr %190, align 8, !tbaa !165
  %292 = load ptr, ptr %230, align 8, !tbaa !40
  %293 = icmp eq ptr %292, null
  br i1 %293, label %318, label %294

294:                                              ; preds = %287
  %295 = getelementptr inbounds nuw i8, ptr %292, i64 8
  %296 = load atomic i64, ptr %295 acquire, align 8
  %297 = icmp eq i64 %296, 4294967297
  %298 = trunc i64 %296 to i32
  br i1 %297, label %299, label %307

299:                                              ; preds = %294
  store i32 0, ptr %295, align 8, !tbaa !31
  %300 = getelementptr inbounds nuw i8, ptr %292, i64 12
  store i32 0, ptr %300, align 4, !tbaa !34
  %301 = load ptr, ptr %292, align 8, !tbaa !4
  %302 = getelementptr inbounds nuw i8, ptr %301, i64 16
  %303 = load ptr, ptr %302, align 8
  tail call void %303(ptr noundef nonnull align 8 dereferenceable(16) %292) #40
  %304 = load ptr, ptr %292, align 8, !tbaa !4
  %305 = getelementptr inbounds nuw i8, ptr %304, i64 24
  %306 = load ptr, ptr %305, align 8
  tail call void %306(ptr noundef nonnull align 8 dereferenceable(16) %292) #40
  br label %318

307:                                              ; preds = %294
  %308 = load i8, ptr @__libc_single_threaded, align 1, !tbaa !23
  %309 = icmp eq i8 %308, 0
  br i1 %309, label %312, label %310

310:                                              ; preds = %307
  %311 = add nsw i32 %298, -1
  store i32 %311, ptr %295, align 4, !tbaa !46
  br label %314

312:                                              ; preds = %307
  %313 = atomicrmw volatile add ptr %295, i32 -1 acq_rel, align 4
  br label %314

314:                                              ; preds = %312, %310
  %315 = phi i32 [ %298, %310 ], [ %313, %312 ]
  %316 = icmp eq i32 %315, 1
  br i1 %316, label %317, label %318, !prof !24

317:                                              ; preds = %314
  tail call void @_ZNSt16_Sp_counted_baseILN9__gnu_cxx12_Lock_policyE2EE24_M_release_last_use_coldEv(ptr noundef nonnull align 8 dereferenceable(16) %292) #40
  br label %318

318:                                              ; preds = %317, %314, %299, %287, %284
  call void @llvm.lifetime.end.p0(ptr %6)
  br label %545

319:                                              ; preds = %258, %256
  %320 = landingpad { ptr, i32 }
          cleanup
