; ModuleID = 'temp/PROJ/coordinatesystem.cpp.ll'
source_filename = "/home/mitch/Documents/PROJ/src/iso19111/coordinatesystem.cpp"
target datalayout = "e-m:e-p270:32:32-p271:32:32-p272:64:64-i64:64-i128:128-f80:128-n8:16:32:64-S128"
target triple = "x86_64-pc-linux-gnu"

%"class.std::__cxx11::basic_string" = type { %"struct.std::__cxx11::basic_string<char>::_Alloc_hider", i64, %union.anon }
%"struct.std::__cxx11::basic_string<char>::_Alloc_hider" = type { ptr }
%union.anon = type { i64, [8 x i8] }
%"class.osgeo::proj::common::UnitOfMeasure" = type { %"class.osgeo::proj::util::BaseObject", %"class.std::unique_ptr.37" }
%"class.osgeo::proj::util::BaseObject" = type { ptr, %"class.std::unique_ptr" }
%"class.std::unique_ptr" = type { %"struct.std::__uniq_ptr_data" }
%"struct.std::__uniq_ptr_data" = type { %"class.std::__uniq_ptr_impl" }
%"class.std::__uniq_ptr_impl" = type { %"class.std::tuple" }
%"class.std::tuple" = type { %"struct.std::_Tuple_impl" }
%"struct.std::_Tuple_impl" = type { %"struct.std::_Head_base.1" }
%"struct.std::_Head_base.1" = type { ptr }
%"class.std::unique_ptr.37" = type { %"struct.std::__uniq_ptr_data.38" }
%"struct.std::__uniq_ptr_data.38" = type { %"class.std::__uniq_ptr_impl.39" }
%"class.std::__uniq_ptr_impl.39" = type { %"class.std::tuple.40" }
%"class.std::tuple.40" = type { %"struct.std::_Tuple_impl.41" }
%"struct.std::_Tuple_impl.41" = type { %"struct.std::_Head_base.44" }
%"struct.std::_Head_base.44" = type { ptr }
%"class.osgeo::proj::cs::AxisDirection" = type { %"class.osgeo::proj::util::CodeList" }
%"class.osgeo::proj::util::CodeList" = type { %"class.std::__cxx11::basic_string" }
%"class.osgeo::proj::cs::AxisDirectionWKT1" = type { %"class.osgeo::proj::util::CodeList" }
%"class.std::map" = type { %"class.std::_Rb_tree" }
%"class.std::_Rb_tree" = type { %"struct.std::_Rb_tree<std::__cxx11::basic_string<char>, std::pair<const std::__cxx11::basic_string<char>, const osgeo::proj::cs::AxisDirection *>, std::_Select1st<std::pair<const std::__cxx11::basic_string<char>, const osgeo::proj::cs::AxisDirection *>>, std::less<std::__cxx11::basic_string<char>>>::_Rb_tree_impl" }
%"struct.std::_Rb_tree<std::__cxx11::basic_string<char>, std::pair<const std::__cxx11::basic_string<char>, const osgeo::proj::cs::AxisDirection *>, std::_Select1st<std::pair<const std::__cxx11::basic_string<char>, const osgeo::proj::cs::AxisDirection *>>, std::less<std::__cxx11::basic_string<char>>>::_Rb_tree_impl" = type { [8 x i8], %"struct.std::_Rb_tree_header" }
%"struct.std::_Rb_tree_header" = type { %"struct.std::_Rb_tree_node_base", i64 }
%"struct.std::_Rb_tree_node_base" = type { i32, ptr, ptr, ptr }
%"class.std::map.130" = type { %"class.std::_Rb_tree.131" }
%"class.std::_Rb_tree.131" = type { %"struct.std::_Rb_tree<std::__cxx11::basic_string<char>, std::pair<const std::__cxx11::basic_string<char>, const osgeo::proj::cs::RangeMeaning *>, std::_Select1st<std::pair<const std::__cxx11::basic_string<char>, const osgeo::proj::cs::RangeMeaning *>>, std::less<std::__cxx11::basic_string<char>>>::_Rb_tree_impl" }
%"struct.std::_Rb_tree<std::__cxx11::basic_string<char>, std::pair<const std::__cxx11::basic_string<char>, const osgeo::proj::cs::RangeMeaning *>, std::_Select1st<std::pair<const std::__cxx11::basic_string<char>, const osgeo::proj::cs::RangeMeaning *>>, std::less<std::__cxx11::basic_string<char>>>::_Rb_tree_impl" = type { [8 x i8], %"struct.std::_Rb_tree_header" }
%"class.std::map.138" = type { %"class.std::_Rb_tree.139" }
%"class.std::_Rb_tree.139" = type { %"struct.std::_Rb_tree<std::__cxx11::basic_string<char>, std::pair<const std::__cxx11::basic_string<char>, const osgeo::proj::cs::AxisDirectionWKT1 *>, std::_Select1st<std::pair<const std::__cxx11::basic_string<char>, const osgeo::proj::cs::AxisDirectionWKT1 *>>, std::less<std::__cxx11::basic_string<char>>>::_Rb_tree_impl" }
%"struct.std::_Rb_tree<std::__cxx11::basic_string<char>, std::pair<const std::__cxx11::basic_string<char>, const osgeo::proj::cs::AxisDirectionWKT1 *>, std::_Select1st<std::pair<const std::__cxx11::basic_string<char>, const osgeo::proj::cs::AxisDirectionWKT1 *>>, std::less<std::__cxx11::basic_string<char>>>::_Rb_tree_impl" = type { [8 x i8], %"struct.std::_Rb_tree_header" }
%"struct.std::piecewise_construct_t" = type { i8 }
%"class.dropbox::oxygen::nn" = type { %"class.std::shared_ptr" }
%"class.std::shared_ptr" = type { %"class.std::__shared_ptr" }
%"class.std::__shared_ptr" = type { ptr, %"class.std::__shared_count" }
%"class.std::__shared_count" = type { ptr }
%"struct.osgeo::proj::io::JSONFormatter::ObjectContext" = type { ptr }
%"class.dropbox::oxygen::nn.67" = type { %"class.std::shared_ptr.68" }
%"class.std::shared_ptr.68" = type { %"class.std::__shared_ptr.69" }
%"class.std::__shared_ptr.69" = type { ptr, %"class.std::__shared_count" }
%"struct.osgeo::proj::util::BaseObjectNNPtr" = type { %"class.dropbox::oxygen::nn.162" }
%"class.dropbox::oxygen::nn.162" = type { %"class.std::shared_ptr.163" }
%"class.std::shared_ptr.163" = type { %"class.std::__shared_ptr.164" }
%"class.std::__shared_ptr.164" = type { ptr, %"class.std::__shared_count" }
%"class.osgeo::proj::util::PropertyMap" = type { %"class.std::unique_ptr.71" }
%"class.std::unique_ptr.71" = type { %"struct.std::__uniq_ptr_data.72" }
%"struct.std::__uniq_ptr_data.72" = type { %"class.std::__uniq_ptr_impl.73" }
%"class.std::__uniq_ptr_impl.73" = type { %"class.std::tuple.74" }
%"class.std::tuple.74" = type { %"struct.std::_Tuple_impl.75" }
%"struct.std::_Tuple_impl.75" = type { %"struct.std::_Head_base.78" }
%"struct.std::_Head_base.78" = type { ptr }
%"struct.osgeo::proj::CPLJSonStreamingWriter::ArrayContext" = type <{ ptr, i8, i8, [6 x i8] }>
%"class.dropbox::oxygen::nn.99" = type { %"class.std::shared_ptr.100" }
%"class.std::shared_ptr.100" = type { %"class.std::__shared_ptr.101" }
%"class.std::__shared_ptr.101" = type { ptr, %"class.std::__shared_count" }
%"class.std::vector.94" = type { %"struct.std::_Vector_base.95" }
%"struct.std::_Vector_base.95" = type { %"struct.std::_Vector_base<dropbox::oxygen::nn<std::shared_ptr<osgeo::proj::cs::CoordinateSystemAxis>>, std::allocator<dropbox::oxygen::nn<std::shared_ptr<osgeo::proj::cs::CoordinateSystemAxis>>>>::_Vector_impl" }
%"struct.std::_Vector_base<dropbox::oxygen::nn<std::shared_ptr<osgeo::proj::cs::CoordinateSystemAxis>>, std::allocator<dropbox::oxygen::nn<std::shared_ptr<osgeo::proj::cs::CoordinateSystemAxis>>>>::_Vector_impl" = type { %"struct.std::_Vector_base<dropbox::oxygen::nn<std::shared_ptr<osgeo::proj::cs::CoordinateSystemAxis>>, std::allocator<dropbox::oxygen::nn<std::shared_ptr<osgeo::proj::cs::CoordinateSystemAxis>>>>::_Vector_impl_data" }
%"struct.std::_Vector_base<dropbox::oxygen::nn<std::shared_ptr<osgeo::proj::cs::CoordinateSystemAxis>>, std::allocator<dropbox::oxygen::nn<std::shared_ptr<osgeo::proj::cs::CoordinateSystemAxis>>>>::_Vector_impl_data" = type { ptr, ptr, ptr }
%"class.dropbox::oxygen::nn.103" = type { %"class.std::shared_ptr.104" }
%"class.std::shared_ptr.104" = type { %"class.std::__shared_ptr.105" }
%"class.std::__shared_ptr.105" = type { ptr, %"class.std::__shared_count" }
%"class.dropbox::oxygen::nn.107" = type { %"class.std::shared_ptr.108" }
%"class.std::shared_ptr.108" = type { %"class.std::__shared_ptr.109" }
%"class.std::__shared_ptr.109" = type { ptr, %"class.std::__shared_count" }
%"class.dropbox::oxygen::nn.111" = type { %"class.std::shared_ptr.112" }
%"class.std::shared_ptr.112" = type { %"class.std::__shared_ptr.113" }
%"class.std::__shared_ptr.113" = type { ptr, %"class.std::__shared_count" }
%"class.osgeo::proj::common::Angle" = type { %"class.osgeo::proj::common::Measure" }
%"class.osgeo::proj::common::Measure" = type { %"class.osgeo::proj::util::BaseObject", %"class.std::unique_ptr.18" }
%"class.std::unique_ptr.18" = type { %"struct.std::__uniq_ptr_data.19" }
%"struct.std::__uniq_ptr_data.19" = type { %"class.std::__uniq_ptr_impl.20" }
%"class.std::__uniq_ptr_impl.20" = type { %"class.std::tuple.21" }
%"class.std::tuple.21" = type { %"struct.std::_Tuple_impl.22" }
%"struct.std::_Tuple_impl.22" = type { %"struct.std::_Head_base.25" }
%"struct.std::_Head_base.25" = type { ptr }
%"class.dropbox::oxygen::nn.115" = type { %"class.std::shared_ptr.116" }
%"class.std::shared_ptr.116" = type { %"class.std::__shared_ptr.117" }
%"class.std::__shared_ptr.117" = type { ptr, %"class.std::__shared_count" }
%"class.dropbox::oxygen::nn.119" = type { %"class.std::shared_ptr.120" }
%"class.std::shared_ptr.120" = type { %"class.std::__shared_ptr.121" }
%"class.std::__shared_ptr.121" = type { ptr, %"class.std::__shared_count" }
%"class.dropbox::oxygen::nn.123" = type { %"class.std::shared_ptr.124" }
%"class.std::shared_ptr.124" = type { %"class.std::__shared_ptr.125" }
%"class.std::__shared_ptr.125" = type { ptr, %"class.std::__shared_count" }
%"class.std::tuple.183" = type { %"struct.std::_Tuple_impl.184" }
%"struct.std::_Tuple_impl.184" = type { %"struct.std::_Head_base.185" }
%"struct.std::_Head_base.185" = type { ptr }
%"class.std::tuple.186" = type { i8 }
%"class.dropbox::oxygen::nn.146" = type { %"class.std::shared_ptr.147" }
%"class.std::shared_ptr.147" = type { %"class.std::__shared_ptr.148" }
%"class.std::__shared_ptr.148" = type { ptr, %"class.std::__shared_count" }
%"class.dropbox::oxygen::nn.150" = type { %"class.std::shared_ptr.151" }
%"class.std::shared_ptr.151" = type { %"class.std::__shared_ptr.152" }
%"class.std::__shared_ptr.152" = type { ptr, %"class.std::__shared_count" }
%"class.dropbox::oxygen::nn.154" = type { %"class.std::shared_ptr.155" }
%"class.std::shared_ptr.155" = type { %"class.std::__shared_ptr.156" }
%"class.std::__shared_ptr.156" = type { ptr, %"class.std::__shared_count" }
%"struct.std::_Rb_tree<std::__cxx11::basic_string<char>, std::pair<const std::__cxx11::basic_string<char>, const osgeo::proj::cs::AxisDirection *>, std::_Select1st<std::pair<const std::__cxx11::basic_string<char>, const osgeo::proj::cs::AxisDirection *>>, std::less<std::__cxx11::basic_string<char>>>::_Auto_node" = type { ptr, ptr }
%"struct.std::_Rb_tree<std::__cxx11::basic_string<char>, std::pair<const std::__cxx11::basic_string<char>, const osgeo::proj::cs::RangeMeaning *>, std::_Select1st<std::pair<const std::__cxx11::basic_string<char>, const osgeo::proj::cs::RangeMeaning *>>, std::less<std::__cxx11::basic_string<char>>>::_Auto_node" = type { ptr, ptr }
%"struct.std::_Rb_tree<std::__cxx11::basic_string<char>, std::pair<const std::__cxx11::basic_string<char>, const osgeo::proj::cs::AxisDirectionWKT1 *>, std::_Select1st<std::pair<const std::__cxx11::basic_string<char>, const osgeo::proj::cs::AxisDirectionWKT1 *>>, std::less<std::__cxx11::basic_string<char>>>::_Auto_node" = type { ptr, ptr }

$_ZN5osgeo4proj2cs8Meridian14nn_make_sharedIS2_JRKNS0_6common5AngleEEEEN7dropbox6oxygen2nnISt10shared_ptrIT_EEEDpOT0_ = comdat any

$_ZN5osgeo4proj2cs20CoordinateSystemAxis14nn_make_sharedIS2_JEEEN7dropbox6oxygen2nnISt10shared_ptrIT_EEEDpOT0_ = comdat any

$_ZN7dropbox6oxygen2nnISt10shared_ptrIN5osgeo4proj2cs20CoordinateSystemAxisEEED2Ev = comdat any

$_ZStplIcSt11char_traitsIcESaIcEENSt7__cxx1112basic_stringIT_T0_T1_EEOS8_S9_ = comdat any

$_ZSteqIcSt11char_traitsIcESaIcEEbRKNSt7__cxx1112basic_stringIT_T0_T1_EESA_ = comdat any

$_ZN5osgeo4proj22CPLJSonStreamingWriter12ArrayContextD2Ev = comdat any

$_ZN5osgeo4proj2cs11SphericalCS14nn_make_sharedIS2_JRSt6vectorIN7dropbox6oxygen2nnISt10shared_ptrINS1_20CoordinateSystemAxisEEEESaISB_EEEEENS7_IS8_IT_EEEDpOT0_ = comdat any

$_ZN7dropbox6oxygen2nnISt10shared_ptrIN5osgeo4proj2cs11SphericalCSEEED2Ev = comdat any

$_ZNSt6vectorIN7dropbox6oxygen2nnISt10shared_ptrIN5osgeo4proj2cs20CoordinateSystemAxisEEEESaIS9_EED2Ev = comdat any

$_ZN5osgeo4proj2cs13EllipsoidalCS14nn_make_sharedIS2_JRSt6vectorIN7dropbox6oxygen2nnISt10shared_ptrINS1_20CoordinateSystemAxisEEEESaISB_EEEEENS7_IS8_IT_EEEDpOT0_ = comdat any

$_ZN7dropbox6oxygen2nnISt10shared_ptrIN5osgeo4proj2cs13EllipsoidalCSEEED2Ev = comdat any

$_ZNSt12__shared_ptrIN5osgeo4proj2cs8MeridianELN9__gnu_cxx12_Lock_policyE2EED2Ev = comdat any

$_ZN5osgeo4proj2cs10VerticalCS14nn_make_sharedIS2_JRKN7dropbox6oxygen2nnISt10shared_ptrINS1_20CoordinateSystemAxisEEEEEEENS6_IS7_IT_EEEDpOT0_ = comdat any

$_ZN7dropbox6oxygen2nnISt10shared_ptrIN5osgeo4proj2cs10VerticalCSEEED2Ev = comdat any

$_ZN5osgeo4proj2cs10VerticalCS14nn_make_sharedIS2_JN7dropbox6oxygen2nnISt10shared_ptrINS1_20CoordinateSystemAxisEEEEEEENS6_IS7_IT_EEEDpOT0_ = comdat any

$_ZN5osgeo4proj2cs11CartesianCS14nn_make_sharedIS2_JRSt6vectorIN7dropbox6oxygen2nnISt10shared_ptrINS1_20CoordinateSystemAxisEEEESaISB_EEEEENS7_IS8_IT_EEEDpOT0_ = comdat any

$_ZN7dropbox6oxygen2nnISt10shared_ptrIN5osgeo4proj2cs11CartesianCSEEED2Ev = comdat any

$_ZN7dropbox6oxygen2nnISt10shared_ptrIN5osgeo4proj2cs8MeridianEEED2Ev = comdat any

$_ZN5osgeo4proj2cs8AffineCS14nn_make_sharedIS2_JRSt6vectorIN7dropbox6oxygen2nnISt10shared_ptrINS1_20CoordinateSystemAxisEEEESaISB_EEEEENS7_IS8_IT_EEEDpOT0_ = comdat any

$_ZN7dropbox6oxygen2nnISt10shared_ptrIN5osgeo4proj2cs8AffineCSEEED2Ev = comdat any

$_ZN5osgeo4proj2cs9OrdinalCS14nn_make_sharedIS2_JRKSt6vectorIN7dropbox6oxygen2nnISt10shared_ptrINS1_20CoordinateSystemAxisEEEESaISB_EEEEENS7_IS8_IT_EEEDpOT0_ = comdat any

$_ZN7dropbox6oxygen2nnISt10shared_ptrIN5osgeo4proj2cs9OrdinalCSEEED2Ev = comdat any

$_ZN5osgeo4proj2cs12ParametricCS14nn_make_sharedIS2_JSt6vectorIN7dropbox6oxygen2nnISt10shared_ptrINS1_20CoordinateSystemAxisEEEESaISB_EEEEENS7_IS8_IT_EEEDpOT0_ = comdat any

$_ZN7dropbox6oxygen2nnISt10shared_ptrIN5osgeo4proj2cs12ParametricCSEEED2Ev = comdat any

$_ZNSt3mapINSt7__cxx1112basic_stringIcSt11char_traitsIcESaIcEEEPKN5osgeo4proj2cs13AxisDirectionESt4lessIS5_ESaISt4pairIKS5_SB_EEEixERSF_ = comdat any

$__clang_call_terminate = comdat any

$_ZNSt3mapINSt7__cxx1112basic_stringIcSt11char_traitsIcESaIcEEEPKN5osgeo4proj2cs12RangeMeaningESt4lessIS5_ESaISt4pairIKS5_SB_EEEixERSF_ = comdat any

$_ZNSt3mapINSt7__cxx1112basic_stringIcSt11char_traitsIcESaIcEEEPKN5osgeo4proj2cs17AxisDirectionWKT1ESt4lessIS5_ESaISt4pairIKS5_SB_EEEixERSF_ = comdat any

$_ZN5osgeo4proj2cs18DateTimeTemporalCS14nn_make_sharedIS2_JRKN7dropbox6oxygen2nnISt10shared_ptrINS1_20CoordinateSystemAxisEEEEEEENS6_IS7_IT_EEEDpOT0_ = comdat any

$_ZN7dropbox6oxygen2nnISt10shared_ptrIN5osgeo4proj2cs18DateTimeTemporalCSEEED2Ev = comdat any

$_ZN5osgeo4proj2cs15TemporalCountCS14nn_make_sharedIS2_JRKN7dropbox6oxygen2nnISt10shared_ptrINS1_20CoordinateSystemAxisEEEEEEENS6_IS7_IT_EEEDpOT0_ = comdat any

$_ZN7dropbox6oxygen2nnISt10shared_ptrIN5osgeo4proj2cs15TemporalCountCSEEED2Ev = comdat any

$_ZN5osgeo4proj2cs17TemporalMeasureCS14nn_make_sharedIS2_JRKN7dropbox6oxygen2nnISt10shared_ptrINS1_20CoordinateSystemAxisEEEEEEENS6_IS7_IT_EEEDpOT0_ = comdat any

$_ZN7dropbox6oxygen2nnISt10shared_ptrIN5osgeo4proj2cs17TemporalMeasureCSEEED2Ev = comdat any

$_ZNK5osgeo4proj2cs11SphericalCS11getWKT2TypeB5cxx11Eb = comdat any

$_ZNK5osgeo4proj2cs13EllipsoidalCS11getWKT2TypeB5cxx11Eb = comdat any

$_ZNK5osgeo4proj2cs10VerticalCS11getWKT2TypeB5cxx11Eb = comdat any

$_ZNK5osgeo4proj2cs11CartesianCS11getWKT2TypeB5cxx11Eb = comdat any

$_ZNK5osgeo4proj2cs8AffineCS11getWKT2TypeB5cxx11Eb = comdat any

$_ZNK5osgeo4proj2cs9OrdinalCS11getWKT2TypeB5cxx11Eb = comdat any

$_ZNK5osgeo4proj2cs12ParametricCS11getWKT2TypeB5cxx11Eb = comdat any

$_ZNSt16_Sp_counted_baseILN9__gnu_cxx12_Lock_policyE2EE24_M_release_last_use_coldEv = comdat any

$_ZNSt15_Sp_counted_ptrIPN5osgeo4proj2cs8MeridianELN9__gnu_cxx12_Lock_policyE2EED0Ev = comdat any

$_ZNSt15_Sp_counted_ptrIPN5osgeo4proj2cs8MeridianELN9__gnu_cxx12_Lock_policyE2EE10_M_disposeEv = comdat any

$_ZNSt15_Sp_counted_ptrIPN5osgeo4proj2cs8MeridianELN9__gnu_cxx12_Lock_policyE2EE10_M_destroyEv = comdat any

$_ZNSt15_Sp_counted_ptrIPN5osgeo4proj2cs8MeridianELN9__gnu_cxx12_Lock_policyE2EE14_M_get_deleterERKSt9type_info = comdat any

$_ZN5osgeo4proj2cs20CoordinateSystemAxis7PrivateC2Ev = comdat any

$_ZNKSt14default_deleteIN5osgeo4proj2cs20CoordinateSystemAxis7PrivateEEclEPS4_ = comdat any

$_ZNSt15_Sp_counted_ptrIPN5osgeo4proj2cs20CoordinateSystemAxisELN9__gnu_cxx12_Lock_policyE2EED0Ev = comdat any

$_ZNSt15_Sp_counted_ptrIPN5osgeo4proj2cs20CoordinateSystemAxisELN9__gnu_cxx12_Lock_policyE2EE10_M_disposeEv = comdat any

$_ZNSt15_Sp_counted_ptrIPN5osgeo4proj2cs20CoordinateSystemAxisELN9__gnu_cxx12_Lock_policyE2EE10_M_destroyEv = comdat any

$_ZNSt15_Sp_counted_ptrIPN5osgeo4proj2cs20CoordinateSystemAxisELN9__gnu_cxx12_Lock_policyE2EE14_M_get_deleterERKSt9type_info = comdat any

$_ZNSt12__shared_ptrIN5osgeo4proj4util10BaseObjectELN9__gnu_cxx12_Lock_policyE2EED2Ev = comdat any

$_ZNKSt14default_deleteIN5osgeo4proj2cs16CoordinateSystem7PrivateEEclEPS4_ = comdat any

$_ZNSt15_Sp_counted_ptrIPN5osgeo4proj2cs11SphericalCSELN9__gnu_cxx12_Lock_policyE2EED0Ev = comdat any

$_ZNSt15_Sp_counted_ptrIPN5osgeo4proj2cs11SphericalCSELN9__gnu_cxx12_Lock_policyE2EE10_M_disposeEv = comdat any

$_ZNSt15_Sp_counted_ptrIPN5osgeo4proj2cs11SphericalCSELN9__gnu_cxx12_Lock_policyE2EE10_M_destroyEv = comdat any

$_ZNSt15_Sp_counted_ptrIPN5osgeo4proj2cs11SphericalCSELN9__gnu_cxx12_Lock_policyE2EE14_M_get_deleterERKSt9type_info = comdat any

$_ZNSt15_Sp_counted_ptrIPN5osgeo4proj2cs13EllipsoidalCSELN9__gnu_cxx12_Lock_policyE2EED0Ev = comdat any

$_ZNSt15_Sp_counted_ptrIPN5osgeo4proj2cs13EllipsoidalCSELN9__gnu_cxx12_Lock_policyE2EE10_M_disposeEv = comdat any

$_ZNSt15_Sp_counted_ptrIPN5osgeo4proj2cs13EllipsoidalCSELN9__gnu_cxx12_Lock_policyE2EE10_M_destroyEv = comdat any

$_ZNSt15_Sp_counted_ptrIPN5osgeo4proj2cs13EllipsoidalCSELN9__gnu_cxx12_Lock_policyE2EE14_M_get_deleterERKSt9type_info = comdat any

$_ZNSt15_Sp_counted_ptrIPN5osgeo4proj2cs10VerticalCSELN9__gnu_cxx12_Lock_policyE2EED0Ev = comdat any

$_ZNSt15_Sp_counted_ptrIPN5osgeo4proj2cs10VerticalCSELN9__gnu_cxx12_Lock_policyE2EE10_M_disposeEv = comdat any

$_ZNSt15_Sp_counted_ptrIPN5osgeo4proj2cs10VerticalCSELN9__gnu_cxx12_Lock_policyE2EE10_M_destroyEv = comdat any

$_ZNSt15_Sp_counted_ptrIPN5osgeo4proj2cs10VerticalCSELN9__gnu_cxx12_Lock_policyE2EE14_M_get_deleterERKSt9type_info = comdat any

$_ZNSt15_Sp_counted_ptrIPN5osgeo4proj2cs11CartesianCSELN9__gnu_cxx12_Lock_policyE2EED0Ev = comdat any

$_ZNSt15_Sp_counted_ptrIPN5osgeo4proj2cs11CartesianCSELN9__gnu_cxx12_Lock_policyE2EE10_M_disposeEv = comdat any

$_ZNSt15_Sp_counted_ptrIPN5osgeo4proj2cs11CartesianCSELN9__gnu_cxx12_Lock_policyE2EE10_M_destroyEv = comdat any

$_ZNSt15_Sp_counted_ptrIPN5osgeo4proj2cs11CartesianCSELN9__gnu_cxx12_Lock_policyE2EE14_M_get_deleterERKSt9type_info = comdat any

$_ZNSt15_Sp_counted_ptrIPN5osgeo4proj2cs8AffineCSELN9__gnu_cxx12_Lock_policyE2EED0Ev = comdat any

$_ZNSt15_Sp_counted_ptrIPN5osgeo4proj2cs8AffineCSELN9__gnu_cxx12_Lock_policyE2EE10_M_disposeEv = comdat any

$_ZNSt15_Sp_counted_ptrIPN5osgeo4proj2cs8AffineCSELN9__gnu_cxx12_Lock_policyE2EE10_M_destroyEv = comdat any

$_ZNSt15_Sp_counted_ptrIPN5osgeo4proj2cs8AffineCSELN9__gnu_cxx12_Lock_policyE2EE14_M_get_deleterERKSt9type_info = comdat any

$_ZNSt15_Sp_counted_ptrIPN5osgeo4proj2cs9OrdinalCSELN9__gnu_cxx12_Lock_policyE2EED0Ev = comdat any

$_ZNSt15_Sp_counted_ptrIPN5osgeo4proj2cs9OrdinalCSELN9__gnu_cxx12_Lock_policyE2EE10_M_disposeEv = comdat any

$_ZNSt15_Sp_counted_ptrIPN5osgeo4proj2cs9OrdinalCSELN9__gnu_cxx12_Lock_policyE2EE10_M_destroyEv = comdat any

$_ZNSt15_Sp_counted_ptrIPN5osgeo4proj2cs9OrdinalCSELN9__gnu_cxx12_Lock_policyE2EE14_M_get_deleterERKSt9type_info = comdat any

$_ZNSt15_Sp_counted_ptrIPN5osgeo4proj2cs12ParametricCSELN9__gnu_cxx12_Lock_policyE2EED0Ev = comdat any

$_ZNSt15_Sp_counted_ptrIPN5osgeo4proj2cs12ParametricCSELN9__gnu_cxx12_Lock_policyE2EE10_M_disposeEv = comdat any

$_ZNSt15_Sp_counted_ptrIPN5osgeo4proj2cs12ParametricCSELN9__gnu_cxx12_Lock_policyE2EE10_M_destroyEv = comdat any

$_ZNSt15_Sp_counted_ptrIPN5osgeo4proj2cs12ParametricCSELN9__gnu_cxx12_Lock_policyE2EE14_M_get_deleterERKSt9type_info = comdat any

$_ZNSt8_Rb_treeINSt7__cxx1112basic_stringIcSt11char_traitsIcESaIcEEESt4pairIKS5_PKN5osgeo4proj2cs13AxisDirectionEESt10_Select1stISE_ESt4lessIS5_ESaISE_EE22_M_emplace_hint_uniqueIJRKSt21piecewise_construct_tSt5tupleIJRS7_EESP_IJEEEEESt17_Rb_tree_iteratorISE_ESt23_Rb_tree_const_iteratorISE_EDpOT_ = comdat any

$_ZNSt8_Rb_treeINSt7__cxx1112basic_stringIcSt11char_traitsIcESaIcEEESt4pairIKS5_PKN5osgeo4proj2cs13AxisDirectionEESt10_Select1stISE_ESt4lessIS5_ESaISE_EE29_M_get_insert_hint_unique_posESt23_Rb_tree_const_iteratorISE_ERS7_ = comdat any

$_ZNSt8_Rb_treeINSt7__cxx1112basic_stringIcSt11char_traitsIcESaIcEEESt4pairIKS5_PKN5osgeo4proj2cs13AxisDirectionEESt10_Select1stISE_ESt4lessIS5_ESaISE_EE10_Auto_nodeD2Ev = comdat any

$_ZNSt8_Rb_treeINSt7__cxx1112basic_stringIcSt11char_traitsIcESaIcEEESt4pairIKS5_PKN5osgeo4proj2cs13AxisDirectionEESt10_Select1stISE_ESt4lessIS5_ESaISE_EE17_M_construct_nodeIJRKSt21piecewise_construct_tSt5tupleIJRS7_EESP_IJEEEEEvPSt13_Rb_tree_nodeISE_EDpOT_ = comdat any

$_ZNSt8_Rb_treeINSt7__cxx1112basic_stringIcSt11char_traitsIcESaIcEEESt4pairIKS5_PKN5osgeo4proj2cs13AxisDirectionEESt10_Select1stISE_ESt4lessIS5_ESaISE_EE24_M_get_insert_unique_posERS7_ = comdat any

$_ZNSt8_Rb_treeINSt7__cxx1112basic_stringIcSt11char_traitsIcESaIcEEESt4pairIKS5_PKN5osgeo4proj2cs12RangeMeaningEESt10_Select1stISE_ESt4lessIS5_ESaISE_EE22_M_emplace_hint_uniqueIJRKSt21piecewise_construct_tSt5tupleIJRS7_EESP_IJEEEEESt17_Rb_tree_iteratorISE_ESt23_Rb_tree_const_iteratorISE_EDpOT_ = comdat any

$_ZNSt8_Rb_treeINSt7__cxx1112basic_stringIcSt11char_traitsIcESaIcEEESt4pairIKS5_PKN5osgeo4proj2cs12RangeMeaningEESt10_Select1stISE_ESt4lessIS5_ESaISE_EE29_M_get_insert_hint_unique_posESt23_Rb_tree_const_iteratorISE_ERS7_ = comdat any

$_ZNSt8_Rb_treeINSt7__cxx1112basic_stringIcSt11char_traitsIcESaIcEEESt4pairIKS5_PKN5osgeo4proj2cs12RangeMeaningEESt10_Select1stISE_ESt4lessIS5_ESaISE_EE10_Auto_nodeD2Ev = comdat any

$_ZNSt8_Rb_treeINSt7__cxx1112basic_stringIcSt11char_traitsIcESaIcEEESt4pairIKS5_PKN5osgeo4proj2cs12RangeMeaningEESt10_Select1stISE_ESt4lessIS5_ESaISE_EE17_M_construct_nodeIJRKSt21piecewise_construct_tSt5tupleIJRS7_EESP_IJEEEEEvPSt13_Rb_tree_nodeISE_EDpOT_ = comdat any

$_ZNSt8_Rb_treeINSt7__cxx1112basic_stringIcSt11char_traitsIcESaIcEEESt4pairIKS5_PKN5osgeo4proj2cs12RangeMeaningEESt10_Select1stISE_ESt4lessIS5_ESaISE_EE24_M_get_insert_unique_posERS7_ = comdat any

$_ZNSt8_Rb_treeINSt7__cxx1112basic_stringIcSt11char_traitsIcESaIcEEESt4pairIKS5_PKN5osgeo4proj2cs17AxisDirectionWKT1EESt10_Select1stISE_ESt4lessIS5_ESaISE_EE22_M_emplace_hint_uniqueIJRKSt21piecewise_construct_tSt5tupleIJRS7_EESP_IJEEEEESt17_Rb_tree_iteratorISE_ESt23_Rb_tree_const_iteratorISE_EDpOT_ = comdat any

$_ZNSt8_Rb_treeINSt7__cxx1112basic_stringIcSt11char_traitsIcESaIcEEESt4pairIKS5_PKN5osgeo4proj2cs17AxisDirectionWKT1EESt10_Select1stISE_ESt4lessIS5_ESaISE_EE29_M_get_insert_hint_unique_posESt23_Rb_tree_const_iteratorISE_ERS7_ = comdat any

$_ZNSt8_Rb_treeINSt7__cxx1112basic_stringIcSt11char_traitsIcESaIcEEESt4pairIKS5_PKN5osgeo4proj2cs17AxisDirectionWKT1EESt10_Select1stISE_ESt4lessIS5_ESaISE_EE10_Auto_nodeD2Ev = comdat any

$_ZNSt8_Rb_treeINSt7__cxx1112basic_stringIcSt11char_traitsIcESaIcEEESt4pairIKS5_PKN5osgeo4proj2cs17AxisDirectionWKT1EESt10_Select1stISE_ESt4lessIS5_ESaISE_EE17_M_construct_nodeIJRKSt21piecewise_construct_tSt5tupleIJRS7_EESP_IJEEEEEvPSt13_Rb_tree_nodeISE_EDpOT_ = comdat any

$_ZNSt8_Rb_treeINSt7__cxx1112basic_stringIcSt11char_traitsIcESaIcEEESt4pairIKS5_PKN5osgeo4proj2cs17AxisDirectionWKT1EESt10_Select1stISE_ESt4lessIS5_ESaISE_EE24_M_get_insert_unique_posERS7_ = comdat any

$_ZNSt15_Sp_counted_ptrIPN5osgeo4proj2cs18DateTimeTemporalCSELN9__gnu_cxx12_Lock_policyE2EED0Ev = comdat any

$_ZNSt15_Sp_counted_ptrIPN5osgeo4proj2cs18DateTimeTemporalCSELN9__gnu_cxx12_Lock_policyE2EE10_M_disposeEv = comdat any

$_ZNSt15_Sp_counted_ptrIPN5osgeo4proj2cs18DateTimeTemporalCSELN9__gnu_cxx12_Lock_policyE2EE10_M_destroyEv = comdat any

$_ZNSt15_Sp_counted_ptrIPN5osgeo4proj2cs18DateTimeTemporalCSELN9__gnu_cxx12_Lock_policyE2EE14_M_get_deleterERKSt9type_info = comdat any

$_ZNSt15_Sp_counted_ptrIPN5osgeo4proj2cs15TemporalCountCSELN9__gnu_cxx12_Lock_policyE2EED0Ev = comdat any

$_ZNSt15_Sp_counted_ptrIPN5osgeo4proj2cs15TemporalCountCSELN9__gnu_cxx12_Lock_policyE2EE10_M_disposeEv = comdat any

$_ZNSt15_Sp_counted_ptrIPN5osgeo4proj2cs15TemporalCountCSELN9__gnu_cxx12_Lock_policyE2EE10_M_destroyEv = comdat any

$_ZNSt15_Sp_counted_ptrIPN5osgeo4proj2cs15TemporalCountCSELN9__gnu_cxx12_Lock_policyE2EE14_M_get_deleterERKSt9type_info = comdat any

$_ZNSt16_Sp_counted_baseILN9__gnu_cxx12_Lock_policyE2EED2Ev = comdat any

$_ZNSt15_Sp_counted_ptrIPN5osgeo4proj2cs17TemporalMeasureCSELN9__gnu_cxx12_Lock_policyE2EED0Ev = comdat any

$_ZNSt15_Sp_counted_ptrIPN5osgeo4proj2cs17TemporalMeasureCSELN9__gnu_cxx12_Lock_policyE2EE10_M_disposeEv = comdat any

$_ZNSt15_Sp_counted_ptrIPN5osgeo4proj2cs17TemporalMeasureCSELN9__gnu_cxx12_Lock_policyE2EE10_M_destroyEv = comdat any

$_ZNSt15_Sp_counted_ptrIPN5osgeo4proj2cs17TemporalMeasureCSELN9__gnu_cxx12_Lock_policyE2EE14_M_get_deleterERKSt9type_info = comdat any

$_ZTVSt15_Sp_counted_ptrIPN5osgeo4proj2cs8MeridianELN9__gnu_cxx12_Lock_policyE2EE = comdat any

$_ZTISt15_Sp_counted_ptrIPN5osgeo4proj2cs8MeridianELN9__gnu_cxx12_Lock_policyE2EE = comdat any

$_ZTSSt15_Sp_counted_ptrIPN5osgeo4proj2cs8MeridianELN9__gnu_cxx12_Lock_policyE2EE = comdat any

$_ZTISt16_Sp_counted_baseILN9__gnu_cxx12_Lock_policyE2EE = comdat any

$_ZTSSt16_Sp_counted_baseILN9__gnu_cxx12_Lock_policyE2EE = comdat any

$_ZTISt11_Mutex_baseILN9__gnu_cxx12_Lock_policyE2EE = comdat any

$_ZTSSt11_Mutex_baseILN9__gnu_cxx12_Lock_policyE2EE = comdat any

$_ZTVSt15_Sp_counted_ptrIPN5osgeo4proj2cs20CoordinateSystemAxisELN9__gnu_cxx12_Lock_policyE2EE = comdat any

$_ZTISt15_Sp_counted_ptrIPN5osgeo4proj2cs20CoordinateSystemAxisELN9__gnu_cxx12_Lock_policyE2EE = comdat any

$_ZTSSt15_Sp_counted_ptrIPN5osgeo4proj2cs20CoordinateSystemAxisELN9__gnu_cxx12_Lock_policyE2EE = comdat any

$_ZTVSt15_Sp_counted_ptrIPN5osgeo4proj2cs11SphericalCSELN9__gnu_cxx12_Lock_policyE2EE = comdat any

$_ZTISt15_Sp_counted_ptrIPN5osgeo4proj2cs11SphericalCSELN9__gnu_cxx12_Lock_policyE2EE = comdat any

$_ZTSSt15_Sp_counted_ptrIPN5osgeo4proj2cs11SphericalCSELN9__gnu_cxx12_Lock_policyE2EE = comdat any

$_ZTVSt15_Sp_counted_ptrIPN5osgeo4proj2cs13EllipsoidalCSELN9__gnu_cxx12_Lock_policyE2EE = comdat any

$_ZTISt15_Sp_counted_ptrIPN5osgeo4proj2cs13EllipsoidalCSELN9__gnu_cxx12_Lock_policyE2EE = comdat any

$_ZTSSt15_Sp_counted_ptrIPN5osgeo4proj2cs13EllipsoidalCSELN9__gnu_cxx12_Lock_policyE2EE = comdat any

$_ZTVSt15_Sp_counted_ptrIPN5osgeo4proj2cs10VerticalCSELN9__gnu_cxx12_Lock_policyE2EE = comdat any

$_ZTISt15_Sp_counted_ptrIPN5osgeo4proj2cs10VerticalCSELN9__gnu_cxx12_Lock_policyE2EE = comdat any

$_ZTSSt15_Sp_counted_ptrIPN5osgeo4proj2cs10VerticalCSELN9__gnu_cxx12_Lock_policyE2EE = comdat any

$_ZTVSt15_Sp_counted_ptrIPN5osgeo4proj2cs11CartesianCSELN9__gnu_cxx12_Lock_policyE2EE = comdat any

$_ZTISt15_Sp_counted_ptrIPN5osgeo4proj2cs11CartesianCSELN9__gnu_cxx12_Lock_policyE2EE = comdat any

$_ZTSSt15_Sp_counted_ptrIPN5osgeo4proj2cs11CartesianCSELN9__gnu_cxx12_Lock_policyE2EE = comdat any

$_ZTVSt15_Sp_counted_ptrIPN5osgeo4proj2cs8AffineCSELN9__gnu_cxx12_Lock_policyE2EE = comdat any

$_ZTISt15_Sp_counted_ptrIPN5osgeo4proj2cs8AffineCSELN9__gnu_cxx12_Lock_policyE2EE = comdat any

$_ZTSSt15_Sp_counted_ptrIPN5osgeo4proj2cs8AffineCSELN9__gnu_cxx12_Lock_policyE2EE = comdat any

$_ZTVSt15_Sp_counted_ptrIPN5osgeo4proj2cs9OrdinalCSELN9__gnu_cxx12_Lock_policyE2EE = comdat any

$_ZTISt15_Sp_counted_ptrIPN5osgeo4proj2cs9OrdinalCSELN9__gnu_cxx12_Lock_policyE2EE = comdat any

$_ZTSSt15_Sp_counted_ptrIPN5osgeo4proj2cs9OrdinalCSELN9__gnu_cxx12_Lock_policyE2EE = comdat any

$_ZTVSt15_Sp_counted_ptrIPN5osgeo4proj2cs12ParametricCSELN9__gnu_cxx12_Lock_policyE2EE = comdat any

$_ZTISt15_Sp_counted_ptrIPN5osgeo4proj2cs12ParametricCSELN9__gnu_cxx12_Lock_policyE2EE = comdat any

$_ZTSSt15_Sp_counted_ptrIPN5osgeo4proj2cs12ParametricCSELN9__gnu_cxx12_Lock_policyE2EE = comdat any

$_ZSt19piecewise_construct = comdat any

$_ZTVSt15_Sp_counted_ptrIPN5osgeo4proj2cs18DateTimeTemporalCSELN9__gnu_cxx12_Lock_policyE2EE = comdat any

$_ZTISt15_Sp_counted_ptrIPN5osgeo4proj2cs18DateTimeTemporalCSELN9__gnu_cxx12_Lock_policyE2EE = comdat any

$_ZTSSt15_Sp_counted_ptrIPN5osgeo4proj2cs18DateTimeTemporalCSELN9__gnu_cxx12_Lock_policyE2EE = comdat any

$_ZTVSt15_Sp_counted_ptrIPN5osgeo4proj2cs15TemporalCountCSELN9__gnu_cxx12_Lock_policyE2EE = comdat any

$_ZTISt15_Sp_counted_ptrIPN5osgeo4proj2cs15TemporalCountCSELN9__gnu_cxx12_Lock_policyE2EE = comdat any

$_ZTSSt15_Sp_counted_ptrIPN5osgeo4proj2cs15TemporalCountCSELN9__gnu_cxx12_Lock_policyE2EE = comdat any

$_ZTVSt15_Sp_counted_ptrIPN5osgeo4proj2cs17TemporalMeasureCSELN9__gnu_cxx12_Lock_policyE2EE = comdat any

$_ZTISt15_Sp_counted_ptrIPN5osgeo4proj2cs17TemporalMeasureCSELN9__gnu_cxx12_Lock_policyE2EE = comdat any

$_ZTSSt15_Sp_counted_ptrIPN5osgeo4proj2cs17TemporalMeasureCSELN9__gnu_cxx12_Lock_policyE2EE = comdat any

@_ZTVN5osgeo4proj2cs8MeridianE = unnamed_addr constant { [8 x ptr], [5 x ptr], [5 x ptr], [5 x ptr] } { [8 x ptr] [ptr null, ptr @_ZTIN5osgeo4proj2cs8MeridianE, ptr @_ZN5osgeo4proj2cs8MeridianD1Ev, ptr @_ZN5osgeo4proj2cs8MeridianD0Ev, ptr @_ZNK5osgeo4proj6common16IdentifiedObject15_isEquivalentToEPKNS0_4util11IComparableENS4_9CriterionERKSt10shared_ptrINS0_2io15DatabaseContextEE, ptr @_ZNK5osgeo4proj6common16IdentifiedObject29hasEquivalentNameToUsingAliasEPKS2_RKSt10shared_ptrINS0_2io15DatabaseContextEE, ptr @_ZNK5osgeo4proj2cs8Meridian12_exportToWKTEPNS0_2io12WKTFormatterE, ptr @_ZNK5osgeo4proj2cs8Meridian13_exportToJSONEPNS0_2io13JSONFormatterE], [5 x ptr] [ptr inttoptr (i64 -16 to ptr), ptr @_ZTIN5osgeo4proj2cs8MeridianE, ptr @_ZThn16_N5osgeo4proj2cs8MeridianD1Ev, ptr @_ZThn16_N5osgeo4proj2cs8MeridianD0Ev, ptr @_ZThn16_NK5osgeo4proj6common16IdentifiedObject15_isEquivalentToEPKNS0_4util11IComparableENS4_9CriterionERKSt10shared_ptrINS0_2io15DatabaseContextEE], [5 x ptr] [ptr inttoptr (i64 -24 to ptr), ptr @_ZTIN5osgeo4proj2cs8MeridianE, ptr @_ZThn24_N5osgeo4proj2cs8MeridianD1Ev, ptr @_ZThn24_N5osgeo4proj2cs8MeridianD0Ev, ptr @_ZThn24_NK5osgeo4proj2cs8Meridian12_exportToWKTEPNS0_2io12WKTFormatterE], [5 x ptr] [ptr inttoptr (i64 -40 to ptr), ptr @_ZTIN5osgeo4proj2cs8MeridianE, ptr @_ZThn40_N5osgeo4proj2cs8MeridianD1Ev, ptr @_ZThn40_N5osgeo4proj2cs8MeridianD0Ev, ptr @_ZThn40_NK5osgeo4proj2cs8Meridian13_exportToJSONEPNS0_2io13JSONFormatterE] }, align 8
@_ZN5osgeo4proj2io12WKTConstants8MERIDIANB5cxx11E = external global %"class.std::__cxx11::basic_string", align 8
@_ZN5osgeo4proj2io12WKTConstants9ANGLEUNITB5cxx11E = external global %"class.std::__cxx11::basic_string", align 8
@.str = private unnamed_addr constant [9 x i8] c"Meridian\00", align 1
@.str.1 = private unnamed_addr constant [10 x i8] c"longitude\00", align 1
@_ZN5osgeo4proj6common13UnitOfMeasure6DEGREEE = external global %"class.osgeo::proj::common::UnitOfMeasure", align 8
@.str.2 = private unnamed_addr constant [6 x i8] c"value\00", align 1
@_ZTVN5osgeo4proj2cs20CoordinateSystemAxisE = unnamed_addr constant { [8 x ptr], [5 x ptr], [5 x ptr], [5 x ptr] } { [8 x ptr] [ptr null, ptr @_ZTIN5osgeo4proj2cs20CoordinateSystemAxisE, ptr @_ZN5osgeo4proj2cs20CoordinateSystemAxisD1Ev, ptr @_ZN5osgeo4proj2cs20CoordinateSystemAxisD0Ev, ptr @_ZNK5osgeo4proj2cs20CoordinateSystemAxis15_isEquivalentToEPKNS0_4util11IComparableENS4_9CriterionERKSt10shared_ptrINS0_2io15DatabaseContextEE, ptr @_ZNK5osgeo4proj6common16IdentifiedObject29hasEquivalentNameToUsingAliasEPKS2_RKSt10shared_ptrINS0_2io15DatabaseContextEE, ptr @_ZNK5osgeo4proj2cs20CoordinateSystemAxis12_exportToWKTEPNS0_2io12WKTFormatterE, ptr @_ZNK5osgeo4proj2cs20CoordinateSystemAxis13_exportToJSONEPNS0_2io13JSONFormatterE], [5 x ptr] [ptr inttoptr (i64 -16 to ptr), ptr @_ZTIN5osgeo4proj2cs20CoordinateSystemAxisE, ptr @_ZThn16_N5osgeo4proj2cs20CoordinateSystemAxisD1Ev, ptr @_ZThn16_N5osgeo4proj2cs20CoordinateSystemAxisD0Ev, ptr @_ZThn16_NK5osgeo4proj2cs20CoordinateSystemAxis15_isEquivalentToEPKNS0_4util11IComparableENS4_9CriterionERKSt10shared_ptrINS0_2io15DatabaseContextEE], [5 x ptr] [ptr inttoptr (i64 -24 to ptr), ptr @_ZTIN5osgeo4proj2cs20CoordinateSystemAxisE, ptr @_ZThn24_N5osgeo4proj2cs20CoordinateSystemAxisD1Ev, ptr @_ZThn24_N5osgeo4proj2cs20CoordinateSystemAxisD0Ev, ptr @_ZThn24_NK5osgeo4proj2cs20CoordinateSystemAxis12_exportToWKTEPNS0_2io12WKTFormatterE], [5 x ptr] [ptr inttoptr (i64 -40 to ptr), ptr @_ZTIN5osgeo4proj2cs20CoordinateSystemAxisE, ptr @_ZThn40_N5osgeo4proj2cs20CoordinateSystemAxisD1Ev, ptr @_ZThn40_N5osgeo4proj2cs20CoordinateSystemAxisD0Ev, ptr @_ZThn40_NK5osgeo4proj2cs20CoordinateSystemAxis13_exportToJSONEPNS0_2io13JSONFormatterE] }, align 8
@_ZN5osgeo4proj2io12WKTConstants4AXISB5cxx11E = external global %"class.std::__cxx11::basic_string", align 8
@.str.5 = private unnamed_addr constant [2 x i8] c")\00", align 1
@.str.6 = private unnamed_addr constant [18 x i8] c"Geodetic latitude\00", align 1
@.str.7 = private unnamed_addr constant [9 x i8] c"Latitude\00", align 1
@.str.8 = private unnamed_addr constant [19 x i8] c"Geodetic longitude\00", align 1
@.str.9 = private unnamed_addr constant [10 x i8] c"Longitude\00", align 1
@_ZN5osgeo4proj2cs8AxisName8LatitudeB5cxx11E = external global %"class.std::__cxx11::basic_string", align 8
@_ZN5osgeo4proj2cs8AxisName9LongitudeB5cxx11E = external global %"class.std::__cxx11::basic_string", align 8
@.str.10 = private unnamed_addr constant [2 x i8] c" \00", align 1
@_ZN5osgeo4proj2cs13AxisDirection12GEOCENTRIC_ZE = external global %"class.osgeo::proj::cs::AxisDirection", align 8
@_ZN5osgeo4proj2cs17AxisDirectionWKT15NORTHE = external local_unnamed_addr global %"class.osgeo::proj::cs::AxisDirectionWKT1", align 8
@_ZN5osgeo4proj2cs17AxisDirectionWKT15OTHERE = external local_unnamed_addr global %"class.osgeo::proj::cs::AxisDirectionWKT1", align 8
@_ZN5osgeo4proj2cs13AxisDirection12GEOCENTRIC_XE = external global %"class.osgeo::proj::cs::AxisDirection", align 8
@_ZN5osgeo4proj2cs13AxisDirection12GEOCENTRIC_YE = external global %"class.osgeo::proj::cs::AxisDirection", align 8
@_ZN5osgeo4proj2cs8AxisName7EastingB5cxx11E = external global %"class.std::__cxx11::basic_string", align 8
@_ZN5osgeo4proj2cs16AxisAbbreviation1EB5cxx11E = external global %"class.std::__cxx11::basic_string", align 8
@_ZN5osgeo4proj2cs8AxisName8NorthingB5cxx11E = external global %"class.std::__cxx11::basic_string", align 8
@_ZN5osgeo4proj2cs16AxisAbbreviation1NB5cxx11E = external global %"class.std::__cxx11::basic_string", align 8
@_ZN5osgeo4proj2io12WKTConstants5ORDERB5cxx11E = external global %"class.std::__cxx11::basic_string", align 8
@_ZN5osgeo4proj2io12WKTConstants12AXISMINVALUEB5cxx11E = external global %"class.std::__cxx11::basic_string", align 8
@_ZN5osgeo4proj2io12WKTConstants12AXISMAXVALUEB5cxx11E = external global %"class.std::__cxx11::basic_string", align 8
@_ZN5osgeo4proj2io12WKTConstants12RANGEMEANINGB5cxx11E = external global %"class.std::__cxx11::basic_string", align 8
@.str.11 = private unnamed_addr constant [5 x i8] c"Axis\00", align 1
@.str.13 = private unnamed_addr constant [13 x i8] c"abbreviation\00", align 1
@.str.14 = private unnamed_addr constant [10 x i8] c"direction\00", align 1
@_ZN5osgeo4proj6common13UnitOfMeasure5METREE = external global %"class.osgeo::proj::common::UnitOfMeasure", align 8
@.str.16 = private unnamed_addr constant [14 x i8] c"minimum_value\00", align 1
@.str.17 = private unnamed_addr constant [14 x i8] c"maximum_value\00", align 1
@.str.18 = private unnamed_addr constant [14 x i8] c"range_meaning\00", align 1
@_ZN5osgeo4proj6common16IdentifiedObject8NAME_KEYB5cxx11E = external global %"class.std::__cxx11::basic_string", align 8
@_ZTVN5osgeo4proj2cs16CoordinateSystemE = unnamed_addr constant { [9 x ptr], [5 x ptr], [5 x ptr], [5 x ptr] } { [9 x ptr] [ptr null, ptr @_ZTIN5osgeo4proj2cs16CoordinateSystemE, ptr @_ZN5osgeo4proj2cs16CoordinateSystemD1Ev, ptr @_ZN5osgeo4proj2cs16CoordinateSystemD0Ev, ptr @_ZNK5osgeo4proj2cs16CoordinateSystem15_isEquivalentToEPKNS0_4util11IComparableENS4_9CriterionERKSt10shared_ptrINS0_2io15DatabaseContextEE, ptr @_ZNK5osgeo4proj6common16IdentifiedObject29hasEquivalentNameToUsingAliasEPKS2_RKSt10shared_ptrINS0_2io15DatabaseContextEE, ptr @_ZNK5osgeo4proj2cs16CoordinateSystem12_exportToWKTEPNS0_2io12WKTFormatterE, ptr @_ZNK5osgeo4proj2cs16CoordinateSystem13_exportToJSONEPNS0_2io13JSONFormatterE, ptr @__cxa_pure_virtual], [5 x ptr] [ptr inttoptr (i64 -16 to ptr), ptr @_ZTIN5osgeo4proj2cs16CoordinateSystemE, ptr @_ZThn16_N5osgeo4proj2cs16CoordinateSystemD1Ev, ptr @_ZThn16_N5osgeo4proj2cs16CoordinateSystemD0Ev, ptr @_ZThn16_NK5osgeo4proj2cs16CoordinateSystem15_isEquivalentToEPKNS0_4util11IComparableENS4_9CriterionERKSt10shared_ptrINS0_2io15DatabaseContextEE], [5 x ptr] [ptr inttoptr (i64 -24 to ptr), ptr @_ZTIN5osgeo4proj2cs16CoordinateSystemE, ptr @_ZThn24_N5osgeo4proj2cs16CoordinateSystemD1Ev, ptr @_ZThn24_N5osgeo4proj2cs16CoordinateSystemD0Ev, ptr @_ZThn24_NK5osgeo4proj2cs16CoordinateSystem12_exportToWKTEPNS0_2io12WKTFormatterE], [5 x ptr] [ptr inttoptr (i64 -40 to ptr), ptr @_ZTIN5osgeo4proj2cs16CoordinateSystemE, ptr @_ZThn40_N5osgeo4proj2cs16CoordinateSystemD1Ev, ptr @_ZThn40_N5osgeo4proj2cs16CoordinateSystemD0Ev, ptr @_ZThn40_NK5osgeo4proj2cs16CoordinateSystem13_exportToJSONEPNS0_2io13JSONFormatterE] }, align 8
@_ZN5osgeo4proj2io12WKTConstants3CS_B5cxx11E = external global %"class.std::__cxx11::basic_string", align 8
@_ZN5osgeo4proj6common13UnitOfMeasure4NONEE = external global %"class.osgeo::proj::common::UnitOfMeasure", align 8
@_ZN5osgeo4proj2cs8AxisName18Ellipsoidal_heightB5cxx11E = external global %"class.std::__cxx11::basic_string", align 8
@.str.19 = private unnamed_addr constant [17 x i8] c"CoordinateSystem\00", align 1
@.str.20 = private unnamed_addr constant [8 x i8] c"subtype\00", align 1
@_ZTIN5osgeo4proj4util11IComparableE = external constant ptr
@_ZTIN5osgeo4proj2cs16CoordinateSystemE = constant { ptr, ptr, i32, i32, ptr, i64, ptr, i64 } { ptr getelementptr inbounds (ptr, ptr @_ZTVN10__cxxabiv121__vmi_class_type_infoE, i64 2), ptr @_ZTSN5osgeo4proj2cs16CoordinateSystemE, i32 0, i32 2, ptr @_ZTIN5osgeo4proj6common16IdentifiedObjectE, i64 2, ptr @_ZTIN5osgeo4proj2io15IJSONExportableE, i64 10242 }, align 8
@_ZTVN10__cxxabiv121__vmi_class_type_infoE = external global [0 x ptr]
@_ZTSN5osgeo4proj2cs16CoordinateSystemE = constant [35 x i8] c"N5osgeo4proj2cs16CoordinateSystemE\00", align 1
@_ZTIN5osgeo4proj6common16IdentifiedObjectE = external constant ptr
@_ZTIN5osgeo4proj2io15IJSONExportableE = external constant ptr
@_ZTVN5osgeo4proj2cs11SphericalCSE = unnamed_addr constant { [9 x ptr], [5 x ptr], [5 x ptr], [5 x ptr] } { [9 x ptr] [ptr null, ptr @_ZTIN5osgeo4proj2cs11SphericalCSE, ptr @_ZN5osgeo4proj2cs11SphericalCSD1Ev, ptr @_ZN5osgeo4proj2cs11SphericalCSD0Ev, ptr @_ZNK5osgeo4proj2cs16CoordinateSystem15_isEquivalentToEPKNS0_4util11IComparableENS4_9CriterionERKSt10shared_ptrINS0_2io15DatabaseContextEE, ptr @_ZNK5osgeo4proj6common16IdentifiedObject29hasEquivalentNameToUsingAliasEPKS2_RKSt10shared_ptrINS0_2io15DatabaseContextEE, ptr @_ZNK5osgeo4proj2cs16CoordinateSystem12_exportToWKTEPNS0_2io12WKTFormatterE, ptr @_ZNK5osgeo4proj2cs16CoordinateSystem13_exportToJSONEPNS0_2io13JSONFormatterE, ptr @_ZNK5osgeo4proj2cs11SphericalCS11getWKT2TypeB5cxx11Eb], [5 x ptr] [ptr inttoptr (i64 -16 to ptr), ptr @_ZTIN5osgeo4proj2cs11SphericalCSE, ptr @_ZThn16_N5osgeo4proj2cs11SphericalCSD1Ev, ptr @_ZThn16_N5osgeo4proj2cs11SphericalCSD0Ev, ptr @_ZThn16_NK5osgeo4proj2cs16CoordinateSystem15_isEquivalentToEPKNS0_4util11IComparableENS4_9CriterionERKSt10shared_ptrINS0_2io15DatabaseContextEE], [5 x ptr] [ptr inttoptr (i64 -24 to ptr), ptr @_ZTIN5osgeo4proj2cs11SphericalCSE, ptr @_ZThn24_N5osgeo4proj2cs11SphericalCSD1Ev, ptr @_ZThn24_N5osgeo4proj2cs11SphericalCSD0Ev, ptr @_ZThn24_NK5osgeo4proj2cs16CoordinateSystem12_exportToWKTEPNS0_2io12WKTFormatterE], [5 x ptr] [ptr inttoptr (i64 -40 to ptr), ptr @_ZTIN5osgeo4proj2cs11SphericalCSE, ptr @_ZThn40_N5osgeo4proj2cs11SphericalCSD1Ev, ptr @_ZThn40_N5osgeo4proj2cs11SphericalCSD0Ev, ptr @_ZThn40_NK5osgeo4proj2cs16CoordinateSystem13_exportToJSONEPNS0_2io13JSONFormatterE] }, align 8
@_ZTVN5osgeo4proj2cs13EllipsoidalCSE = unnamed_addr constant { [9 x ptr], [5 x ptr], [5 x ptr], [5 x ptr] } { [9 x ptr] [ptr null, ptr @_ZTIN5osgeo4proj2cs13EllipsoidalCSE, ptr @_ZN5osgeo4proj2cs13EllipsoidalCSD1Ev, ptr @_ZN5osgeo4proj2cs13EllipsoidalCSD0Ev, ptr @_ZNK5osgeo4proj2cs16CoordinateSystem15_isEquivalentToEPKNS0_4util11IComparableENS4_9CriterionERKSt10shared_ptrINS0_2io15DatabaseContextEE, ptr @_ZNK5osgeo4proj6common16IdentifiedObject29hasEquivalentNameToUsingAliasEPKS2_RKSt10shared_ptrINS0_2io15DatabaseContextEE, ptr @_ZNK5osgeo4proj2cs16CoordinateSystem12_exportToWKTEPNS0_2io12WKTFormatterE, ptr @_ZNK5osgeo4proj2cs16CoordinateSystem13_exportToJSONEPNS0_2io13JSONFormatterE, ptr @_ZNK5osgeo4proj2cs13EllipsoidalCS11getWKT2TypeB5cxx11Eb], [5 x ptr] [ptr inttoptr (i64 -16 to ptr), ptr @_ZTIN5osgeo4proj2cs13EllipsoidalCSE, ptr @_ZThn16_N5osgeo4proj2cs13EllipsoidalCSD1Ev, ptr @_ZThn16_N5osgeo4proj2cs13EllipsoidalCSD0Ev, ptr @_ZThn16_NK5osgeo4proj2cs16CoordinateSystem15_isEquivalentToEPKNS0_4util11IComparableENS4_9CriterionERKSt10shared_ptrINS0_2io15DatabaseContextEE], [5 x ptr] [ptr inttoptr (i64 -24 to ptr), ptr @_ZTIN5osgeo4proj2cs13EllipsoidalCSE, ptr @_ZThn24_N5osgeo4proj2cs13EllipsoidalCSD1Ev, ptr @_ZThn24_N5osgeo4proj2cs13EllipsoidalCSD0Ev, ptr @_ZThn24_NK5osgeo4proj2cs16CoordinateSystem12_exportToWKTEPNS0_2io12WKTFormatterE], [5 x ptr] [ptr inttoptr (i64 -40 to ptr), ptr @_ZTIN5osgeo4proj2cs13EllipsoidalCSE, ptr @_ZThn40_N5osgeo4proj2cs13EllipsoidalCSD1Ev, ptr @_ZThn40_N5osgeo4proj2cs13EllipsoidalCSD0Ev, ptr @_ZThn40_NK5osgeo4proj2cs16CoordinateSystem13_exportToJSONEPNS0_2io13JSONFormatterE] }, align 8
@_ZN5osgeo4proj2cs16AxisAbbreviation3latB5cxx11E = external global %"class.std::__cxx11::basic_string", align 8
@_ZN5osgeo4proj2cs13AxisDirection5NORTHE = external global %"class.osgeo::proj::cs::AxisDirection", align 8
@_ZN5osgeo4proj2cs16AxisAbbreviation3lonB5cxx11E = external global %"class.std::__cxx11::basic_string", align 8
@_ZN5osgeo4proj2cs13AxisDirection4EASTE = external global %"class.osgeo::proj::cs::AxisDirection", align 8
@_ZN5osgeo4proj2cs16AxisAbbreviation1hB5cxx11E = external global %"class.std::__cxx11::basic_string", align 8
@_ZN5osgeo4proj2cs13AxisDirection2UPE = external global %"class.osgeo::proj::cs::AxisDirection", align 8
@_ZTVN5osgeo4proj2cs10VerticalCSE = unnamed_addr constant { [9 x ptr], [5 x ptr], [5 x ptr], [5 x ptr] } { [9 x ptr] [ptr null, ptr @_ZTIN5osgeo4proj2cs10VerticalCSE, ptr @_ZN5osgeo4proj2cs10VerticalCSD1Ev, ptr @_ZN5osgeo4proj2cs10VerticalCSD0Ev, ptr @_ZNK5osgeo4proj2cs16CoordinateSystem15_isEquivalentToEPKNS0_4util11IComparableENS4_9CriterionERKSt10shared_ptrINS0_2io15DatabaseContextEE, ptr @_ZNK5osgeo4proj6common16IdentifiedObject29hasEquivalentNameToUsingAliasEPKS2_RKSt10shared_ptrINS0_2io15DatabaseContextEE, ptr @_ZNK5osgeo4proj2cs16CoordinateSystem12_exportToWKTEPNS0_2io12WKTFormatterE, ptr @_ZNK5osgeo4proj2cs16CoordinateSystem13_exportToJSONEPNS0_2io13JSONFormatterE, ptr @_ZNK5osgeo4proj2cs10VerticalCS11getWKT2TypeB5cxx11Eb], [5 x ptr] [ptr inttoptr (i64 -16 to ptr), ptr @_ZTIN5osgeo4proj2cs10VerticalCSE, ptr @_ZThn16_N5osgeo4proj2cs10VerticalCSD1Ev, ptr @_ZThn16_N5osgeo4proj2cs10VerticalCSD0Ev, ptr @_ZThn16_NK5osgeo4proj2cs16CoordinateSystem15_isEquivalentToEPKNS0_4util11IComparableENS4_9CriterionERKSt10shared_ptrINS0_2io15DatabaseContextEE], [5 x ptr] [ptr inttoptr (i64 -24 to ptr), ptr @_ZTIN5osgeo4proj2cs10VerticalCSE, ptr @_ZThn24_N5osgeo4proj2cs10VerticalCSD1Ev, ptr @_ZThn24_N5osgeo4proj2cs10VerticalCSD0Ev, ptr @_ZThn24_NK5osgeo4proj2cs16CoordinateSystem12_exportToWKTEPNS0_2io12WKTFormatterE], [5 x ptr] [ptr inttoptr (i64 -40 to ptr), ptr @_ZTIN5osgeo4proj2cs10VerticalCSE, ptr @_ZThn40_N5osgeo4proj2cs10VerticalCSD1Ev, ptr @_ZThn40_N5osgeo4proj2cs10VerticalCSD0Ev, ptr @_ZThn40_NK5osgeo4proj2cs16CoordinateSystem13_exportToJSONEPNS0_2io13JSONFormatterE] }, align 8
@.str.22 = private unnamed_addr constant [23 x i8] c"Gravity-related height\00", align 1
@_ZTVN5osgeo4proj2cs11CartesianCSE = unnamed_addr constant { [9 x ptr], [5 x ptr], [5 x ptr], [5 x ptr] } { [9 x ptr] [ptr null, ptr @_ZTIN5osgeo4proj2cs11CartesianCSE, ptr @_ZN5osgeo4proj2cs11CartesianCSD1Ev, ptr @_ZN5osgeo4proj2cs11CartesianCSD0Ev, ptr @_ZNK5osgeo4proj2cs16CoordinateSystem15_isEquivalentToEPKNS0_4util11IComparableENS4_9CriterionERKSt10shared_ptrINS0_2io15DatabaseContextEE, ptr @_ZNK5osgeo4proj6common16IdentifiedObject29hasEquivalentNameToUsingAliasEPKS2_RKSt10shared_ptrINS0_2io15DatabaseContextEE, ptr @_ZNK5osgeo4proj2cs16CoordinateSystem12_exportToWKTEPNS0_2io12WKTFormatterE, ptr @_ZNK5osgeo4proj2cs16CoordinateSystem13_exportToJSONEPNS0_2io13JSONFormatterE, ptr @_ZNK5osgeo4proj2cs11CartesianCS11getWKT2TypeB5cxx11Eb], [5 x ptr] [ptr inttoptr (i64 -16 to ptr), ptr @_ZTIN5osgeo4proj2cs11CartesianCSE, ptr @_ZThn16_N5osgeo4proj2cs11CartesianCSD1Ev, ptr @_ZThn16_N5osgeo4proj2cs11CartesianCSD0Ev, ptr @_ZThn16_NK5osgeo4proj2cs16CoordinateSystem15_isEquivalentToEPKNS0_4util11IComparableENS4_9CriterionERKSt10shared_ptrINS0_2io15DatabaseContextEE], [5 x ptr] [ptr inttoptr (i64 -24 to ptr), ptr @_ZTIN5osgeo4proj2cs11CartesianCSE, ptr @_ZThn24_N5osgeo4proj2cs11CartesianCSD1Ev, ptr @_ZThn24_N5osgeo4proj2cs11CartesianCSD0Ev, ptr @_ZThn24_NK5osgeo4proj2cs16CoordinateSystem12_exportToWKTEPNS0_2io12WKTFormatterE], [5 x ptr] [ptr inttoptr (i64 -40 to ptr), ptr @_ZTIN5osgeo4proj2cs11CartesianCSE, ptr @_ZThn40_N5osgeo4proj2cs11CartesianCSD1Ev, ptr @_ZThn40_N5osgeo4proj2cs11CartesianCSD0Ev, ptr @_ZThn40_NK5osgeo4proj2cs16CoordinateSystem13_exportToJSONEPNS0_2io13JSONFormatterE] }, align 8
@_ZN5osgeo4proj2cs16AxisAbbreviation1YB5cxx11E = external global %"class.std::__cxx11::basic_string", align 8
@_ZN5osgeo4proj2cs13AxisDirection4WESTE = external global %"class.osgeo::proj::cs::AxisDirection", align 8
@_ZN5osgeo4proj2cs16AxisAbbreviation1XB5cxx11E = external global %"class.std::__cxx11::basic_string", align 8
@_ZN5osgeo4proj2cs13AxisDirection5SOUTHE = external global %"class.osgeo::proj::cs::AxisDirection", align 8
@_ZN5osgeo4proj2cs8AxisName12Geocentric_XB5cxx11E = external global %"class.std::__cxx11::basic_string", align 8
@_ZN5osgeo4proj2cs8AxisName12Geocentric_YB5cxx11E = external global %"class.std::__cxx11::basic_string", align 8
@_ZN5osgeo4proj2cs8AxisName12Geocentric_ZB5cxx11E = external global %"class.std::__cxx11::basic_string", align 8
@_ZN5osgeo4proj2cs16AxisAbbreviation1ZB5cxx11E = external global %"class.std::__cxx11::basic_string", align 8
@_ZTVN5osgeo4proj2cs8AffineCSE = unnamed_addr constant { [9 x ptr], [5 x ptr], [5 x ptr], [5 x ptr] } { [9 x ptr] [ptr null, ptr @_ZTIN5osgeo4proj2cs8AffineCSE, ptr @_ZN5osgeo4proj2cs8AffineCSD1Ev, ptr @_ZN5osgeo4proj2cs8AffineCSD0Ev, ptr @_ZNK5osgeo4proj2cs16CoordinateSystem15_isEquivalentToEPKNS0_4util11IComparableENS4_9CriterionERKSt10shared_ptrINS0_2io15DatabaseContextEE, ptr @_ZNK5osgeo4proj6common16IdentifiedObject29hasEquivalentNameToUsingAliasEPKS2_RKSt10shared_ptrINS0_2io15DatabaseContextEE, ptr @_ZNK5osgeo4proj2cs16CoordinateSystem12_exportToWKTEPNS0_2io12WKTFormatterE, ptr @_ZNK5osgeo4proj2cs16CoordinateSystem13_exportToJSONEPNS0_2io13JSONFormatterE, ptr @_ZNK5osgeo4proj2cs8AffineCS11getWKT2TypeB5cxx11Eb], [5 x ptr] [ptr inttoptr (i64 -16 to ptr), ptr @_ZTIN5osgeo4proj2cs8AffineCSE, ptr @_ZThn16_N5osgeo4proj2cs8AffineCSD1Ev, ptr @_ZThn16_N5osgeo4proj2cs8AffineCSD0Ev, ptr @_ZThn16_NK5osgeo4proj2cs16CoordinateSystem15_isEquivalentToEPKNS0_4util11IComparableENS4_9CriterionERKSt10shared_ptrINS0_2io15DatabaseContextEE], [5 x ptr] [ptr inttoptr (i64 -24 to ptr), ptr @_ZTIN5osgeo4proj2cs8AffineCSE, ptr @_ZThn24_N5osgeo4proj2cs8AffineCSD1Ev, ptr @_ZThn24_N5osgeo4proj2cs8AffineCSD0Ev, ptr @_ZThn24_NK5osgeo4proj2cs16CoordinateSystem12_exportToWKTEPNS0_2io12WKTFormatterE], [5 x ptr] [ptr inttoptr (i64 -40 to ptr), ptr @_ZTIN5osgeo4proj2cs8AffineCSE, ptr @_ZThn40_N5osgeo4proj2cs8AffineCSD1Ev, ptr @_ZThn40_N5osgeo4proj2cs8AffineCSD0Ev, ptr @_ZThn40_NK5osgeo4proj2cs16CoordinateSystem13_exportToJSONEPNS0_2io13JSONFormatterE] }, align 8
@_ZTVN5osgeo4proj2cs9OrdinalCSE = unnamed_addr constant { [9 x ptr], [5 x ptr], [5 x ptr], [5 x ptr] } { [9 x ptr] [ptr null, ptr @_ZTIN5osgeo4proj2cs9OrdinalCSE, ptr @_ZN5osgeo4proj2cs9OrdinalCSD1Ev, ptr @_ZN5osgeo4proj2cs9OrdinalCSD0Ev, ptr @_ZNK5osgeo4proj2cs16CoordinateSystem15_isEquivalentToEPKNS0_4util11IComparableENS4_9CriterionERKSt10shared_ptrINS0_2io15DatabaseContextEE, ptr @_ZNK5osgeo4proj6common16IdentifiedObject29hasEquivalentNameToUsingAliasEPKS2_RKSt10shared_ptrINS0_2io15DatabaseContextEE, ptr @_ZNK5osgeo4proj2cs16CoordinateSystem12_exportToWKTEPNS0_2io12WKTFormatterE, ptr @_ZNK5osgeo4proj2cs16CoordinateSystem13_exportToJSONEPNS0_2io13JSONFormatterE, ptr @_ZNK5osgeo4proj2cs9OrdinalCS11getWKT2TypeB5cxx11Eb], [5 x ptr] [ptr inttoptr (i64 -16 to ptr), ptr @_ZTIN5osgeo4proj2cs9OrdinalCSE, ptr @_ZThn16_N5osgeo4proj2cs9OrdinalCSD1Ev, ptr @_ZThn16_N5osgeo4proj2cs9OrdinalCSD0Ev, ptr @_ZThn16_NK5osgeo4proj2cs16CoordinateSystem15_isEquivalentToEPKNS0_4util11IComparableENS4_9CriterionERKSt10shared_ptrINS0_2io15DatabaseContextEE], [5 x ptr] [ptr inttoptr (i64 -24 to ptr), ptr @_ZTIN5osgeo4proj2cs9OrdinalCSE, ptr @_ZThn24_N5osgeo4proj2cs9OrdinalCSD1Ev, ptr @_ZThn24_N5osgeo4proj2cs9OrdinalCSD0Ev, ptr @_ZThn24_NK5osgeo4proj2cs16CoordinateSystem12_exportToWKTEPNS0_2io12WKTFormatterE], [5 x ptr] [ptr inttoptr (i64 -40 to ptr), ptr @_ZTIN5osgeo4proj2cs9OrdinalCSE, ptr @_ZThn40_N5osgeo4proj2cs9OrdinalCSD1Ev, ptr @_ZThn40_N5osgeo4proj2cs9OrdinalCSD0Ev, ptr @_ZThn40_NK5osgeo4proj2cs16CoordinateSystem13_exportToJSONEPNS0_2io13JSONFormatterE] }, align 8
@_ZTVN5osgeo4proj2cs12ParametricCSE = unnamed_addr constant { [9 x ptr], [5 x ptr], [5 x ptr], [5 x ptr] } { [9 x ptr] [ptr null, ptr @_ZTIN5osgeo4proj2cs12ParametricCSE, ptr @_ZN5osgeo4proj2cs12ParametricCSD1Ev, ptr @_ZN5osgeo4proj2cs12ParametricCSD0Ev, ptr @_ZNK5osgeo4proj2cs16CoordinateSystem15_isEquivalentToEPKNS0_4util11IComparableENS4_9CriterionERKSt10shared_ptrINS0_2io15DatabaseContextEE, ptr @_ZNK5osgeo4proj6common16IdentifiedObject29hasEquivalentNameToUsingAliasEPKS2_RKSt10shared_ptrINS0_2io15DatabaseContextEE, ptr @_ZNK5osgeo4proj2cs16CoordinateSystem12_exportToWKTEPNS0_2io12WKTFormatterE, ptr @_ZNK5osgeo4proj2cs16CoordinateSystem13_exportToJSONEPNS0_2io13JSONFormatterE, ptr @_ZNK5osgeo4proj2cs12ParametricCS11getWKT2TypeB5cxx11Eb], [5 x ptr] [ptr inttoptr (i64 -16 to ptr), ptr @_ZTIN5osgeo4proj2cs12ParametricCSE, ptr @_ZThn16_N5osgeo4proj2cs12ParametricCSD1Ev, ptr @_ZThn16_N5osgeo4proj2cs12ParametricCSD0Ev, ptr @_ZThn16_NK5osgeo4proj2cs16CoordinateSystem15_isEquivalentToEPKNS0_4util11IComparableENS4_9CriterionERKSt10shared_ptrINS0_2io15DatabaseContextEE], [5 x ptr] [ptr inttoptr (i64 -24 to ptr), ptr @_ZTIN5osgeo4proj2cs12ParametricCSE, ptr @_ZThn24_N5osgeo4proj2cs12ParametricCSD1Ev, ptr @_ZThn24_N5osgeo4proj2cs12ParametricCSD0Ev, ptr @_ZThn24_NK5osgeo4proj2cs16CoordinateSystem12_exportToWKTEPNS0_2io12WKTFormatterE], [5 x ptr] [ptr inttoptr (i64 -40 to ptr), ptr @_ZTIN5osgeo4proj2cs12ParametricCSE, ptr @_ZThn40_N5osgeo4proj2cs12ParametricCSD1Ev, ptr @_ZThn40_N5osgeo4proj2cs12ParametricCSD0Ev, ptr @_ZThn40_NK5osgeo4proj2cs16CoordinateSystem13_exportToJSONEPNS0_2io13JSONFormatterE] }, align 8
@_ZN5osgeo4proj2cs13AxisDirection8registryB5cxx11E = external global %"class.std::map", align 8
@_ZN5osgeo4proj2cs12RangeMeaning8registryB5cxx11E = external global %"class.std::map.130", align 8
@_ZN5osgeo4proj2cs17AxisDirectionWKT18registryB5cxx11E = external global %"class.std::map.138", align 8
@_ZTVN5osgeo4proj2cs10TemporalCSE = unnamed_addr constant { [9 x ptr], [5 x ptr], [5 x ptr], [5 x ptr] } { [9 x ptr] [ptr null, ptr @_ZTIN5osgeo4proj2cs10TemporalCSE, ptr @_ZN5osgeo4proj2cs10TemporalCSD1Ev, ptr @_ZN5osgeo4proj2cs10TemporalCSD0Ev, ptr @_ZNK5osgeo4proj2cs16CoordinateSystem15_isEquivalentToEPKNS0_4util11IComparableENS4_9CriterionERKSt10shared_ptrINS0_2io15DatabaseContextEE, ptr @_ZNK5osgeo4proj6common16IdentifiedObject29hasEquivalentNameToUsingAliasEPKS2_RKSt10shared_ptrINS0_2io15DatabaseContextEE, ptr @_ZNK5osgeo4proj2cs16CoordinateSystem12_exportToWKTEPNS0_2io12WKTFormatterE, ptr @_ZNK5osgeo4proj2cs16CoordinateSystem13_exportToJSONEPNS0_2io13JSONFormatterE, ptr @__cxa_pure_virtual], [5 x ptr] [ptr inttoptr (i64 -16 to ptr), ptr @_ZTIN5osgeo4proj2cs10TemporalCSE, ptr @_ZThn16_N5osgeo4proj2cs10TemporalCSD1Ev, ptr @_ZThn16_N5osgeo4proj2cs10TemporalCSD0Ev, ptr @_ZThn16_NK5osgeo4proj2cs16CoordinateSystem15_isEquivalentToEPKNS0_4util11IComparableENS4_9CriterionERKSt10shared_ptrINS0_2io15DatabaseContextEE], [5 x ptr] [ptr inttoptr (i64 -24 to ptr), ptr @_ZTIN5osgeo4proj2cs10TemporalCSE, ptr @_ZThn24_N5osgeo4proj2cs10TemporalCSD1Ev, ptr @_ZThn24_N5osgeo4proj2cs10TemporalCSD0Ev, ptr @_ZThn24_NK5osgeo4proj2cs16CoordinateSystem12_exportToWKTEPNS0_2io12WKTFormatterE], [5 x ptr] [ptr inttoptr (i64 -40 to ptr), ptr @_ZTIN5osgeo4proj2cs10TemporalCSE, ptr @_ZThn40_N5osgeo4proj2cs10TemporalCSD1Ev, ptr @_ZThn40_N5osgeo4proj2cs10TemporalCSD0Ev, ptr @_ZThn40_NK5osgeo4proj2cs16CoordinateSystem13_exportToJSONEPNS0_2io13JSONFormatterE] }, align 8
@_ZTVN5osgeo4proj2cs18DateTimeTemporalCSE = unnamed_addr constant { [9 x ptr], [5 x ptr], [5 x ptr], [5 x ptr] } { [9 x ptr] [ptr null, ptr @_ZTIN5osgeo4proj2cs18DateTimeTemporalCSE, ptr @_ZN5osgeo4proj2cs18DateTimeTemporalCSD1Ev, ptr @_ZN5osgeo4proj2cs18DateTimeTemporalCSD0Ev, ptr @_ZNK5osgeo4proj2cs16CoordinateSystem15_isEquivalentToEPKNS0_4util11IComparableENS4_9CriterionERKSt10shared_ptrINS0_2io15DatabaseContextEE, ptr @_ZNK5osgeo4proj6common16IdentifiedObject29hasEquivalentNameToUsingAliasEPKS2_RKSt10shared_ptrINS0_2io15DatabaseContextEE, ptr @_ZNK5osgeo4proj2cs16CoordinateSystem12_exportToWKTEPNS0_2io12WKTFormatterE, ptr @_ZNK5osgeo4proj2cs16CoordinateSystem13_exportToJSONEPNS0_2io13JSONFormatterE, ptr @_ZNK5osgeo4proj2cs18DateTimeTemporalCS11getWKT2TypeB5cxx11Eb], [5 x ptr] [ptr inttoptr (i64 -16 to ptr), ptr @_ZTIN5osgeo4proj2cs18DateTimeTemporalCSE, ptr @_ZThn16_N5osgeo4proj2cs18DateTimeTemporalCSD1Ev, ptr @_ZThn16_N5osgeo4proj2cs18DateTimeTemporalCSD0Ev, ptr @_ZThn16_NK5osgeo4proj2cs16CoordinateSystem15_isEquivalentToEPKNS0_4util11IComparableENS4_9CriterionERKSt10shared_ptrINS0_2io15DatabaseContextEE], [5 x ptr] [ptr inttoptr (i64 -24 to ptr), ptr @_ZTIN5osgeo4proj2cs18DateTimeTemporalCSE, ptr @_ZThn24_N5osgeo4proj2cs18DateTimeTemporalCSD1Ev, ptr @_ZThn24_N5osgeo4proj2cs18DateTimeTemporalCSD0Ev, ptr @_ZThn24_NK5osgeo4proj2cs16CoordinateSystem12_exportToWKTEPNS0_2io12WKTFormatterE], [5 x ptr] [ptr inttoptr (i64 -40 to ptr), ptr @_ZTIN5osgeo4proj2cs18DateTimeTemporalCSE, ptr @_ZThn40_N5osgeo4proj2cs18DateTimeTemporalCSD1Ev, ptr @_ZThn40_N5osgeo4proj2cs18DateTimeTemporalCSD0Ev, ptr @_ZThn40_NK5osgeo4proj2cs16CoordinateSystem13_exportToJSONEPNS0_2io13JSONFormatterE] }, align 8
@.str.24 = private unnamed_addr constant [17 x i8] c"TemporalDateTime\00", align 1
@.str.25 = private unnamed_addr constant [9 x i8] c"temporal\00", align 1
@_ZTVN5osgeo4proj2cs15TemporalCountCSE = unnamed_addr constant { [9 x ptr], [5 x ptr], [5 x ptr], [5 x ptr] } { [9 x ptr] [ptr null, ptr @_ZTIN5osgeo4proj2cs15TemporalCountCSE, ptr @_ZN5osgeo4proj2cs15TemporalCountCSD1Ev, ptr @_ZN5osgeo4proj2cs15TemporalCountCSD0Ev, ptr @_ZNK5osgeo4proj2cs16CoordinateSystem15_isEquivalentToEPKNS0_4util11IComparableENS4_9CriterionERKSt10shared_ptrINS0_2io15DatabaseContextEE, ptr @_ZNK5osgeo4proj6common16IdentifiedObject29hasEquivalentNameToUsingAliasEPKS2_RKSt10shared_ptrINS0_2io15DatabaseContextEE, ptr @_ZNK5osgeo4proj2cs16CoordinateSystem12_exportToWKTEPNS0_2io12WKTFormatterE, ptr @_ZNK5osgeo4proj2cs16CoordinateSystem13_exportToJSONEPNS0_2io13JSONFormatterE, ptr @_ZNK5osgeo4proj2cs15TemporalCountCS11getWKT2TypeB5cxx11Eb], [5 x ptr] [ptr inttoptr (i64 -16 to ptr), ptr @_ZTIN5osgeo4proj2cs15TemporalCountCSE, ptr @_ZThn16_N5osgeo4proj2cs15TemporalCountCSD1Ev, ptr @_ZThn16_N5osgeo4proj2cs15TemporalCountCSD0Ev, ptr @_ZThn16_NK5osgeo4proj2cs16CoordinateSystem15_isEquivalentToEPKNS0_4util11IComparableENS4_9CriterionERKSt10shared_ptrINS0_2io15DatabaseContextEE], [5 x ptr] [ptr inttoptr (i64 -24 to ptr), ptr @_ZTIN5osgeo4proj2cs15TemporalCountCSE, ptr @_ZThn24_N5osgeo4proj2cs15TemporalCountCSD1Ev, ptr @_ZThn24_N5osgeo4proj2cs15TemporalCountCSD0Ev, ptr @_ZThn24_NK5osgeo4proj2cs16CoordinateSystem12_exportToWKTEPNS0_2io12WKTFormatterE], [5 x ptr] [ptr inttoptr (i64 -40 to ptr), ptr @_ZTIN5osgeo4proj2cs15TemporalCountCSE, ptr @_ZThn40_N5osgeo4proj2cs15TemporalCountCSD1Ev, ptr @_ZThn40_N5osgeo4proj2cs15TemporalCountCSD0Ev, ptr @_ZThn40_NK5osgeo4proj2cs16CoordinateSystem13_exportToJSONEPNS0_2io13JSONFormatterE] }, align 8
@.str.26 = private unnamed_addr constant [14 x i8] c"TemporalCount\00", align 1
@_ZTVN5osgeo4proj2cs17TemporalMeasureCSE = unnamed_addr constant { [9 x ptr], [5 x ptr], [5 x ptr], [5 x ptr] } { [9 x ptr] [ptr null, ptr @_ZTIN5osgeo4proj2cs17TemporalMeasureCSE, ptr @_ZN5osgeo4proj2cs17TemporalMeasureCSD1Ev, ptr @_ZN5osgeo4proj2cs17TemporalMeasureCSD0Ev, ptr @_ZNK5osgeo4proj2cs16CoordinateSystem15_isEquivalentToEPKNS0_4util11IComparableENS4_9CriterionERKSt10shared_ptrINS0_2io15DatabaseContextEE, ptr @_ZNK5osgeo4proj6common16IdentifiedObject29hasEquivalentNameToUsingAliasEPKS2_RKSt10shared_ptrINS0_2io15DatabaseContextEE, ptr @_ZNK5osgeo4proj2cs16CoordinateSystem12_exportToWKTEPNS0_2io12WKTFormatterE, ptr @_ZNK5osgeo4proj2cs16CoordinateSystem13_exportToJSONEPNS0_2io13JSONFormatterE, ptr @_ZNK5osgeo4proj2cs17TemporalMeasureCS11getWKT2TypeB5cxx11Eb], [5 x ptr] [ptr inttoptr (i64 -16 to ptr), ptr @_ZTIN5osgeo4proj2cs17TemporalMeasureCSE, ptr @_ZThn16_N5osgeo4proj2cs17TemporalMeasureCSD1Ev, ptr @_ZThn16_N5osgeo4proj2cs17TemporalMeasureCSD0Ev, ptr @_ZThn16_NK5osgeo4proj2cs16CoordinateSystem15_isEquivalentToEPKNS0_4util11IComparableENS4_9CriterionERKSt10shared_ptrINS0_2io15DatabaseContextEE], [5 x ptr] [ptr inttoptr (i64 -24 to ptr), ptr @_ZTIN5osgeo4proj2cs17TemporalMeasureCSE, ptr @_ZThn24_N5osgeo4proj2cs17TemporalMeasureCSD1Ev, ptr @_ZThn24_N5osgeo4proj2cs17TemporalMeasureCSD0Ev, ptr @_ZThn24_NK5osgeo4proj2cs16CoordinateSystem12_exportToWKTEPNS0_2io12WKTFormatterE], [5 x ptr] [ptr inttoptr (i64 -40 to ptr), ptr @_ZTIN5osgeo4proj2cs17TemporalMeasureCSE, ptr @_ZThn40_N5osgeo4proj2cs17TemporalMeasureCSD1Ev, ptr @_ZThn40_N5osgeo4proj2cs17TemporalMeasureCSD0Ev, ptr @_ZThn40_NK5osgeo4proj2cs16CoordinateSystem13_exportToJSONEPNS0_2io13JSONFormatterE] }, align 8
@.str.27 = private unnamed_addr constant [16 x i8] c"TemporalMeasure\00", align 1
@_ZTIN5osgeo4proj2cs8MeridianE = constant { ptr, ptr, i32, i32, ptr, i64, ptr, i64 } { ptr getelementptr inbounds (ptr, ptr @_ZTVN10__cxxabiv121__vmi_class_type_infoE, i64 2), ptr @_ZTSN5osgeo4proj2cs8MeridianE, i32 0, i32 2, ptr @_ZTIN5osgeo4proj6common16IdentifiedObjectE, i64 2, ptr @_ZTIN5osgeo4proj2io15IJSONExportableE, i64 10242 }, align 8
@_ZTSN5osgeo4proj2cs8MeridianE = constant [26 x i8] c"N5osgeo4proj2cs8MeridianE\00", align 1
@_ZTIN5osgeo4proj2cs20CoordinateSystemAxisE = constant { ptr, ptr, i32, i32, ptr, i64, ptr, i64 } { ptr getelementptr inbounds (ptr, ptr @_ZTVN10__cxxabiv121__vmi_class_type_infoE, i64 2), ptr @_ZTSN5osgeo4proj2cs20CoordinateSystemAxisE, i32 0, i32 2, ptr @_ZTIN5osgeo4proj6common16IdentifiedObjectE, i64 2, ptr @_ZTIN5osgeo4proj2io15IJSONExportableE, i64 10242 }, align 8
@_ZTSN5osgeo4proj2cs20CoordinateSystemAxisE = constant [39 x i8] c"N5osgeo4proj2cs20CoordinateSystemAxisE\00", align 1
@_ZTIN5osgeo4proj2cs11SphericalCSE = constant { ptr, ptr, ptr } { ptr getelementptr inbounds (ptr, ptr @_ZTVN10__cxxabiv120__si_class_type_infoE, i64 2), ptr @_ZTSN5osgeo4proj2cs11SphericalCSE, ptr @_ZTIN5osgeo4proj2cs16CoordinateSystemE }, align 8
@_ZTVN10__cxxabiv120__si_class_type_infoE = external global [0 x ptr]
@_ZTSN5osgeo4proj2cs11SphericalCSE = constant [30 x i8] c"N5osgeo4proj2cs11SphericalCSE\00", align 1
@_ZTIN5osgeo4proj2cs13EllipsoidalCSE = constant { ptr, ptr, ptr } { ptr getelementptr inbounds (ptr, ptr @_ZTVN10__cxxabiv120__si_class_type_infoE, i64 2), ptr @_ZTSN5osgeo4proj2cs13EllipsoidalCSE, ptr @_ZTIN5osgeo4proj2cs16CoordinateSystemE }, align 8
@_ZTSN5osgeo4proj2cs13EllipsoidalCSE = constant [32 x i8] c"N5osgeo4proj2cs13EllipsoidalCSE\00", align 1
@_ZTIN5osgeo4proj2cs10VerticalCSE = constant { ptr, ptr, ptr } { ptr getelementptr inbounds (ptr, ptr @_ZTVN10__cxxabiv120__si_class_type_infoE, i64 2), ptr @_ZTSN5osgeo4proj2cs10VerticalCSE, ptr @_ZTIN5osgeo4proj2cs16CoordinateSystemE }, align 8
@_ZTSN5osgeo4proj2cs10VerticalCSE = constant [29 x i8] c"N5osgeo4proj2cs10VerticalCSE\00", align 1
@_ZTIN5osgeo4proj2cs11CartesianCSE = constant { ptr, ptr, ptr } { ptr getelementptr inbounds (ptr, ptr @_ZTVN10__cxxabiv120__si_class_type_infoE, i64 2), ptr @_ZTSN5osgeo4proj2cs11CartesianCSE, ptr @_ZTIN5osgeo4proj2cs16CoordinateSystemE }, align 8
@_ZTSN5osgeo4proj2cs11CartesianCSE = constant [30 x i8] c"N5osgeo4proj2cs11CartesianCSE\00", align 1
@_ZTIN5osgeo4proj2cs8AffineCSE = constant { ptr, ptr, ptr } { ptr getelementptr inbounds (ptr, ptr @_ZTVN10__cxxabiv120__si_class_type_infoE, i64 2), ptr @_ZTSN5osgeo4proj2cs8AffineCSE, ptr @_ZTIN5osgeo4proj2cs16CoordinateSystemE }, align 8
@_ZTSN5osgeo4proj2cs8AffineCSE = constant [26 x i8] c"N5osgeo4proj2cs8AffineCSE\00", align 1
@_ZTIN5osgeo4proj2cs9OrdinalCSE = constant { ptr, ptr, ptr } { ptr getelementptr inbounds (ptr, ptr @_ZTVN10__cxxabiv120__si_class_type_infoE, i64 2), ptr @_ZTSN5osgeo4proj2cs9OrdinalCSE, ptr @_ZTIN5osgeo4proj2cs16CoordinateSystemE }, align 8
@_ZTSN5osgeo4proj2cs9OrdinalCSE = constant [27 x i8] c"N5osgeo4proj2cs9OrdinalCSE\00", align 1
@_ZTIN5osgeo4proj2cs12ParametricCSE = constant { ptr, ptr, ptr } { ptr getelementptr inbounds (ptr, ptr @_ZTVN10__cxxabiv120__si_class_type_infoE, i64 2), ptr @_ZTSN5osgeo4proj2cs12ParametricCSE, ptr @_ZTIN5osgeo4proj2cs16CoordinateSystemE }, align 8
@_ZTSN5osgeo4proj2cs12ParametricCSE = constant [31 x i8] c"N5osgeo4proj2cs12ParametricCSE\00", align 1
@_ZTIN5osgeo4proj2cs10TemporalCSE = constant { ptr, ptr, ptr } { ptr getelementptr inbounds (ptr, ptr @_ZTVN10__cxxabiv120__si_class_type_infoE, i64 2), ptr @_ZTSN5osgeo4proj2cs10TemporalCSE, ptr @_ZTIN5osgeo4proj2cs16CoordinateSystemE }, align 8
@_ZTSN5osgeo4proj2cs10TemporalCSE = constant [29 x i8] c"N5osgeo4proj2cs10TemporalCSE\00", align 1
@_ZTIN5osgeo4proj2cs18DateTimeTemporalCSE = constant { ptr, ptr, ptr } { ptr getelementptr inbounds (ptr, ptr @_ZTVN10__cxxabiv120__si_class_type_infoE, i64 2), ptr @_ZTSN5osgeo4proj2cs18DateTimeTemporalCSE, ptr @_ZTIN5osgeo4proj2cs10TemporalCSE }, align 8
@_ZTSN5osgeo4proj2cs18DateTimeTemporalCSE = constant [37 x i8] c"N5osgeo4proj2cs18DateTimeTemporalCSE\00", align 1
@_ZTIN5osgeo4proj2cs15TemporalCountCSE = constant { ptr, ptr, ptr } { ptr getelementptr inbounds (ptr, ptr @_ZTVN10__cxxabiv120__si_class_type_infoE, i64 2), ptr @_ZTSN5osgeo4proj2cs15TemporalCountCSE, ptr @_ZTIN5osgeo4proj2cs10TemporalCSE }, align 8
@_ZTSN5osgeo4proj2cs15TemporalCountCSE = constant [34 x i8] c"N5osgeo4proj2cs15TemporalCountCSE\00", align 1
@_ZTIN5osgeo4proj2cs17TemporalMeasureCSE = constant { ptr, ptr, ptr } { ptr getelementptr inbounds (ptr, ptr @_ZTVN10__cxxabiv120__si_class_type_infoE, i64 2), ptr @_ZTSN5osgeo4proj2cs17TemporalMeasureCSE, ptr @_ZTIN5osgeo4proj2cs10TemporalCSE }, align 8
@_ZTSN5osgeo4proj2cs17TemporalMeasureCSE = constant [36 x i8] c"N5osgeo4proj2cs17TemporalMeasureCSE\00", align 1
@__libc_single_threaded = external local_unnamed_addr global i8, align 1
@.str.28 = private unnamed_addr constant [10 x i8] c"spherical\00", align 1
@.str.29 = private unnamed_addr constant [12 x i8] c"ellipsoidal\00", align 1
@.str.31 = private unnamed_addr constant [10 x i8] c"Cartesian\00", align 1
@.str.32 = private unnamed_addr constant [7 x i8] c"affine\00", align 1
@.str.33 = private unnamed_addr constant [8 x i8] c"ordinal\00", align 1
@.str.34 = private unnamed_addr constant [11 x i8] c"parametric\00", align 1
@_ZTVSt15_Sp_counted_ptrIPN5osgeo4proj2cs8MeridianELN9__gnu_cxx12_Lock_policyE2EE = linkonce_odr unnamed_addr constant { [7 x ptr] } { [7 x ptr] [ptr null, ptr @_ZTISt15_Sp_counted_ptrIPN5osgeo4proj2cs8MeridianELN9__gnu_cxx12_Lock_policyE2EE, ptr @_ZNSt16_Sp_counted_baseILN9__gnu_cxx12_Lock_policyE2EED2Ev, ptr @_ZNSt15_Sp_counted_ptrIPN5osgeo4proj2cs8MeridianELN9__gnu_cxx12_Lock_policyE2EED0Ev, ptr @_ZNSt15_Sp_counted_ptrIPN5osgeo4proj2cs8MeridianELN9__gnu_cxx12_Lock_policyE2EE10_M_disposeEv, ptr @_ZNSt15_Sp_counted_ptrIPN5osgeo4proj2cs8MeridianELN9__gnu_cxx12_Lock_policyE2EE10_M_destroyEv, ptr @_ZNSt15_Sp_counted_ptrIPN5osgeo4proj2cs8MeridianELN9__gnu_cxx12_Lock_policyE2EE14_M_get_deleterERKSt9type_info] }, comdat, align 8
@_ZTISt15_Sp_counted_ptrIPN5osgeo4proj2cs8MeridianELN9__gnu_cxx12_Lock_policyE2EE = linkonce_odr constant { ptr, ptr, ptr } { ptr getelementptr inbounds (ptr, ptr @_ZTVN10__cxxabiv120__si_class_type_infoE, i64 2), ptr @_ZTSSt15_Sp_counted_ptrIPN5osgeo4proj2cs8MeridianELN9__gnu_cxx12_Lock_policyE2EE, ptr @_ZTISt16_Sp_counted_baseILN9__gnu_cxx12_Lock_policyE2EE }, comdat, align 8
@_ZTSSt15_Sp_counted_ptrIPN5osgeo4proj2cs8MeridianELN9__gnu_cxx12_Lock_policyE2EE = linkonce_odr constant [77 x i8] c"St15_Sp_counted_ptrIPN5osgeo4proj2cs8MeridianELN9__gnu_cxx12_Lock_policyE2EE\00", comdat, align 1
@_ZTISt16_Sp_counted_baseILN9__gnu_cxx12_Lock_policyE2EE = linkonce_odr constant { ptr, ptr, ptr } { ptr getelementptr inbounds (ptr, ptr @_ZTVN10__cxxabiv120__si_class_type_infoE, i64 2), ptr @_ZTSSt16_Sp_counted_baseILN9__gnu_cxx12_Lock_policyE2EE, ptr @_ZTISt11_Mutex_baseILN9__gnu_cxx12_Lock_policyE2EE }, comdat, align 8
@_ZTSSt16_Sp_counted_baseILN9__gnu_cxx12_Lock_policyE2EE = linkonce_odr constant [52 x i8] c"St16_Sp_counted_baseILN9__gnu_cxx12_Lock_policyE2EE\00", comdat, align 1
@_ZTISt11_Mutex_baseILN9__gnu_cxx12_Lock_policyE2EE = linkonce_odr constant { ptr, ptr } { ptr getelementptr inbounds (ptr, ptr @_ZTVN10__cxxabiv117__class_type_infoE, i64 2), ptr @_ZTSSt11_Mutex_baseILN9__gnu_cxx12_Lock_policyE2EE }, comdat, align 8
@_ZTVN10__cxxabiv117__class_type_infoE = external global [0 x ptr]
@_ZTSSt11_Mutex_baseILN9__gnu_cxx12_Lock_policyE2EE = linkonce_odr constant [47 x i8] c"St11_Mutex_baseILN9__gnu_cxx12_Lock_policyE2EE\00", comdat, align 1
@_ZN5osgeo4proj2cs13AxisDirection11UNSPECIFIEDE = external global %"class.osgeo::proj::cs::AxisDirection", align 8
@_ZTVSt15_Sp_counted_ptrIPN5osgeo4proj2cs20CoordinateSystemAxisELN9__gnu_cxx12_Lock_policyE2EE = linkonce_odr unnamed_addr constant { [7 x ptr] } { [7 x ptr] [ptr null, ptr @_ZTISt15_Sp_counted_ptrIPN5osgeo4proj2cs20CoordinateSystemAxisELN9__gnu_cxx12_Lock_policyE2EE, ptr @_ZNSt16_Sp_counted_baseILN9__gnu_cxx12_Lock_policyE2EED2Ev, ptr @_ZNSt15_Sp_counted_ptrIPN5osgeo4proj2cs20CoordinateSystemAxisELN9__gnu_cxx12_Lock_policyE2EED0Ev, ptr @_ZNSt15_Sp_counted_ptrIPN5osgeo4proj2cs20CoordinateSystemAxisELN9__gnu_cxx12_Lock_policyE2EE10_M_disposeEv, ptr @_ZNSt15_Sp_counted_ptrIPN5osgeo4proj2cs20CoordinateSystemAxisELN9__gnu_cxx12_Lock_policyE2EE10_M_destroyEv, ptr @_ZNSt15_Sp_counted_ptrIPN5osgeo4proj2cs20CoordinateSystemAxisELN9__gnu_cxx12_Lock_policyE2EE14_M_get_deleterERKSt9type_info] }, comdat, align 8
@_ZTISt15_Sp_counted_ptrIPN5osgeo4proj2cs20CoordinateSystemAxisELN9__gnu_cxx12_Lock_policyE2EE = linkonce_odr constant { ptr, ptr, ptr } { ptr getelementptr inbounds (ptr, ptr @_ZTVN10__cxxabiv120__si_class_type_infoE, i64 2), ptr @_ZTSSt15_Sp_counted_ptrIPN5osgeo4proj2cs20CoordinateSystemAxisELN9__gnu_cxx12_Lock_policyE2EE, ptr @_ZTISt16_Sp_counted_baseILN9__gnu_cxx12_Lock_policyE2EE }, comdat, align 8
@_ZTSSt15_Sp_counted_ptrIPN5osgeo4proj2cs20CoordinateSystemAxisELN9__gnu_cxx12_Lock_policyE2EE = linkonce_odr constant [90 x i8] c"St15_Sp_counted_ptrIPN5osgeo4proj2cs20CoordinateSystemAxisELN9__gnu_cxx12_Lock_policyE2EE\00", comdat, align 1
@.str.36 = private unnamed_addr constant [21 x i8] c"basic_string::substr\00", align 1
@.str.37 = private unnamed_addr constant [55 x i8] c"%s: __pos (which is %zu) > this->size() (which is %zu)\00", align 1
@.str.40 = private unnamed_addr constant [21 x i8] c"basic_string::append\00", align 1
@_ZTVSt15_Sp_counted_ptrIPN5osgeo4proj2cs11SphericalCSELN9__gnu_cxx12_Lock_policyE2EE = linkonce_odr unnamed_addr constant { [7 x ptr] } { [7 x ptr] [ptr null, ptr @_ZTISt15_Sp_counted_ptrIPN5osgeo4proj2cs11SphericalCSELN9__gnu_cxx12_Lock_policyE2EE, ptr @_ZNSt16_Sp_counted_baseILN9__gnu_cxx12_Lock_policyE2EED2Ev, ptr @_ZNSt15_Sp_counted_ptrIPN5osgeo4proj2cs11SphericalCSELN9__gnu_cxx12_Lock_policyE2EED0Ev, ptr @_ZNSt15_Sp_counted_ptrIPN5osgeo4proj2cs11SphericalCSELN9__gnu_cxx12_Lock_policyE2EE10_M_disposeEv, ptr @_ZNSt15_Sp_counted_ptrIPN5osgeo4proj2cs11SphericalCSELN9__gnu_cxx12_Lock_policyE2EE10_M_destroyEv, ptr @_ZNSt15_Sp_counted_ptrIPN5osgeo4proj2cs11SphericalCSELN9__gnu_cxx12_Lock_policyE2EE14_M_get_deleterERKSt9type_info] }, comdat, align 8
@_ZTISt15_Sp_counted_ptrIPN5osgeo4proj2cs11SphericalCSELN9__gnu_cxx12_Lock_policyE2EE = linkonce_odr constant { ptr, ptr, ptr } { ptr getelementptr inbounds (ptr, ptr @_ZTVN10__cxxabiv120__si_class_type_infoE, i64 2), ptr @_ZTSSt15_Sp_counted_ptrIPN5osgeo4proj2cs11SphericalCSELN9__gnu_cxx12_Lock_policyE2EE, ptr @_ZTISt16_Sp_counted_baseILN9__gnu_cxx12_Lock_policyE2EE }, comdat, align 8
@_ZTSSt15_Sp_counted_ptrIPN5osgeo4proj2cs11SphericalCSELN9__gnu_cxx12_Lock_policyE2EE = linkonce_odr constant [81 x i8] c"St15_Sp_counted_ptrIPN5osgeo4proj2cs11SphericalCSELN9__gnu_cxx12_Lock_policyE2EE\00", comdat, align 1
@_ZTVSt15_Sp_counted_ptrIPN5osgeo4proj2cs13EllipsoidalCSELN9__gnu_cxx12_Lock_policyE2EE = linkonce_odr unnamed_addr constant { [7 x ptr] } { [7 x ptr] [ptr null, ptr @_ZTISt15_Sp_counted_ptrIPN5osgeo4proj2cs13EllipsoidalCSELN9__gnu_cxx12_Lock_policyE2EE, ptr @_ZNSt16_Sp_counted_baseILN9__gnu_cxx12_Lock_policyE2EED2Ev, ptr @_ZNSt15_Sp_counted_ptrIPN5osgeo4proj2cs13EllipsoidalCSELN9__gnu_cxx12_Lock_policyE2EED0Ev, ptr @_ZNSt15_Sp_counted_ptrIPN5osgeo4proj2cs13EllipsoidalCSELN9__gnu_cxx12_Lock_policyE2EE10_M_disposeEv, ptr @_ZNSt15_Sp_counted_ptrIPN5osgeo4proj2cs13EllipsoidalCSELN9__gnu_cxx12_Lock_policyE2EE10_M_destroyEv, ptr @_ZNSt15_Sp_counted_ptrIPN5osgeo4proj2cs13EllipsoidalCSELN9__gnu_cxx12_Lock_policyE2EE14_M_get_deleterERKSt9type_info] }, comdat, align 8
@_ZTISt15_Sp_counted_ptrIPN5osgeo4proj2cs13EllipsoidalCSELN9__gnu_cxx12_Lock_policyE2EE = linkonce_odr constant { ptr, ptr, ptr } { ptr getelementptr inbounds (ptr, ptr @_ZTVN10__cxxabiv120__si_class_type_infoE, i64 2), ptr @_ZTSSt15_Sp_counted_ptrIPN5osgeo4proj2cs13EllipsoidalCSELN9__gnu_cxx12_Lock_policyE2EE, ptr @_ZTISt16_Sp_counted_baseILN9__gnu_cxx12_Lock_policyE2EE }, comdat, align 8
@_ZTSSt15_Sp_counted_ptrIPN5osgeo4proj2cs13EllipsoidalCSELN9__gnu_cxx12_Lock_policyE2EE = linkonce_odr constant [83 x i8] c"St15_Sp_counted_ptrIPN5osgeo4proj2cs13EllipsoidalCSELN9__gnu_cxx12_Lock_policyE2EE\00", comdat, align 1
@_ZTVSt15_Sp_counted_ptrIPN5osgeo4proj2cs10VerticalCSELN9__gnu_cxx12_Lock_policyE2EE = linkonce_odr unnamed_addr constant { [7 x ptr] } { [7 x ptr] [ptr null, ptr @_ZTISt15_Sp_counted_ptrIPN5osgeo4proj2cs10VerticalCSELN9__gnu_cxx12_Lock_policyE2EE, ptr @_ZNSt16_Sp_counted_baseILN9__gnu_cxx12_Lock_policyE2EED2Ev, ptr @_ZNSt15_Sp_counted_ptrIPN5osgeo4proj2cs10VerticalCSELN9__gnu_cxx12_Lock_policyE2EED0Ev, ptr @_ZNSt15_Sp_counted_ptrIPN5osgeo4proj2cs10VerticalCSELN9__gnu_cxx12_Lock_policyE2EE10_M_disposeEv, ptr @_ZNSt15_Sp_counted_ptrIPN5osgeo4proj2cs10VerticalCSELN9__gnu_cxx12_Lock_policyE2EE10_M_destroyEv, ptr @_ZNSt15_Sp_counted_ptrIPN5osgeo4proj2cs10VerticalCSELN9__gnu_cxx12_Lock_policyE2EE14_M_get_deleterERKSt9type_info] }, comdat, align 8
@_ZTISt15_Sp_counted_ptrIPN5osgeo4proj2cs10VerticalCSELN9__gnu_cxx12_Lock_policyE2EE = linkonce_odr constant { ptr, ptr, ptr } { ptr getelementptr inbounds (ptr, ptr @_ZTVN10__cxxabiv120__si_class_type_infoE, i64 2), ptr @_ZTSSt15_Sp_counted_ptrIPN5osgeo4proj2cs10VerticalCSELN9__gnu_cxx12_Lock_policyE2EE, ptr @_ZTISt16_Sp_counted_baseILN9__gnu_cxx12_Lock_policyE2EE }, comdat, align 8
@_ZTSSt15_Sp_counted_ptrIPN5osgeo4proj2cs10VerticalCSELN9__gnu_cxx12_Lock_policyE2EE = linkonce_odr constant [80 x i8] c"St15_Sp_counted_ptrIPN5osgeo4proj2cs10VerticalCSELN9__gnu_cxx12_Lock_policyE2EE\00", comdat, align 1
@_ZTVSt15_Sp_counted_ptrIPN5osgeo4proj2cs11CartesianCSELN9__gnu_cxx12_Lock_policyE2EE = linkonce_odr unnamed_addr constant { [7 x ptr] } { [7 x ptr] [ptr null, ptr @_ZTISt15_Sp_counted_ptrIPN5osgeo4proj2cs11CartesianCSELN9__gnu_cxx12_Lock_policyE2EE, ptr @_ZNSt16_Sp_counted_baseILN9__gnu_cxx12_Lock_policyE2EED2Ev, ptr @_ZNSt15_Sp_counted_ptrIPN5osgeo4proj2cs11CartesianCSELN9__gnu_cxx12_Lock_policyE2EED0Ev, ptr @_ZNSt15_Sp_counted_ptrIPN5osgeo4proj2cs11CartesianCSELN9__gnu_cxx12_Lock_policyE2EE10_M_disposeEv, ptr @_ZNSt15_Sp_counted_ptrIPN5osgeo4proj2cs11CartesianCSELN9__gnu_cxx12_Lock_policyE2EE10_M_destroyEv, ptr @_ZNSt15_Sp_counted_ptrIPN5osgeo4proj2cs11CartesianCSELN9__gnu_cxx12_Lock_policyE2EE14_M_get_deleterERKSt9type_info] }, comdat, align 8
@_ZTISt15_Sp_counted_ptrIPN5osgeo4proj2cs11CartesianCSELN9__gnu_cxx12_Lock_policyE2EE = linkonce_odr constant { ptr, ptr, ptr } { ptr getelementptr inbounds (ptr, ptr @_ZTVN10__cxxabiv120__si_class_type_infoE, i64 2), ptr @_ZTSSt15_Sp_counted_ptrIPN5osgeo4proj2cs11CartesianCSELN9__gnu_cxx12_Lock_policyE2EE, ptr @_ZTISt16_Sp_counted_baseILN9__gnu_cxx12_Lock_policyE2EE }, comdat, align 8
@_ZTSSt15_Sp_counted_ptrIPN5osgeo4proj2cs11CartesianCSELN9__gnu_cxx12_Lock_policyE2EE = linkonce_odr constant [81 x i8] c"St15_Sp_counted_ptrIPN5osgeo4proj2cs11CartesianCSELN9__gnu_cxx12_Lock_policyE2EE\00", comdat, align 1
@_ZTVSt15_Sp_counted_ptrIPN5osgeo4proj2cs8AffineCSELN9__gnu_cxx12_Lock_policyE2EE = linkonce_odr unnamed_addr constant { [7 x ptr] } { [7 x ptr] [ptr null, ptr @_ZTISt15_Sp_counted_ptrIPN5osgeo4proj2cs8AffineCSELN9__gnu_cxx12_Lock_policyE2EE, ptr @_ZNSt16_Sp_counted_baseILN9__gnu_cxx12_Lock_policyE2EED2Ev, ptr @_ZNSt15_Sp_counted_ptrIPN5osgeo4proj2cs8AffineCSELN9__gnu_cxx12_Lock_policyE2EED0Ev, ptr @_ZNSt15_Sp_counted_ptrIPN5osgeo4proj2cs8AffineCSELN9__gnu_cxx12_Lock_policyE2EE10_M_disposeEv, ptr @_ZNSt15_Sp_counted_ptrIPN5osgeo4proj2cs8AffineCSELN9__gnu_cxx12_Lock_policyE2EE10_M_destroyEv, ptr @_ZNSt15_Sp_counted_ptrIPN5osgeo4proj2cs8AffineCSELN9__gnu_cxx12_Lock_policyE2EE14_M_get_deleterERKSt9type_info] }, comdat, align 8
@_ZTISt15_Sp_counted_ptrIPN5osgeo4proj2cs8AffineCSELN9__gnu_cxx12_Lock_policyE2EE = linkonce_odr constant { ptr, ptr, ptr } { ptr getelementptr inbounds (ptr, ptr @_ZTVN10__cxxabiv120__si_class_type_infoE, i64 2), ptr @_ZTSSt15_Sp_counted_ptrIPN5osgeo4proj2cs8AffineCSELN9__gnu_cxx12_Lock_policyE2EE, ptr @_ZTISt16_Sp_counted_baseILN9__gnu_cxx12_Lock_policyE2EE }, comdat, align 8
@_ZTSSt15_Sp_counted_ptrIPN5osgeo4proj2cs8AffineCSELN9__gnu_cxx12_Lock_policyE2EE = linkonce_odr constant [77 x i8] c"St15_Sp_counted_ptrIPN5osgeo4proj2cs8AffineCSELN9__gnu_cxx12_Lock_policyE2EE\00", comdat, align 1
@_ZTVSt15_Sp_counted_ptrIPN5osgeo4proj2cs9OrdinalCSELN9__gnu_cxx12_Lock_policyE2EE = linkonce_odr unnamed_addr constant { [7 x ptr] } { [7 x ptr] [ptr null, ptr @_ZTISt15_Sp_counted_ptrIPN5osgeo4proj2cs9OrdinalCSELN9__gnu_cxx12_Lock_policyE2EE, ptr @_ZNSt16_Sp_counted_baseILN9__gnu_cxx12_Lock_policyE2EED2Ev, ptr @_ZNSt15_Sp_counted_ptrIPN5osgeo4proj2cs9OrdinalCSELN9__gnu_cxx12_Lock_policyE2EED0Ev, ptr @_ZNSt15_Sp_counted_ptrIPN5osgeo4proj2cs9OrdinalCSELN9__gnu_cxx12_Lock_policyE2EE10_M_disposeEv, ptr @_ZNSt15_Sp_counted_ptrIPN5osgeo4proj2cs9OrdinalCSELN9__gnu_cxx12_Lock_policyE2EE10_M_destroyEv, ptr @_ZNSt15_Sp_counted_ptrIPN5osgeo4proj2cs9OrdinalCSELN9__gnu_cxx12_Lock_policyE2EE14_M_get_deleterERKSt9type_info] }, comdat, align 8
@_ZTISt15_Sp_counted_ptrIPN5osgeo4proj2cs9OrdinalCSELN9__gnu_cxx12_Lock_policyE2EE = linkonce_odr constant { ptr, ptr, ptr } { ptr getelementptr inbounds (ptr, ptr @_ZTVN10__cxxabiv120__si_class_type_infoE, i64 2), ptr @_ZTSSt15_Sp_counted_ptrIPN5osgeo4proj2cs9OrdinalCSELN9__gnu_cxx12_Lock_policyE2EE, ptr @_ZTISt16_Sp_counted_baseILN9__gnu_cxx12_Lock_policyE2EE }, comdat, align 8
@_ZTSSt15_Sp_counted_ptrIPN5osgeo4proj2cs9OrdinalCSELN9__gnu_cxx12_Lock_policyE2EE = linkonce_odr constant [78 x i8] c"St15_Sp_counted_ptrIPN5osgeo4proj2cs9OrdinalCSELN9__gnu_cxx12_Lock_policyE2EE\00", comdat, align 1
@_ZTVSt15_Sp_counted_ptrIPN5osgeo4proj2cs12ParametricCSELN9__gnu_cxx12_Lock_policyE2EE = linkonce_odr unnamed_addr constant { [7 x ptr] } { [7 x ptr] [ptr null, ptr @_ZTISt15_Sp_counted_ptrIPN5osgeo4proj2cs12ParametricCSELN9__gnu_cxx12_Lock_policyE2EE, ptr @_ZNSt16_Sp_counted_baseILN9__gnu_cxx12_Lock_policyE2EED2Ev, ptr @_ZNSt15_Sp_counted_ptrIPN5osgeo4proj2cs12ParametricCSELN9__gnu_cxx12_Lock_policyE2EED0Ev, ptr @_ZNSt15_Sp_counted_ptrIPN5osgeo4proj2cs12ParametricCSELN9__gnu_cxx12_Lock_policyE2EE10_M_disposeEv, ptr @_ZNSt15_Sp_counted_ptrIPN5osgeo4proj2cs12ParametricCSELN9__gnu_cxx12_Lock_policyE2EE10_M_destroyEv, ptr @_ZNSt15_Sp_counted_ptrIPN5osgeo4proj2cs12ParametricCSELN9__gnu_cxx12_Lock_policyE2EE14_M_get_deleterERKSt9type_info] }, comdat, align 8
@_ZTISt15_Sp_counted_ptrIPN5osgeo4proj2cs12ParametricCSELN9__gnu_cxx12_Lock_policyE2EE = linkonce_odr constant { ptr, ptr, ptr } { ptr getelementptr inbounds (ptr, ptr @_ZTVN10__cxxabiv120__si_class_type_infoE, i64 2), ptr @_ZTSSt15_Sp_counted_ptrIPN5osgeo4proj2cs12ParametricCSELN9__gnu_cxx12_Lock_policyE2EE, ptr @_ZTISt16_Sp_counted_baseILN9__gnu_cxx12_Lock_policyE2EE }, comdat, align 8
@_ZTSSt15_Sp_counted_ptrIPN5osgeo4proj2cs12ParametricCSELN9__gnu_cxx12_Lock_policyE2EE = linkonce_odr constant [82 x i8] c"St15_Sp_counted_ptrIPN5osgeo4proj2cs12ParametricCSELN9__gnu_cxx12_Lock_policyE2EE\00", comdat, align 1
@_ZSt19piecewise_construct = linkonce_odr constant %"struct.std::piecewise_construct_t" zeroinitializer, comdat, align 1
@_ZTVSt15_Sp_counted_ptrIPN5osgeo4proj2cs18DateTimeTemporalCSELN9__gnu_cxx12_Lock_policyE2EE = linkonce_odr unnamed_addr constant { [7 x ptr] } { [7 x ptr] [ptr null, ptr @_ZTISt15_Sp_counted_ptrIPN5osgeo4proj2cs18DateTimeTemporalCSELN9__gnu_cxx12_Lock_policyE2EE, ptr @_ZNSt16_Sp_counted_baseILN9__gnu_cxx12_Lock_policyE2EED2Ev, ptr @_ZNSt15_Sp_counted_ptrIPN5osgeo4proj2cs18DateTimeTemporalCSELN9__gnu_cxx12_Lock_policyE2EED0Ev, ptr @_ZNSt15_Sp_counted_ptrIPN5osgeo4proj2cs18DateTimeTemporalCSELN9__gnu_cxx12_Lock_policyE2EE10_M_disposeEv, ptr @_ZNSt15_Sp_counted_ptrIPN5osgeo4proj2cs18DateTimeTemporalCSELN9__gnu_cxx12_Lock_policyE2EE10_M_destroyEv, ptr @_ZNSt15_Sp_counted_ptrIPN5osgeo4proj2cs18DateTimeTemporalCSELN9__gnu_cxx12_Lock_policyE2EE14_M_get_deleterERKSt9type_info] }, comdat, align 8
@_ZTISt15_Sp_counted_ptrIPN5osgeo4proj2cs18DateTimeTemporalCSELN9__gnu_cxx12_Lock_policyE2EE = linkonce_odr constant { ptr, ptr, ptr } { ptr getelementptr inbounds (ptr, ptr @_ZTVN10__cxxabiv120__si_class_type_infoE, i64 2), ptr @_ZTSSt15_Sp_counted_ptrIPN5osgeo4proj2cs18DateTimeTemporalCSELN9__gnu_cxx12_Lock_policyE2EE, ptr @_ZTISt16_Sp_counted_baseILN9__gnu_cxx12_Lock_policyE2EE }, comdat, align 8
@_ZTSSt15_Sp_counted_ptrIPN5osgeo4proj2cs18DateTimeTemporalCSELN9__gnu_cxx12_Lock_policyE2EE = linkonce_odr constant [88 x i8] c"St15_Sp_counted_ptrIPN5osgeo4proj2cs18DateTimeTemporalCSELN9__gnu_cxx12_Lock_policyE2EE\00", comdat, align 1
@_ZTVSt15_Sp_counted_ptrIPN5osgeo4proj2cs15TemporalCountCSELN9__gnu_cxx12_Lock_policyE2EE = linkonce_odr unnamed_addr constant { [7 x ptr] } { [7 x ptr] [ptr null, ptr @_ZTISt15_Sp_counted_ptrIPN5osgeo4proj2cs15TemporalCountCSELN9__gnu_cxx12_Lock_policyE2EE, ptr @_ZNSt16_Sp_counted_baseILN9__gnu_cxx12_Lock_policyE2EED2Ev, ptr @_ZNSt15_Sp_counted_ptrIPN5osgeo4proj2cs15TemporalCountCSELN9__gnu_cxx12_Lock_policyE2EED0Ev, ptr @_ZNSt15_Sp_counted_ptrIPN5osgeo4proj2cs15TemporalCountCSELN9__gnu_cxx12_Lock_policyE2EE10_M_disposeEv, ptr @_ZNSt15_Sp_counted_ptrIPN5osgeo4proj2cs15TemporalCountCSELN9__gnu_cxx12_Lock_policyE2EE10_M_destroyEv, ptr @_ZNSt15_Sp_counted_ptrIPN5osgeo4proj2cs15TemporalCountCSELN9__gnu_cxx12_Lock_policyE2EE14_M_get_deleterERKSt9type_info] }, comdat, align 8
@_ZTISt15_Sp_counted_ptrIPN5osgeo4proj2cs15TemporalCountCSELN9__gnu_cxx12_Lock_policyE2EE = linkonce_odr constant { ptr, ptr, ptr } { ptr getelementptr inbounds (ptr, ptr @_ZTVN10__cxxabiv120__si_class_type_infoE, i64 2), ptr @_ZTSSt15_Sp_counted_ptrIPN5osgeo4proj2cs15TemporalCountCSELN9__gnu_cxx12_Lock_policyE2EE, ptr @_ZTISt16_Sp_counted_baseILN9__gnu_cxx12_Lock_policyE2EE }, comdat, align 8
@_ZTSSt15_Sp_counted_ptrIPN5osgeo4proj2cs15TemporalCountCSELN9__gnu_cxx12_Lock_policyE2EE = linkonce_odr constant [85 x i8] c"St15_Sp_counted_ptrIPN5osgeo4proj2cs15TemporalCountCSELN9__gnu_cxx12_Lock_policyE2EE\00", comdat, align 1
@_ZTVSt15_Sp_counted_ptrIPN5osgeo4proj2cs17TemporalMeasureCSELN9__gnu_cxx12_Lock_policyE2EE = linkonce_odr unnamed_addr constant { [7 x ptr] } { [7 x ptr] [ptr null, ptr @_ZTISt15_Sp_counted_ptrIPN5osgeo4proj2cs17TemporalMeasureCSELN9__gnu_cxx12_Lock_policyE2EE, ptr @_ZNSt16_Sp_counted_baseILN9__gnu_cxx12_Lock_policyE2EED2Ev, ptr @_ZNSt15_Sp_counted_ptrIPN5osgeo4proj2cs17TemporalMeasureCSELN9__gnu_cxx12_Lock_policyE2EED0Ev, ptr @_ZNSt15_Sp_counted_ptrIPN5osgeo4proj2cs17TemporalMeasureCSELN9__gnu_cxx12_Lock_policyE2EE10_M_disposeEv, ptr @_ZNSt15_Sp_counted_ptrIPN5osgeo4proj2cs17TemporalMeasureCSELN9__gnu_cxx12_Lock_policyE2EE10_M_destroyEv, ptr @_ZNSt15_Sp_counted_ptrIPN5osgeo4proj2cs17TemporalMeasureCSELN9__gnu_cxx12_Lock_policyE2EE14_M_get_deleterERKSt9type_info] }, comdat, align 8
@_ZTISt15_Sp_counted_ptrIPN5osgeo4proj2cs17TemporalMeasureCSELN9__gnu_cxx12_Lock_policyE2EE = linkonce_odr constant { ptr, ptr, ptr } { ptr getelementptr inbounds (ptr, ptr @_ZTVN10__cxxabiv120__si_class_type_infoE, i64 2), ptr @_ZTSSt15_Sp_counted_ptrIPN5osgeo4proj2cs17TemporalMeasureCSELN9__gnu_cxx12_Lock_policyE2EE, ptr @_ZTISt16_Sp_counted_baseILN9__gnu_cxx12_Lock_policyE2EE }, comdat, align 8
@_ZTSSt15_Sp_counted_ptrIPN5osgeo4proj2cs17TemporalMeasureCSELN9__gnu_cxx12_Lock_policyE2EE = linkonce_odr constant [87 x i8] c"St15_Sp_counted_ptrIPN5osgeo4proj2cs17TemporalMeasureCSELN9__gnu_cxx12_Lock_policyE2EE\00", comdat, align 1

@_ZN5osgeo4proj2cs8MeridianC1ERKNS0_6common5AngleE = hidden unnamed_addr alias void (ptr, ptr), ptr @_ZN5osgeo4proj2cs8MeridianC2ERKNS0_6common5AngleE
@_ZN5osgeo4proj2cs8MeridianD1Ev = unnamed_addr alias void (ptr), ptr @_ZN5osgeo4proj2cs8MeridianD2Ev
@_ZN5osgeo4proj2cs20CoordinateSystemAxisC1Ev = hidden unnamed_addr alias void (ptr), ptr @_ZN5osgeo4proj2cs20CoordinateSystemAxisC2Ev
@_ZN5osgeo4proj2cs20CoordinateSystemAxisD1Ev = unnamed_addr alias void (ptr), ptr @_ZN5osgeo4proj2cs20CoordinateSystemAxisD2Ev
@_ZN5osgeo4proj2cs16CoordinateSystemD1Ev = unnamed_addr alias void (ptr), ptr @_ZN5osgeo4proj2cs16CoordinateSystemD2Ev
@_ZN5osgeo4proj2cs11SphericalCSD2Ev = unnamed_addr alias void (ptr), ptr @_ZN5osgeo4proj2cs16CoordinateSystemD2Ev
@_ZN5osgeo4proj2cs11SphericalCSD1Ev = unnamed_addr alias void (ptr), ptr @_ZN5osgeo4proj2cs11SphericalCSD2Ev
@_ZN5osgeo4proj2cs11SphericalCSC1ERKSt6vectorIN7dropbox6oxygen2nnISt10shared_ptrINS1_20CoordinateSystemAxisEEEESaISA_EE = hidden unnamed_addr alias void (ptr, ptr), ptr @_ZN5osgeo4proj2cs11SphericalCSC2ERKSt6vectorIN7dropbox6oxygen2nnISt10shared_ptrINS1_20CoordinateSystemAxisEEEESaISA_EE
@_ZN5osgeo4proj2cs13EllipsoidalCSD2Ev = unnamed_addr alias void (ptr), ptr @_ZN5osgeo4proj2cs16CoordinateSystemD2Ev
@_ZN5osgeo4proj2cs13EllipsoidalCSD1Ev = unnamed_addr alias void (ptr), ptr @_ZN5osgeo4proj2cs13EllipsoidalCSD2Ev
@_ZN5osgeo4proj2cs13EllipsoidalCSC1ERKSt6vectorIN7dropbox6oxygen2nnISt10shared_ptrINS1_20CoordinateSystemAxisEEEESaISA_EE = hidden unnamed_addr alias void (ptr, ptr), ptr @_ZN5osgeo4proj2cs13EllipsoidalCSC2ERKSt6vectorIN7dropbox6oxygen2nnISt10shared_ptrINS1_20CoordinateSystemAxisEEEESaISA_EE
@_ZN5osgeo4proj2cs10VerticalCSD2Ev = unnamed_addr alias void (ptr), ptr @_ZN5osgeo4proj2cs16CoordinateSystemD2Ev
@_ZN5osgeo4proj2cs10VerticalCSD1Ev = unnamed_addr alias void (ptr), ptr @_ZN5osgeo4proj2cs10VerticalCSD2Ev
@_ZN5osgeo4proj2cs10VerticalCSC1ERKN7dropbox6oxygen2nnISt10shared_ptrINS1_20CoordinateSystemAxisEEEE = hidden unnamed_addr alias void (ptr, ptr), ptr @_ZN5osgeo4proj2cs10VerticalCSC2ERKN7dropbox6oxygen2nnISt10shared_ptrINS1_20CoordinateSystemAxisEEEE
@_ZN5osgeo4proj2cs11CartesianCSD2Ev = unnamed_addr alias void (ptr), ptr @_ZN5osgeo4proj2cs16CoordinateSystemD2Ev
@_ZN5osgeo4proj2cs11CartesianCSD1Ev = unnamed_addr alias void (ptr), ptr @_ZN5osgeo4proj2cs11CartesianCSD2Ev
@_ZN5osgeo4proj2cs11CartesianCSC1ERKSt6vectorIN7dropbox6oxygen2nnISt10shared_ptrINS1_20CoordinateSystemAxisEEEESaISA_EE = hidden unnamed_addr alias void (ptr, ptr), ptr @_ZN5osgeo4proj2cs11CartesianCSC2ERKSt6vectorIN7dropbox6oxygen2nnISt10shared_ptrINS1_20CoordinateSystemAxisEEEESaISA_EE
@_ZN5osgeo4proj2cs8AffineCSD2Ev = unnamed_addr alias void (ptr), ptr @_ZN5osgeo4proj2cs16CoordinateSystemD2Ev
@_ZN5osgeo4proj2cs8AffineCSD1Ev = unnamed_addr alias void (ptr), ptr @_ZN5osgeo4proj2cs8AffineCSD2Ev
@_ZN5osgeo4proj2cs8AffineCSC1ERKSt6vectorIN7dropbox6oxygen2nnISt10shared_ptrINS1_20CoordinateSystemAxisEEEESaISA_EE = hidden unnamed_addr alias void (ptr, ptr), ptr @_ZN5osgeo4proj2cs8AffineCSC2ERKSt6vectorIN7dropbox6oxygen2nnISt10shared_ptrINS1_20CoordinateSystemAxisEEEESaISA_EE
@_ZN5osgeo4proj2cs9OrdinalCSD2Ev = unnamed_addr alias void (ptr), ptr @_ZN5osgeo4proj2cs16CoordinateSystemD2Ev
@_ZN5osgeo4proj2cs9OrdinalCSD1Ev = unnamed_addr alias void (ptr), ptr @_ZN5osgeo4proj2cs9OrdinalCSD2Ev
@_ZN5osgeo4proj2cs9OrdinalCSC1ERKSt6vectorIN7dropbox6oxygen2nnISt10shared_ptrINS1_20CoordinateSystemAxisEEEESaISA_EE = hidden unnamed_addr alias void (ptr, ptr), ptr @_ZN5osgeo4proj2cs9OrdinalCSC2ERKSt6vectorIN7dropbox6oxygen2nnISt10shared_ptrINS1_20CoordinateSystemAxisEEEESaISA_EE
@_ZN5osgeo4proj2cs12ParametricCSD2Ev = unnamed_addr alias void (ptr), ptr @_ZN5osgeo4proj2cs16CoordinateSystemD2Ev
@_ZN5osgeo4proj2cs12ParametricCSD1Ev = unnamed_addr alias void (ptr), ptr @_ZN5osgeo4proj2cs12ParametricCSD2Ev
@_ZN5osgeo4proj2cs12ParametricCSC1ERKSt6vectorIN7dropbox6oxygen2nnISt10shared_ptrINS1_20CoordinateSystemAxisEEEESaISA_EE = hidden unnamed_addr alias void (ptr, ptr), ptr @_ZN5osgeo4proj2cs12ParametricCSC2ERKSt6vectorIN7dropbox6oxygen2nnISt10shared_ptrINS1_20CoordinateSystemAxisEEEESaISA_EE
@_ZN5osgeo4proj2cs13AxisDirectionC1ERKNSt7__cxx1112basic_stringIcSt11char_traitsIcESaIcEEE = hidden unnamed_addr alias void (ptr, ptr), ptr @_ZN5osgeo4proj2cs13AxisDirectionC2ERKNSt7__cxx1112basic_stringIcSt11char_traitsIcESaIcEEE
@_ZN5osgeo4proj2cs12RangeMeaningC1ERKNSt7__cxx1112basic_stringIcSt11char_traitsIcESaIcEEE = hidden unnamed_addr alias void (ptr, ptr), ptr @_ZN5osgeo4proj2cs12RangeMeaningC2ERKNSt7__cxx1112basic_stringIcSt11char_traitsIcESaIcEEE
@_ZN5osgeo4proj2cs12RangeMeaningC1Ev = hidden unnamed_addr alias void (ptr), ptr @_ZN5osgeo4proj2cs12RangeMeaningC2Ev
@_ZN5osgeo4proj2cs17AxisDirectionWKT1C1ERKNSt7__cxx1112basic_stringIcSt11char_traitsIcESaIcEEE = hidden unnamed_addr alias void (ptr, ptr), ptr @_ZN5osgeo4proj2cs17AxisDirectionWKT1C2ERKNSt7__cxx1112basic_stringIcSt11char_traitsIcESaIcEEE
@_ZN5osgeo4proj2cs10TemporalCSD2Ev = unnamed_addr alias void (ptr), ptr @_ZN5osgeo4proj2cs16CoordinateSystemD2Ev
@_ZN5osgeo4proj2cs10TemporalCSD1Ev = unnamed_addr alias void (ptr), ptr @_ZN5osgeo4proj2cs10TemporalCSD2Ev
@_ZN5osgeo4proj2cs18DateTimeTemporalCSD2Ev = unnamed_addr alias void (ptr), ptr @_ZN5osgeo4proj2cs10TemporalCSD2Ev
@_ZN5osgeo4proj2cs18DateTimeTemporalCSD1Ev = unnamed_addr alias void (ptr), ptr @_ZN5osgeo4proj2cs18DateTimeTemporalCSD2Ev
@_ZN5osgeo4proj2cs18DateTimeTemporalCSC1ERKN7dropbox6oxygen2nnISt10shared_ptrINS1_20CoordinateSystemAxisEEEE = hidden unnamed_addr alias void (ptr, ptr), ptr @_ZN5osgeo4proj2cs18DateTimeTemporalCSC2ERKN7dropbox6oxygen2nnISt10shared_ptrINS1_20CoordinateSystemAxisEEEE
@_ZN5osgeo4proj2cs15TemporalCountCSD2Ev = unnamed_addr alias void (ptr), ptr @_ZN5osgeo4proj2cs10TemporalCSD2Ev
@_ZN5osgeo4proj2cs15TemporalCountCSD1Ev = unnamed_addr alias void (ptr), ptr @_ZN5osgeo4proj2cs15TemporalCountCSD2Ev
@_ZN5osgeo4proj2cs15TemporalCountCSC1ERKN7dropbox6oxygen2nnISt10shared_ptrINS1_20CoordinateSystemAxisEEEE = hidden unnamed_addr alias void (ptr, ptr), ptr @_ZN5osgeo4proj2cs15TemporalCountCSC2ERKN7dropbox6oxygen2nnISt10shared_ptrINS1_20CoordinateSystemAxisEEEE
@_ZN5osgeo4proj2cs17TemporalMeasureCSD2Ev = unnamed_addr alias void (ptr), ptr @_ZN5osgeo4proj2cs10TemporalCSD2Ev
@_ZN5osgeo4proj2cs17TemporalMeasureCSD1Ev = unnamed_addr alias void (ptr), ptr @_ZN5osgeo4proj2cs17TemporalMeasureCSD2Ev
@_ZN5osgeo4proj2cs17TemporalMeasureCSC1ERKN7dropbox6oxygen2nnISt10shared_ptrINS1_20CoordinateSystemAxisEEEE = hidden unnamed_addr alias void (ptr, ptr), ptr @_ZN5osgeo4proj2cs17TemporalMeasureCSC2ERKN7dropbox6oxygen2nnISt10shared_ptrINS1_20CoordinateSystemAxisEEEE

; Function Attrs: mustprogress sspstrong uwtable
define hidden void @_ZN5osgeo4proj2cs8MeridianC2ERKNS0_6common5AngleE(ptr noundef nonnull align 8 dereferenceable(56) %0, ptr noundef nonnull align 8 dereferenceable(24) %1) unnamed_addr #0 align 2 personality ptr @__gxx_personality_v0 {
  tail call void @_ZN5osgeo4proj6common16IdentifiedObjectC2Ev(ptr noundef nonnull align 8 dereferenceable(40) %0)
  %3 = getelementptr inbounds nuw i8, ptr %0, i64 40
  store ptr getelementptr inbounds nuw inrange(-16, 48) (i8, ptr @_ZTVN5osgeo4proj2cs8MeridianE, i64 16), ptr %0, align 8, !tbaa !4
  %4 = getelementptr inbounds nuw i8, ptr %0, i64 16
  store ptr getelementptr inbounds nuw inrange(-16, 24) (i8, ptr @_ZTVN5osgeo4proj2cs8MeridianE, i64 80), ptr %4, align 8, !tbaa !4
  %5 = getelementptr inbounds nuw i8, ptr %0, i64 24
  store ptr getelementptr inbounds nuw inrange(-16, 24) (i8, ptr @_ZTVN5osgeo4proj2cs8MeridianE, i64 120), ptr %5, align 8, !tbaa !4
  store ptr getelementptr inbounds nuw inrange(-16, 24) (i8, ptr @_ZTVN5osgeo4proj2cs8MeridianE, i64 160), ptr %3, align 8, !tbaa !4
  tail call void @llvm.experimental.noalias.scope.decl(metadata !7)
  %6 = invoke noalias noundef nonnull dereferenceable(24) ptr @_Znwm(i64 noundef 24) #32
          to label %7 unwind label %12

7:                                                ; preds = %2
  invoke void @_ZN5osgeo4proj6common5AngleC1ERKS2_(ptr noundef nonnull align 8 dereferenceable(24) %6, ptr noundef nonnull align 8 dereferenceable(24) %1)
          to label %10 unwind label %8, !noalias !7

8:                                                ; preds = %7
  %9 = landingpad { ptr, i32 }
          cleanup
  tail call void @_ZdlPvm(ptr noundef nonnull %6, i64 noundef 24) #33, !noalias !7
  br label %14

10:                                               ; preds = %7
  %11 = getelementptr inbounds nuw i8, ptr %0, i64 48
  store ptr %6, ptr %11, align 8, !tbaa !10, !alias.scope !7
  ret void

12:                                               ; preds = %2
  %13 = landingpad { ptr, i32 }
          cleanup
  br label %14

14:                                               ; preds = %12, %8
  %15 = phi { ptr, i32 } [ %13, %12 ], [ %9, %8 ]
  tail call void @_ZN5osgeo4proj2io15IJSONExportableD2Ev(ptr noundef nonnull align 8 dereferenceable(8) %3) #34
  tail call void @_ZN5osgeo4proj6common16IdentifiedObjectD2Ev(ptr noundef nonnull align 8 dereferenceable(40) %0) #34
  resume { ptr, i32 } %15
}

declare void @_ZN5osgeo4proj6common16IdentifiedObjectC2Ev(ptr noundef nonnull align 8 dereferenceable(40)) unnamed_addr #1

declare i32 @__gxx_personality_v0(...)

; Function Attrs: nounwind
declare void @_ZN5osgeo4proj2io15IJSONExportableD2Ev(ptr noundef nonnull align 8 dereferenceable(8)) unnamed_addr #2

; Function Attrs: nounwind
declare void @_ZN5osgeo4proj6common16IdentifiedObjectD2Ev(ptr noundef nonnull align 8 dereferenceable(40)) unnamed_addr #2

; Function Attrs: mustprogress nounwind sspstrong uwtable
define void @_ZN5osgeo4proj2cs8MeridianD2Ev(ptr noundef nonnull align 8 dereferenceable(56) initializes((0, 8), (16, 32), (40, 48)) %0) unnamed_addr #3 align 2 personality ptr @__gxx_personality_v0 {
  store ptr getelementptr inbounds nuw inrange(-16, 48) (i8, ptr @_ZTVN5osgeo4proj2cs8MeridianE, i64 16), ptr %0, align 8, !tbaa !4
  %2 = getelementptr inbounds nuw i8, ptr %0, i64 16
  store ptr getelementptr inbounds nuw inrange(-16, 24) (i8, ptr @_ZTVN5osgeo4proj2cs8MeridianE, i64 80), ptr %2, align 8, !tbaa !4
  %3 = getelementptr inbounds nuw i8, ptr %0, i64 24
  store ptr getelementptr inbounds nuw inrange(-16, 24) (i8, ptr @_ZTVN5osgeo4proj2cs8MeridianE, i64 120), ptr %3, align 8, !tbaa !4
  %4 = getelementptr inbounds nuw i8, ptr %0, i64 40
  store ptr getelementptr inbounds nuw inrange(-16, 24) (i8, ptr @_ZTVN5osgeo4proj2cs8MeridianE, i64 160), ptr %4, align 8, !tbaa !4
  %5 = getelementptr inbounds nuw i8, ptr %0, i64 48
  %6 = load ptr, ptr %5, align 8, !tbaa !10
  %7 = icmp eq ptr %6, null
  br i1 %7, label %9, label %8

8:                                                ; preds = %1
  tail call void @_ZN5osgeo4proj6common5AngleD1Ev(ptr noundef nonnull align 8 dereferenceable(24) %6) #34
  tail call void @_ZdlPvm(ptr noundef nonnull %6, i64 noundef 24) #33
  br label %9

9:                                                ; preds = %8, %1
  store ptr null, ptr %5, align 8, !tbaa !10
  tail call void @_ZN5osgeo4proj2io15IJSONExportableD2Ev(ptr noundef nonnull align 8 dereferenceable(8) %4) #34
  tail call void @_ZN5osgeo4proj6common16IdentifiedObjectD2Ev(ptr noundef nonnull align 8 dereferenceable(40) %0) #34
  ret void
}

; Function Attrs: nounwind sspstrong uwtable
define void @_ZThn16_N5osgeo4proj2cs8MeridianD1Ev(ptr noundef %0) unnamed_addr #4 align 2 {
  %2 = getelementptr inbounds i8, ptr %0, i64 -16
  tail call void @_ZN5osgeo4proj2cs8MeridianD1Ev(ptr noundef nonnull align 8 dereferenceable(56) %2) #34
  ret void
}

; Function Attrs: nounwind sspstrong uwtable
define void @_ZThn24_N5osgeo4proj2cs8MeridianD1Ev(ptr noundef %0) unnamed_addr #4 align 2 {
  %2 = getelementptr inbounds i8, ptr %0, i64 -24
  tail call void @_ZN5osgeo4proj2cs8MeridianD1Ev(ptr noundef nonnull align 8 dereferenceable(56) %2) #34
  ret void
}

; Function Attrs: nounwind sspstrong uwtable
define void @_ZThn40_N5osgeo4proj2cs8MeridianD1Ev(ptr noundef %0) unnamed_addr #4 align 2 {
  %2 = getelementptr inbounds i8, ptr %0, i64 -40
  tail call void @_ZN5osgeo4proj2cs8MeridianD1Ev(ptr noundef nonnull align 8 dereferenceable(56) %2) #34
  ret void
}

; Function Attrs: mustprogress nounwind sspstrong uwtable
define void @_ZN5osgeo4proj2cs8MeridianD0Ev(ptr noundef nonnull align 8 dereferenceable(56) %0) unnamed_addr #3 align 2 {
  tail call void @_ZN5osgeo4proj2cs8MeridianD1Ev(ptr noundef nonnull align 8 dereferenceable(56) %0) #34
  tail call void @_ZdlPvm(ptr noundef nonnull %0, i64 noundef 56) #33
  ret void
}

; Function Attrs: nobuiltin nounwind
declare void @_ZdlPvm(ptr noundef, i64 noundef) local_unnamed_addr #5

; Function Attrs: nounwind sspstrong uwtable
define void @_ZThn16_N5osgeo4proj2cs8MeridianD0Ev(ptr noundef %0) unnamed_addr #4 align 2 {
  %2 = getelementptr inbounds i8, ptr %0, i64 -16
  tail call void @_ZN5osgeo4proj2cs8MeridianD1Ev(ptr noundef nonnull align 8 dereferenceable(56) %2) #34
  tail call void @_ZdlPvm(ptr noundef nonnull align 8 dereferenceable(56) %2, i64 noundef 56) #33
  ret void
}

; Function Attrs: nounwind sspstrong uwtable
define void @_ZThn24_N5osgeo4proj2cs8MeridianD0Ev(ptr noundef %0) unnamed_addr #4 align 2 {
  %2 = getelementptr inbounds i8, ptr %0, i64 -24
  tail call void @_ZN5osgeo4proj2cs8MeridianD1Ev(ptr noundef nonnull align 8 dereferenceable(56) %2) #34
  tail call void @_ZdlPvm(ptr noundef nonnull align 8 dereferenceable(56) %2, i64 noundef 56) #33
  ret void
}

; Function Attrs: nounwind sspstrong uwtable
define void @_ZThn40_N5osgeo4proj2cs8MeridianD0Ev(ptr noundef %0) unnamed_addr #4 align 2 {
  %2 = getelementptr inbounds i8, ptr %0, i64 -40
  tail call void @_ZN5osgeo4proj2cs8MeridianD1Ev(ptr noundef nonnull align 8 dereferenceable(56) %2) #34
  tail call void @_ZdlPvm(ptr noundef nonnull align 8 dereferenceable(56) %2, i64 noundef 56) #33
  ret void
}

; Function Attrs: mustprogress nofree norecurse nosync nounwind sspstrong willreturn memory(argmem: read) uwtable
define noundef nonnull align 8 dereferenceable(24) ptr @_ZNK5osgeo4proj2cs8Meridian9longitudeEv(ptr noundef nonnull readonly align 8 captures(none) dereferenceable(56) %0) local_unnamed_addr #6 align 2 {
  %2 = getelementptr inbounds nuw i8, ptr %0, i64 48
  %3 = load ptr, ptr %2, align 8, !tbaa !10
  ret ptr %3
}

; Function Attrs: mustprogress sspstrong uwtable
define void @_ZN5osgeo4proj2cs8Meridian6createERKNS0_6common5AngleE(ptr dead_on_unwind noalias writable sret(%"class.dropbox::oxygen::nn") align 8 %0, ptr noundef nonnull align 8 dereferenceable(24) %1) local_unnamed_addr #0 align 2 {
  tail call void @_ZN5osgeo4proj2cs8Meridian14nn_make_sharedIS2_JRKNS0_6common5AngleEEEEN7dropbox6oxygen2nnISt10shared_ptrIT_EEEDpOT0_(ptr dead_on_unwind writable sret(%"class.dropbox::oxygen::nn") align 8 %0, ptr noundef nonnull align 8 dereferenceable(24) %1)
  ret void
}

; Function Attrs: mustprogress sspstrong uwtable
define linkonce_odr hidden void @_ZN5osgeo4proj2cs8Meridian14nn_make_sharedIS2_JRKNS0_6common5AngleEEEEN7dropbox6oxygen2nnISt10shared_ptrIT_EEEDpOT0_(ptr dead_on_unwind noalias writable sret(%"class.dropbox::oxygen::nn") align 8 %0, ptr noundef nonnull align 8 dereferenceable(24) %1) local_unnamed_addr #0 comdat align 2 personality ptr @__gxx_personality_v0 {
  %3 = tail call noalias noundef nonnull dereferenceable(56) ptr @_Znwm(i64 noundef 56) #32
  invoke void @_ZN5osgeo4proj6common16IdentifiedObjectC2Ev(ptr noundef nonnull align 8 dereferenceable(56) %3)
          to label %4 unwind label %39

4:                                                ; preds = %2
  %5 = getelementptr inbounds nuw i8, ptr %3, i64 40
  store ptr getelementptr inbounds nuw inrange(-16, 48) (i8, ptr @_ZTVN5osgeo4proj2cs8MeridianE, i64 16), ptr %3, align 8, !tbaa !4
  %6 = getelementptr inbounds nuw i8, ptr %3, i64 16
  store ptr getelementptr inbounds nuw inrange(-16, 24) (i8, ptr @_ZTVN5osgeo4proj2cs8MeridianE, i64 80), ptr %6, align 8, !tbaa !4
  %7 = getelementptr inbounds nuw i8, ptr %3, i64 24
  store ptr getelementptr inbounds nuw inrange(-16, 24) (i8, ptr @_ZTVN5osgeo4proj2cs8MeridianE, i64 120), ptr %7, align 8, !tbaa !4
  store ptr getelementptr inbounds nuw inrange(-16, 24) (i8, ptr @_ZTVN5osgeo4proj2cs8MeridianE, i64 160), ptr %5, align 8, !tbaa !4
  tail call void @llvm.experimental.noalias.scope.decl(metadata !14)
  %8 = invoke noalias noundef nonnull dereferenceable(24) ptr @_Znwm(i64 noundef 24) #32
          to label %9 unwind label %12

9:                                                ; preds = %4
  invoke void @_ZN5osgeo4proj6common5AngleC1ERKS2_(ptr noundef nonnull align 8 dereferenceable(24) %8, ptr noundef nonnull align 8 dereferenceable(24) %1)
          to label %16 unwind label %10, !noalias !14

10:                                               ; preds = %9
  %11 = landingpad { ptr, i32 }
          cleanup
  tail call void @_ZdlPvm(ptr noundef nonnull %8, i64 noundef 24) #33, !noalias !14
  br label %14

12:                                               ; preds = %4
  %13 = landingpad { ptr, i32 }
          cleanup
  br label %14

14:                                               ; preds = %12, %10
  %15 = phi { ptr, i32 } [ %13, %12 ], [ %11, %10 ]
  tail call void @_ZN5osgeo4proj2io15IJSONExportableD2Ev(ptr noundef nonnull align 8 dereferenceable(8) %5) #34
  tail call void @_ZN5osgeo4proj6common16IdentifiedObjectD2Ev(ptr noundef nonnull align 8 dereferenceable(56) %3) #34
  br label %41

16:                                               ; preds = %9
  %17 = getelementptr inbounds nuw i8, ptr %3, i64 48
  store ptr %8, ptr %17, align 8, !tbaa !10, !alias.scope !14
  %18 = invoke noalias noundef nonnull dereferenceable(24) ptr @_Znwm(i64 noundef 24) #32
          to label %34 unwind label %19

19:                                               ; preds = %16
  %20 = landingpad { ptr, i32 }
          catch ptr null
  %21 = extractvalue { ptr, i32 } %20, 0
  %22 = tail call ptr @__cxa_begin_catch(ptr %21) #34
  %23 = load ptr, ptr %3, align 8, !tbaa !4
  %24 = getelementptr inbounds nuw i8, ptr %23, i64 8
  %25 = load ptr, ptr %24, align 8
  tail call void %25(ptr noundef nonnull align 8 dereferenceable(56) %3) #34
  invoke void @__cxa_rethrow() #35
          to label %33 unwind label %26

26:                                               ; preds = %19
  %27 = landingpad { ptr, i32 }
          cleanup
  invoke void @__cxa_end_catch()
          to label %28 unwind label %30

28:                                               ; preds = %41, %26
  %29 = phi { ptr, i32 } [ %42, %41 ], [ %27, %26 ]
  resume { ptr, i32 } %29

30:                                               ; preds = %26
  %31 = landingpad { ptr, i32 }
          catch ptr null
  %32 = extractvalue { ptr, i32 } %31, 0
  tail call void @__clang_call_terminate(ptr %32) #36
  unreachable

33:                                               ; preds = %19
  unreachable

34:                                               ; preds = %16
  %35 = getelementptr inbounds nuw i8, ptr %18, i64 8
  store i32 1, ptr %35, align 8, !tbaa !17
  %36 = getelementptr inbounds nuw i8, ptr %18, i64 12
  store i32 1, ptr %36, align 4, !tbaa !20
  store ptr getelementptr inbounds nuw inrange(-16, 40) (i8, ptr @_ZTVSt15_Sp_counted_ptrIPN5osgeo4proj2cs8MeridianELN9__gnu_cxx12_Lock_policyE2EE, i64 16), ptr %18, align 8, !tbaa !4
  %37 = getelementptr inbounds nuw i8, ptr %18, i64 16
  store ptr %3, ptr %37, align 8, !tbaa !21
  store ptr %3, ptr %0, align 8, !tbaa !24
  %38 = getelementptr inbounds nuw i8, ptr %0, i64 8
  store ptr %18, ptr %38, align 8, !tbaa !28
  ret void

39:                                               ; preds = %2
  %40 = landingpad { ptr, i32 }
          cleanup
  br label %41

41:                                               ; preds = %39, %14
  %42 = phi { ptr, i32 } [ %40, %39 ], [ %15, %14 ]
  tail call void @_ZdlPvm(ptr noundef nonnull %3, i64 noundef 56) #33
  br label %28
}

; Function Attrs: mustprogress sspstrong uwtable
define hidden void @_ZNK5osgeo4proj2cs8Meridian12_exportToWKTEPNS0_2io12WKTFormatterE(ptr noundef nonnull align 8 dereferenceable(56) %0, ptr noundef nonnull %1) unnamed_addr #0 align 2 {
  %3 = tail call noundef nonnull align 8 dereferenceable(24) ptr @_ZNK5osgeo4proj6common16IdentifiedObject11identifiersEv(ptr noundef nonnull align 8 dereferenceable(40) %0) #37
  %4 = load ptr, ptr %3, align 8, !tbaa !29
  %5 = getelementptr inbounds nuw i8, ptr %3, i64 8
  %6 = load ptr, ptr %5, align 8, !tbaa !29
  %7 = icmp ne ptr %4, %6
  tail call void @_ZN5osgeo4proj2io12WKTFormatter9startNodeERKNSt7__cxx1112basic_stringIcSt11char_traitsIcESaIcEEEb(ptr noundef nonnull align 8 dereferenceable(8) %1, ptr noundef nonnull align 8 dereferenceable(32) @_ZN5osgeo4proj2io12WKTConstants8MERIDIANB5cxx11E, i1 noundef zeroext %7)
  %8 = getelementptr inbounds nuw i8, ptr %0, i64 48
  %9 = load ptr, ptr %8, align 8, !tbaa !10
  %10 = tail call noundef double @_ZNK5osgeo4proj6common7Measure5valueEv(ptr noundef nonnull align 8 dereferenceable(24) %9) #37
  tail call void @_ZN5osgeo4proj2io12WKTFormatter3addEdi(ptr noundef nonnull align 8 dereferenceable(8) %1, double noundef %10, i32 noundef 15)
  %11 = load ptr, ptr %8, align 8, !tbaa !10
  %12 = tail call noundef nonnull align 8 dereferenceable(24) ptr @_ZNK5osgeo4proj6common7Measure4unitEv(ptr noundef nonnull align 8 dereferenceable(24) %11) #37
  tail call void @_ZNK5osgeo4proj6common13UnitOfMeasure12_exportToWKTEPNS0_2io12WKTFormatterERKNSt7__cxx1112basic_stringIcSt11char_traitsIcESaIcEEE(ptr noundef nonnull align 8 dereferenceable(24) %12, ptr noundef nonnull %1, ptr noundef nonnull align 8 dereferenceable(32) @_ZN5osgeo4proj2io12WKTConstants9ANGLEUNITB5cxx11E)
  %13 = tail call noundef zeroext i1 @_ZNK5osgeo4proj2io12WKTFormatter8outputIdEv(ptr noundef nonnull align 8 dereferenceable(8) %1)
  br i1 %13, label %14, label %15

14:                                               ; preds = %2
  tail call void @_ZNK5osgeo4proj6common16IdentifiedObject8formatIDEPNS0_2io12WKTFormatterE(ptr noundef nonnull align 8 dereferenceable(40) %0, ptr noundef nonnull %1)
  br label %15

15:                                               ; preds = %14, %2
  tail call void @_ZN5osgeo4proj2io12WKTFormatter7endNodeEv(ptr noundef nonnull align 8 dereferenceable(8) %1)
  ret void
}

declare hidden void @_ZN5osgeo4proj2io12WKTFormatter9startNodeERKNSt7__cxx1112basic_stringIcSt11char_traitsIcESaIcEEEb(ptr noundef nonnull align 8 dereferenceable(8), ptr noundef nonnull align 8 dereferenceable(32), i1 noundef zeroext) local_unnamed_addr #1

; Function Attrs: mustprogress nofree nounwind willreturn memory(read)
declare noundef nonnull align 8 dereferenceable(24) ptr @_ZNK5osgeo4proj6common16IdentifiedObject11identifiersEv(ptr noundef nonnull align 8 dereferenceable(40)) local_unnamed_addr #7

declare hidden void @_ZN5osgeo4proj2io12WKTFormatter3addEdi(ptr noundef nonnull align 8 dereferenceable(8), double noundef, i32 noundef) local_unnamed_addr #1

; Function Attrs: mustprogress nofree nounwind willreturn memory(read)
declare noundef double @_ZNK5osgeo4proj6common7Measure5valueEv(ptr noundef nonnull align 8 dereferenceable(24)) local_unnamed_addr #7

; Function Attrs: mustprogress nofree nounwind willreturn memory(read)
declare noundef nonnull align 8 dereferenceable(24) ptr @_ZNK5osgeo4proj6common7Measure4unitEv(ptr noundef nonnull align 8 dereferenceable(24)) local_unnamed_addr #7

declare hidden void @_ZNK5osgeo4proj6common13UnitOfMeasure12_exportToWKTEPNS0_2io12WKTFormatterERKNSt7__cxx1112basic_stringIcSt11char_traitsIcESaIcEEE(ptr noundef nonnull align 8 dereferenceable(24), ptr noundef, ptr noundef nonnull align 8 dereferenceable(32)) local_unnamed_addr #1

declare hidden noundef zeroext i1 @_ZNK5osgeo4proj2io12WKTFormatter8outputIdEv(ptr noundef nonnull align 8 dereferenceable(8)) local_unnamed_addr #1

declare void @_ZNK5osgeo4proj6common16IdentifiedObject8formatIDEPNS0_2io12WKTFormatterE(ptr noundef nonnull align 8 dereferenceable(40), ptr noundef) local_unnamed_addr #1

declare hidden void @_ZN5osgeo4proj2io12WKTFormatter7endNodeEv(ptr noundef nonnull align 8 dereferenceable(8)) local_unnamed_addr #1

; Function Attrs: sspstrong uwtable
define hidden void @_ZThn24_NK5osgeo4proj2cs8Meridian12_exportToWKTEPNS0_2io12WKTFormatterE(ptr noundef %0, ptr noundef nonnull %1) unnamed_addr #8 align 2 {
  %3 = getelementptr inbounds i8, ptr %0, i64 -24
  tail call void @_ZNK5osgeo4proj2cs8Meridian12_exportToWKTEPNS0_2io12WKTFormatterE(ptr noundef nonnull align 8 dereferenceable(56) %3, ptr noundef %1)
  ret void
}

; Function Attrs: mustprogress sspstrong uwtable
define hidden void @_ZNK5osgeo4proj2cs8Meridian13_exportToJSONEPNS0_2io13JSONFormatterE(ptr noundef nonnull align 8 dereferenceable(56) %0, ptr noundef nonnull %1) unnamed_addr #0 align 2 personality ptr @__gxx_personality_v0 {
  %3 = alloca %"struct.osgeo::proj::io::JSONFormatter::ObjectContext", align 8
  %4 = alloca %"class.std::__cxx11::basic_string", align 8
  %5 = alloca %"struct.osgeo::proj::io::JSONFormatter::ObjectContext", align 8
  %6 = alloca %"class.std::__cxx11::basic_string", align 8
  %7 = alloca %"class.std::__cxx11::basic_string", align 8
  %8 = tail call noundef ptr @_ZNK5osgeo4proj2io13JSONFormatter6writerEv(ptr noundef nonnull align 8 dereferenceable(8) %1)
  call void @llvm.lifetime.start.p0(ptr %3)
  %9 = tail call noundef nonnull align 8 dereferenceable(24) ptr @_ZNK5osgeo4proj6common16IdentifiedObject11identifiersEv(ptr noundef nonnull align 8 dereferenceable(40) %0) #37
  %10 = load ptr, ptr %9, align 8, !tbaa !29
  %11 = getelementptr inbounds nuw i8, ptr %9, i64 8
  %12 = load ptr, ptr %11, align 8, !tbaa !29
  %13 = icmp ne ptr %10, %12
  call void @_ZN5osgeo4proj2io13JSONFormatter13ObjectContextC1ERS2_PKcb(ptr noundef nonnull align 8 dereferenceable(8) %3, ptr noundef nonnull align 8 dereferenceable(8) %1, ptr noundef nonnull @.str, i1 noundef zeroext %13)
  %14 = getelementptr inbounds nuw i8, ptr %0, i64 48
  %15 = load ptr, ptr %14, align 8, !tbaa !10
  call void @llvm.lifetime.start.p0(ptr %4)
  %16 = getelementptr inbounds nuw i8, ptr %4, i64 16
  store ptr %16, ptr %4, align 8, !tbaa !31
  call void @llvm.memcpy.p0.p0.i64(ptr noundef nonnull align 8 dereferenceable(9) %16, ptr noundef nonnull align 1 dereferenceable(9) @.str.1, i64 9, i1 false)
  %17 = getelementptr inbounds nuw i8, ptr %4, i64 8
  store i64 9, ptr %17, align 8, !tbaa !34
  %18 = getelementptr inbounds nuw i8, ptr %4, i64 25
  store i8 0, ptr %18, align 1, !tbaa !37
  invoke void @_ZN5osgeo4proj22CPLJSonStreamingWriter9AddObjKeyERKNSt7__cxx1112basic_stringIcSt11char_traitsIcESaIcEEE(ptr noundef nonnull align 8 dereferenceable(153) %8, ptr noundef nonnull align 8 dereferenceable(32) %4)
          to label %19 unwind label %33

19:                                               ; preds = %2
  %20 = load ptr, ptr %4, align 8, !tbaa !38
  %21 = icmp eq ptr %20, %16
  br i1 %21, label %22, label %25

22:                                               ; preds = %19
  %23 = load i64, ptr %17, align 8, !tbaa !34
  %24 = icmp ult i64 %23, 16
  call void @llvm.assume(i1 %24)
  br label %28

25:                                               ; preds = %19
  %26 = load i64, ptr %16, align 8, !tbaa !37
  %27 = add i64 %26, 1
  call void @_ZdlPvm(ptr noundef %20, i64 noundef %27) #33
  br label %28

28:                                               ; preds = %25, %22
  call void @llvm.lifetime.end.p0(ptr %4)
  %29 = call noundef nonnull align 8 dereferenceable(24) ptr @_ZNK5osgeo4proj6common7Measure4unitEv(ptr noundef nonnull align 8 dereferenceable(24) %15) #37
  %30 = call noundef zeroext i1 @_ZNK5osgeo4proj6common13UnitOfMeasureeqERKS2_(ptr noundef nonnull align 8 dereferenceable(24) %29, ptr noundef nonnull align 8 dereferenceable(24) @_ZN5osgeo4proj6common13UnitOfMeasure6DEGREEE) #37
  br i1 %30, label %31, label %46

31:                                               ; preds = %28
  %32 = call noundef double @_ZNK5osgeo4proj6common7Measure5valueEv(ptr noundef nonnull align 8 dereferenceable(24) %15) #37
  invoke void @_ZN5osgeo4proj22CPLJSonStreamingWriter3AddEdi(ptr noundef nonnull align 8 dereferenceable(153) %8, double noundef %32, i32 noundef 15)
          to label %107 unwind label %44

33:                                               ; preds = %2
  %34 = landingpad { ptr, i32 }
          cleanup
  %35 = load ptr, ptr %4, align 8, !tbaa !38
  %36 = icmp eq ptr %35, %16
  br i1 %36, label %37, label %40

37:                                               ; preds = %33
  %38 = load i64, ptr %17, align 8, !tbaa !34
  %39 = icmp ult i64 %38, 16
  call void @llvm.assume(i1 %39)
  br label %43

40:                                               ; preds = %33
  %41 = load i64, ptr %16, align 8, !tbaa !37
  %42 = add i64 %41, 1
  call void @_ZdlPvm(ptr noundef %35, i64 noundef %42) #33
  br label %43

43:                                               ; preds = %40, %37
  call void @llvm.lifetime.end.p0(ptr %4)
  br label %112

44:                                               ; preds = %110, %107, %31
  %45 = landingpad { ptr, i32 }
          cleanup
  br label %112

46:                                               ; preds = %28
  call void @llvm.lifetime.start.p0(ptr %5)
  invoke void @_ZN5osgeo4proj2io13JSONFormatter13ObjectContextC1ERS2_PKcb(ptr noundef nonnull align 8 dereferenceable(8) %5, ptr noundef nonnull align 8 dereferenceable(8) %1, ptr noundef null, i1 noundef zeroext false)
          to label %47 unwind label %77

47:                                               ; preds = %46
  call void @llvm.lifetime.start.p0(ptr %6)
  %48 = getelementptr inbounds nuw i8, ptr %6, i64 16
  store ptr %48, ptr %6, align 8, !tbaa !31
  call void @llvm.memcpy.p0.p0.i64(ptr noundef nonnull align 8 dereferenceable(5) %48, ptr noundef nonnull align 1 dereferenceable(5) @.str.2, i64 5, i1 false)
  %49 = getelementptr inbounds nuw i8, ptr %6, i64 8
  store i64 5, ptr %49, align 8, !tbaa !34
  %50 = getelementptr inbounds nuw i8, ptr %6, i64 21
  store i8 0, ptr %50, align 1, !tbaa !37
  invoke void @_ZN5osgeo4proj22CPLJSonStreamingWriter9AddObjKeyERKNSt7__cxx1112basic_stringIcSt11char_traitsIcESaIcEEE(ptr noundef nonnull align 8 dereferenceable(153) %8, ptr noundef nonnull align 8 dereferenceable(32) %6)
          to label %51 unwind label %79

51:                                               ; preds = %47
  %52 = load ptr, ptr %6, align 8, !tbaa !38
  %53 = icmp eq ptr %52, %48
  br i1 %53, label %54, label %57

54:                                               ; preds = %51
  %55 = load i64, ptr %49, align 8, !tbaa !34
  %56 = icmp ult i64 %55, 16
  call void @llvm.assume(i1 %56)
  br label %60

57:                                               ; preds = %51
  %58 = load i64, ptr %48, align 8, !tbaa !37
  %59 = add i64 %58, 1
  call void @_ZdlPvm(ptr noundef %52, i64 noundef %59) #33
  br label %60

60:                                               ; preds = %57, %54
  call void @llvm.lifetime.end.p0(ptr %6)
  %61 = call noundef double @_ZNK5osgeo4proj6common7Measure5valueEv(ptr noundef nonnull align 8 dereferenceable(24) %15) #37
  invoke void @_ZN5osgeo4proj22CPLJSonStreamingWriter3AddEdi(ptr noundef nonnull align 8 dereferenceable(153) %8, double noundef %61, i32 noundef 15)
          to label %62 unwind label %90

62:                                               ; preds = %60
  call void @llvm.lifetime.start.p0(ptr %7)
  %63 = getelementptr inbounds nuw i8, ptr %7, i64 16
  store ptr %63, ptr %7, align 8, !tbaa !31
  store i32 1953066613, ptr %63, align 8
  %64 = getelementptr inbounds nuw i8, ptr %7, i64 8
  store i64 4, ptr %64, align 8, !tbaa !34
  %65 = getelementptr inbounds nuw i8, ptr %7, i64 20
  store i8 0, ptr %65, align 4, !tbaa !37
  invoke void @_ZN5osgeo4proj22CPLJSonStreamingWriter9AddObjKeyERKNSt7__cxx1112basic_stringIcSt11char_traitsIcESaIcEEE(ptr noundef nonnull align 8 dereferenceable(153) %8, ptr noundef nonnull align 8 dereferenceable(32) %7)
          to label %66 unwind label %92

66:                                               ; preds = %62
  %67 = load ptr, ptr %7, align 8, !tbaa !38
  %68 = icmp eq ptr %67, %63
  br i1 %68, label %69, label %72

69:                                               ; preds = %66
  %70 = load i64, ptr %64, align 8, !tbaa !34
  %71 = icmp ult i64 %70, 16
  call void @llvm.assume(i1 %71)
  br label %75

72:                                               ; preds = %66
  %73 = load i64, ptr %63, align 8, !tbaa !37
  %74 = add i64 %73, 1
  call void @_ZdlPvm(ptr noundef %67, i64 noundef %74) #33
  br label %75

75:                                               ; preds = %72, %69
  call void @llvm.lifetime.end.p0(ptr %7)
  invoke void @_ZNK5osgeo4proj6common13UnitOfMeasure13_exportToJSONEPNS0_2io13JSONFormatterE(ptr noundef nonnull align 8 dereferenceable(24) %29, ptr noundef nonnull %1)
          to label %76 unwind label %90

76:                                               ; preds = %75
  call void @_ZN5osgeo4proj2io13JSONFormatter13ObjectContextD1Ev(ptr noundef nonnull align 8 dereferenceable(8) %5) #34
  call void @llvm.lifetime.end.p0(ptr %5)
  br label %107

77:                                               ; preds = %46
  %78 = landingpad { ptr, i32 }
          cleanup
  br label %105

79:                                               ; preds = %47
  %80 = landingpad { ptr, i32 }
          cleanup
  %81 = load ptr, ptr %6, align 8, !tbaa !38
  %82 = icmp eq ptr %81, %48
  br i1 %82, label %83, label %86

83:                                               ; preds = %79
  %84 = load i64, ptr %49, align 8, !tbaa !34
  %85 = icmp ult i64 %84, 16
  call void @llvm.assume(i1 %85)
  br label %89

86:                                               ; preds = %79
  %87 = load i64, ptr %48, align 8, !tbaa !37
  %88 = add i64 %87, 1
  call void @_ZdlPvm(ptr noundef %81, i64 noundef %88) #33
  br label %89

89:                                               ; preds = %86, %83
  call void @llvm.lifetime.end.p0(ptr %6)
  br label %103

90:                                               ; preds = %75, %60
  %91 = landingpad { ptr, i32 }
          cleanup
  br label %103

92:                                               ; preds = %62
  %93 = landingpad { ptr, i32 }
          cleanup
  %94 = load ptr, ptr %7, align 8, !tbaa !38
  %95 = icmp eq ptr %94, %63
  br i1 %95, label %96, label %99

96:                                               ; preds = %92
  %97 = load i64, ptr %64, align 8, !tbaa !34
  %98 = icmp ult i64 %97, 16
  call void @llvm.assume(i1 %98)
  br label %102

99:                                               ; preds = %92
  %100 = load i64, ptr %63, align 8, !tbaa !37
  %101 = add i64 %100, 1
  call void @_ZdlPvm(ptr noundef %94, i64 noundef %101) #33
  br label %102

102:                                              ; preds = %99, %96
  call void @llvm.lifetime.end.p0(ptr %7)
  br label %103

103:                                              ; preds = %102, %90, %89
  %104 = phi { ptr, i32 } [ %91, %90 ], [ %93, %102 ], [ %80, %89 ]
  call void @_ZN5osgeo4proj2io13JSONFormatter13ObjectContextD1Ev(ptr noundef nonnull align 8 dereferenceable(8) %5) #34
  br label %105

105:                                              ; preds = %103, %77
  %106 = phi { ptr, i32 } [ %104, %103 ], [ %78, %77 ]
  call void @llvm.lifetime.end.p0(ptr %5)
  br label %112

107:                                              ; preds = %76, %31
  %108 = invoke noundef zeroext i1 @_ZNK5osgeo4proj2io13JSONFormatter8outputIdEv(ptr noundef nonnull align 8 dereferenceable(8) %1)
          to label %109 unwind label %44

109:                                              ; preds = %107
  br i1 %108, label %110, label %111

110:                                              ; preds = %109
  invoke void @_ZNK5osgeo4proj6common16IdentifiedObject8formatIDEPNS0_2io13JSONFormatterE(ptr noundef nonnull align 8 dereferenceable(40) %0, ptr noundef nonnull %1)
          to label %111 unwind label %44

111:                                              ; preds = %110, %109
  call void @_ZN5osgeo4proj2io13JSONFormatter13ObjectContextD1Ev(ptr noundef nonnull align 8 dereferenceable(8) %3) #34
  call void @llvm.lifetime.end.p0(ptr %3)
  ret void

112:                                              ; preds = %105, %44, %43
  %113 = phi { ptr, i32 } [ %34, %43 ], [ %45, %44 ], [ %106, %105 ]
  call void @_ZN5osgeo4proj2io13JSONFormatter13ObjectContextD1Ev(ptr noundef nonnull align 8 dereferenceable(8) %3) #34
  call void @llvm.lifetime.end.p0(ptr %3)
  resume { ptr, i32 } %113
}

declare hidden noundef ptr @_ZNK5osgeo4proj2io13JSONFormatter6writerEv(ptr noundef nonnull align 8 dereferenceable(8)) local_unnamed_addr #1

declare void @_ZN5osgeo4proj22CPLJSonStreamingWriter9AddObjKeyERKNSt7__cxx1112basic_stringIcSt11char_traitsIcESaIcEEE(ptr noundef nonnull align 8 dereferenceable(153), ptr noundef nonnull align 8 dereferenceable(32)) local_unnamed_addr #1

; Function Attrs: mustprogress nofree nounwind willreturn memory(read)
declare noundef zeroext i1 @_ZNK5osgeo4proj6common13UnitOfMeasureeqERKS2_(ptr noundef nonnull align 8 dereferenceable(24), ptr noundef nonnull align 8 dereferenceable(24)) local_unnamed_addr #7

declare void @_ZN5osgeo4proj22CPLJSonStreamingWriter3AddEdi(ptr noundef nonnull align 8 dereferenceable(153), double noundef, i32 noundef) local_unnamed_addr #1

declare hidden void @_ZNK5osgeo4proj6common13UnitOfMeasure13_exportToJSONEPNS0_2io13JSONFormatterE(ptr noundef nonnull align 8 dereferenceable(24), ptr noundef) local_unnamed_addr #1

; Function Attrs: nounwind
declare void @_ZN5osgeo4proj2io13JSONFormatter13ObjectContextD1Ev(ptr noundef nonnull align 8 dereferenceable(8)) unnamed_addr #2

declare hidden noundef zeroext i1 @_ZNK5osgeo4proj2io13JSONFormatter8outputIdEv(ptr noundef nonnull align 8 dereferenceable(8)) local_unnamed_addr #1

declare hidden void @_ZNK5osgeo4proj6common16IdentifiedObject8formatIDEPNS0_2io13JSONFormatterE(ptr noundef nonnull align 8 dereferenceable(40), ptr noundef) local_unnamed_addr #1

; Function Attrs: sspstrong uwtable
define hidden void @_ZThn40_NK5osgeo4proj2cs8Meridian13_exportToJSONEPNS0_2io13JSONFormatterE(ptr noundef %0, ptr noundef nonnull %1) unnamed_addr #8 align 2 {
  %3 = getelementptr inbounds i8, ptr %0, i64 -40
  tail call void @_ZNK5osgeo4proj2cs8Meridian13_exportToJSONEPNS0_2io13JSONFormatterE(ptr noundef nonnull align 8 dereferenceable(56) %3, ptr noundef %1)
  ret void
}

; Function Attrs: mustprogress sspstrong uwtable
define hidden void @_ZN5osgeo4proj2cs20CoordinateSystemAxisC2Ev(ptr noundef nonnull align 8 dereferenceable(56) %0) unnamed_addr #0 align 2 personality ptr @__gxx_personality_v0 {
  tail call void @_ZN5osgeo4proj6common16IdentifiedObjectC2Ev(ptr noundef nonnull align 8 dereferenceable(40) %0)
  %2 = getelementptr inbounds nuw i8, ptr %0, i64 40
  store ptr getelementptr inbounds nuw inrange(-16, 48) (i8, ptr @_ZTVN5osgeo4proj2cs20CoordinateSystemAxisE, i64 16), ptr %0, align 8, !tbaa !4
  %3 = getelementptr inbounds nuw i8, ptr %0, i64 16
  store ptr getelementptr inbounds nuw inrange(-16, 24) (i8, ptr @_ZTVN5osgeo4proj2cs20CoordinateSystemAxisE, i64 80), ptr %3, align 8, !tbaa !4
  %4 = getelementptr inbounds nuw i8, ptr %0, i64 24
  store ptr getelementptr inbounds nuw inrange(-16, 24) (i8, ptr @_ZTVN5osgeo4proj2cs20CoordinateSystemAxisE, i64 120), ptr %4, align 8, !tbaa !4
  store ptr getelementptr inbounds nuw inrange(-16, 24) (i8, ptr @_ZTVN5osgeo4proj2cs20CoordinateSystemAxisE, i64 160), ptr %2, align 8, !tbaa !4
  tail call void @llvm.experimental.noalias.scope.decl(metadata !39)
  %5 = invoke noalias noundef nonnull dereferenceable(152) ptr @_Znwm(i64 noundef 152) #32
          to label %6 unwind label %11

6:                                                ; preds = %1
  tail call void @llvm.memset.p0.i64(ptr noundef nonnull align 16 dereferenceable(152) %5, i8 0, i64 152, i1 false), !noalias !39
  invoke void @_ZN5osgeo4proj2cs20CoordinateSystemAxis7PrivateC2Ev(ptr noundef nonnull align 8 dereferenceable(152) %5)
          to label %9 unwind label %7, !noalias !39

7:                                                ; preds = %6
  %8 = landingpad { ptr, i32 }
          cleanup
  tail call void @_ZdlPvm(ptr noundef nonnull %5, i64 noundef 152) #33, !noalias !39
  br label %13

9:                                                ; preds = %6
  %10 = getelementptr inbounds nuw i8, ptr %0, i64 48
  store ptr %5, ptr %10, align 8, !tbaa !42, !alias.scope !39
  ret void

11:                                               ; preds = %1
  %12 = landingpad { ptr, i32 }
          cleanup
  br label %13

13:                                               ; preds = %11, %7
  %14 = phi { ptr, i32 } [ %12, %11 ], [ %8, %7 ]
  tail call void @_ZN5osgeo4proj2io15IJSONExportableD2Ev(ptr noundef nonnull align 8 dereferenceable(8) %2) #34
  tail call void @_ZN5osgeo4proj6common16IdentifiedObjectD2Ev(ptr noundef nonnull align 8 dereferenceable(40) %0) #34
  resume { ptr, i32 } %14
}

; Function Attrs: mustprogress nounwind sspstrong uwtable
define void @_ZN5osgeo4proj2cs20CoordinateSystemAxisD2Ev(ptr noundef nonnull align 8 dereferenceable(56) %0) unnamed_addr #3 align 2 personality ptr @__gxx_personality_v0 {
  %2 = getelementptr inbounds nuw i8, ptr %0, i64 48
  %3 = load ptr, ptr %2, align 8, !tbaa !42
  %4 = icmp eq ptr %3, null
  br i1 %4, label %6, label %5

5:                                                ; preds = %1
  tail call void @_ZNKSt14default_deleteIN5osgeo4proj2cs20CoordinateSystemAxis7PrivateEEclEPS4_(ptr noundef nonnull align 8 dereferenceable(8) %2, ptr noundef nonnull %3)
  br label %6

6:                                                ; preds = %5, %1
  store ptr null, ptr %2, align 8, !tbaa !42
  %7 = getelementptr inbounds nuw i8, ptr %0, i64 40
  tail call void @_ZN5osgeo4proj2io15IJSONExportableD2Ev(ptr noundef nonnull align 8 dereferenceable(8) %7) #34
  tail call void @_ZN5osgeo4proj6common16IdentifiedObjectD2Ev(ptr noundef nonnull align 8 dereferenceable(40) %0) #34
  ret void
}

; Function Attrs: nounwind sspstrong uwtable
define void @_ZThn16_N5osgeo4proj2cs20CoordinateSystemAxisD1Ev(ptr noundef %0) unnamed_addr #4 align 2 {
  %2 = getelementptr inbounds i8, ptr %0, i64 -16
  tail call void @_ZN5osgeo4proj2cs20CoordinateSystemAxisD1Ev(ptr noundef nonnull align 8 dereferenceable(56) %2) #34
  ret void
}

; Function Attrs: nounwind sspstrong uwtable
define void @_ZThn24_N5osgeo4proj2cs20CoordinateSystemAxisD1Ev(ptr noundef %0) unnamed_addr #4 align 2 {
  %2 = getelementptr inbounds i8, ptr %0, i64 -24
  tail call void @_ZN5osgeo4proj2cs20CoordinateSystemAxisD1Ev(ptr noundef nonnull align 8 dereferenceable(56) %2) #34
  ret void
}

; Function Attrs: nounwind sspstrong uwtable
define void @_ZThn40_N5osgeo4proj2cs20CoordinateSystemAxisD1Ev(ptr noundef %0) unnamed_addr #4 align 2 {
  %2 = getelementptr inbounds i8, ptr %0, i64 -40
  tail call void @_ZN5osgeo4proj2cs20CoordinateSystemAxisD1Ev(ptr noundef nonnull align 8 dereferenceable(56) %2) #34
  ret void
}

; Function Attrs: mustprogress nounwind sspstrong uwtable
define void @_ZN5osgeo4proj2cs20CoordinateSystemAxisD0Ev(ptr noundef nonnull align 8 dereferenceable(56) %0) unnamed_addr #3 align 2 {
  tail call void @_ZN5osgeo4proj2cs20CoordinateSystemAxisD1Ev(ptr noundef nonnull align 8 dereferenceable(56) %0) #34
  tail call void @_ZdlPvm(ptr noundef nonnull %0, i64 noundef 56) #33
  ret void
}

; Function Attrs: nounwind sspstrong uwtable
define void @_ZThn16_N5osgeo4proj2cs20CoordinateSystemAxisD0Ev(ptr noundef %0) unnamed_addr #4 align 2 {
  %2 = getelementptr inbounds i8, ptr %0, i64 -16
  tail call void @_ZN5osgeo4proj2cs20CoordinateSystemAxisD1Ev(ptr noundef nonnull align 8 dereferenceable(56) %2) #34
  tail call void @_ZdlPvm(ptr noundef nonnull align 8 dereferenceable(56) %2, i64 noundef 56) #33
  ret void
}

; Function Attrs: nounwind sspstrong uwtable
define void @_ZThn24_N5osgeo4proj2cs20CoordinateSystemAxisD0Ev(ptr noundef %0) unnamed_addr #4 align 2 {
  %2 = getelementptr inbounds i8, ptr %0, i64 -24
  tail call void @_ZN5osgeo4proj2cs20CoordinateSystemAxisD1Ev(ptr noundef nonnull align 8 dereferenceable(56) %2) #34
  tail call void @_ZdlPvm(ptr noundef nonnull align 8 dereferenceable(56) %2, i64 noundef 56) #33
  ret void
}

; Function Attrs: nounwind sspstrong uwtable
define void @_ZThn40_N5osgeo4proj2cs20CoordinateSystemAxisD0Ev(ptr noundef %0) unnamed_addr #4 align 2 {
  %2 = getelementptr inbounds i8, ptr %0, i64 -40
  tail call void @_ZN5osgeo4proj2cs20CoordinateSystemAxisD1Ev(ptr noundef nonnull align 8 dereferenceable(56) %2) #34
  tail call void @_ZdlPvm(ptr noundef nonnull align 8 dereferenceable(56) %2, i64 noundef 56) #33
  ret void
}

; Function Attrs: mustprogress nofree norecurse nosync nounwind sspstrong willreturn memory(argmem: read) uwtable
define noundef nonnull align 8 dereferenceable(32) ptr @_ZNK5osgeo4proj2cs20CoordinateSystemAxis12abbreviationB5cxx11Ev(ptr noundef nonnull readonly align 8 captures(none) dereferenceable(56) %0) local_unnamed_addr #6 align 2 {
  %2 = getelementptr inbounds nuw i8, ptr %0, i64 48
  %3 = load ptr, ptr %2, align 8, !tbaa !42
  ret ptr %3
}

; Function Attrs: mustprogress nofree norecurse nosync nounwind sspstrong willreturn memory(read, inaccessiblemem: none) uwtable
define noundef nonnull align 8 dereferenceable(32) ptr @_ZNK5osgeo4proj2cs20CoordinateSystemAxis9directionEv(ptr noundef nonnull readonly align 8 captures(none) dereferenceable(56) %0) local_unnamed_addr #9 align 2 {
  %2 = getelementptr inbounds nuw i8, ptr %0, i64 48
  %3 = load ptr, ptr %2, align 8, !tbaa !42
  %4 = getelementptr inbounds nuw i8, ptr %3, i64 32
  %5 = load ptr, ptr %4, align 8, !tbaa !44
  ret ptr %5
}

; Function Attrs: mustprogress nofree norecurse nosync nounwind sspstrong willreturn memory(argmem: read) uwtable
define noundef nonnull align 8 dereferenceable(24) ptr @_ZNK5osgeo4proj2cs20CoordinateSystemAxis4unitEv(ptr noundef nonnull readonly align 8 captures(none) dereferenceable(56) %0) local_unnamed_addr #6 align 2 {
  %2 = getelementptr inbounds nuw i8, ptr %0, i64 48
  %3 = load ptr, ptr %2, align 8, !tbaa !42
  %4 = getelementptr inbounds nuw i8, ptr %3, i64 40
  ret ptr %4
}

; Function Attrs: mustprogress nofree norecurse nosync nounwind sspstrong willreturn memory(argmem: read) uwtable
define noundef nonnull align 8 dereferenceable(16) ptr @_ZNK5osgeo4proj2cs20CoordinateSystemAxis12minimumValueEv(ptr noundef nonnull readonly align 8 captures(none) dereferenceable(56) %0) local_unnamed_addr #6 align 2 {
  %2 = getelementptr inbounds nuw i8, ptr %0, i64 48
  %3 = load ptr, ptr %2, align 8, !tbaa !42
  %4 = getelementptr inbounds nuw i8, ptr %3, i64 104
  ret ptr %4
}

; Function Attrs: mustprogress nofree norecurse nosync nounwind sspstrong willreturn memory(argmem: read) uwtable
define noundef nonnull align 8 dereferenceable(16) ptr @_ZNK5osgeo4proj2cs20CoordinateSystemAxis12maximumValueEv(ptr noundef nonnull readonly align 8 captures(none) dereferenceable(56) %0) local_unnamed_addr #6 align 2 {
  %2 = getelementptr inbounds nuw i8, ptr %0, i64 48
  %3 = load ptr, ptr %2, align 8, !tbaa !42
  %4 = getelementptr inbounds nuw i8, ptr %3, i64 120
  ret ptr %4
}

; Function Attrs: mustprogress nofree norecurse nosync nounwind sspstrong willreturn memory(argmem: read) uwtable
define noundef nonnull align 8 dereferenceable(40) ptr @_ZNK5osgeo4proj2cs20CoordinateSystemAxis12rangeMeaningEv(ptr noundef nonnull readonly align 8 captures(none) dereferenceable(56) %0) local_unnamed_addr #6 align 2 {
  %2 = getelementptr inbounds nuw i8, ptr %0, i64 48
  %3 = load ptr, ptr %2, align 8, !tbaa !42
  %4 = getelementptr inbounds nuw i8, ptr %3, i64 64
  ret ptr %4
}

; Function Attrs: mustprogress nofree norecurse nosync nounwind sspstrong willreturn memory(argmem: read) uwtable
define noundef nonnull align 8 dereferenceable(16) ptr @_ZNK5osgeo4proj2cs20CoordinateSystemAxis8meridianEv(ptr noundef nonnull readonly align 8 captures(none) dereferenceable(56) %0) local_unnamed_addr #6 align 2 {
  %2 = getelementptr inbounds nuw i8, ptr %0, i64 48
  %3 = load ptr, ptr %2, align 8, !tbaa !42
  %4 = getelementptr inbounds nuw i8, ptr %3, i64 136
  ret ptr %4
}

; Function Attrs: mustprogress sspstrong uwtable
define void @_ZN5osgeo4proj2cs20CoordinateSystemAxis6createERKNS0_4util11PropertyMapERKNSt7__cxx1112basic_stringIcSt11char_traitsIcESaIcEEERKNS1_13AxisDirectionERKNS0_6common13UnitOfMeasureERKSt10shared_ptrINS1_8MeridianEE(ptr dead_on_unwind noalias writable sret(%"class.dropbox::oxygen::nn.67") align 8 %0, ptr noundef nonnull align 8 dereferenceable(8) %1, ptr noundef nonnull align 8 dereferenceable(32) %2, ptr noundef nonnull align 8 dereferenceable(32) %3, ptr noundef nonnull align 8 dereferenceable(24) %4, ptr noundef nonnull readonly align 8 captures(none) dereferenceable(16) %5) local_unnamed_addr #0 align 2 personality ptr @__gxx_personality_v0 {
  tail call void @_ZN5osgeo4proj2cs20CoordinateSystemAxis14nn_make_sharedIS2_JEEEN7dropbox6oxygen2nnISt10shared_ptrIT_EEEDpOT0_(ptr dead_on_unwind writable sret(%"class.dropbox::oxygen::nn.67") align 8 %0)
  %7 = load ptr, ptr %0, align 8, !tbaa !70
  invoke void @_ZN5osgeo4proj6common16IdentifiedObject13setPropertiesERKNS0_4util11PropertyMapE(ptr noundef nonnull align 8 dereferenceable(40) %7, ptr noundef nonnull align 8 dereferenceable(8) %1)
          to label %8 unwind label %71

8:                                                ; preds = %6
  %9 = load ptr, ptr %0, align 8, !tbaa !70
  %10 = getelementptr inbounds nuw i8, ptr %9, i64 48
  %11 = load ptr, ptr %10, align 8, !tbaa !42
  invoke void @_ZNSt7__cxx1112basic_stringIcSt11char_traitsIcESaIcEE9_M_assignERKS4_(ptr noundef nonnull align 8 dereferenceable(32) %11, ptr noundef nonnull align 8 dereferenceable(32) %2)
          to label %12 unwind label %71

12:                                               ; preds = %8
  %13 = load ptr, ptr %0, align 8, !tbaa !70
  %14 = getelementptr inbounds nuw i8, ptr %13, i64 48
  %15 = load ptr, ptr %14, align 8, !tbaa !42
  %16 = getelementptr inbounds nuw i8, ptr %15, i64 32
  store ptr %3, ptr %16, align 8, !tbaa !44
  %17 = getelementptr inbounds nuw i8, ptr %15, i64 40
  %18 = invoke noundef nonnull align 8 dereferenceable(24) ptr @_ZN5osgeo4proj6common13UnitOfMeasureaSERKS2_(ptr noundef nonnull align 8 dereferenceable(24) %17, ptr noundef nonnull align 8 dereferenceable(24) %4)
          to label %19 unwind label %71

19:                                               ; preds = %12
  %20 = load ptr, ptr %0, align 8, !tbaa !70
  %21 = getelementptr inbounds nuw i8, ptr %20, i64 48
  %22 = load ptr, ptr %21, align 8, !tbaa !42
  %23 = getelementptr inbounds nuw i8, ptr %22, i64 136
  %24 = load ptr, ptr %5, align 8, !tbaa !24
  store ptr %24, ptr %23, align 8, !tbaa !24
  %25 = getelementptr inbounds nuw i8, ptr %22, i64 144
  %26 = getelementptr inbounds nuw i8, ptr %5, i64 8
  %27 = load ptr, ptr %26, align 8, !tbaa !28
  %28 = load ptr, ptr %25, align 8, !tbaa !28
  %29 = icmp eq ptr %27, %28
  br i1 %29, label %70, label %30

30:                                               ; preds = %19
  %31 = icmp eq ptr %27, null
  br i1 %31, label %42, label %32

32:                                               ; preds = %30
  %33 = getelementptr inbounds nuw i8, ptr %27, i64 8
  %34 = load i8, ptr @__libc_single_threaded, align 1, !tbaa !37
  %35 = icmp eq i8 %34, 0
  br i1 %35, label %39, label %36

36:                                               ; preds = %32
  %37 = load i32, ptr %33, align 4, !tbaa !73
  %38 = add nsw i32 %37, 1
  store i32 %38, ptr %33, align 4, !tbaa !73
  br label %42

39:                                               ; preds = %32
  %40 = atomicrmw volatile add ptr %33, i32 1 acq_rel, align 4
  %41 = load ptr, ptr %25, align 8, !tbaa !28
  br label %42

42:                                               ; preds = %39, %36, %30
  %43 = phi ptr [ %28, %30 ], [ %28, %36 ], [ %41, %39 ]
  %44 = icmp eq ptr %43, null
  br i1 %44, label %69, label %45

45:                                               ; preds = %42
  %46 = getelementptr inbounds nuw i8, ptr %43, i64 8
  %47 = load atomic i64, ptr %46 acquire, align 8
  %48 = icmp eq i64 %47, 4294967297
  %49 = trunc i64 %47 to i32
  br i1 %48, label %50, label %58

50:                                               ; preds = %45
  store i32 0, ptr %46, align 8, !tbaa !17
  %51 = getelementptr inbounds nuw i8, ptr %43, i64 12
  store i32 0, ptr %51, align 4, !tbaa !20
  %52 = load ptr, ptr %43, align 8, !tbaa !4
  %53 = getelementptr inbounds nuw i8, ptr %52, i64 16
  %54 = load ptr, ptr %53, align 8
  tail call void %54(ptr noundef nonnull align 8 dereferenceable(16) %43) #34
  %55 = load ptr, ptr %43, align 8, !tbaa !4
  %56 = getelementptr inbounds nuw i8, ptr %55, i64 24
  %57 = load ptr, ptr %56, align 8
  tail call void %57(ptr noundef nonnull align 8 dereferenceable(16) %43) #34
  br label %69

58:                                               ; preds = %45
  %59 = load i8, ptr @__libc_single_threaded, align 1, !tbaa !37
  %60 = icmp eq i8 %59, 0
  br i1 %60, label %63, label %61

61:                                               ; preds = %58
  %62 = add nsw i32 %49, -1
  store i32 %62, ptr %46, align 4, !tbaa !73
  br label %65

63:                                               ; preds = %58
  %64 = atomicrmw volatile add ptr %46, i32 -1 acq_rel, align 4
  br label %65

65:                                               ; preds = %63, %61
  %66 = phi i32 [ %49, %61 ], [ %64, %63 ]
  %67 = icmp eq i32 %66, 1
  br i1 %67, label %68, label %69, !prof !74

68:                                               ; preds = %65
  tail call void @_ZNSt16_Sp_counted_baseILN9__gnu_cxx12_Lock_policyE2EE24_M_release_last_use_coldEv(ptr noundef nonnull align 8 dereferenceable(16) %43) #34
  br label %69

69:                                               ; preds = %68, %65, %50, %42
  store ptr %27, ptr %25, align 8, !tbaa !28
  br label %70

70:                                               ; preds = %69, %19
  ret void

71:                                               ; preds = %12, %8, %6
  %72 = landingpad { ptr, i32 }
          cleanup
  tail call void @_ZN7dropbox6oxygen2nnISt10shared_ptrIN5osgeo4proj2cs20CoordinateSystemAxisEEED2Ev(ptr noundef nonnull align 8 dereferenceable(16) %0) #34
  resume { ptr, i32 } %72
}

; Function Attrs: mustprogress sspstrong uwtable
define linkonce_odr void @_ZN5osgeo4proj2cs20CoordinateSystemAxis14nn_make_sharedIS2_JEEEN7dropbox6oxygen2nnISt10shared_ptrIT_EEEDpOT0_(ptr dead_on_unwind noalias writable sret(%"class.dropbox::oxygen::nn.67") align 8 %0) local_unnamed_addr #0 comdat align 2 personality ptr @__gxx_personality_v0 {
  %2 = tail call noalias noundef nonnull dereferenceable(56) ptr @_Znwm(i64 noundef 56) #32
  invoke void @_ZN5osgeo4proj6common16IdentifiedObjectC2Ev(ptr noundef nonnull align 8 dereferenceable(56) %2)
          to label %3 unwind label %35

3:                                                ; preds = %1
  %4 = getelementptr inbounds nuw i8, ptr %2, i64 40
  store ptr getelementptr inbounds nuw inrange(-16, 48) (i8, ptr @_ZTVN5osgeo4proj2cs20CoordinateSystemAxisE, i64 16), ptr %2, align 8, !tbaa !4
  %5 = getelementptr inbounds nuw i8, ptr %2, i64 16
  store ptr getelementptr inbounds nuw inrange(-16, 24) (i8, ptr @_ZTVN5osgeo4proj2cs20CoordinateSystemAxisE, i64 80), ptr %5, align 8, !tbaa !4
  %6 = getelementptr inbounds nuw i8, ptr %2, i64 24
  store ptr getelementptr inbounds nuw inrange(-16, 24) (i8, ptr @_ZTVN5osgeo4proj2cs20CoordinateSystemAxisE, i64 120), ptr %6, align 8, !tbaa !4
  store ptr getelementptr inbounds nuw inrange(-16, 24) (i8, ptr @_ZTVN5osgeo4proj2cs20CoordinateSystemAxisE, i64 160), ptr %4, align 8, !tbaa !4
  tail call void @llvm.experimental.noalias.scope.decl(metadata !75)
  %7 = invoke noalias noundef nonnull dereferenceable(152) ptr @_Znwm(i64 noundef 152) #32
          to label %8 unwind label %11

8:                                                ; preds = %3
  tail call void @llvm.memset.p0.i64(ptr noundef nonnull align 16 dereferenceable(152) %7, i8 0, i64 152, i1 false), !noalias !75
  invoke void @_ZN5osgeo4proj2cs20CoordinateSystemAxis7PrivateC2Ev(ptr noundef nonnull align 8 dereferenceable(152) %7)
          to label %15 unwind label %9, !noalias !75

9:                                                ; preds = %8
  %10 = landingpad { ptr, i32 }
          cleanup
  tail call void @_ZdlPvm(ptr noundef nonnull %7, i64 noundef 152) #33, !noalias !75
  br label %13

11:                                               ; preds = %3
  %12 = landingpad { ptr, i32 }
          cleanup
  br label %13

13:                                               ; preds = %11, %9
  %14 = phi { ptr, i32 } [ %12, %11 ], [ %10, %9 ]
  tail call void @_ZN5osgeo4proj2io15IJSONExportableD2Ev(ptr noundef nonnull align 8 dereferenceable(8) %4) #34
  tail call void @_ZN5osgeo4proj6common16IdentifiedObjectD2Ev(ptr noundef nonnull align 8 dereferenceable(56) %2) #34
  br label %37

15:                                               ; preds = %8
  %16 = getelementptr inbounds nuw i8, ptr %2, i64 48
  store ptr %7, ptr %16, align 8, !tbaa !42, !alias.scope !75
  %17 = invoke noalias noundef nonnull dereferenceable(24) ptr @_Znwm(i64 noundef 24) #32
          to label %30 unwind label %18

18:                                               ; preds = %15
  %19 = landingpad { ptr, i32 }
          catch ptr null
  %20 = extractvalue { ptr, i32 } %19, 0
  %21 = tail call ptr @__cxa_begin_catch(ptr %20) #34
  tail call void @_ZN5osgeo4proj2cs20CoordinateSystemAxisD1Ev(ptr noundef nonnull align 8 dereferenceable(56) %2) #34
  tail call void @_ZdlPvm(ptr noundef nonnull %2, i64 noundef 56) #33
  invoke void @__cxa_rethrow() #35
          to label %29 unwind label %22

22:                                               ; preds = %18
  %23 = landingpad { ptr, i32 }
          cleanup
  invoke void @__cxa_end_catch()
          to label %24 unwind label %26

24:                                               ; preds = %37, %22
  %25 = phi { ptr, i32 } [ %38, %37 ], [ %23, %22 ]
  resume { ptr, i32 } %25

26:                                               ; preds = %22
  %27 = landingpad { ptr, i32 }
          catch ptr null
  %28 = extractvalue { ptr, i32 } %27, 0
  tail call void @__clang_call_terminate(ptr %28) #36
  unreachable

29:                                               ; preds = %18
  unreachable

30:                                               ; preds = %15
  %31 = getelementptr inbounds nuw i8, ptr %17, i64 8
  store i32 1, ptr %31, align 8, !tbaa !17
  %32 = getelementptr inbounds nuw i8, ptr %17, i64 12
  store i32 1, ptr %32, align 4, !tbaa !20
  store ptr getelementptr inbounds nuw inrange(-16, 40) (i8, ptr @_ZTVSt15_Sp_counted_ptrIPN5osgeo4proj2cs20CoordinateSystemAxisELN9__gnu_cxx12_Lock_policyE2EE, i64 16), ptr %17, align 8, !tbaa !4
  %33 = getelementptr inbounds nuw i8, ptr %17, i64 16
  store ptr %2, ptr %33, align 8, !tbaa !78
  store ptr %2, ptr %0, align 8, !tbaa !70
  %34 = getelementptr inbounds nuw i8, ptr %0, i64 8
  store ptr %17, ptr %34, align 8, !tbaa !28
  ret void

35:                                               ; preds = %1
  %36 = landingpad { ptr, i32 }
          cleanup
  br label %37

37:                                               ; preds = %35, %13
  %38 = phi { ptr, i32 } [ %36, %35 ], [ %14, %13 ]
  tail call void @_ZdlPvm(ptr noundef nonnull %2, i64 noundef 56) #33
  br label %24
}

declare void @_ZN5osgeo4proj6common16IdentifiedObject13setPropertiesERKNS0_4util11PropertyMapE(ptr noundef nonnull align 8 dereferenceable(40), ptr noundef nonnull align 8 dereferenceable(8)) local_unnamed_addr #1

declare noundef nonnull align 8 dereferenceable(24) ptr @_ZN5osgeo4proj6common13UnitOfMeasureaSERKS2_(ptr noundef nonnull align 8 dereferenceable(24), ptr noundef nonnull align 8 dereferenceable(24)) local_unnamed_addr #1

; Function Attrs: inlinehint mustprogress nounwind sspstrong uwtable
define linkonce_odr hidden void @_ZN7dropbox6oxygen2nnISt10shared_ptrIN5osgeo4proj2cs20CoordinateSystemAxisEEED2Ev(ptr noundef nonnull align 8 dereferenceable(16) %0) unnamed_addr #10 comdat align 2 personality ptr @__gxx_personality_v0 {
  %2 = getelementptr inbounds nuw i8, ptr %0, i64 8
  %3 = load ptr, ptr %2, align 8, !tbaa !28
  %4 = icmp eq ptr %3, null
  br i1 %4, label %29, label %5

5:                                                ; preds = %1
  %6 = getelementptr inbounds nuw i8, ptr %3, i64 8
  %7 = load atomic i64, ptr %6 acquire, align 8
  %8 = icmp eq i64 %7, 4294967297
  %9 = trunc i64 %7 to i32
  br i1 %8, label %10, label %18

10:                                               ; preds = %5
  store i32 0, ptr %6, align 8, !tbaa !17
  %11 = getelementptr inbounds nuw i8, ptr %3, i64 12
  store i32 0, ptr %11, align 4, !tbaa !20
  %12 = load ptr, ptr %3, align 8, !tbaa !4
  %13 = getelementptr inbounds nuw i8, ptr %12, i64 16
  %14 = load ptr, ptr %13, align 8
  tail call void %14(ptr noundef nonnull align 8 dereferenceable(16) %3) #34
  %15 = load ptr, ptr %3, align 8, !tbaa !4
  %16 = getelementptr inbounds nuw i8, ptr %15, i64 24
  %17 = load ptr, ptr %16, align 8
  tail call void %17(ptr noundef nonnull align 8 dereferenceable(16) %3) #34
  br label %29

18:                                               ; preds = %5
  %19 = load i8, ptr @__libc_single_threaded, align 1, !tbaa !37
  %20 = icmp eq i8 %19, 0
  br i1 %20, label %23, label %21

21:                                               ; preds = %18
  %22 = add nsw i32 %9, -1
  store i32 %22, ptr %6, align 4, !tbaa !73
  br label %25

23:                                               ; preds = %18
  %24 = atomicrmw volatile add ptr %6, i32 -1 acq_rel, align 4
  br label %25

25:                                               ; preds = %23, %21
  %26 = phi i32 [ %9, %21 ], [ %24, %23 ]
  %27 = icmp eq i32 %26, 1
  br i1 %27, label %28, label %29, !prof !74

28:                                               ; preds = %25
  tail call void @_ZNSt16_Sp_counted_baseILN9__gnu_cxx12_Lock_policyE2EE24_M_release_last_use_coldEv(ptr noundef nonnull align 8 dereferenceable(16) %3) #34
  br label %29

29:                                               ; preds = %28, %25, %10, %1
  ret void
}

; Function Attrs: mustprogress sspstrong uwtable
define void @_ZN5osgeo4proj2cs20CoordinateSystemAxis6createERKNS0_4util11PropertyMapERKNSt7__cxx1112basic_stringIcSt11char_traitsIcESaIcEEERKNS1_13AxisDirectionERKNS0_6common13UnitOfMeasureERKNS3_8optionalIdEESP_RKNSM_INS1_12RangeMeaningEEERKSt10shared_ptrINS1_8MeridianEE(ptr dead_on_unwind noalias writable sret(%"class.dropbox::oxygen::nn.67") align 8 %0, ptr noundef nonnull align 8 dereferenceable(8) %1, ptr noundef nonnull align 8 dereferenceable(32) %2, ptr noundef nonnull align 8 dereferenceable(32) %3, ptr noundef nonnull align 8 dereferenceable(24) %4, ptr noundef nonnull readonly align 8 captures(none) dereferenceable(16) %5, ptr noundef nonnull readonly align 8 captures(none) dereferenceable(16) %6, ptr noundef nonnull align 8 dereferenceable(40) %7, ptr noundef nonnull readonly align 8 captures(none) dereferenceable(16) %8) local_unnamed_addr #0 align 2 personality ptr @__gxx_personality_v0 {
  tail call void @_ZN5osgeo4proj2cs20CoordinateSystemAxis14nn_make_sharedIS2_JEEEN7dropbox6oxygen2nnISt10shared_ptrIT_EEEDpOT0_(ptr dead_on_unwind writable sret(%"class.dropbox::oxygen::nn.67") align 8 %0)
  %10 = load ptr, ptr %0, align 8, !tbaa !70
  invoke void @_ZN5osgeo4proj6common16IdentifiedObject13setPropertiesERKNS0_4util11PropertyMapE(ptr noundef nonnull align 8 dereferenceable(40) %10, ptr noundef nonnull align 8 dereferenceable(8) %1)
          to label %11 unwind label %91

11:                                               ; preds = %9
  %12 = load ptr, ptr %0, align 8, !tbaa !70
  %13 = getelementptr inbounds nuw i8, ptr %12, i64 48
  %14 = load ptr, ptr %13, align 8, !tbaa !42
  invoke void @_ZNSt7__cxx1112basic_stringIcSt11char_traitsIcESaIcEE9_M_assignERKS4_(ptr noundef nonnull align 8 dereferenceable(32) %14, ptr noundef nonnull align 8 dereferenceable(32) %2)
          to label %15 unwind label %91

15:                                               ; preds = %11
  %16 = load ptr, ptr %0, align 8, !tbaa !70
  %17 = getelementptr inbounds nuw i8, ptr %16, i64 48
  %18 = load ptr, ptr %17, align 8, !tbaa !42
  %19 = getelementptr inbounds nuw i8, ptr %18, i64 32
  store ptr %3, ptr %19, align 8, !tbaa !44
  %20 = getelementptr inbounds nuw i8, ptr %18, i64 40
  %21 = invoke noundef nonnull align 8 dereferenceable(24) ptr @_ZN5osgeo4proj6common13UnitOfMeasureaSERKS2_(ptr noundef nonnull align 8 dereferenceable(24) %20, ptr noundef nonnull align 8 dereferenceable(24) %4)
          to label %22 unwind label %91

22:                                               ; preds = %15
  %23 = load ptr, ptr %0, align 8, !tbaa !70
  %24 = getelementptr inbounds nuw i8, ptr %23, i64 48
  %25 = load ptr, ptr %24, align 8, !tbaa !42
  %26 = getelementptr inbounds nuw i8, ptr %25, i64 104
  tail call void @llvm.memcpy.p0.p0.i64(ptr noundef nonnull align 8 dereferenceable(16) %26, ptr noundef nonnull align 8 dereferenceable(16) %5, i64 16, i1 false), !tbaa.struct !80
  %27 = load ptr, ptr %0, align 8, !tbaa !70
  %28 = getelementptr inbounds nuw i8, ptr %27, i64 48
  %29 = load ptr, ptr %28, align 8, !tbaa !42
  %30 = getelementptr inbounds nuw i8, ptr %29, i64 120
  tail call void @llvm.memcpy.p0.p0.i64(ptr noundef nonnull align 8 dereferenceable(16) %30, ptr noundef nonnull align 8 dereferenceable(16) %6, i64 16, i1 false), !tbaa.struct !80
  %31 = load ptr, ptr %0, align 8, !tbaa !70
  %32 = getelementptr inbounds nuw i8, ptr %31, i64 48
  %33 = load ptr, ptr %32, align 8, !tbaa !42
  %34 = getelementptr inbounds nuw i8, ptr %33, i64 64
  %35 = load i8, ptr %7, align 8, !tbaa !83, !range !84, !noundef !85
  store i8 %35, ptr %34, align 8, !tbaa !83
  %36 = getelementptr inbounds nuw i8, ptr %33, i64 72
  %37 = getelementptr inbounds nuw i8, ptr %7, i64 8
  %38 = invoke noundef nonnull align 8 dereferenceable(32) ptr @_ZN5osgeo4proj4util8CodeListaSERKS2_(ptr noundef nonnull align 8 dereferenceable(32) %36, ptr noundef nonnull align 8 dereferenceable(32) %37)
          to label %39 unwind label %91

39:                                               ; preds = %22
  %40 = load ptr, ptr %0, align 8, !tbaa !70
  %41 = getelementptr inbounds nuw i8, ptr %40, i64 48
  %42 = load ptr, ptr %41, align 8, !tbaa !42
  %43 = getelementptr inbounds nuw i8, ptr %42, i64 136
  %44 = load ptr, ptr %8, align 8, !tbaa !24
  store ptr %44, ptr %43, align 8, !tbaa !24
  %45 = getelementptr inbounds nuw i8, ptr %42, i64 144
  %46 = getelementptr inbounds nuw i8, ptr %8, i64 8
  %47 = load ptr, ptr %46, align 8, !tbaa !28
  %48 = load ptr, ptr %45, align 8, !tbaa !28
  %49 = icmp eq ptr %47, %48
  br i1 %49, label %90, label %50

50:                                               ; preds = %39
  %51 = icmp eq ptr %47, null
  br i1 %51, label %62, label %52

52:                                               ; preds = %50
  %53 = getelementptr inbounds nuw i8, ptr %47, i64 8
  %54 = load i8, ptr @__libc_single_threaded, align 1, !tbaa !37
  %55 = icmp eq i8 %54, 0
  br i1 %55, label %59, label %56

56:                                               ; preds = %52
  %57 = load i32, ptr %53, align 4, !tbaa !73
  %58 = add nsw i32 %57, 1
  store i32 %58, ptr %53, align 4, !tbaa !73
  br label %62

59:                                               ; preds = %52
  %60 = atomicrmw volatile add ptr %53, i32 1 acq_rel, align 4
  %61 = load ptr, ptr %45, align 8, !tbaa !28
  br label %62

62:                                               ; preds = %59, %56, %50
  %63 = phi ptr [ %48, %50 ], [ %48, %56 ], [ %61, %59 ]
  %64 = icmp eq ptr %63, null
  br i1 %64, label %89, label %65

65:                                               ; preds = %62
  %66 = getelementptr inbounds nuw i8, ptr %63, i64 8
  %67 = load atomic i64, ptr %66 acquire, align 8
  %68 = icmp eq i64 %67, 4294967297
  %69 = trunc i64 %67 to i32
  br i1 %68, label %70, label %78

70:                                               ; preds = %65
  store i32 0, ptr %66, align 8, !tbaa !17
  %71 = getelementptr inbounds nuw i8, ptr %63, i64 12
  store i32 0, ptr %71, align 4, !tbaa !20
  %72 = load ptr, ptr %63, align 8, !tbaa !4
  %73 = getelementptr inbounds nuw i8, ptr %72, i64 16
  %74 = load ptr, ptr %73, align 8
  tail call void %74(ptr noundef nonnull align 8 dereferenceable(16) %63) #34
  %75 = load ptr, ptr %63, align 8, !tbaa !4
  %76 = getelementptr inbounds nuw i8, ptr %75, i64 24
  %77 = load ptr, ptr %76, align 8
  tail call void %77(ptr noundef nonnull align 8 dereferenceable(16) %63) #34
  br label %89

78:                                               ; preds = %65
  %79 = load i8, ptr @__libc_single_threaded, align 1, !tbaa !37
  %80 = icmp eq i8 %79, 0
  br i1 %80, label %83, label %81

81:                                               ; preds = %78
  %82 = add nsw i32 %69, -1
  store i32 %82, ptr %66, align 4, !tbaa !73
  br label %85

83:                                               ; preds = %78
  %84 = atomicrmw volatile add ptr %66, i32 -1 acq_rel, align 4
  br label %85

85:                                               ; preds = %83, %81
  %86 = phi i32 [ %69, %81 ], [ %84, %83 ]
  %87 = icmp eq i32 %86, 1
  br i1 %87, label %88, label %89, !prof !74

88:                                               ; preds = %85
  tail call void @_ZNSt16_Sp_counted_baseILN9__gnu_cxx12_Lock_policyE2EE24_M_release_last_use_coldEv(ptr noundef nonnull align 8 dereferenceable(16) %63) #34
  br label %89

89:                                               ; preds = %88, %85, %70, %62
  store ptr %47, ptr %45, align 8, !tbaa !28
  br label %90

90:                                               ; preds = %89, %39
  ret void

91:                                               ; preds = %22, %15, %11, %9
  %92 = landingpad { ptr, i32 }
          cleanup
  tail call void @_ZN7dropbox6oxygen2nnISt10shared_ptrIN5osgeo4proj2cs20CoordinateSystemAxisEEED2Ev(ptr noundef nonnull align 8 dereferenceable(16) %0) #34
  resume { ptr, i32 } %92
}

; Function Attrs: nocallback nofree nounwind willreturn memory(argmem: readwrite)
declare void @llvm.memcpy.p0.p0.i64(ptr noalias writeonly captures(none), ptr noalias readonly captures(none), i64, i1 immarg) #11

; Function Attrs: mustprogress sspstrong uwtable
define hidden void @_ZNK5osgeo4proj2cs20CoordinateSystemAxis12_exportToWKTEPNS0_2io12WKTFormatterE(ptr noundef nonnull align 8 dereferenceable(56) %0, ptr noundef nonnull %1) unnamed_addr #0 align 2 {
  tail call void @_ZNK5osgeo4proj2cs20CoordinateSystemAxis12_exportToWKTEPNS0_2io12WKTFormatterEib(ptr noundef nonnull align 8 dereferenceable(56) %0, ptr noundef %1, i32 noundef 0, i1 noundef zeroext false)
  ret void
}

; Function Attrs: mustprogress sspstrong uwtable
define hidden void @_ZNK5osgeo4proj2cs20CoordinateSystemAxis12_exportToWKTEPNS0_2io12WKTFormatterEib(ptr noundef nonnull align 8 dereferenceable(56) %0, ptr noundef nonnull %1, i32 noundef %2, i1 noundef zeroext %3) local_unnamed_addr #0 align 2 personality ptr @__gxx_personality_v0 {
  %5 = alloca i64, align 8
  %6 = alloca i64, align 8
  %7 = alloca i64, align 8
  %8 = alloca i64, align 8
  %9 = alloca i64, align 8
  %10 = alloca %"class.std::__cxx11::basic_string", align 8
  %11 = alloca %"class.std::__cxx11::basic_string", align 8
  %12 = alloca %"class.std::__cxx11::basic_string", align 8
  %13 = alloca %"class.std::__cxx11::basic_string", align 8
  %14 = alloca %"class.std::__cxx11::basic_string", align 8
  %15 = alloca %"class.std::__cxx11::basic_string", align 8
  %16 = alloca %"class.std::__cxx11::basic_string", align 8
  %17 = alloca %"class.std::__cxx11::basic_string", align 8
  %18 = alloca %"class.std::__cxx11::basic_string", align 8
  %19 = alloca %"class.std::__cxx11::basic_string", align 8
  %20 = alloca %"class.std::__cxx11::basic_string", align 8
  %21 = alloca %"class.std::__cxx11::basic_string", align 8
  %22 = tail call noundef i32 @_ZNK5osgeo4proj2io12WKTFormatter7versionEv(ptr noundef nonnull align 8 dereferenceable(8) %1)
  %23 = icmp ne i32 %22, 1
  %24 = tail call noundef nonnull align 8 dereferenceable(24) ptr @_ZNK5osgeo4proj6common16IdentifiedObject11identifiersEv(ptr noundef nonnull align 8 dereferenceable(40) %0) #37
  %25 = load ptr, ptr %24, align 8, !tbaa !29
  %26 = getelementptr inbounds nuw i8, ptr %24, i64 8
  %27 = load ptr, ptr %26, align 8, !tbaa !29
  %28 = icmp ne ptr %25, %27
  tail call void @_ZN5osgeo4proj2io12WKTFormatter9startNodeERKNSt7__cxx1112basic_stringIcSt11char_traitsIcESaIcEEEb(ptr noundef nonnull align 8 dereferenceable(8) %1, ptr noundef nonnull align 8 dereferenceable(32) @_ZN5osgeo4proj2io12WKTConstants4AXISB5cxx11E, i1 noundef zeroext %28)
  %29 = tail call noundef nonnull align 8 dereferenceable(32) ptr @_ZNK5osgeo4proj6common16IdentifiedObject7nameStrB5cxx11Ev(ptr noundef nonnull align 8 dereferenceable(40) %0) #37
  %30 = getelementptr inbounds nuw i8, ptr %0, i64 48
  %31 = load ptr, ptr %30, align 8, !tbaa !42
  call void @llvm.lifetime.start.p0(ptr %10)
  call void @llvm.lifetime.start.p0(ptr %11)
  %32 = getelementptr inbounds nuw i8, ptr %11, i64 16
  store ptr %32, ptr %11, align 8, !tbaa !31
  store i8 40, ptr %32, align 8, !tbaa !37
  %33 = getelementptr inbounds nuw i8, ptr %11, i64 8
  store i64 1, ptr %33, align 8, !tbaa !34
  %34 = getelementptr inbounds nuw i8, ptr %11, i64 17
  store i8 0, ptr %34, align 1, !tbaa !37
  %35 = load ptr, ptr %31, align 8, !tbaa !38
  %36 = getelementptr inbounds nuw i8, ptr %31, i64 8
  %37 = load i64, ptr %36, align 8, !tbaa !34
  %38 = icmp ult i64 %37, 9223372036854775807
  call void @llvm.assume(i1 %38)
  %39 = icmp samesign ugt i64 %37, 9223372036854775805
  br i1 %39, label %47, label %40

40:                                               ; preds = %4
  %41 = invoke noundef nonnull align 8 dereferenceable(32) ptr @_ZNSt7__cxx1112basic_stringIcSt11char_traitsIcESaIcEE9_M_appendEPKcm(ptr noundef nonnull align 8 dereferenceable(32) %11, ptr noundef %35, i64 noundef %37)
          to label %42 unwind label %295

42:                                               ; preds = %40
  %43 = getelementptr inbounds nuw i8, ptr %41, i64 8
  %44 = load i64, ptr %43, align 8, !tbaa !34
  %45 = icmp ult i64 %44, 9223372036854775807
  call void @llvm.assume(i1 %45)
  %46 = icmp eq i64 %44, 9223372036854775806
  br i1 %46, label %47, label %49

47:                                               ; preds = %42, %4
  invoke void @_ZSt20__throw_length_errorPKc(ptr noundef nonnull @.str.40) #38
          to label %48 unwind label %295

48:                                               ; preds = %47
  unreachable

49:                                               ; preds = %42
  %50 = invoke noundef nonnull align 8 dereferenceable(32) ptr @_ZNSt7__cxx1112basic_stringIcSt11char_traitsIcESaIcEE9_M_appendEPKcm(ptr noundef nonnull align 8 dereferenceable(32) %41, ptr noundef nonnull @.str.5, i64 noundef 1)
          to label %51 unwind label %295

51:                                               ; preds = %49
  %52 = getelementptr inbounds nuw i8, ptr %10, i64 16
  store ptr %52, ptr %10, align 8, !tbaa !31
  %53 = load ptr, ptr %50, align 8, !tbaa !38
  %54 = getelementptr inbounds nuw i8, ptr %50, i64 8
  %55 = load i64, ptr %54, align 8, !tbaa !34
  %56 = icmp ult i64 %55, 9223372036854775807
  call void @llvm.assume(i1 %56)
  call void @llvm.lifetime.start.p0(ptr %9)
  store i64 %55, ptr %9, align 8, !tbaa !86
  %57 = icmp samesign ugt i64 %55, 15
  br i1 %57, label %58, label %62

58:                                               ; preds = %51
  %59 = invoke noundef ptr @_ZNSt7__cxx1112basic_stringIcSt11char_traitsIcESaIcEE9_M_createERmm(ptr noundef nonnull align 8 dereferenceable(32) %10, ptr noundef nonnull align 8 dereferenceable(8) %9, i64 noundef 0)
          to label %60 unwind label %295

60:                                               ; preds = %58
  store ptr %59, ptr %10, align 8, !tbaa !38
  %61 = load i64, ptr %9, align 8, !tbaa !86
  store i64 %61, ptr %52, align 8, !tbaa !37
  br label %62

62:                                               ; preds = %60, %51
  %63 = phi i64 [ %61, %60 ], [ %55, %51 ]
  %64 = phi ptr [ %59, %60 ], [ %52, %51 ]
  switch i64 %63, label %67 [
    i64 0, label %65
    i64 -1, label %69
  ]

65:                                               ; preds = %62
  %66 = load i8, ptr %53, align 1, !tbaa !37
  store i8 %66, ptr %64, align 1, !tbaa !37
  br label %69

67:                                               ; preds = %62
  %68 = add nuw i64 %63, 1
  call void @llvm.memcpy.p0.p0.i64(ptr noundef nonnull align 1 dereferenceable(1) %64, ptr noundef nonnull align 1 dereferenceable(1) %53, i64 %68, i1 false)
  br label %69

69:                                               ; preds = %67, %65, %62
  %70 = load i64, ptr %9, align 8, !tbaa !86
  %71 = getelementptr inbounds nuw i8, ptr %10, i64 8
  store i64 %70, ptr %71, align 8, !tbaa !34
  call void @llvm.lifetime.end.p0(ptr %9)
  %72 = load ptr, ptr %11, align 8, !tbaa !38
  %73 = icmp eq ptr %72, %32
  br i1 %73, label %74, label %77

74:                                               ; preds = %69
  %75 = load i64, ptr %33, align 8, !tbaa !34
  %76 = icmp ult i64 %75, 16
  call void @llvm.assume(i1 %76)
  br label %80

77:                                               ; preds = %69
  %78 = load i64, ptr %32, align 8, !tbaa !37
  %79 = add i64 %78, 1
  call void @_ZdlPvm(ptr noundef %72, i64 noundef %79) #33
  br label %80

80:                                               ; preds = %77, %74
  call void @llvm.lifetime.end.p0(ptr %11)
  call void @llvm.lifetime.start.p0(ptr %12)
  %81 = load ptr, ptr %30, align 8, !tbaa !42
  %82 = getelementptr inbounds nuw i8, ptr %81, i64 32
  %83 = load ptr, ptr %82, align 8, !tbaa !44
  %84 = getelementptr inbounds nuw i8, ptr %12, i64 16
  store ptr %84, ptr %12, align 8, !tbaa !31
  %85 = load ptr, ptr %83, align 8, !tbaa !38
  %86 = getelementptr inbounds nuw i8, ptr %83, i64 8
  %87 = load i64, ptr %86, align 8, !tbaa !34
  %88 = icmp ult i64 %87, 9223372036854775807
  call void @llvm.assume(i1 %88)
  call void @llvm.lifetime.start.p0(ptr %8)
  store i64 %87, ptr %8, align 8, !tbaa !86
  %89 = icmp samesign ugt i64 %87, 15
  br i1 %89, label %90, label %94

90:                                               ; preds = %80
  %91 = invoke noundef ptr @_ZNSt7__cxx1112basic_stringIcSt11char_traitsIcESaIcEE9_M_createERmm(ptr noundef nonnull align 8 dereferenceable(32) %12, ptr noundef nonnull align 8 dereferenceable(8) %8, i64 noundef 0)
          to label %92 unwind label %306

92:                                               ; preds = %90
  store ptr %91, ptr %12, align 8, !tbaa !38
  %93 = load i64, ptr %8, align 8, !tbaa !86
  store i64 %93, ptr %84, align 8, !tbaa !37
  br label %94

94:                                               ; preds = %92, %80
  %95 = phi i64 [ %93, %92 ], [ %87, %80 ]
  %96 = phi ptr [ %91, %92 ], [ %84, %80 ]
  switch i64 %95, label %99 [
    i64 0, label %97
    i64 -1, label %101
  ]

97:                                               ; preds = %94
  %98 = load i8, ptr %85, align 1, !tbaa !37
  store i8 %98, ptr %96, align 1, !tbaa !37
  br label %101

99:                                               ; preds = %94
  %100 = add nuw i64 %95, 1
  call void @llvm.memcpy.p0.p0.i64(ptr noundef nonnull align 1 dereferenceable(1) %96, ptr noundef nonnull align 1 dereferenceable(1) %85, i64 %100, i1 false)
  br label %101

101:                                              ; preds = %99, %97, %94
  %102 = load i64, ptr %8, align 8, !tbaa !86
  %103 = getelementptr inbounds nuw i8, ptr %12, i64 8
  store i64 %102, ptr %103, align 8, !tbaa !34
  call void @llvm.lifetime.end.p0(ptr %8)
  call void @llvm.lifetime.start.p0(ptr %13)
  %104 = getelementptr inbounds nuw i8, ptr %13, i64 16
  store ptr %104, ptr %13, align 8, !tbaa !31
  %105 = getelementptr inbounds nuw i8, ptr %13, i64 8
  store i64 0, ptr %105, align 8, !tbaa !34
  store i8 0, ptr %104, align 8, !tbaa !37
  %106 = getelementptr inbounds nuw i8, ptr %29, i64 8
  %107 = load i64, ptr %106, align 8, !tbaa !34
  %108 = icmp eq i64 %107, 0
  br i1 %108, label %362, label %109

109:                                              ; preds = %101
  br i1 %23, label %345, label %110

110:                                              ; preds = %109
  call void @llvm.lifetime.start.p0(ptr %14)
  call void @llvm.lifetime.start.p0(ptr %15)
  call void @llvm.lifetime.start.p0(ptr %16)
  call void @llvm.experimental.noalias.scope.decl(metadata !87)
  %111 = icmp ult i64 %107, 9223372036854775807
  call void @llvm.assume(i1 %111)
  %112 = getelementptr inbounds nuw i8, ptr %16, i64 16
  store ptr %112, ptr %16, align 8, !tbaa !31, !alias.scope !87
  %113 = load ptr, ptr %29, align 8, !tbaa !38, !noalias !87
  %114 = load i8, ptr %113, align 1, !tbaa !37
  store i8 %114, ptr %112, align 8, !tbaa !37
  %115 = getelementptr inbounds nuw i8, ptr %16, i64 8
  store i64 1, ptr %115, align 8, !tbaa !34, !alias.scope !87
  %116 = getelementptr inbounds nuw i8, ptr %16, i64 17
  store i8 0, ptr %116, align 1, !tbaa !37
  invoke void @_ZN5osgeo4proj8internal7tolowerERKNSt7__cxx1112basic_stringIcSt11char_traitsIcESaIcEEE(ptr dead_on_unwind nonnull writable sret(%"class.std::__cxx11::basic_string") align 8 %15, ptr noundef nonnull align 8 dereferenceable(32) %16)
          to label %117 unwind label %308

117:                                              ; preds = %110
  call void @llvm.lifetime.start.p0(ptr %17)
  call void @llvm.experimental.noalias.scope.decl(metadata !90)
  %118 = load i64, ptr %106, align 8, !tbaa !34, !noalias !90
  %119 = icmp ult i64 %118, 9223372036854775807
  call void @llvm.assume(i1 %119)
  %120 = icmp eq i64 %118, 0
  br i1 %120, label %121, label %123

121:                                              ; preds = %117
  invoke void (ptr, ...) @_ZSt24__throw_out_of_range_fmtPKcz(ptr noundef nonnull @.str.37, ptr noundef nonnull @.str.36, i64 noundef 1, i64 noundef 0) #38
          to label %122 unwind label %310

122:                                              ; preds = %121
  unreachable

123:                                              ; preds = %117
  %124 = getelementptr inbounds nuw i8, ptr %17, i64 16
  store ptr %124, ptr %17, align 8, !tbaa !31, !alias.scope !90
  %125 = load ptr, ptr %29, align 8, !tbaa !38, !noalias !90
  %126 = getelementptr inbounds nuw i8, ptr %125, i64 1
  %127 = add nsw i64 %118, -1
  call void @llvm.lifetime.start.p0(ptr %7)
  store i64 %127, ptr %7, align 8, !tbaa !86, !noalias !90
  %128 = icmp samesign ugt i64 %127, 15
  br i1 %128, label %129, label %133

129:                                              ; preds = %123
  %130 = invoke noundef ptr @_ZNSt7__cxx1112basic_stringIcSt11char_traitsIcESaIcEE9_M_createERmm(ptr noundef nonnull align 8 dereferenceable(32) %17, ptr noundef nonnull align 8 dereferenceable(8) %7, i64 noundef 0)
          to label %131 unwind label %310

131:                                              ; preds = %129
  store ptr %130, ptr %17, align 8, !tbaa !38, !alias.scope !90
  %132 = load i64, ptr %7, align 8, !tbaa !86, !noalias !90
  store i64 %132, ptr %124, align 8, !tbaa !37, !alias.scope !90
  br label %133

133:                                              ; preds = %131, %123
  %134 = phi ptr [ %130, %131 ], [ %124, %123 ]
  switch i64 %118, label %137 [
    i64 2, label %135
    i64 1, label %138
  ]

135:                                              ; preds = %133
  %136 = load i8, ptr %126, align 1, !tbaa !37
  store i8 %136, ptr %134, align 1, !tbaa !37
  br label %138

137:                                              ; preds = %133
  call void @llvm.memcpy.p0.p0.i64(ptr align 1 %134, ptr nonnull align 1 %126, i64 %127, i1 false)
  br label %138

138:                                              ; preds = %137, %135, %133
  %139 = load i64, ptr %7, align 8, !tbaa !86, !noalias !90
  %140 = getelementptr inbounds nuw i8, ptr %17, i64 8
  store i64 %139, ptr %140, align 8, !tbaa !34, !alias.scope !90
  %141 = load ptr, ptr %17, align 8, !tbaa !38, !alias.scope !90
  %142 = getelementptr inbounds nuw i8, ptr %141, i64 %139
  store i8 0, ptr %142, align 1, !tbaa !37
  call void @llvm.lifetime.end.p0(ptr %7)
  call void @llvm.experimental.noalias.scope.decl(metadata !93)
  %143 = getelementptr inbounds nuw i8, ptr %15, i64 8
  %144 = load i64, ptr %143, align 8, !tbaa !34, !noalias !93
  %145 = icmp ult i64 %144, 9223372036854775807
  call void @llvm.assume(i1 %145)
  %146 = load i64, ptr %140, align 8, !tbaa !34, !noalias !93
  %147 = icmp ult i64 %146, 9223372036854775807
  call void @llvm.assume(i1 %147)
  %148 = add nuw i64 %146, %144
  %149 = load ptr, ptr %15, align 8, !tbaa !38, !noalias !93
  %150 = getelementptr inbounds nuw i8, ptr %15, i64 16
  %151 = icmp eq ptr %149, %150
  br i1 %151, label %152, label %154

152:                                              ; preds = %138
  %153 = icmp samesign ult i64 %144, 16
  call void @llvm.assume(i1 %153)
  br label %154

154:                                              ; preds = %152, %138
  %155 = load i64, ptr %150, align 8, !noalias !93
  %156 = select i1 %151, i64 15, i64 %155
  %157 = icmp samesign ugt i64 %156, 14
  call void @llvm.assume(i1 %157)
  %158 = icmp ult i64 %156, 9223372036854775807
  call void @llvm.assume(i1 %158)
  %159 = icmp ugt i64 %148, %156
  br i1 %159, label %160, label %190

160:                                              ; preds = %154
  %161 = load ptr, ptr %17, align 8, !tbaa !38, !noalias !93
  %162 = icmp eq ptr %161, %124
  br i1 %162, label %163, label %165

163:                                              ; preds = %160
  %164 = icmp samesign ult i64 %146, 16
  call void @llvm.assume(i1 %164)
  br label %165

165:                                              ; preds = %163, %160
  %166 = load i64, ptr %124, align 8, !noalias !93
  %167 = select i1 %162, i64 15, i64 %166
  %168 = icmp samesign ugt i64 %167, 14
  call void @llvm.assume(i1 %168)
  %169 = icmp ult i64 %167, 9223372036854775807
  call void @llvm.assume(i1 %169)
  %170 = icmp ugt i64 %148, %167
  br i1 %170, label %190, label %171

171:                                              ; preds = %165
  %172 = invoke noundef nonnull align 8 dereferenceable(32) ptr @_ZNSt7__cxx1112basic_stringIcSt11char_traitsIcESaIcEE10_M_replaceEmmPKcm(ptr noundef nonnull align 8 dereferenceable(32) %17, i64 noundef 0, i64 noundef 0, ptr noundef %149, i64 noundef %144)
          to label %173 unwind label %312

173:                                              ; preds = %171
  %174 = getelementptr inbounds nuw i8, ptr %14, i64 16
  store ptr %174, ptr %14, align 8, !tbaa !31, !alias.scope !93
  %175 = load ptr, ptr %172, align 8, !tbaa !38
  %176 = getelementptr inbounds nuw i8, ptr %172, i64 16
  %177 = icmp eq ptr %175, %176
  br i1 %177, label %178, label %183

178:                                              ; preds = %173
  %179 = getelementptr inbounds nuw i8, ptr %172, i64 8
  %180 = load i64, ptr %179, align 8, !tbaa !34
  %181 = icmp ult i64 %180, 16
  call void @llvm.assume(i1 %181)
  %182 = add nuw nsw i64 %180, 1
  call void @llvm.memcpy.p0.p0.i64(ptr noundef nonnull align 8 dereferenceable(1) %174, ptr noundef nonnull align 8 dereferenceable(1) %176, i64 %182, i1 false)
  br label %185

183:                                              ; preds = %173
  store ptr %175, ptr %14, align 8, !tbaa !38, !alias.scope !93
  %184 = load i64, ptr %176, align 8, !tbaa !37
  store i64 %184, ptr %174, align 8, !tbaa !37, !alias.scope !93
  br label %185

185:                                              ; preds = %183, %178
  %186 = getelementptr inbounds nuw i8, ptr %172, i64 8
  %187 = load i64, ptr %186, align 8, !tbaa !34
  %188 = icmp ult i64 %187, 9223372036854775807
  call void @llvm.assume(i1 %188)
  %189 = getelementptr inbounds nuw i8, ptr %14, i64 8
  store i64 %187, ptr %189, align 8, !tbaa !34, !alias.scope !93
  store ptr %176, ptr %172, align 8, !tbaa !38
  store i64 0, ptr %186, align 8, !tbaa !34
  store i8 0, ptr %176, align 8, !tbaa !37
  br label %215

190:                                              ; preds = %165, %154
  %191 = sub nuw nsw i64 9223372036854775806, %144
  %192 = icmp samesign ult i64 %191, %146
  br i1 %192, label %193, label %195

193:                                              ; preds = %190
  invoke void @_ZSt20__throw_length_errorPKc(ptr noundef nonnull @.str.40) #38
          to label %194 unwind label %312

194:                                              ; preds = %193
  unreachable

195:                                              ; preds = %190
  %196 = load ptr, ptr %17, align 8, !tbaa !38, !noalias !93
  %197 = invoke noundef nonnull align 8 dereferenceable(32) ptr @_ZNSt7__cxx1112basic_stringIcSt11char_traitsIcESaIcEE9_M_appendEPKcm(ptr noundef nonnull align 8 dereferenceable(32) %15, ptr noundef %196, i64 noundef %146)
          to label %198 unwind label %312

198:                                              ; preds = %195
  %199 = getelementptr inbounds nuw i8, ptr %14, i64 16
  store ptr %199, ptr %14, align 8, !tbaa !31, !alias.scope !93
  %200 = load ptr, ptr %197, align 8, !tbaa !38
  %201 = getelementptr inbounds nuw i8, ptr %197, i64 16
  %202 = icmp eq ptr %200, %201
  br i1 %202, label %203, label %208

203:                                              ; preds = %198
  %204 = getelementptr inbounds nuw i8, ptr %197, i64 8
  %205 = load i64, ptr %204, align 8, !tbaa !34
  %206 = icmp ult i64 %205, 16
  call void @llvm.assume(i1 %206)
  %207 = add nuw nsw i64 %205, 1
  call void @llvm.memcpy.p0.p0.i64(ptr noundef nonnull align 8 dereferenceable(1) %199, ptr noundef nonnull align 8 dereferenceable(1) %201, i64 %207, i1 false)
  br label %210

208:                                              ; preds = %198
  store ptr %200, ptr %14, align 8, !tbaa !38, !alias.scope !93
  %209 = load i64, ptr %201, align 8, !tbaa !37
  store i64 %209, ptr %199, align 8, !tbaa !37, !alias.scope !93
  br label %210

210:                                              ; preds = %208, %203
  %211 = getelementptr inbounds nuw i8, ptr %197, i64 8
  %212 = load i64, ptr %211, align 8, !tbaa !34
  %213 = icmp ult i64 %212, 9223372036854775807
  call void @llvm.assume(i1 %213)
  %214 = getelementptr inbounds nuw i8, ptr %14, i64 8
  store i64 %212, ptr %214, align 8, !tbaa !34, !alias.scope !93
  store ptr %201, ptr %197, align 8, !tbaa !38
  store i64 0, ptr %211, align 8, !tbaa !34
  store i8 0, ptr %201, align 8, !tbaa !37
  br label %215

215:                                              ; preds = %210, %185
  %216 = load ptr, ptr %13, align 8, !tbaa !38
  %217 = icmp eq ptr %216, %104
  br i1 %217, label %218, label %224

218:                                              ; preds = %215
  %219 = load i64, ptr %105, align 8, !tbaa !34
  %220 = icmp ult i64 %219, 16
  call void @llvm.assume(i1 %220)
  %221 = load ptr, ptr %14, align 8, !tbaa !38
  %222 = getelementptr inbounds nuw i8, ptr %14, i64 16
  %223 = icmp eq ptr %221, %222
  br i1 %223, label %228, label %244

224:                                              ; preds = %215
  %225 = load ptr, ptr %14, align 8, !tbaa !38
  %226 = getelementptr inbounds nuw i8, ptr %14, i64 16
  %227 = icmp eq ptr %225, %226
  br i1 %227, label %228, label %242

228:                                              ; preds = %224, %218
  %229 = phi ptr [ %225, %224 ], [ %221, %218 ]
  %230 = getelementptr inbounds nuw i8, ptr %14, i64 8
  %231 = load i64, ptr %230, align 8, !tbaa !34
  %232 = icmp ult i64 %231, 16
  call void @llvm.assume(i1 %232)
  switch i64 %231, label %235 [
    i64 0, label %236
    i64 1, label %233
  ]

233:                                              ; preds = %228
  %234 = load i8, ptr %229, align 1, !tbaa !37
  store i8 %234, ptr %216, align 1, !tbaa !37
  br label %236

235:                                              ; preds = %228
  call void @llvm.memcpy.p0.p0.i64(ptr align 1 %216, ptr align 1 %229, i64 %231, i1 false)
  br label %236

236:                                              ; preds = %235, %233, %228
  %237 = load i64, ptr %230, align 8, !tbaa !34
  %238 = icmp ult i64 %237, 9223372036854775807
  call void @llvm.assume(i1 %238)
  store i64 %237, ptr %105, align 8, !tbaa !34
  %239 = load ptr, ptr %13, align 8, !tbaa !38
  %240 = getelementptr inbounds nuw i8, ptr %239, i64 %237
  store i8 0, ptr %240, align 1, !tbaa !37
  %241 = load ptr, ptr %14, align 8, !tbaa !38
  br label %256

242:                                              ; preds = %224
  %243 = load i64, ptr %104, align 8, !tbaa !37
  br label %244

244:                                              ; preds = %242, %218
  %245 = phi ptr [ %226, %242 ], [ %222, %218 ]
  %246 = phi ptr [ %225, %242 ], [ %221, %218 ]
  %247 = phi ptr [ %216, %242 ], [ null, %218 ]
  %248 = phi i64 [ %243, %242 ], [ undef, %218 ]
  store ptr %246, ptr %13, align 8, !tbaa !38
  %249 = getelementptr inbounds nuw i8, ptr %14, i64 8
  %250 = load i64, ptr %249, align 8, !tbaa !34
  %251 = icmp ult i64 %250, 9223372036854775807
  call void @llvm.assume(i1 %251)
  store i64 %250, ptr %105, align 8, !tbaa !34
  %252 = load i64, ptr %245, align 8, !tbaa !37
  store i64 %252, ptr %104, align 8, !tbaa !37
  %253 = icmp eq ptr %247, null
  br i1 %253, label %255, label %254

254:                                              ; preds = %244
  store ptr %247, ptr %14, align 8, !tbaa !38
  store i64 %248, ptr %245, align 8, !tbaa !37
  br label %256

255:                                              ; preds = %244
  store ptr %245, ptr %14, align 8, !tbaa !38
  br label %256

256:                                              ; preds = %255, %254, %236
  %257 = phi ptr [ %241, %236 ], [ %247, %254 ], [ %245, %255 ]
  %258 = getelementptr inbounds nuw i8, ptr %14, i64 8
  store i64 0, ptr %258, align 8, !tbaa !34
  store i8 0, ptr %257, align 1, !tbaa !37
  %259 = load ptr, ptr %14, align 8, !tbaa !38
  %260 = getelementptr inbounds nuw i8, ptr %14, i64 16
  %261 = icmp eq ptr %259, %260
  br i1 %261, label %262, label %265

262:                                              ; preds = %256
  %263 = load i64, ptr %258, align 8, !tbaa !34
  %264 = icmp ult i64 %263, 16
  call void @llvm.assume(i1 %264)
  br label %268

265:                                              ; preds = %256
  %266 = load i64, ptr %260, align 8, !tbaa !37
  %267 = add i64 %266, 1
  call void @_ZdlPvm(ptr noundef %259, i64 noundef %267) #33
  br label %268

268:                                              ; preds = %265, %262
  %269 = load ptr, ptr %17, align 8, !tbaa !38
  %270 = icmp eq ptr %269, %124
  br i1 %270, label %271, label %274

271:                                              ; preds = %268
  %272 = load i64, ptr %140, align 8, !tbaa !34
  %273 = icmp ult i64 %272, 16
  call void @llvm.assume(i1 %273)
  br label %277

274:                                              ; preds = %268
  %275 = load i64, ptr %124, align 8, !tbaa !37
  %276 = add i64 %275, 1
  call void @_ZdlPvm(ptr noundef %269, i64 noundef %276) #33
  br label %277

277:                                              ; preds = %274, %271
  call void @llvm.lifetime.end.p0(ptr %17)
  %278 = load ptr, ptr %15, align 8, !tbaa !38
  %279 = icmp eq ptr %278, %150
  br i1 %279, label %280, label %283

280:                                              ; preds = %277
  %281 = load i64, ptr %143, align 8, !tbaa !34
  %282 = icmp ult i64 %281, 16
  call void @llvm.assume(i1 %282)
  br label %286

283:                                              ; preds = %277
  %284 = load i64, ptr %150, align 8, !tbaa !37
  %285 = add i64 %284, 1
  call void @_ZdlPvm(ptr noundef %278, i64 noundef %285) #33
  br label %286

286:                                              ; preds = %283, %280
  %287 = load ptr, ptr %16, align 8, !tbaa !38
  %288 = icmp eq ptr %287, %112
  br i1 %288, label %289, label %292

289:                                              ; preds = %286
  %290 = load i64, ptr %115, align 8, !tbaa !34
  %291 = icmp ult i64 %290, 16
  call void @llvm.assume(i1 %291)
  br label %364

292:                                              ; preds = %286
  %293 = load i64, ptr %112, align 8, !tbaa !37
  %294 = add i64 %293, 1
  call void @_ZdlPvm(ptr noundef %287, i64 noundef %294) #33
  br label %364

295:                                              ; preds = %58, %49, %47, %40
  %296 = landingpad { ptr, i32 }
          cleanup
  %297 = load ptr, ptr %11, align 8, !tbaa !38
  %298 = icmp eq ptr %297, %32
  br i1 %298, label %299, label %302

299:                                              ; preds = %295
  %300 = load i64, ptr %33, align 8, !tbaa !34
  %301 = icmp ult i64 %300, 16
  call void @llvm.assume(i1 %301)
  br label %305

302:                                              ; preds = %295
  %303 = load i64, ptr %32, align 8, !tbaa !37
  %304 = add i64 %303, 1
  call void @_ZdlPvm(ptr noundef %297, i64 noundef %304) #33
  br label %305

305:                                              ; preds = %302, %299
  call void @llvm.lifetime.end.p0(ptr %11)
  br label %888

306:                                              ; preds = %90
  %307 = landingpad { ptr, i32 }
          cleanup
  br label %878

308:                                              ; preds = %110
  %309 = landingpad { ptr, i32 }
          cleanup
  br label %334

310:                                              ; preds = %129, %121
  %311 = landingpad { ptr, i32 }
          cleanup
  br label %322

312:                                              ; preds = %195, %193, %171
  %313 = landingpad { ptr, i32 }
          cleanup
  %314 = load ptr, ptr %17, align 8, !tbaa !38
  %315 = icmp eq ptr %314, %124
  br i1 %315, label %316, label %319

316:                                              ; preds = %312
  %317 = load i64, ptr %140, align 8, !tbaa !34
  %318 = icmp ult i64 %317, 16
  call void @llvm.assume(i1 %318)
  br label %322

319:                                              ; preds = %312
  %320 = load i64, ptr %124, align 8, !tbaa !37
  %321 = add i64 %320, 1
  call void @_ZdlPvm(ptr noundef %314, i64 noundef %321) #33
  br label %322

322:                                              ; preds = %319, %316, %310
  %323 = phi { ptr, i32 } [ %311, %310 ], [ %313, %316 ], [ %313, %319 ]
  call void @llvm.lifetime.end.p0(ptr %17)
  %324 = load ptr, ptr %15, align 8, !tbaa !38
  %325 = getelementptr inbounds nuw i8, ptr %15, i64 16
  %326 = icmp eq ptr %324, %325
  br i1 %326, label %327, label %331

327:                                              ; preds = %322
  %328 = getelementptr inbounds nuw i8, ptr %15, i64 8
  %329 = load i64, ptr %328, align 8, !tbaa !34
  %330 = icmp ult i64 %329, 16
  call void @llvm.assume(i1 %330)
  br label %334

331:                                              ; preds = %322
  %332 = load i64, ptr %325, align 8, !tbaa !37
  %333 = add i64 %332, 1
  call void @_ZdlPvm(ptr noundef %324, i64 noundef %333) #33
  br label %334

334:                                              ; preds = %331, %327, %308
  %335 = phi { ptr, i32 } [ %309, %308 ], [ %323, %327 ], [ %323, %331 ]
  %336 = load ptr, ptr %16, align 8, !tbaa !38
  %337 = icmp eq ptr %336, %112
  br i1 %337, label %338, label %341

338:                                              ; preds = %334
  %339 = load i64, ptr %115, align 8, !tbaa !34
  %340 = icmp ult i64 %339, 16
  call void @llvm.assume(i1 %340)
  br label %344

341:                                              ; preds = %334
  %342 = load i64, ptr %112, align 8, !tbaa !37
  %343 = add i64 %342, 1
  call void @_ZdlPvm(ptr noundef %336, i64 noundef %343) #33
  br label %344

344:                                              ; preds = %341, %338
  call void @llvm.lifetime.end.p0(ptr %16)
  call void @llvm.lifetime.end.p0(ptr %15)
  call void @llvm.lifetime.end.p0(ptr %14)
  br label %859

345:                                              ; preds = %109
  %346 = icmp ult i64 %107, 9223372036854775807
  call void @llvm.assume(i1 %346)
  switch i64 %107, label %361 [
    i64 17, label %347
    i64 18, label %353
  ]

347:                                              ; preds = %345
  %348 = load ptr, ptr %29, align 8, !tbaa !38
  %349 = call i32 @bcmp(ptr noundef nonnull dereferenceable(17) %348, ptr noundef nonnull dereferenceable(17) @.str.6, i64 17)
  %350 = icmp eq i32 %349, 0
  br i1 %350, label %357, label %361

351:                                              ; preds = %725, %724, %563, %421, %419, %406, %361, %357
  %352 = landingpad { ptr, i32 }
          cleanup
  br label %859

353:                                              ; preds = %345
  %354 = load ptr, ptr %29, align 8, !tbaa !38
  %355 = call i32 @bcmp(ptr noundef nonnull dereferenceable(18) %354, ptr noundef nonnull dereferenceable(18) @.str.8, i64 18)
  %356 = icmp eq i32 %355, 0
  br i1 %356, label %357, label %361

357:                                              ; preds = %353, %347
  %358 = phi ptr [ @.str.9, %353 ], [ @.str.7, %347 ]
  %359 = phi i64 [ 9, %353 ], [ 8, %347 ]
  %360 = invoke noundef nonnull align 8 dereferenceable(32) ptr @_ZNSt7__cxx1112basic_stringIcSt11char_traitsIcESaIcEE10_M_replaceEmmPKcm(ptr noundef nonnull align 8 dereferenceable(32) %13, i64 noundef 0, i64 noundef 0, ptr noundef nonnull %358, i64 noundef %359)
          to label %424 unwind label %351

361:                                              ; preds = %353, %347, %345
  invoke void @_ZNSt7__cxx1112basic_stringIcSt11char_traitsIcESaIcEE9_M_assignERKS4_(ptr noundef nonnull align 8 dereferenceable(32) %13, ptr noundef nonnull align 8 dereferenceable(32) %29)
          to label %424 unwind label %351

362:                                              ; preds = %101
  %363 = or i1 %3, %23
  br i1 %363, label %423, label %371

364:                                              ; preds = %292, %289
  call void @llvm.lifetime.end.p0(ptr %16)
  call void @llvm.lifetime.end.p0(ptr %15)
  call void @llvm.lifetime.end.p0(ptr %14)
  br i1 %3, label %633, label %365

365:                                              ; preds = %364
  %366 = load i64, ptr %106, align 8, !tbaa !34
  %367 = icmp ult i64 %366, 9223372036854775807
  call void @llvm.assume(i1 %367)
  %368 = load i64, ptr getelementptr inbounds nuw (i8, ptr @_ZN5osgeo4proj2cs8AxisName8LatitudeB5cxx11E, i64 8), align 8, !tbaa !34
  %369 = icmp ult i64 %368, 9223372036854775807
  call void @llvm.assume(i1 %369)
  %370 = icmp eq i64 %366, %368
  br i1 %370, label %375, label %382

371:                                              ; preds = %362
  %372 = load i64, ptr getelementptr inbounds nuw (i8, ptr @_ZN5osgeo4proj2cs8AxisName8LatitudeB5cxx11E, i64 8), align 8, !tbaa !34
  %373 = icmp ult i64 %372, 9223372036854775807
  call void @llvm.assume(i1 %373)
  %374 = icmp eq i64 %372, 0
  br i1 %374, label %633, label %386

375:                                              ; preds = %365
  %376 = icmp eq i64 %366, 0
  br i1 %376, label %633, label %377

377:                                              ; preds = %375
  %378 = load ptr, ptr @_ZN5osgeo4proj2cs8AxisName8LatitudeB5cxx11E, align 8, !tbaa !38
  %379 = load ptr, ptr %29, align 8, !tbaa !38
  %380 = call i32 @bcmp(ptr %379, ptr %378, i64 %366)
  %381 = icmp eq i32 %380, 0
  br i1 %381, label %633, label %382

382:                                              ; preds = %377, %365
  %383 = load i64, ptr getelementptr inbounds nuw (i8, ptr @_ZN5osgeo4proj2cs8AxisName9LongitudeB5cxx11E, i64 8), align 8, !tbaa !34
  %384 = icmp ult i64 %383, 9223372036854775807
  call void @llvm.assume(i1 %384)
  %385 = icmp eq i64 %366, %383
  br i1 %385, label %390, label %397

386:                                              ; preds = %371
  %387 = load i64, ptr getelementptr inbounds nuw (i8, ptr @_ZN5osgeo4proj2cs8AxisName9LongitudeB5cxx11E, i64 8), align 8, !tbaa !34
  %388 = icmp ult i64 %387, 9223372036854775807
  call void @llvm.assume(i1 %388)
  %389 = icmp eq i64 %387, 0
  br i1 %389, label %633, label %397

390:                                              ; preds = %382
  %391 = icmp eq i64 %366, 0
  br i1 %391, label %633, label %392

392:                                              ; preds = %390
  %393 = load ptr, ptr @_ZN5osgeo4proj2cs8AxisName9LongitudeB5cxx11E, align 8, !tbaa !38
  %394 = load ptr, ptr %29, align 8, !tbaa !38
  %395 = call i32 @bcmp(ptr %394, ptr %393, i64 %366)
  %396 = icmp eq i32 %395, 0
  br i1 %396, label %633, label %397

397:                                              ; preds = %392, %386, %382
  %398 = load i64, ptr %105, align 8, !tbaa !34
  %399 = icmp eq i64 %398, 0
  br i1 %399, label %408, label %400

400:                                              ; preds = %397
  %401 = load i64, ptr %36, align 8, !tbaa !34
  %402 = icmp eq i64 %401, 0
  br i1 %402, label %724, label %403

403:                                              ; preds = %400
  %404 = icmp ult i64 %398, 9223372036854775807
  call void @llvm.assume(i1 %404)
  %405 = icmp eq i64 %398, 9223372036854775806
  br i1 %405, label %419, label %406

406:                                              ; preds = %403
  %407 = invoke noundef nonnull align 8 dereferenceable(32) ptr @_ZNSt7__cxx1112basic_stringIcSt11char_traitsIcESaIcEE9_M_appendEPKcm(ptr noundef nonnull align 8 dereferenceable(32) %13, ptr noundef nonnull @.str.10, i64 noundef 1)
          to label %408 unwind label %351

408:                                              ; preds = %406, %397
  %409 = load i64, ptr %36, align 8, !tbaa !34
  %410 = icmp eq i64 %409, 0
  br i1 %410, label %724, label %411

411:                                              ; preds = %408
  %412 = load ptr, ptr %10, align 8, !tbaa !38
  %413 = load i64, ptr %71, align 8, !tbaa !34
  %414 = icmp ult i64 %413, 9223372036854775807
  call void @llvm.assume(i1 %414)
  %415 = load i64, ptr %105, align 8, !tbaa !34
  %416 = icmp ult i64 %415, 9223372036854775807
  call void @llvm.assume(i1 %416)
  %417 = sub nuw nsw i64 9223372036854775806, %415
  %418 = icmp samesign ult i64 %417, %413
  br i1 %418, label %419, label %421

419:                                              ; preds = %411, %403
  invoke void @_ZSt20__throw_length_errorPKc(ptr noundef nonnull @.str.40) #38
          to label %420 unwind label %351

420:                                              ; preds = %419
  unreachable

421:                                              ; preds = %411
  %422 = invoke noundef nonnull align 8 dereferenceable(32) ptr @_ZNSt7__cxx1112basic_stringIcSt11char_traitsIcESaIcEE9_M_appendEPKcm(ptr noundef nonnull align 8 dereferenceable(32) %13, ptr noundef %412, i64 noundef %413)
          to label %633 unwind label %351

423:                                              ; preds = %362
  br i1 %23, label %424, label %633

424:                                              ; preds = %423, %361, %357
  call void @llvm.lifetime.start.p0(ptr %18)
  invoke void @_ZN5osgeo4proj8internal7toupperERKNSt7__cxx1112basic_stringIcSt11char_traitsIcESaIcEEE(ptr dead_on_unwind nonnull writable sret(%"class.std::__cxx11::basic_string") align 8 %18, ptr noundef nonnull align 8 dereferenceable(32) %12)
          to label %425 unwind label %561

425:                                              ; preds = %424
  %426 = load ptr, ptr %12, align 8, !tbaa !38
  %427 = icmp eq ptr %426, %84
  br i1 %427, label %428, label %434

428:                                              ; preds = %425
  %429 = load i64, ptr %103, align 8, !tbaa !34
  %430 = icmp ult i64 %429, 16
  call void @llvm.assume(i1 %430)
  %431 = load ptr, ptr %18, align 8, !tbaa !38
  %432 = getelementptr inbounds nuw i8, ptr %18, i64 16
  %433 = icmp eq ptr %431, %432
  br i1 %433, label %438, label %454

434:                                              ; preds = %425
  %435 = load ptr, ptr %18, align 8, !tbaa !38
  %436 = getelementptr inbounds nuw i8, ptr %18, i64 16
  %437 = icmp eq ptr %435, %436
  br i1 %437, label %438, label %452

438:                                              ; preds = %434, %428
  %439 = phi ptr [ %435, %434 ], [ %431, %428 ]
  %440 = getelementptr inbounds nuw i8, ptr %18, i64 8
  %441 = load i64, ptr %440, align 8, !tbaa !34
  %442 = icmp ult i64 %441, 16
  call void @llvm.assume(i1 %442)
  switch i64 %441, label %445 [
    i64 0, label %446
    i64 1, label %443
  ]

443:                                              ; preds = %438
  %444 = load i8, ptr %439, align 1, !tbaa !37
  store i8 %444, ptr %426, align 1, !tbaa !37
  br label %446

445:                                              ; preds = %438
  call void @llvm.memcpy.p0.p0.i64(ptr align 1 %426, ptr align 1 %439, i64 %441, i1 false)
  br label %446

446:                                              ; preds = %445, %443, %438
  %447 = load i64, ptr %440, align 8, !tbaa !34
  %448 = icmp ult i64 %447, 9223372036854775807
  call void @llvm.assume(i1 %448)
  store i64 %447, ptr %103, align 8, !tbaa !34
  %449 = load ptr, ptr %12, align 8, !tbaa !38
  %450 = getelementptr inbounds nuw i8, ptr %449, i64 %447
  store i8 0, ptr %450, align 1, !tbaa !37
  %451 = load ptr, ptr %18, align 8, !tbaa !38
  br label %466

452:                                              ; preds = %434
  %453 = load i64, ptr %84, align 8, !tbaa !37
  br label %454

454:                                              ; preds = %452, %428
  %455 = phi ptr [ %436, %452 ], [ %432, %428 ]
  %456 = phi ptr [ %435, %452 ], [ %431, %428 ]
  %457 = phi ptr [ %426, %452 ], [ null, %428 ]
  %458 = phi i64 [ %453, %452 ], [ undef, %428 ]
  store ptr %456, ptr %12, align 8, !tbaa !38
  %459 = getelementptr inbounds nuw i8, ptr %18, i64 8
  %460 = load i64, ptr %459, align 8, !tbaa !34
  %461 = icmp ult i64 %460, 9223372036854775807
  call void @llvm.assume(i1 %461)
  store i64 %460, ptr %103, align 8, !tbaa !34
  %462 = load i64, ptr %455, align 8, !tbaa !37
  store i64 %462, ptr %84, align 8, !tbaa !37
  %463 = icmp eq ptr %457, null
  br i1 %463, label %465, label %464

464:                                              ; preds = %454
  store ptr %457, ptr %18, align 8, !tbaa !38
  store i64 %458, ptr %455, align 8, !tbaa !37
  br label %466

465:                                              ; preds = %454
  store ptr %455, ptr %18, align 8, !tbaa !38
  br label %466

466:                                              ; preds = %465, %464, %446
  %467 = phi ptr [ %451, %446 ], [ %457, %464 ], [ %455, %465 ]
  %468 = getelementptr inbounds nuw i8, ptr %18, i64 8
  store i64 0, ptr %468, align 8, !tbaa !34
  store i8 0, ptr %467, align 1, !tbaa !37
  %469 = load ptr, ptr %18, align 8, !tbaa !38
  %470 = getelementptr inbounds nuw i8, ptr %18, i64 16
  %471 = icmp eq ptr %469, %470
  br i1 %471, label %472, label %475

472:                                              ; preds = %466
  %473 = load i64, ptr %468, align 8, !tbaa !34
  %474 = icmp ult i64 %473, 16
  call void @llvm.assume(i1 %474)
  br label %478

475:                                              ; preds = %466
  %476 = load i64, ptr %470, align 8, !tbaa !37
  %477 = add i64 %476, 1
  call void @_ZdlPvm(ptr noundef %469, i64 noundef %477) #33
  br label %478

478:                                              ; preds = %475, %472
  call void @llvm.lifetime.end.p0(ptr %18)
  %479 = load ptr, ptr %30, align 8, !tbaa !42
  %480 = getelementptr inbounds nuw i8, ptr %479, i64 32
  %481 = load ptr, ptr %480, align 8, !tbaa !44
  %482 = getelementptr inbounds nuw i8, ptr %481, i64 8
  %483 = load i64, ptr %482, align 8, !tbaa !34
  %484 = icmp ult i64 %483, 9223372036854775807
  call void @llvm.assume(i1 %484)
  %485 = load i64, ptr getelementptr inbounds nuw (i8, ptr @_ZN5osgeo4proj2cs13AxisDirection12GEOCENTRIC_ZE, i64 8), align 8, !tbaa !34
  %486 = icmp ult i64 %485, 9223372036854775807
  call void @llvm.assume(i1 %486)
  %487 = icmp eq i64 %483, %485
  br i1 %487, label %488, label %563

488:                                              ; preds = %478
  %489 = icmp eq i64 %483, 0
  br i1 %489, label %495, label %490

490:                                              ; preds = %488
  %491 = load ptr, ptr @_ZN5osgeo4proj2cs13AxisDirection12GEOCENTRIC_ZE, align 8, !tbaa !38
  %492 = load ptr, ptr %481, align 8, !tbaa !38
  %493 = call i32 @bcmp(ptr %492, ptr %491, i64 %483)
  %494 = icmp eq i32 %493, 0
  br i1 %494, label %495, label %563

495:                                              ; preds = %490, %488
  call void @llvm.lifetime.start.p0(ptr %19)
  call void @llvm.experimental.noalias.scope.decl(metadata !96)
  %496 = getelementptr inbounds nuw i8, ptr %19, i64 16
  store ptr %496, ptr %19, align 8, !tbaa !31, !alias.scope !96
  %497 = load ptr, ptr @_ZN5osgeo4proj2cs17AxisDirectionWKT15NORTHE, align 8, !tbaa !38, !noalias !96
  %498 = load i64, ptr getelementptr inbounds nuw (i8, ptr @_ZN5osgeo4proj2cs17AxisDirectionWKT15NORTHE, i64 8), align 8, !tbaa !34, !noalias !96
  %499 = icmp ult i64 %498, 9223372036854775807
  call void @llvm.assume(i1 %499)
  call void @llvm.lifetime.start.p0(ptr %6)
  store i64 %498, ptr %6, align 8, !tbaa !86, !noalias !96
  %500 = icmp samesign ugt i64 %498, 15
  br i1 %500, label %501, label %505

501:                                              ; preds = %495
  %502 = invoke noundef ptr @_ZNSt7__cxx1112basic_stringIcSt11char_traitsIcESaIcEE9_M_createERmm(ptr noundef nonnull align 8 dereferenceable(32) %19, ptr noundef nonnull align 8 dereferenceable(8) %6, i64 noundef 0)
          to label %503 unwind label %512

503:                                              ; preds = %501
  store ptr %502, ptr %19, align 8, !tbaa !38, !alias.scope !96
  %504 = load i64, ptr %6, align 8, !tbaa !86, !noalias !96
  store i64 %504, ptr %496, align 8, !tbaa !37, !alias.scope !96
  br label %505

505:                                              ; preds = %503, %495
  %506 = phi i64 [ %504, %503 ], [ %498, %495 ]
  %507 = phi ptr [ %502, %503 ], [ %496, %495 ]
  switch i64 %506, label %510 [
    i64 0, label %508
    i64 -1, label %515
  ]

508:                                              ; preds = %505
  %509 = load i8, ptr %497, align 1, !tbaa !37
  store i8 %509, ptr %507, align 1, !tbaa !37
  br label %515

510:                                              ; preds = %505
  %511 = add nuw i64 %506, 1
  call void @llvm.memcpy.p0.p0.i64(ptr noundef nonnull align 1 dereferenceable(1) %507, ptr noundef nonnull align 1 dereferenceable(1) %497, i64 %511, i1 false)
  br label %515

512:                                              ; preds = %501
  %513 = landingpad { ptr, i32 }
          catch ptr null
  %514 = extractvalue { ptr, i32 } %513, 0
  call void @__clang_call_terminate(ptr %514) #36
  unreachable

515:                                              ; preds = %510, %508, %505
  %516 = load i64, ptr %6, align 8, !tbaa !86, !noalias !96
  %517 = getelementptr inbounds nuw i8, ptr %19, i64 8
  store i64 %516, ptr %517, align 8, !tbaa !34, !alias.scope !96
  call void @llvm.lifetime.end.p0(ptr %6)
  %518 = load ptr, ptr %12, align 8, !tbaa !38
  %519 = icmp eq ptr %518, %84
  br i1 %519, label %520, label %528

520:                                              ; preds = %515
  %521 = load i64, ptr %103, align 8, !tbaa !34
  %522 = icmp ult i64 %521, 16
  call void @llvm.assume(i1 %522)
  %523 = load ptr, ptr %19, align 8, !tbaa !38
  %524 = icmp eq ptr %523, %496
  br i1 %524, label %531, label %525

525:                                              ; preds = %520
  store ptr %523, ptr %12, align 8, !tbaa !38
  %526 = icmp ult i64 %516, 9223372036854775807
  call void @llvm.assume(i1 %526)
  store i64 %516, ptr %103, align 8, !tbaa !34
  %527 = load i64, ptr %496, align 8, !tbaa !37
  store i64 %527, ptr %84, align 8, !tbaa !37
  br label %549

528:                                              ; preds = %515
  %529 = load ptr, ptr %19, align 8, !tbaa !38
  %530 = icmp eq ptr %529, %496
  br i1 %530, label %531, label %543

531:                                              ; preds = %528, %520
  %532 = phi ptr [ %529, %528 ], [ %523, %520 ]
  %533 = icmp ult i64 %516, 16
  call void @llvm.assume(i1 %533)
  switch i64 %516, label %536 [
    i64 0, label %537
    i64 1, label %534
  ]

534:                                              ; preds = %531
  %535 = load i8, ptr %532, align 1, !tbaa !37
  store i8 %535, ptr %518, align 1, !tbaa !37
  br label %537

536:                                              ; preds = %531
  call void @llvm.memcpy.p0.p0.i64(ptr align 1 %518, ptr align 1 %532, i64 %516, i1 false)
  br label %537

537:                                              ; preds = %536, %534, %531
  %538 = load i64, ptr %517, align 8, !tbaa !34
  %539 = icmp ult i64 %538, 9223372036854775807
  call void @llvm.assume(i1 %539)
  store i64 %538, ptr %103, align 8, !tbaa !34
  %540 = load ptr, ptr %12, align 8, !tbaa !38
  %541 = getelementptr inbounds nuw i8, ptr %540, i64 %538
  store i8 0, ptr %541, align 1, !tbaa !37
  %542 = load ptr, ptr %19, align 8, !tbaa !38
  br label %550

543:                                              ; preds = %528
  %544 = load i64, ptr %84, align 8, !tbaa !37
  store ptr %529, ptr %12, align 8, !tbaa !38
  %545 = icmp ult i64 %516, 9223372036854775807
  call void @llvm.assume(i1 %545)
  store i64 %516, ptr %103, align 8, !tbaa !34
  %546 = load i64, ptr %496, align 8, !tbaa !37
  store i64 %546, ptr %84, align 8, !tbaa !37
  %547 = icmp eq ptr %518, null
  br i1 %547, label %549, label %548

548:                                              ; preds = %543
  store ptr %518, ptr %19, align 8, !tbaa !38
  store i64 %544, ptr %496, align 8, !tbaa !37
  br label %550

549:                                              ; preds = %543, %525
  store ptr %496, ptr %19, align 8, !tbaa !38
  br label %550

550:                                              ; preds = %549, %548, %537
  %551 = phi ptr [ %542, %537 ], [ %518, %548 ], [ %496, %549 ]
  store i64 0, ptr %517, align 8, !tbaa !34
  store i8 0, ptr %551, align 1, !tbaa !37
  %552 = load ptr, ptr %19, align 8, !tbaa !38
  %553 = icmp eq ptr %552, %496
  br i1 %553, label %554, label %557

554:                                              ; preds = %550
  %555 = load i64, ptr %517, align 8, !tbaa !34
  %556 = icmp ult i64 %555, 16
  call void @llvm.assume(i1 %556)
  br label %560

557:                                              ; preds = %550
  %558 = load i64, ptr %496, align 8, !tbaa !37
  %559 = add i64 %558, 1
  call void @_ZdlPvm(ptr noundef %552, i64 noundef %559) #33
  br label %560

560:                                              ; preds = %557, %554
  call void @llvm.lifetime.end.p0(ptr %19)
  br label %724

561:                                              ; preds = %424
  %562 = landingpad { ptr, i32 }
          cleanup
  call void @llvm.lifetime.end.p0(ptr %18)
  br label %859

563:                                              ; preds = %490, %478
  %564 = invoke noundef ptr @_ZN5osgeo4proj2cs17AxisDirectionWKT17valueOfERKNSt7__cxx1112basic_stringIcSt11char_traitsIcESaIcEEE(ptr noundef nonnull align 8 dereferenceable(32) %12)
          to label %565 unwind label %351

565:                                              ; preds = %563
  %566 = icmp eq ptr %564, null
  br i1 %566, label %567, label %724

567:                                              ; preds = %565
  call void @llvm.lifetime.start.p0(ptr %20)
  call void @llvm.experimental.noalias.scope.decl(metadata !99)
  %568 = getelementptr inbounds nuw i8, ptr %20, i64 16
  store ptr %568, ptr %20, align 8, !tbaa !31, !alias.scope !99
  %569 = load ptr, ptr @_ZN5osgeo4proj2cs17AxisDirectionWKT15OTHERE, align 8, !tbaa !38, !noalias !99
  %570 = load i64, ptr getelementptr inbounds nuw (i8, ptr @_ZN5osgeo4proj2cs17AxisDirectionWKT15OTHERE, i64 8), align 8, !tbaa !34, !noalias !99
  %571 = icmp ult i64 %570, 9223372036854775807
  call void @llvm.assume(i1 %571)
  call void @llvm.lifetime.start.p0(ptr %5)
  store i64 %570, ptr %5, align 8, !tbaa !86, !noalias !99
  %572 = icmp samesign ugt i64 %570, 15
  br i1 %572, label %573, label %577

573:                                              ; preds = %567
  %574 = invoke noundef ptr @_ZNSt7__cxx1112basic_stringIcSt11char_traitsIcESaIcEE9_M_createERmm(ptr noundef nonnull align 8 dereferenceable(32) %20, ptr noundef nonnull align 8 dereferenceable(8) %5, i64 noundef 0)
          to label %575 unwind label %584

575:                                              ; preds = %573
  store ptr %574, ptr %20, align 8, !tbaa !38, !alias.scope !99
  %576 = load i64, ptr %5, align 8, !tbaa !86, !noalias !99
  store i64 %576, ptr %568, align 8, !tbaa !37, !alias.scope !99
  br label %577

577:                                              ; preds = %575, %567
  %578 = phi i64 [ %576, %575 ], [ %570, %567 ]
  %579 = phi ptr [ %574, %575 ], [ %568, %567 ]
  switch i64 %578, label %582 [
    i64 0, label %580
    i64 -1, label %587
  ]

580:                                              ; preds = %577
  %581 = load i8, ptr %569, align 1, !tbaa !37
  store i8 %581, ptr %579, align 1, !tbaa !37
  br label %587

582:                                              ; preds = %577
  %583 = add nuw i64 %578, 1
  call void @llvm.memcpy.p0.p0.i64(ptr noundef nonnull align 1 dereferenceable(1) %579, ptr noundef nonnull align 1 dereferenceable(1) %569, i64 %583, i1 false)
  br label %587

584:                                              ; preds = %573
  %585 = landingpad { ptr, i32 }
          catch ptr null
  %586 = extractvalue { ptr, i32 } %585, 0
  call void @__clang_call_terminate(ptr %586) #36
  unreachable

587:                                              ; preds = %582, %580, %577
  %588 = load i64, ptr %5, align 8, !tbaa !86, !noalias !99
  %589 = getelementptr inbounds nuw i8, ptr %20, i64 8
  store i64 %588, ptr %589, align 8, !tbaa !34, !alias.scope !99
  call void @llvm.lifetime.end.p0(ptr %5)
  %590 = load ptr, ptr %12, align 8, !tbaa !38
  %591 = icmp eq ptr %590, %84
  br i1 %591, label %592, label %600

592:                                              ; preds = %587
  %593 = load i64, ptr %103, align 8, !tbaa !34
  %594 = icmp ult i64 %593, 16
  call void @llvm.assume(i1 %594)
  %595 = load ptr, ptr %20, align 8, !tbaa !38
  %596 = icmp eq ptr %595, %568
  br i1 %596, label %603, label %597

597:                                              ; preds = %592
  store ptr %595, ptr %12, align 8, !tbaa !38
  %598 = icmp ult i64 %588, 9223372036854775807
  call void @llvm.assume(i1 %598)
  store i64 %588, ptr %103, align 8, !tbaa !34
  %599 = load i64, ptr %568, align 8, !tbaa !37
  store i64 %599, ptr %84, align 8, !tbaa !37
  br label %621

600:                                              ; preds = %587
  %601 = load ptr, ptr %20, align 8, !tbaa !38
  %602 = icmp eq ptr %601, %568
  br i1 %602, label %603, label %615

603:                                              ; preds = %600, %592
  %604 = phi ptr [ %601, %600 ], [ %595, %592 ]
  %605 = icmp ult i64 %588, 16
  call void @llvm.assume(i1 %605)
  switch i64 %588, label %608 [
    i64 0, label %609
    i64 1, label %606
  ]

606:                                              ; preds = %603
  %607 = load i8, ptr %604, align 1, !tbaa !37
  store i8 %607, ptr %590, align 1, !tbaa !37
  br label %609

608:                                              ; preds = %603
  call void @llvm.memcpy.p0.p0.i64(ptr align 1 %590, ptr align 1 %604, i64 %588, i1 false)
  br label %609

609:                                              ; preds = %608, %606, %603
  %610 = load i64, ptr %589, align 8, !tbaa !34
  %611 = icmp ult i64 %610, 9223372036854775807
  call void @llvm.assume(i1 %611)
  store i64 %610, ptr %103, align 8, !tbaa !34
  %612 = load ptr, ptr %12, align 8, !tbaa !38
  %613 = getelementptr inbounds nuw i8, ptr %612, i64 %610
  store i8 0, ptr %613, align 1, !tbaa !37
  %614 = load ptr, ptr %20, align 8, !tbaa !38
  br label %622

615:                                              ; preds = %600
  %616 = load i64, ptr %84, align 8, !tbaa !37
  store ptr %601, ptr %12, align 8, !tbaa !38
  %617 = icmp ult i64 %588, 9223372036854775807
  call void @llvm.assume(i1 %617)
  store i64 %588, ptr %103, align 8, !tbaa !34
  %618 = load i64, ptr %568, align 8, !tbaa !37
  store i64 %618, ptr %84, align 8, !tbaa !37
  %619 = icmp eq ptr %590, null
  br i1 %619, label %621, label %620

620:                                              ; preds = %615
  store ptr %590, ptr %20, align 8, !tbaa !38
  store i64 %616, ptr %568, align 8, !tbaa !37
  br label %622

621:                                              ; preds = %615, %597
  store ptr %568, ptr %20, align 8, !tbaa !38
  br label %622

622:                                              ; preds = %621, %620, %609
  %623 = phi ptr [ %614, %609 ], [ %590, %620 ], [ %568, %621 ]
  store i64 0, ptr %589, align 8, !tbaa !34
  store i8 0, ptr %623, align 1, !tbaa !37
  %624 = load ptr, ptr %20, align 8, !tbaa !38
  %625 = icmp eq ptr %624, %568
  br i1 %625, label %626, label %629

626:                                              ; preds = %622
  %627 = load i64, ptr %589, align 8, !tbaa !34
  %628 = icmp ult i64 %627, 16
  call void @llvm.assume(i1 %628)
  br label %632

629:                                              ; preds = %622
  %630 = load i64, ptr %568, align 8, !tbaa !37
  %631 = add i64 %630, 1
  call void @_ZdlPvm(ptr noundef %624, i64 noundef %631) #33
  br label %632

632:                                              ; preds = %629, %626
  call void @llvm.lifetime.end.p0(ptr %20)
  br label %724

633:                                              ; preds = %423, %421, %392, %390, %386, %377, %375, %371, %364
  %634 = load i64, ptr %36, align 8, !tbaa !34
  %635 = icmp eq i64 %634, 0
  br i1 %635, label %724, label %636

636:                                              ; preds = %633
  %637 = load ptr, ptr %30, align 8, !tbaa !42
  %638 = getelementptr inbounds nuw i8, ptr %637, i64 32
  %639 = load ptr, ptr %638, align 8, !tbaa !44
  %640 = getelementptr inbounds nuw i8, ptr %639, i64 8
  %641 = load i64, ptr %640, align 8, !tbaa !34
  %642 = icmp ult i64 %641, 9223372036854775807
  call void @llvm.assume(i1 %642)
  %643 = load i64, ptr getelementptr inbounds nuw (i8, ptr @_ZN5osgeo4proj2cs13AxisDirection12GEOCENTRIC_XE, i64 8), align 8, !tbaa !34
  %644 = icmp ult i64 %643, 9223372036854775807
  call void @llvm.assume(i1 %644)
  %645 = icmp eq i64 %641, %643
  br i1 %645, label %646, label %653

646:                                              ; preds = %636
  %647 = icmp eq i64 %641, 0
  br i1 %647, label %675, label %648

648:                                              ; preds = %646
  %649 = load ptr, ptr @_ZN5osgeo4proj2cs13AxisDirection12GEOCENTRIC_XE, align 8, !tbaa !38
  %650 = load ptr, ptr %639, align 8, !tbaa !38
  %651 = call i32 @bcmp(ptr %650, ptr %649, i64 %641)
  %652 = icmp eq i32 %651, 0
  br i1 %652, label %675, label %653

653:                                              ; preds = %648, %636
  %654 = load i64, ptr getelementptr inbounds nuw (i8, ptr @_ZN5osgeo4proj2cs13AxisDirection12GEOCENTRIC_YE, i64 8), align 8, !tbaa !34
  %655 = icmp ult i64 %654, 9223372036854775807
  call void @llvm.assume(i1 %655)
  %656 = icmp eq i64 %641, %654
  br i1 %656, label %657, label %664

657:                                              ; preds = %653
  %658 = icmp eq i64 %641, 0
  br i1 %658, label %675, label %659

659:                                              ; preds = %657
  %660 = load ptr, ptr @_ZN5osgeo4proj2cs13AxisDirection12GEOCENTRIC_YE, align 8, !tbaa !38
  %661 = load ptr, ptr %639, align 8, !tbaa !38
  %662 = call i32 @bcmp(ptr %661, ptr %660, i64 %641)
  %663 = icmp eq i32 %662, 0
  br i1 %663, label %675, label %664

664:                                              ; preds = %659, %653
  %665 = load i64, ptr getelementptr inbounds nuw (i8, ptr @_ZN5osgeo4proj2cs13AxisDirection12GEOCENTRIC_ZE, i64 8), align 8, !tbaa !34
  %666 = icmp ult i64 %665, 9223372036854775807
  call void @llvm.assume(i1 %666)
  %667 = icmp eq i64 %641, %665
  br i1 %667, label %668, label %713

668:                                              ; preds = %664
  %669 = icmp eq i64 %641, 0
  br i1 %669, label %675, label %670

670:                                              ; preds = %668
  %671 = load ptr, ptr @_ZN5osgeo4proj2cs13AxisDirection12GEOCENTRIC_ZE, align 8, !tbaa !38
  %672 = load ptr, ptr %639, align 8, !tbaa !38
  %673 = call i32 @bcmp(ptr %672, ptr %671, i64 %641)
  %674 = icmp eq i32 %673, 0
  br i1 %674, label %675, label %713

675:                                              ; preds = %670, %668, %659, %657, %648, %646
  %676 = load ptr, ptr %13, align 8, !tbaa !38
  %677 = icmp eq ptr %676, %104
  br i1 %677, label %678, label %683

678:                                              ; preds = %675
  %679 = load i64, ptr %105, align 8, !tbaa !34
  %680 = icmp ult i64 %679, 16
  call void @llvm.assume(i1 %680)
  %681 = load ptr, ptr %10, align 8, !tbaa !38
  %682 = icmp eq ptr %681, %52
  br i1 %682, label %686, label %701

683:                                              ; preds = %675
  %684 = load ptr, ptr %10, align 8, !tbaa !38
  %685 = icmp eq ptr %684, %52
  br i1 %685, label %686, label %699

686:                                              ; preds = %683, %678
  %687 = phi ptr [ %684, %683 ], [ %681, %678 ]
  %688 = load i64, ptr %71, align 8, !tbaa !34
  %689 = icmp ult i64 %688, 16
  call void @llvm.assume(i1 %689)
  switch i64 %688, label %692 [
    i64 0, label %693
    i64 1, label %690
  ]

690:                                              ; preds = %686
  %691 = load i8, ptr %687, align 1, !tbaa !37
  store i8 %691, ptr %676, align 1, !tbaa !37
  br label %693

692:                                              ; preds = %686
  call void @llvm.memcpy.p0.p0.i64(ptr align 1 %676, ptr align 1 %687, i64 %688, i1 false)
  br label %693

693:                                              ; preds = %692, %690, %686
  %694 = load i64, ptr %71, align 8, !tbaa !34
  %695 = icmp ult i64 %694, 9223372036854775807
  call void @llvm.assume(i1 %695)
  store i64 %694, ptr %105, align 8, !tbaa !34
  %696 = load ptr, ptr %13, align 8, !tbaa !38
  %697 = getelementptr inbounds nuw i8, ptr %696, i64 %694
  store i8 0, ptr %697, align 1, !tbaa !37
  %698 = load ptr, ptr %10, align 8, !tbaa !38
  br label %711

699:                                              ; preds = %683
  %700 = load i64, ptr %104, align 8, !tbaa !37
  br label %701

701:                                              ; preds = %699, %678
  %702 = phi ptr [ %684, %699 ], [ %681, %678 ]
  %703 = phi ptr [ %676, %699 ], [ null, %678 ]
  %704 = phi i64 [ %700, %699 ], [ undef, %678 ]
  store ptr %702, ptr %13, align 8, !tbaa !38
  %705 = load i64, ptr %71, align 8, !tbaa !34
  %706 = icmp ult i64 %705, 9223372036854775807
  call void @llvm.assume(i1 %706)
  store i64 %705, ptr %105, align 8, !tbaa !34
  %707 = load i64, ptr %52, align 8, !tbaa !37
  store i64 %707, ptr %104, align 8, !tbaa !37
  %708 = icmp eq ptr %703, null
  br i1 %708, label %710, label %709

709:                                              ; preds = %701
  store ptr %703, ptr %10, align 8, !tbaa !38
  store i64 %704, ptr %52, align 8, !tbaa !37
  br label %711

710:                                              ; preds = %701
  store ptr %52, ptr %10, align 8, !tbaa !38
  br label %711

711:                                              ; preds = %710, %709, %693
  %712 = phi ptr [ %698, %693 ], [ %703, %709 ], [ %52, %710 ]
  store i64 0, ptr %71, align 8, !tbaa !34
  store i8 0, ptr %712, align 1, !tbaa !37
  br label %724

713:                                              ; preds = %670, %664
  switch i32 %2, label %724 [
    i32 1, label %714
    i32 2, label %718
  ]

714:                                              ; preds = %713
  %715 = call noundef zeroext i1 @_ZSteqIcSt11char_traitsIcESaIcEEbRKNSt7__cxx1112basic_stringIT_T0_T1_EESA_(ptr noundef nonnull align 8 dereferenceable(32) %29, ptr noundef nonnull align 8 dereferenceable(32) @_ZN5osgeo4proj2cs8AxisName7EastingB5cxx11E) #34
  br i1 %715, label %716, label %724

716:                                              ; preds = %714
  %717 = call noundef zeroext i1 @_ZSteqIcSt11char_traitsIcESaIcEEbRKNSt7__cxx1112basic_stringIT_T0_T1_EESA_(ptr noundef nonnull align 8 dereferenceable(32) %31, ptr noundef nonnull align 8 dereferenceable(32) @_ZN5osgeo4proj2cs16AxisAbbreviation1EB5cxx11E) #34
  br i1 %717, label %722, label %724

718:                                              ; preds = %713
  %719 = call noundef zeroext i1 @_ZSteqIcSt11char_traitsIcESaIcEEbRKNSt7__cxx1112basic_stringIT_T0_T1_EESA_(ptr noundef nonnull align 8 dereferenceable(32) %29, ptr noundef nonnull align 8 dereferenceable(32) @_ZN5osgeo4proj2cs8AxisName8NorthingB5cxx11E) #34
  br i1 %719, label %720, label %724

720:                                              ; preds = %718
  %721 = call noundef zeroext i1 @_ZSteqIcSt11char_traitsIcESaIcEEbRKNSt7__cxx1112basic_stringIT_T0_T1_EESA_(ptr noundef nonnull align 8 dereferenceable(32) %31, ptr noundef nonnull align 8 dereferenceable(32) @_ZN5osgeo4proj2cs16AxisAbbreviation1NB5cxx11E) #34
  br i1 %721, label %722, label %724

722:                                              ; preds = %720, %716
  %723 = call noundef nonnull align 8 dereferenceable(32) ptr @_ZNSt7__cxx1112basic_stringIcSt11char_traitsIcESaIcEEaSEOS4_(ptr noundef nonnull align 8 dereferenceable(32) %13, ptr noundef nonnull align 8 dereferenceable(32) %10) #34
  br label %724

724:                                              ; preds = %722, %720, %718, %716, %714, %713, %711, %633, %632, %565, %560, %408, %400
  invoke void @_ZN5osgeo4proj2io12WKTFormatter15addQuotedStringERKNSt7__cxx1112basic_stringIcSt11char_traitsIcESaIcEEE(ptr noundef nonnull align 8 dereferenceable(8) %1, ptr noundef nonnull align 8 dereferenceable(32) %13)
          to label %725 unwind label %351

725:                                              ; preds = %724
  invoke void @_ZN5osgeo4proj2io12WKTFormatter3addERKNSt7__cxx1112basic_stringIcSt11char_traitsIcESaIcEEE(ptr noundef nonnull align 8 dereferenceable(8) %1, ptr noundef nonnull align 8 dereferenceable(32) %12)
          to label %726 unwind label %351

726:                                              ; preds = %725
  br i1 %23, label %738, label %727

727:                                              ; preds = %726
  %728 = load ptr, ptr %30, align 8, !tbaa !42
  %729 = getelementptr inbounds nuw i8, ptr %728, i64 136
  %730 = load ptr, ptr %729, align 8, !tbaa !24
  %731 = icmp eq ptr %730, null
  br i1 %731, label %738, label %732

732:                                              ; preds = %727
  %733 = load ptr, ptr %730, align 8, !tbaa !4
  %734 = getelementptr inbounds nuw i8, ptr %733, i64 32
  %735 = load ptr, ptr %734, align 8
  invoke void %735(ptr noundef nonnull align 8 dereferenceable(56) %730, ptr noundef nonnull %1)
          to label %738 unwind label %736

736:                                              ; preds = %830, %829, %826, %825, %822, %821, %805, %801, %800, %792, %788, %787, %779, %746, %745, %744, %743, %738, %732
  %737 = landingpad { ptr, i32 }
          cleanup
  br label %859

738:                                              ; preds = %732, %727, %726
  %739 = invoke noundef zeroext i1 @_ZNK5osgeo4proj2io12WKTFormatter15outputAxisOrderEv(ptr noundef nonnull align 8 dereferenceable(8) %1)
          to label %740 unwind label %736

740:                                              ; preds = %738
  %741 = icmp sgt i32 %2, 0
  %742 = and i1 %741, %739
  br i1 %742, label %743, label %746

743:                                              ; preds = %740
  invoke void @_ZN5osgeo4proj2io12WKTFormatter9startNodeERKNSt7__cxx1112basic_stringIcSt11char_traitsIcESaIcEEEb(ptr noundef nonnull align 8 dereferenceable(8) %1, ptr noundef nonnull align 8 dereferenceable(32) @_ZN5osgeo4proj2io12WKTConstants5ORDERB5cxx11E, i1 noundef zeroext false)
          to label %744 unwind label %736

744:                                              ; preds = %743
  invoke void @_ZN5osgeo4proj2io12WKTFormatter3addEi(ptr noundef nonnull align 8 dereferenceable(8) %1, i32 noundef %2)
          to label %745 unwind label %736

745:                                              ; preds = %744
  invoke void @_ZN5osgeo4proj2io12WKTFormatter7endNodeEv(ptr noundef nonnull align 8 dereferenceable(8) %1)
          to label %746 unwind label %736

746:                                              ; preds = %745, %740
  %747 = invoke noundef zeroext i1 @_ZNK5osgeo4proj2io12WKTFormatter10outputUnitEv(ptr noundef nonnull align 8 dereferenceable(8) %1)
          to label %748 unwind label %736

748:                                              ; preds = %746
  br i1 %747, label %749, label %778

749:                                              ; preds = %748
  %750 = load ptr, ptr %30, align 8, !tbaa !42
  %751 = getelementptr inbounds nuw i8, ptr %750, i64 40
  %752 = call noundef i32 @_ZNK5osgeo4proj6common13UnitOfMeasure4typeEv(ptr noundef nonnull align 8 dereferenceable(24) %751) #37
  %753 = icmp eq i32 %752, 1
  br i1 %753, label %778, label %754

754:                                              ; preds = %749
  call void @llvm.lifetime.start.p0(ptr %21)
  %755 = getelementptr inbounds nuw i8, ptr %21, i64 16
  store ptr %755, ptr %21, align 8, !tbaa !31
  %756 = getelementptr inbounds nuw i8, ptr %21, i64 8
  store i64 0, ptr %756, align 8, !tbaa !34
  store i8 0, ptr %755, align 8, !tbaa !37
  invoke void @_ZNK5osgeo4proj6common13UnitOfMeasure12_exportToWKTEPNS0_2io12WKTFormatterERKNSt7__cxx1112basic_stringIcSt11char_traitsIcESaIcEEE(ptr noundef nonnull align 8 dereferenceable(24) %751, ptr noundef nonnull %1, ptr noundef nonnull align 8 dereferenceable(32) %21)
          to label %757 unwind label %767

757:                                              ; preds = %754
  %758 = load ptr, ptr %21, align 8, !tbaa !38
  %759 = icmp eq ptr %758, %755
  br i1 %759, label %760, label %763

760:                                              ; preds = %757
  %761 = load i64, ptr %756, align 8, !tbaa !34
  %762 = icmp ult i64 %761, 16
  call void @llvm.assume(i1 %762)
  br label %766

763:                                              ; preds = %757
  %764 = load i64, ptr %755, align 8, !tbaa !37
  %765 = add i64 %764, 1
  call void @_ZdlPvm(ptr noundef %758, i64 noundef %765) #33
  br label %766

766:                                              ; preds = %763, %760
  call void @llvm.lifetime.end.p0(ptr %21)
  br label %778

767:                                              ; preds = %754
  %768 = landingpad { ptr, i32 }
          cleanup
  %769 = load ptr, ptr %21, align 8, !tbaa !38
  %770 = icmp eq ptr %769, %755
  br i1 %770, label %771, label %774

771:                                              ; preds = %767
  %772 = load i64, ptr %756, align 8, !tbaa !34
  %773 = icmp ult i64 %772, 16
  call void @llvm.assume(i1 %773)
  br label %777

774:                                              ; preds = %767
  %775 = load i64, ptr %755, align 8, !tbaa !37
  %776 = add i64 %775, 1
  call void @_ZdlPvm(ptr noundef %769, i64 noundef %776) #33
  br label %777

777:                                              ; preds = %774, %771
  call void @llvm.lifetime.end.p0(ptr %21)
  br label %859

778:                                              ; preds = %766, %749, %748
  br i1 %23, label %826, label %779

779:                                              ; preds = %778
  %780 = invoke noundef zeroext i1 @_ZNK5osgeo4proj2io12WKTFormatter15use2019KeywordsEv(ptr noundef nonnull align 8 dereferenceable(8) %1)
          to label %781 unwind label %736

781:                                              ; preds = %779
  br i1 %780, label %782, label %826

782:                                              ; preds = %781
  %783 = load ptr, ptr %30, align 8, !tbaa !42
  %784 = getelementptr inbounds nuw i8, ptr %783, i64 104
  %785 = load i8, ptr %784, align 8, !tbaa !102, !range !84, !noundef !85
  %786 = trunc nuw i8 %785 to i1
  br i1 %786, label %787, label %795

787:                                              ; preds = %782
  invoke void @_ZN5osgeo4proj2io12WKTFormatter9startNodeERKNSt7__cxx1112basic_stringIcSt11char_traitsIcESaIcEEEb(ptr noundef nonnull align 8 dereferenceable(8) %1, ptr noundef nonnull align 8 dereferenceable(32) @_ZN5osgeo4proj2io12WKTConstants12AXISMINVALUEB5cxx11E, i1 noundef zeroext false)
          to label %788 unwind label %736

788:                                              ; preds = %787
  %789 = load ptr, ptr %30, align 8, !tbaa !42
  %790 = getelementptr inbounds nuw i8, ptr %789, i64 112
  %791 = load double, ptr %790, align 8, !tbaa !82
  invoke void @_ZN5osgeo4proj2io12WKTFormatter3addEdi(ptr noundef nonnull align 8 dereferenceable(8) %1, double noundef %791, i32 noundef 15)
          to label %792 unwind label %736

792:                                              ; preds = %788
  invoke void @_ZN5osgeo4proj2io12WKTFormatter7endNodeEv(ptr noundef nonnull align 8 dereferenceable(8) %1)
          to label %793 unwind label %736

793:                                              ; preds = %792
  %794 = load ptr, ptr %30, align 8, !tbaa !42
  br label %795

795:                                              ; preds = %793, %782
  %796 = phi ptr [ %794, %793 ], [ %783, %782 ]
  %797 = getelementptr inbounds nuw i8, ptr %796, i64 120
  %798 = load i8, ptr %797, align 8, !tbaa !102, !range !84, !noundef !85
  %799 = trunc nuw i8 %798 to i1
  br i1 %799, label %800, label %808

800:                                              ; preds = %795
  invoke void @_ZN5osgeo4proj2io12WKTFormatter9startNodeERKNSt7__cxx1112basic_stringIcSt11char_traitsIcESaIcEEEb(ptr noundef nonnull align 8 dereferenceable(8) %1, ptr noundef nonnull align 8 dereferenceable(32) @_ZN5osgeo4proj2io12WKTConstants12AXISMAXVALUEB5cxx11E, i1 noundef zeroext false)
          to label %801 unwind label %736

801:                                              ; preds = %800
  %802 = load ptr, ptr %30, align 8, !tbaa !42
  %803 = getelementptr inbounds nuw i8, ptr %802, i64 128
  %804 = load double, ptr %803, align 8, !tbaa !82
  invoke void @_ZN5osgeo4proj2io12WKTFormatter3addEdi(ptr noundef nonnull align 8 dereferenceable(8) %1, double noundef %804, i32 noundef 15)
          to label %805 unwind label %736

805:                                              ; preds = %801
  invoke void @_ZN5osgeo4proj2io12WKTFormatter7endNodeEv(ptr noundef nonnull align 8 dereferenceable(8) %1)
          to label %806 unwind label %736

806:                                              ; preds = %805
  %807 = load ptr, ptr %30, align 8, !tbaa !42
  br label %808

808:                                              ; preds = %806, %795
  %809 = phi ptr [ %807, %806 ], [ %796, %795 ]
  %810 = getelementptr inbounds nuw i8, ptr %809, i64 104
  %811 = load i8, ptr %810, align 8, !tbaa !102, !range !84, !noundef !85
  %812 = trunc nuw i8 %811 to i1
  br i1 %812, label %813, label %826

813:                                              ; preds = %808
  %814 = getelementptr inbounds nuw i8, ptr %809, i64 120
  %815 = load i8, ptr %814, align 8, !tbaa !102, !range !84, !noundef !85
  %816 = trunc nuw i8 %815 to i1
  br i1 %816, label %817, label %826

817:                                              ; preds = %813
  %818 = getelementptr inbounds nuw i8, ptr %809, i64 64
  %819 = load i8, ptr %818, align 8, !tbaa !83, !range !84, !noundef !85
  %820 = trunc nuw i8 %819 to i1
  br i1 %820, label %821, label %826

821:                                              ; preds = %817
  invoke void @_ZN5osgeo4proj2io12WKTFormatter9startNodeERKNSt7__cxx1112basic_stringIcSt11char_traitsIcESaIcEEEb(ptr noundef nonnull align 8 dereferenceable(8) %1, ptr noundef nonnull align 8 dereferenceable(32) @_ZN5osgeo4proj2io12WKTConstants12RANGEMEANINGB5cxx11E, i1 noundef zeroext false)
          to label %822 unwind label %736

822:                                              ; preds = %821
  %823 = load ptr, ptr %30, align 8, !tbaa !42
  %824 = getelementptr inbounds nuw i8, ptr %823, i64 72
  invoke void @_ZN5osgeo4proj2io12WKTFormatter3addERKNSt7__cxx1112basic_stringIcSt11char_traitsIcESaIcEEE(ptr noundef nonnull align 8 dereferenceable(8) %1, ptr noundef nonnull align 8 dereferenceable(32) %824)
          to label %825 unwind label %736

825:                                              ; preds = %822
  invoke void @_ZN5osgeo4proj2io12WKTFormatter7endNodeEv(ptr noundef nonnull align 8 dereferenceable(8) %1)
          to label %826 unwind label %736

826:                                              ; preds = %825, %817, %813, %808, %781, %778
  %827 = invoke noundef zeroext i1 @_ZNK5osgeo4proj2io12WKTFormatter8outputIdEv(ptr noundef nonnull align 8 dereferenceable(8) %1)
          to label %828 unwind label %736

828:                                              ; preds = %826
  br i1 %827, label %829, label %830

829:                                              ; preds = %828
  invoke void @_ZNK5osgeo4proj6common16IdentifiedObject8formatIDEPNS0_2io12WKTFormatterE(ptr noundef nonnull align 8 dereferenceable(40) %0, ptr noundef nonnull %1)
          to label %830 unwind label %736

830:                                              ; preds = %829, %828
  invoke void @_ZN5osgeo4proj2io12WKTFormatter7endNodeEv(ptr noundef nonnull align 8 dereferenceable(8) %1)
          to label %831 unwind label %736

831:                                              ; preds = %830
  %832 = load ptr, ptr %13, align 8, !tbaa !38
  %833 = icmp eq ptr %832, %104
  br i1 %833, label %834, label %837

834:                                              ; preds = %831
  %835 = load i64, ptr %105, align 8, !tbaa !34
  %836 = icmp ult i64 %835, 16
  call void @llvm.assume(i1 %836)
  br label %840

837:                                              ; preds = %831
  %838 = load i64, ptr %104, align 8, !tbaa !37
  %839 = add i64 %838, 1
  call void @_ZdlPvm(ptr noundef %832, i64 noundef %839) #33
  br label %840

840:                                              ; preds = %837, %834
  call void @llvm.lifetime.end.p0(ptr %13)
  %841 = load ptr, ptr %12, align 8, !tbaa !38
  %842 = icmp eq ptr %841, %84
  br i1 %842, label %843, label %846

843:                                              ; preds = %840
  %844 = load i64, ptr %103, align 8, !tbaa !34
  %845 = icmp ult i64 %844, 16
  call void @llvm.assume(i1 %845)
  br label %849

846:                                              ; preds = %840
  %847 = load i64, ptr %84, align 8, !tbaa !37
  %848 = add i64 %847, 1
  call void @_ZdlPvm(ptr noundef %841, i64 noundef %848) #33
  br label %849

849:                                              ; preds = %846, %843
  call void @llvm.lifetime.end.p0(ptr %12)
  %850 = load ptr, ptr %10, align 8, !tbaa !38
  %851 = icmp eq ptr %850, %52
  br i1 %851, label %852, label %855

852:                                              ; preds = %849
  %853 = load i64, ptr %71, align 8, !tbaa !34
  %854 = icmp ult i64 %853, 16
  call void @llvm.assume(i1 %854)
  br label %858

855:                                              ; preds = %849
  %856 = load i64, ptr %52, align 8, !tbaa !37
  %857 = add i64 %856, 1
  call void @_ZdlPvm(ptr noundef %850, i64 noundef %857) #33
  br label %858

858:                                              ; preds = %855, %852
  call void @llvm.lifetime.end.p0(ptr %10)
  ret void

859:                                              ; preds = %777, %736, %561, %351, %344
  %860 = phi { ptr, i32 } [ %352, %351 ], [ %562, %561 ], [ %335, %344 ], [ %737, %736 ], [ %768, %777 ]
  %861 = load ptr, ptr %13, align 8, !tbaa !38
  %862 = icmp eq ptr %861, %104
  br i1 %862, label %863, label %866

863:                                              ; preds = %859
  %864 = load i64, ptr %105, align 8, !tbaa !34
  %865 = icmp ult i64 %864, 16
  call void @llvm.assume(i1 %865)
  br label %869

866:                                              ; preds = %859
  %867 = load i64, ptr %104, align 8, !tbaa !37
  %868 = add i64 %867, 1
  call void @_ZdlPvm(ptr noundef %861, i64 noundef %868) #33
  br label %869

869:                                              ; preds = %866, %863
  call void @llvm.lifetime.end.p0(ptr %13)
  %870 = load ptr, ptr %12, align 8, !tbaa !38
  %871 = icmp eq ptr %870, %84
  br i1 %871, label %872, label %875

872:                                              ; preds = %869
  %873 = load i64, ptr %103, align 8, !tbaa !34
  %874 = icmp ult i64 %873, 16
  call void @llvm.assume(i1 %874)
  br label %878

875:                                              ; preds = %869
  %876 = load i64, ptr %84, align 8, !tbaa !37
  %877 = add i64 %876, 1
  call void @_ZdlPvm(ptr noundef %870, i64 noundef %877) #33
  br label %878

878:                                              ; preds = %875, %872, %306
  %879 = phi { ptr, i32 } [ %307, %306 ], [ %860, %872 ], [ %860, %875 ]
  call void @llvm.lifetime.end.p0(ptr %12)
  %880 = load ptr, ptr %10, align 8, !tbaa !38
  %881 = icmp eq ptr %880, %52
  br i1 %881, label %882, label %885

882:                                              ; preds = %878
  %883 = load i64, ptr %71, align 8, !tbaa !34
  %884 = icmp ult i64 %883, 16
  call void @llvm.assume(i1 %884)
  br label %888

885:                                              ; preds = %878
  %886 = load i64, ptr %52, align 8, !tbaa !37
  %887 = add i64 %886, 1
  call void @_ZdlPvm(ptr noundef %880, i64 noundef %887) #33
  br label %888

888:                                              ; preds = %885, %882, %305
  %889 = phi { ptr, i32 } [ %296, %305 ], [ %879, %882 ], [ %879, %885 ]
  call void @llvm.lifetime.end.p0(ptr %10)
  resume { ptr, i32 } %889
}

; Function Attrs: sspstrong uwtable
define hidden void @_ZThn24_NK5osgeo4proj2cs20CoordinateSystemAxis12_exportToWKTEPNS0_2io12WKTFormatterE(ptr noundef %0, ptr noundef nonnull %1) unnamed_addr #8 align 2 {
  %3 = getelementptr inbounds i8, ptr %0, i64 -24
  tail call void @_ZNK5osgeo4proj2cs20CoordinateSystemAxis12_exportToWKTEPNS0_2io12WKTFormatterEib(ptr noundef nonnull align 8 dereferenceable(56) %3, ptr noundef nonnull %1, i32 noundef 0, i1 noundef zeroext false)
  ret void
}

; Function Attrs: mustprogress sspstrong uwtable
define hidden void @_ZN5osgeo4proj2cs20CoordinateSystemAxis17normalizeAxisNameERKNSt7__cxx1112basic_stringIcSt11char_traitsIcESaIcEEE(ptr dead_on_unwind noalias writable sret(%"class.std::__cxx11::basic_string") align 8 %0, ptr noundef nonnull readonly align 8 captures(none) dereferenceable(32) %1) local_unnamed_addr #0 align 2 personality ptr @__gxx_personality_v0 {
  %3 = alloca i64, align 8
  %4 = alloca %"class.std::__cxx11::basic_string", align 8
  %5 = alloca %"class.std::__cxx11::basic_string", align 8
  %6 = alloca %"class.std::__cxx11::basic_string", align 8
  %7 = getelementptr inbounds nuw i8, ptr %1, i64 8
  %8 = load i64, ptr %7, align 8, !tbaa !34
  %9 = icmp eq i64 %8, 0
  br i1 %9, label %10, label %15

10:                                               ; preds = %2
  %11 = getelementptr inbounds nuw i8, ptr %0, i64 16
  store ptr %11, ptr %0, align 8, !tbaa !31
  %12 = load ptr, ptr %1, align 8, !tbaa !38
  %13 = load i8, ptr %12, align 1, !tbaa !37
  store i8 %13, ptr %11, align 8, !tbaa !37
  %14 = getelementptr inbounds nuw i8, ptr %0, i64 8
  store i64 0, ptr %14, align 8, !tbaa !34
  br label %115

15:                                               ; preds = %2
  call void @llvm.lifetime.start.p0(ptr %4)
  call void @llvm.lifetime.start.p0(ptr %5)
  tail call void @llvm.experimental.noalias.scope.decl(metadata !103)
  %16 = icmp ult i64 %8, 9223372036854775807
  tail call void @llvm.assume(i1 %16)
  %17 = getelementptr inbounds nuw i8, ptr %5, i64 16
  store ptr %17, ptr %5, align 8, !tbaa !31, !alias.scope !103
  %18 = load ptr, ptr %1, align 8, !tbaa !38, !noalias !103
  %19 = load i8, ptr %18, align 1, !tbaa !37
  store i8 %19, ptr %17, align 8, !tbaa !37
  %20 = getelementptr inbounds nuw i8, ptr %5, i64 8
  store i64 1, ptr %20, align 8, !tbaa !34, !alias.scope !103
  %21 = getelementptr inbounds nuw i8, ptr %5, i64 17
  store i8 0, ptr %21, align 1, !tbaa !37
  invoke void @_ZN5osgeo4proj8internal7toupperERKNSt7__cxx1112basic_stringIcSt11char_traitsIcESaIcEEE(ptr dead_on_unwind nonnull writable sret(%"class.std::__cxx11::basic_string") align 8 %4, ptr noundef nonnull align 8 dereferenceable(32) %5)
          to label %22 unwind label %78

22:                                               ; preds = %15
  call void @llvm.lifetime.start.p0(ptr %6)
  call void @llvm.experimental.noalias.scope.decl(metadata !106)
  %23 = load i64, ptr %7, align 8, !tbaa !34, !noalias !106
  %24 = icmp ult i64 %23, 9223372036854775807
  call void @llvm.assume(i1 %24)
  %25 = icmp eq i64 %23, 0
  br i1 %25, label %26, label %28

26:                                               ; preds = %22
  invoke void (ptr, ...) @_ZSt24__throw_out_of_range_fmtPKcz(ptr noundef nonnull @.str.37, ptr noundef nonnull @.str.36, i64 noundef 1, i64 noundef 0) #38
          to label %27 unwind label %80

27:                                               ; preds = %26
  unreachable

28:                                               ; preds = %22
  %29 = getelementptr inbounds nuw i8, ptr %6, i64 16
  store ptr %29, ptr %6, align 8, !tbaa !31, !alias.scope !106
  %30 = load ptr, ptr %1, align 8, !tbaa !38, !noalias !106
  %31 = getelementptr inbounds nuw i8, ptr %30, i64 1
  %32 = add nsw i64 %23, -1
  call void @llvm.lifetime.start.p0(ptr %3)
  store i64 %32, ptr %3, align 8, !tbaa !86, !noalias !106
  %33 = icmp samesign ugt i64 %32, 15
  br i1 %33, label %34, label %38

34:                                               ; preds = %28
  %35 = invoke noundef ptr @_ZNSt7__cxx1112basic_stringIcSt11char_traitsIcESaIcEE9_M_createERmm(ptr noundef nonnull align 8 dereferenceable(32) %6, ptr noundef nonnull align 8 dereferenceable(8) %3, i64 noundef 0)
          to label %36 unwind label %80

36:                                               ; preds = %34
  store ptr %35, ptr %6, align 8, !tbaa !38, !alias.scope !106
  %37 = load i64, ptr %3, align 8, !tbaa !86, !noalias !106
  store i64 %37, ptr %29, align 8, !tbaa !37, !alias.scope !106
  br label %38

38:                                               ; preds = %36, %28
  %39 = phi ptr [ %35, %36 ], [ %29, %28 ]
  switch i64 %23, label %42 [
    i64 2, label %40
    i64 1, label %43
  ]

40:                                               ; preds = %38
  %41 = load i8, ptr %31, align 1, !tbaa !37
  store i8 %41, ptr %39, align 1, !tbaa !37
  br label %43

42:                                               ; preds = %38
  call void @llvm.memcpy.p0.p0.i64(ptr align 1 %39, ptr nonnull align 1 %31, i64 %32, i1 false)
  br label %43

43:                                               ; preds = %42, %40, %38
  %44 = load i64, ptr %3, align 8, !tbaa !86, !noalias !106
  %45 = getelementptr inbounds nuw i8, ptr %6, i64 8
  store i64 %44, ptr %45, align 8, !tbaa !34, !alias.scope !106
  %46 = load ptr, ptr %6, align 8, !tbaa !38, !alias.scope !106
  %47 = getelementptr inbounds nuw i8, ptr %46, i64 %44
  store i8 0, ptr %47, align 1, !tbaa !37
  call void @llvm.lifetime.end.p0(ptr %3)
  invoke void @_ZStplIcSt11char_traitsIcESaIcEENSt7__cxx1112basic_stringIT_T0_T1_EEOS8_S9_(ptr dead_on_unwind writable sret(%"class.std::__cxx11::basic_string") align 8 %0, ptr noundef nonnull align 8 dereferenceable(32) %4, ptr noundef nonnull align 8 dereferenceable(32) %6)
          to label %48 unwind label %82

48:                                               ; preds = %43
  %49 = load ptr, ptr %6, align 8, !tbaa !38
  %50 = icmp eq ptr %49, %29
  br i1 %50, label %51, label %54

51:                                               ; preds = %48
  %52 = load i64, ptr %45, align 8, !tbaa !34
  %53 = icmp ult i64 %52, 16
  call void @llvm.assume(i1 %53)
  br label %57

54:                                               ; preds = %48
  %55 = load i64, ptr %29, align 8, !tbaa !37
  %56 = add i64 %55, 1
  call void @_ZdlPvm(ptr noundef %49, i64 noundef %56) #33
  br label %57

57:                                               ; preds = %54, %51
  call void @llvm.lifetime.end.p0(ptr %6)
  %58 = load ptr, ptr %4, align 8, !tbaa !38
  %59 = getelementptr inbounds nuw i8, ptr %4, i64 16
  %60 = icmp eq ptr %58, %59
  br i1 %60, label %61, label %65

61:                                               ; preds = %57
  %62 = getelementptr inbounds nuw i8, ptr %4, i64 8
  %63 = load i64, ptr %62, align 8, !tbaa !34
  %64 = icmp ult i64 %63, 16
  call void @llvm.assume(i1 %64)
  br label %68

65:                                               ; preds = %57
  %66 = load i64, ptr %59, align 8, !tbaa !37
  %67 = add i64 %66, 1
  call void @_ZdlPvm(ptr noundef %58, i64 noundef %67) #33
  br label %68

68:                                               ; preds = %65, %61
  %69 = load ptr, ptr %5, align 8, !tbaa !38
  %70 = icmp eq ptr %69, %17
  br i1 %70, label %71, label %74

71:                                               ; preds = %68
  %72 = load i64, ptr %20, align 8, !tbaa !34
  %73 = icmp ult i64 %72, 16
  call void @llvm.assume(i1 %73)
  br label %77

74:                                               ; preds = %68
  %75 = load i64, ptr %17, align 8, !tbaa !37
  %76 = add i64 %75, 1
  call void @_ZdlPvm(ptr noundef %69, i64 noundef %76) #33
  br label %77

77:                                               ; preds = %74, %71
  call void @llvm.lifetime.end.p0(ptr %5)
  call void @llvm.lifetime.end.p0(ptr %4)
  br label %115

78:                                               ; preds = %15
  %79 = landingpad { ptr, i32 }
          cleanup
  br label %104

80:                                               ; preds = %34, %26
  %81 = landingpad { ptr, i32 }
          cleanup
  br label %92

82:                                               ; preds = %43
  %83 = landingpad { ptr, i32 }
          cleanup
  %84 = load ptr, ptr %6, align 8, !tbaa !38
  %85 = icmp eq ptr %84, %29
  br i1 %85, label %86, label %89

86:                                               ; preds = %82
  %87 = load i64, ptr %45, align 8, !tbaa !34
  %88 = icmp ult i64 %87, 16
  call void @llvm.assume(i1 %88)
  br label %92

89:                                               ; preds = %82
  %90 = load i64, ptr %29, align 8, !tbaa !37
  %91 = add i64 %90, 1
  call void @_ZdlPvm(ptr noundef %84, i64 noundef %91) #33
  br label %92

92:                                               ; preds = %89, %86, %80
  %93 = phi { ptr, i32 } [ %81, %80 ], [ %83, %86 ], [ %83, %89 ]
  call void @llvm.lifetime.end.p0(ptr %6)
  %94 = load ptr, ptr %4, align 8, !tbaa !38
  %95 = getelementptr inbounds nuw i8, ptr %4, i64 16
  %96 = icmp eq ptr %94, %95
  br i1 %96, label %97, label %101

97:                                               ; preds = %92
  %98 = getelementptr inbounds nuw i8, ptr %4, i64 8
  %99 = load i64, ptr %98, align 8, !tbaa !34
  %100 = icmp ult i64 %99, 16
  call void @llvm.assume(i1 %100)
  br label %104

101:                                              ; preds = %92
  %102 = load i64, ptr %95, align 8, !tbaa !37
  %103 = add i64 %102, 1
  call void @_ZdlPvm(ptr noundef %94, i64 noundef %103) #33
  br label %104

104:                                              ; preds = %101, %97, %78
  %105 = phi { ptr, i32 } [ %79, %78 ], [ %93, %97 ], [ %93, %101 ]
  %106 = load ptr, ptr %5, align 8, !tbaa !38
  %107 = icmp eq ptr %106, %17
  br i1 %107, label %108, label %111

108:                                              ; preds = %104
  %109 = load i64, ptr %20, align 8, !tbaa !34
  %110 = icmp ult i64 %109, 16
  call void @llvm.assume(i1 %110)
  br label %114

111:                                              ; preds = %104
  %112 = load i64, ptr %17, align 8, !tbaa !37
  %113 = add i64 %112, 1
  call void @_ZdlPvm(ptr noundef %106, i64 noundef %113) #33
  br label %114

114:                                              ; preds = %111, %108
  call void @llvm.lifetime.end.p0(ptr %5)
  call void @llvm.lifetime.end.p0(ptr %4)
  resume { ptr, i32 } %105

115:                                              ; preds = %77, %10
  ret void
}

; Function Attrs: inlinehint mustprogress sspstrong uwtable
define linkonce_odr void @_ZStplIcSt11char_traitsIcESaIcEENSt7__cxx1112basic_stringIT_T0_T1_EEOS8_S9_(ptr dead_on_unwind noalias writable sret(%"class.std::__cxx11::basic_string") align 8 %0, ptr noundef nonnull align 8 dereferenceable(32) %1, ptr noundef nonnull align 8 dereferenceable(32) %2) local_unnamed_addr #12 comdat personality ptr @__gxx_personality_v0 {
  %4 = getelementptr inbounds nuw i8, ptr %1, i64 8
  %5 = load i64, ptr %4, align 8, !tbaa !34
  %6 = icmp ult i64 %5, 9223372036854775807
  tail call void @llvm.assume(i1 %6)
  %7 = getelementptr inbounds nuw i8, ptr %2, i64 8
  %8 = load i64, ptr %7, align 8, !tbaa !34
  %9 = icmp ult i64 %8, 9223372036854775807
  tail call void @llvm.assume(i1 %9)
  %10 = add nuw i64 %8, %5
  %11 = load ptr, ptr %1, align 8, !tbaa !38
  %12 = getelementptr inbounds nuw i8, ptr %1, i64 16
  %13 = icmp eq ptr %11, %12
  br i1 %13, label %14, label %16

14:                                               ; preds = %3
  %15 = icmp samesign ult i64 %5, 16
  tail call void @llvm.assume(i1 %15)
  br label %16

16:                                               ; preds = %14, %3
  %17 = load i64, ptr %12, align 8
  %18 = select i1 %13, i64 15, i64 %17
  %19 = icmp samesign ugt i64 %18, 14
  tail call void @llvm.assume(i1 %19)
  %20 = icmp ult i64 %18, 9223372036854775807
  tail call void @llvm.assume(i1 %20)
  %21 = icmp ugt i64 %10, %18
  br i1 %21, label %22, label %52

22:                                               ; preds = %16
  %23 = load ptr, ptr %2, align 8, !tbaa !38
  %24 = getelementptr inbounds nuw i8, ptr %2, i64 16
  %25 = icmp eq ptr %23, %24
  br i1 %25, label %26, label %28

26:                                               ; preds = %22
  %27 = icmp samesign ult i64 %8, 16
  tail call void @llvm.assume(i1 %27)
  br label %28

28:                                               ; preds = %26, %22
  %29 = load i64, ptr %24, align 8
  %30 = select i1 %25, i64 15, i64 %29
  %31 = icmp samesign ugt i64 %30, 14
  tail call void @llvm.assume(i1 %31)
  %32 = icmp ult i64 %30, 9223372036854775807
  tail call void @llvm.assume(i1 %32)
  %33 = icmp ugt i64 %10, %30
  br i1 %33, label %52, label %34

34:                                               ; preds = %28
  %35 = tail call noundef nonnull align 8 dereferenceable(32) ptr @_ZNSt7__cxx1112basic_stringIcSt11char_traitsIcESaIcEE10_M_replaceEmmPKcm(ptr noundef nonnull align 8 dereferenceable(32) %2, i64 noundef 0, i64 noundef 0, ptr noundef %11, i64 noundef %5)
  %36 = getelementptr inbounds nuw i8, ptr %0, i64 16
  store ptr %36, ptr %0, align 8, !tbaa !31
  %37 = load ptr, ptr %35, align 8, !tbaa !38
  %38 = getelementptr inbounds nuw i8, ptr %35, i64 16
  %39 = icmp eq ptr %37, %38
  br i1 %39, label %40, label %45

40:                                               ; preds = %34
  %41 = getelementptr inbounds nuw i8, ptr %35, i64 8
  %42 = load i64, ptr %41, align 8, !tbaa !34
  %43 = icmp ult i64 %42, 16
  tail call void @llvm.assume(i1 %43)
  %44 = add nuw nsw i64 %42, 1
  tail call void @llvm.memcpy.p0.p0.i64(ptr noundef nonnull align 8 dereferenceable(1) %36, ptr noundef nonnull align 8 dereferenceable(1) %38, i64 %44, i1 false)
  br label %47

45:                                               ; preds = %34
  store ptr %37, ptr %0, align 8, !tbaa !38
  %46 = load i64, ptr %38, align 8, !tbaa !37
  store i64 %46, ptr %36, align 8, !tbaa !37
  br label %47

47:                                               ; preds = %45, %40
  %48 = getelementptr inbounds nuw i8, ptr %35, i64 8
  %49 = load i64, ptr %48, align 8, !tbaa !34
  %50 = icmp ult i64 %49, 9223372036854775807
  tail call void @llvm.assume(i1 %50)
  %51 = getelementptr inbounds nuw i8, ptr %0, i64 8
  store i64 %49, ptr %51, align 8, !tbaa !34
  store ptr %38, ptr %35, align 8, !tbaa !38
  store i64 0, ptr %48, align 8, !tbaa !34
  store i8 0, ptr %38, align 8, !tbaa !37
  br label %75

52:                                               ; preds = %28, %16
  %53 = sub nuw nsw i64 9223372036854775806, %5
  %54 = icmp samesign ult i64 %53, %8
  br i1 %54, label %55, label %56

55:                                               ; preds = %52
  tail call void @_ZSt20__throw_length_errorPKc(ptr noundef nonnull @.str.40) #38
  unreachable

56:                                               ; preds = %52
  %57 = load ptr, ptr %2, align 8, !tbaa !38
  %58 = tail call noundef nonnull align 8 dereferenceable(32) ptr @_ZNSt7__cxx1112basic_stringIcSt11char_traitsIcESaIcEE9_M_appendEPKcm(ptr noundef nonnull align 8 dereferenceable(32) %1, ptr noundef %57, i64 noundef %8)
  %59 = getelementptr inbounds nuw i8, ptr %0, i64 16
  store ptr %59, ptr %0, align 8, !tbaa !31
  %60 = load ptr, ptr %58, align 8, !tbaa !38
  %61 = getelementptr inbounds nuw i8, ptr %58, i64 16
  %62 = icmp eq ptr %60, %61
  br i1 %62, label %63, label %68

63:                                               ; preds = %56
  %64 = getelementptr inbounds nuw i8, ptr %58, i64 8
  %65 = load i64, ptr %64, align 8, !tbaa !34
  %66 = icmp ult i64 %65, 16
  tail call void @llvm.assume(i1 %66)
  %67 = add nuw nsw i64 %65, 1
  tail call void @llvm.memcpy.p0.p0.i64(ptr noundef nonnull align 8 dereferenceable(1) %59, ptr noundef nonnull align 8 dereferenceable(1) %61, i64 %67, i1 false)
  br label %70

68:                                               ; preds = %56
  store ptr %60, ptr %0, align 8, !tbaa !38
  %69 = load i64, ptr %61, align 8, !tbaa !37
  store i64 %69, ptr %59, align 8, !tbaa !37
  br label %70

70:                                               ; preds = %68, %63
  %71 = getelementptr inbounds nuw i8, ptr %58, i64 8
  %72 = load i64, ptr %71, align 8, !tbaa !34
  %73 = icmp ult i64 %72, 9223372036854775807
  tail call void @llvm.assume(i1 %73)
  %74 = getelementptr inbounds nuw i8, ptr %0, i64 8
  store i64 %72, ptr %74, align 8, !tbaa !34
  store ptr %61, ptr %58, align 8, !tbaa !38
  store i64 0, ptr %71, align 8, !tbaa !34
  store i8 0, ptr %61, align 8, !tbaa !37
  br label %75

75:                                               ; preds = %70, %47
  ret void
}

declare void @_ZN5osgeo4proj8internal7toupperERKNSt7__cxx1112basic_stringIcSt11char_traitsIcESaIcEEE(ptr dead_on_unwind writable sret(%"class.std::__cxx11::basic_string") align 8, ptr noundef nonnull align 8 dereferenceable(32)) local_unnamed_addr #1

declare hidden noundef i32 @_ZNK5osgeo4proj2io12WKTFormatter7versionEv(ptr noundef nonnull align 8 dereferenceable(8)) local_unnamed_addr #1

; Function Attrs: mustprogress nofree nounwind willreturn memory(read)
