; ModuleID = 'temp/PROJ/datum.cpp.ll'
source_filename = "/home/mitch/Documents/PROJ/src/iso19111/datum.cpp"
target datalayout = "e-m:e-p270:32:32-p271:32:32-p272:64:64-i64:64-i128:128-f80:128-n8:16:32:64-S128"
target triple = "x86_64-pc-linux-gnu"

%"class.std::__cxx11::basic_string" = type { %"struct.std::__cxx11::basic_string<char>::_Alloc_hider", i64, %union.anon }
%"struct.std::__cxx11::basic_string<char>::_Alloc_hider" = type { ptr }
%union.anon = type { i64, [8 x i8] }
%"class.osgeo::proj::common::UnitOfMeasure" = type { %"class.osgeo::proj::util::BaseObject", %"class.std::unique_ptr.31" }
%"class.osgeo::proj::util::BaseObject" = type { ptr, %"class.std::unique_ptr.15" }
%"class.std::unique_ptr.15" = type { %"struct.std::__uniq_ptr_data.16" }
%"struct.std::__uniq_ptr_data.16" = type { %"class.std::__uniq_ptr_impl.17" }
%"class.std::__uniq_ptr_impl.17" = type { %"class.std::tuple.18" }
%"class.std::tuple.18" = type { %"struct.std::_Tuple_impl.19" }
%"struct.std::_Tuple_impl.19" = type { %"struct.std::_Head_base.22" }
%"struct.std::_Head_base.22" = type { ptr }
%"class.std::unique_ptr.31" = type { %"struct.std::__uniq_ptr_data.32" }
%"struct.std::__uniq_ptr_data.32" = type { %"class.std::__uniq_ptr_impl.33" }
%"class.std::__uniq_ptr_impl.33" = type { %"class.std::tuple.34" }
%"class.std::tuple.34" = type { %"struct.std::_Tuple_impl.35" }
%"struct.std::_Tuple_impl.35" = type { %"struct.std::_Head_base.38" }
%"struct.std::_Head_base.38" = type { ptr }
%"class.dropbox::oxygen::nn.164" = type { %"class.std::shared_ptr.165" }
%"class.std::shared_ptr.165" = type { %"class.std::__shared_ptr.166" }
%"class.std::__shared_ptr.166" = type { ptr, %"class.std::__shared_count" }
%"class.std::__shared_count" = type { ptr }
%"class.dropbox::oxygen::nn" = type { %"class.std::shared_ptr.93" }
%"class.std::shared_ptr.93" = type { %"class.std::__shared_ptr.94" }
%"class.std::__shared_ptr.94" = type { ptr, %"class.std::__shared_count" }
%"class.std::unique_ptr.66" = type { %"struct.std::__uniq_ptr_data.67" }
%"struct.std::__uniq_ptr_data.67" = type { %"class.std::__uniq_ptr_impl.68" }
%"class.std::__uniq_ptr_impl.68" = type { %"class.std::tuple.69" }
%"class.std::tuple.69" = type { %"struct.std::_Tuple_impl.70" }
%"struct.std::_Tuple_impl.70" = type { %"struct.std::_Head_base.73" }
%"struct.std::_Head_base.73" = type { ptr }
%"class.osgeo::proj::common::DateTime" = type { %"class.std::unique_ptr" }
%"class.std::unique_ptr" = type { %"struct.std::__uniq_ptr_data" }
%"struct.std::__uniq_ptr_data" = type { %"class.std::__uniq_ptr_impl" }
%"class.std::__uniq_ptr_impl" = type { %"class.std::tuple" }
%"class.std::tuple" = type { %"struct.std::_Tuple_impl" }
%"struct.std::_Tuple_impl" = type { %"struct.std::_Head_base.2" }
%"struct.std::_Head_base.2" = type { ptr }
%"class.osgeo::proj::util::optional.14" = type { i8, %"class.osgeo::proj::common::Measure" }
%"class.osgeo::proj::common::Measure" = type { %"class.osgeo::proj::util::BaseObject", %"class.std::unique_ptr.23" }
%"class.std::unique_ptr.23" = type { %"struct.std::__uniq_ptr_data.24" }
%"struct.std::__uniq_ptr_data.24" = type { %"class.std::__uniq_ptr_impl.25" }
%"class.std::__uniq_ptr_impl.25" = type { %"class.std::tuple.26" }
%"class.std::tuple.26" = type { %"struct.std::_Tuple_impl.27" }
%"struct.std::_Tuple_impl.27" = type { %"struct.std::_Head_base.30" }
%"struct.std::_Head_base.30" = type { ptr }
%"class.osgeo::proj::util::PropertyMap" = type { %"class.std::unique_ptr.74" }
%"class.std::unique_ptr.74" = type { %"struct.std::__uniq_ptr_data.75" }
%"struct.std::__uniq_ptr_data.75" = type { %"class.std::__uniq_ptr_impl.76" }
%"class.std::__uniq_ptr_impl.76" = type { %"class.std::tuple.77" }
%"class.std::tuple.77" = type { %"struct.std::_Tuple_impl.78" }
%"struct.std::_Tuple_impl.78" = type { %"struct.std::_Head_base.81" }
%"struct.std::_Head_base.81" = type { ptr }
%"class.osgeo::proj::common::Angle" = type { %"class.osgeo::proj::common::Measure" }
%"class.dropbox::oxygen::nn.121" = type { %"class.std::shared_ptr.122" }
%"class.std::shared_ptr.122" = type { %"class.std::__shared_ptr.123" }
%"class.std::__shared_ptr.123" = type { ptr, %"class.std::__shared_count" }
%"class.dropbox::oxygen::nn.125" = type { %"class.std::shared_ptr.82" }
%"class.std::shared_ptr.82" = type { %"class.std::__shared_ptr.83" }
%"class.std::__shared_ptr.83" = type { ptr, %"class.std::__shared_count" }
%"class.std::__cxx11::list" = type { %"class.std::__cxx11::_List_base" }
%"class.std::__cxx11::_List_base" = type { %"struct.std::__cxx11::_List_base<dropbox::oxygen::nn<std::shared_ptr<osgeo::proj::common::IdentifiedObject>>, std::allocator<dropbox::oxygen::nn<std::shared_ptr<osgeo::proj::common::IdentifiedObject>>>>::_List_impl" }
%"struct.std::__cxx11::_List_base<dropbox::oxygen::nn<std::shared_ptr<osgeo::proj::common::IdentifiedObject>>, std::allocator<dropbox::oxygen::nn<std::shared_ptr<osgeo::proj::common::IdentifiedObject>>>>::_List_impl" = type { %"struct.std::__detail::_List_node_header" }
%"struct.std::__detail::_List_node_header" = type { %"struct.std::__detail::_List_node_base", %"struct.std::__detail::_List_size" }
%"struct.std::__detail::_List_node_base" = type { ptr, ptr }
%"struct.std::__detail::_List_size" = type { i64 }
%"class.std::vector.137" = type { %"struct.std::_Vector_base.138" }
%"struct.std::_Vector_base.138" = type { %"struct.std::_Vector_base<osgeo::proj::io::AuthorityFactory::ObjectType, std::allocator<osgeo::proj::io::AuthorityFactory::ObjectType>>::_Vector_impl" }
%"struct.std::_Vector_base<osgeo::proj::io::AuthorityFactory::ObjectType, std::allocator<osgeo::proj::io::AuthorityFactory::ObjectType>>::_Vector_impl" = type { %"struct.std::_Vector_base<osgeo::proj::io::AuthorityFactory::ObjectType, std::allocator<osgeo::proj::io::AuthorityFactory::ObjectType>>::_Vector_impl_data" }
%"struct.std::_Vector_base<osgeo::proj::io::AuthorityFactory::ObjectType, std::allocator<osgeo::proj::io::AuthorityFactory::ObjectType>>::_Vector_impl_data" = type { ptr, ptr, ptr }
%"struct.osgeo::proj::io::JSONFormatter::ObjectContext" = type { ptr }
%struct.PJ_PRIME_MERIDIANS = type { ptr, ptr }
%"class.osgeo::proj::common::Length" = type { %"class.osgeo::proj::common::Measure" }
%"class.osgeo::proj::common::Scale" = type { %"class.osgeo::proj::common::Measure" }
%struct.PJ_ELLPS = type { ptr, ptr, ptr, ptr }
%"struct.osgeo::proj::util::BaseObjectNNPtr" = type { %"class.dropbox::oxygen::nn.168" }
%"class.dropbox::oxygen::nn.168" = type { %"class.std::shared_ptr.169" }
%"class.std::shared_ptr.169" = type { %"class.std::__shared_ptr.170" }
%"class.std::__shared_ptr.170" = type { ptr, %"class.std::__shared_count" }
%"class.dropbox::oxygen::nn.181" = type { %"class.std::shared_ptr.182" }
%"class.std::shared_ptr.182" = type { %"class.std::__shared_ptr.183" }
%"class.std::__shared_ptr.183" = type { ptr, %"class.std::__shared_count" }
%"class.osgeo::proj::util::optional" = type { i8, %"class.std::__cxx11::basic_string" }
%"class.std::allocator" = type { i8 }
%"class.std::__cxx11::list.185" = type { %"class.std::__cxx11::_List_base.186" }
%"class.std::__cxx11::_List_base.186" = type { %"struct.std::__cxx11::_List_base<std::__cxx11::basic_string<char>, std::allocator<std::__cxx11::basic_string<char>>>::_List_impl" }
%"struct.std::__cxx11::_List_base<std::__cxx11::basic_string<char>, std::allocator<std::__cxx11::basic_string<char>>>::_List_impl" = type { %"struct.std::__detail::_List_node_header" }
%"class.std::__cxx11::list.190" = type { %"class.std::__cxx11::_List_base.191" }
%"class.std::__cxx11::_List_base.191" = type { %"struct.std::__cxx11::_List_base<std::pair<dropbox::oxygen::nn<std::shared_ptr<osgeo::proj::common::IdentifiedObject>>, std::__cxx11::basic_string<char>>, std::allocator<std::pair<dropbox::oxygen::nn<std::shared_ptr<osgeo::proj::common::IdentifiedObject>>, std::__cxx11::basic_string<char>>>>::_List_impl" }
%"struct.std::__cxx11::_List_base<std::pair<dropbox::oxygen::nn<std::shared_ptr<osgeo::proj::common::IdentifiedObject>>, std::__cxx11::basic_string<char>>, std::allocator<std::pair<dropbox::oxygen::nn<std::shared_ptr<osgeo::proj::common::IdentifiedObject>>, std::__cxx11::basic_string<char>>>>::_List_impl" = type { %"struct.std::__detail::_List_node_header" }
%"class.std::allocator.139" = type { i8 }
%class.anon = type { ptr }
%class.anon.208 = type { ptr }
%class.anon.209 = type { ptr, ptr, ptr, ptr, ptr }
%"class.dropbox::oxygen::nn.210" = type { %"class.std::shared_ptr.211" }
%"class.std::shared_ptr.211" = type { %"class.std::__shared_ptr.212" }
%"class.std::__shared_ptr.212" = type { ptr, %"class.std::__shared_count" }
%"class.dropbox::oxygen::nn.231" = type { %"class.std::shared_ptr.232" }
%"class.std::shared_ptr.232" = type { %"class.std::__shared_ptr.233" }
%"class.std::__shared_ptr.233" = type { ptr, %"class.std::__shared_count" }
%"class.dropbox::oxygen::nn.235" = type { %"class.std::shared_ptr.236" }
%"class.std::shared_ptr.236" = type { %"class.std::__shared_ptr.237" }
%"class.std::__shared_ptr.237" = type { ptr, %"class.std::__shared_count" }
%"class.dropbox::oxygen::nn.244" = type { %"class.std::shared_ptr.245" }
%"class.std::shared_ptr.245" = type { %"class.std::__shared_ptr.246" }
%"class.std::__shared_ptr.246" = type { ptr, %"class.std::__shared_count" }
%"class.osgeo::proj::util::optional.261" = type { i8, %"class.osgeo::proj::datum::RealizationMethod" }
%"class.osgeo::proj::datum::RealizationMethod" = type { %"class.osgeo::proj::util::CodeList" }
%"class.osgeo::proj::util::CodeList" = type { %"class.std::__cxx11::basic_string" }
%"struct.osgeo::proj::CPLJSonStreamingWriter::ArrayContext" = type <{ ptr, i8, i8, [6 x i8] }>
%"class.dropbox::oxygen::nn.271" = type { %"class.std::shared_ptr.272" }
%"class.std::shared_ptr.272" = type { %"class.std::__shared_ptr.273" }
%"class.std::__shared_ptr.273" = type { ptr, %"class.std::__shared_count" }
%"class.dropbox::oxygen::nn.291" = type { %"class.std::shared_ptr.292" }
%"class.std::shared_ptr.292" = type { %"class.std::__shared_ptr.293" }
%"class.std::__shared_ptr.293" = type { ptr, %"class.std::__shared_count" }
%"class.dropbox::oxygen::nn.303" = type { %"class.std::shared_ptr.304" }
%"class.std::shared_ptr.304" = type { %"class.std::__shared_ptr.305" }
%"class.std::__shared_ptr.305" = type { ptr, %"class.std::__shared_count" }
%"class.dropbox::oxygen::nn.315" = type { %"class.std::shared_ptr.316" }
%"class.std::shared_ptr.316" = type { %"class.std::__shared_ptr.317" }
%"class.std::__shared_ptr.317" = type { ptr, %"class.std::__shared_count" }
%"class.dropbox::oxygen::nn.327" = type { %"class.std::shared_ptr.328" }
%"class.std::shared_ptr.328" = type { %"class.std::__shared_ptr.329" }
%"class.std::__shared_ptr.329" = type { ptr, %"class.std::__shared_count" }

$_ZNSt7__cxx1112basic_stringIcSt11char_traitsIcESaIcEEC2IS3_EEPKcRKS3_ = comdat any

$_ZSt11make_uniqueIN5osgeo4proj5datum5Datum7PrivateEJEENSt8__detail9_MakeUniqIT_E15__single_objectEDpOT0_ = comdat any

$_ZStneIcSt11char_traitsIcESaIcEEbRKNSt7__cxx1112basic_stringIT_T0_T1_EESA_ = comdat any

$_ZN5osgeo4proj5datum13PrimeMeridian14nn_make_sharedIS2_JRKNS0_6common5AngleEEEEN7dropbox6oxygen2nnISt10shared_ptrIT_EEEDpOT0_ = comdat any

$_ZN7dropbox6oxygen2nnISt10shared_ptrIN5osgeo4proj5datum13PrimeMeridianEEED2Ev = comdat any

$_ZSteqIcSt11char_traitsIcESaIcEEbRKNSt7__cxx1112basic_stringIT_T0_T1_EEPKS5_ = comdat any

$_ZN7dropbox6oxygen2nnISt10shared_ptrIN5osgeo4proj2io15DatabaseContextEEED2Ev = comdat any

$_ZNSt6vectorIN5osgeo4proj2io16AuthorityFactory10ObjectTypeESaIS4_EEC2ESt16initializer_listIS4_ERKS5_ = comdat any

$_ZNSt7__cxx1110_List_baseIN7dropbox6oxygen2nnISt10shared_ptrIN5osgeo4proj6common16IdentifiedObjectEEEESaISA_EED2Ev = comdat any

$_ZN7dropbox6oxygen2nnISt10shared_ptrIN5osgeo4proj2io16AuthorityFactoryEEED2Ev = comdat any

$__clang_call_terminate = comdat any

$_ZN5osgeo4proj5datum9Ellipsoid14nn_make_sharedIS2_JRKNS0_6common6LengthERKNSt7__cxx1112basic_stringIcSt11char_traitsIcESaIcEEEEEEN7dropbox6oxygen2nnISt10shared_ptrIT_EEEDpOT0_ = comdat any

$_ZN7dropbox6oxygen2nnISt10shared_ptrIN5osgeo4proj5datum9EllipsoidEEED2Ev = comdat any

$_ZN5osgeo4proj5datum9Ellipsoid14nn_make_sharedIS2_JRKNS0_6common6LengthERKNS4_5ScaleERKNSt7__cxx1112basic_stringIcSt11char_traitsIcESaIcEEEEEEN7dropbox6oxygen2nnISt10shared_ptrIT_EEEDpOT0_ = comdat any

$_ZN5osgeo4proj5datum9Ellipsoid14nn_make_sharedIS2_JRKNS0_6common6LengthES7_RKNSt7__cxx1112basic_stringIcSt11char_traitsIcESaIcEEEEEEN7dropbox6oxygen2nnISt10shared_ptrIT_EEEDpOT0_ = comdat any

$_ZN5osgeo4proj5datum9Ellipsoid14nn_make_sharedIS2_JRKS2_EEEN7dropbox6oxygen2nnISt10shared_ptrIT_EEEDpOT0_ = comdat any

$_ZN7dropbox6oxygen2nnISt10shared_ptrIN5osgeo4proj4util10BaseObjectEEED2Ev = comdat any

$_ZN5osgeo4proj5datum22GeodeticReferenceFrame14nn_make_sharedIS2_JRKN7dropbox6oxygen2nnISt10shared_ptrINS1_9EllipsoidEEEERKNS6_IS7_INS1_13PrimeMeridianEEEEEEENS6_IS7_IT_EEEDpOT0_ = comdat any

$_ZN7dropbox6oxygen2nnISt10shared_ptrIN5osgeo4proj5datum22GeodeticReferenceFrameEEED2Ev = comdat any

$_ZNSt7__cxx1110_List_baseINS_12basic_stringIcSt11char_traitsIcESaIcEEESaIS5_EED2Ev = comdat any

$_ZNSt10unique_ptrIN5osgeo4proj5datum29DynamicGeodeticReferenceFrame7PrivateESt14default_deleteIS4_EED2Ev = comdat any

$_ZN5osgeo4proj5datum29DynamicGeodeticReferenceFrame14nn_make_sharedIS2_JRKN7dropbox6oxygen2nnISt10shared_ptrINS1_9EllipsoidEEEERKNS6_IS7_INS1_13PrimeMeridianEEEERKNS0_6common7MeasureERKNS0_4util8optionalINSt7__cxx1112basic_stringIcSt11char_traitsIcESaIcEEEEEEEENS6_IS7_IT_EEEDpOT0_ = comdat any

$_ZN7dropbox6oxygen2nnISt10shared_ptrIN5osgeo4proj5datum29DynamicGeodeticReferenceFrameEEED2Ev = comdat any

$_ZN7dropbox6oxygen2nnISt10shared_ptrIN5osgeo4proj5datum22VerticalReferenceFrameEEED2Ev = comdat any

$_ZN7dropbox6oxygen2nnISt10shared_ptrIN5osgeo4proj4util17ArrayOfBaseObjectEEED2Ev = comdat any

$_ZN7dropbox6oxygen2nnISt10shared_ptrIN5osgeo4proj5datum5DatumEEED2Ev = comdat any

$_ZNSt12__shared_ptrIN5osgeo4proj5datum22GeodeticReferenceFrameELN9__gnu_cxx12_Lock_policyE2EED2Ev = comdat any

$_ZN5osgeo4proj22CPLJSonStreamingWriter12ArrayContextD2Ev = comdat any

$_ZNSt12__shared_ptrIN5osgeo4proj2io15DatabaseContextELN9__gnu_cxx12_Lock_policyE2EED2Ev = comdat any

$_ZN5osgeo4proj5datum13DatumEnsemble14nn_make_sharedIS2_JRKSt6vectorIN7dropbox6oxygen2nnISt10shared_ptrINS1_5DatumEEEESaISB_EERKNS7_IS8_INS0_8metadata18PositionalAccuracyEEEEEEENS7_IS8_IT_EEEDpOT0_ = comdat any

$_ZN7dropbox6oxygen2nnISt10shared_ptrIN5osgeo4proj5datum13DatumEnsembleEEED2Ev = comdat any

$_ZNSt10unique_ptrIN5osgeo4proj5datum22VerticalReferenceFrame7PrivateESt14default_deleteIS4_EED2Ev = comdat any

$_ZN5osgeo4proj5datum22VerticalReferenceFrame14nn_make_sharedIS2_JRKNS0_4util8optionalINS1_17RealizationMethodEEEEEEN7dropbox6oxygen2nnISt10shared_ptrIT_EEEDpOT0_ = comdat any

$_ZNSt10unique_ptrIN5osgeo4proj5datum29DynamicVerticalReferenceFrame7PrivateESt14default_deleteIS4_EED2Ev = comdat any

$_ZN5osgeo4proj5datum29DynamicVerticalReferenceFrame14nn_make_sharedIS2_JRKNS0_4util8optionalINS1_17RealizationMethodEEERKNS0_6common7MeasureERKNS5_INSt7__cxx1112basic_stringIcSt11char_traitsIcESaIcEEEEEEEEN7dropbox6oxygen2nnISt10shared_ptrIT_EEEDpOT0_ = comdat any

$_ZN7dropbox6oxygen2nnISt10shared_ptrIN5osgeo4proj5datum29DynamicVerticalReferenceFrameEEED2Ev = comdat any

$_ZN5osgeo4proj5datum13TemporalDatum14nn_make_sharedIS2_JRKNS0_6common8DateTimeERKNSt7__cxx1112basic_stringIcSt11char_traitsIcESaIcEEEEEEN7dropbox6oxygen2nnISt10shared_ptrIT_EEEDpOT0_ = comdat any

$_ZN7dropbox6oxygen2nnISt10shared_ptrIN5osgeo4proj5datum13TemporalDatumEEED2Ev = comdat any

$_ZN5osgeo4proj5datum16EngineeringDatum14nn_make_sharedIS2_JEEEN7dropbox6oxygen2nnISt10shared_ptrIT_EEEDpOT0_ = comdat any

$_ZN7dropbox6oxygen2nnISt10shared_ptrIN5osgeo4proj5datum16EngineeringDatumEEED2Ev = comdat any

$_ZN5osgeo4proj5datum15ParametricDatum14nn_make_sharedIS2_JEEEN7dropbox6oxygen2nnISt10shared_ptrIT_EEEDpOT0_ = comdat any

$_ZN7dropbox6oxygen2nnISt10shared_ptrIN5osgeo4proj5datum15ParametricDatumEEED2Ev = comdat any

$_ZNSt16_Sp_counted_baseILN9__gnu_cxx12_Lock_policyE2EE24_M_release_last_use_coldEv = comdat any

$_ZNSt12__shared_ptrIN5osgeo4proj4util10BaseObjectELN9__gnu_cxx12_Lock_policyE2EED2Ev = comdat any

$_ZNSt7__cxx1110_List_baseISt4pairIN7dropbox6oxygen2nnISt10shared_ptrIN5osgeo4proj6common16IdentifiedObjectEEEENS_12basic_stringIcSt11char_traitsIcESaIcEEEESaISH_EE8_M_clearEv = comdat any

$_ZNSt23_Sp_counted_ptr_inplaceIN5osgeo4proj4util8optionalINS1_6common7MeasureEEESaIvELN9__gnu_cxx12_Lock_policyE2EED0Ev = comdat any

$_ZNSt23_Sp_counted_ptr_inplaceIN5osgeo4proj4util8optionalINS1_6common7MeasureEEESaIvELN9__gnu_cxx12_Lock_policyE2EE10_M_disposeEv = comdat any

$_ZNSt23_Sp_counted_ptr_inplaceIN5osgeo4proj4util8optionalINS1_6common7MeasureEEESaIvELN9__gnu_cxx12_Lock_policyE2EE10_M_destroyEv = comdat any

$_ZNSt23_Sp_counted_ptr_inplaceIN5osgeo4proj4util8optionalINS1_6common7MeasureEEESaIvELN9__gnu_cxx12_Lock_policyE2EE14_M_get_deleterERKSt9type_info = comdat any

$_ZN5osgeo4proj4util8optionalINS0_6common7MeasureEEC2Ev = comdat any

$_ZN5osgeo4proj5datum5Datum7PrivateD2Ev = comdat any

$_ZNSt12__shared_ptrIN5osgeo4proj4util8optionalINS1_6common7MeasureEEELN9__gnu_cxx12_Lock_policyE2EED2Ev = comdat any

$_ZNSt15_Sp_counted_ptrIPN5osgeo4proj5datum13PrimeMeridianELN9__gnu_cxx12_Lock_policyE2EED0Ev = comdat any

$_ZNSt15_Sp_counted_ptrIPN5osgeo4proj5datum13PrimeMeridianELN9__gnu_cxx12_Lock_policyE2EE10_M_disposeEv = comdat any

$_ZNSt15_Sp_counted_ptrIPN5osgeo4proj5datum13PrimeMeridianELN9__gnu_cxx12_Lock_policyE2EE10_M_destroyEv = comdat any

$_ZNSt15_Sp_counted_ptrIPN5osgeo4proj5datum13PrimeMeridianELN9__gnu_cxx12_Lock_policyE2EE14_M_get_deleterERKSt9type_info = comdat any

$_ZN5osgeo4proj5datum9Ellipsoid7PrivateC2ERKNS0_6common6LengthERKNSt7__cxx1112basic_stringIcSt11char_traitsIcESaIcEEE = comdat any

$_ZN5osgeo4proj5datum9Ellipsoid7PrivateC2ERKNS0_6common6LengthERKNS4_5ScaleERKNSt7__cxx1112basic_stringIcSt11char_traitsIcESaIcEEE = comdat any

$_ZN5osgeo4proj5datum9Ellipsoid7PrivateC2ERKNS0_6common6LengthES7_RKNSt7__cxx1112basic_stringIcSt11char_traitsIcESaIcEEE = comdat any

$_ZN5osgeo4proj5datum9Ellipsoid7PrivateC2ERKS3_ = comdat any

$_ZNSt15_Sp_counted_ptrIPN5osgeo4proj5datum9EllipsoidELN9__gnu_cxx12_Lock_policyE2EED0Ev = comdat any

$_ZNSt15_Sp_counted_ptrIPN5osgeo4proj5datum9EllipsoidELN9__gnu_cxx12_Lock_policyE2EE10_M_disposeEv = comdat any

$_ZNSt15_Sp_counted_ptrIPN5osgeo4proj5datum9EllipsoidELN9__gnu_cxx12_Lock_policyE2EE10_M_destroyEv = comdat any

$_ZNSt15_Sp_counted_ptrIPN5osgeo4proj5datum9EllipsoidELN9__gnu_cxx12_Lock_policyE2EE14_M_get_deleterERKSt9type_info = comdat any

$_ZNKSt14default_deleteIN5osgeo4proj5datum22GeodeticReferenceFrame7PrivateEEclEPS4_ = comdat any

$_ZNSt15_Sp_counted_ptrIPN5osgeo4proj5datum22GeodeticReferenceFrameELN9__gnu_cxx12_Lock_policyE2EED0Ev = comdat any

$_ZNSt15_Sp_counted_ptrIPN5osgeo4proj5datum22GeodeticReferenceFrameELN9__gnu_cxx12_Lock_policyE2EE10_M_disposeEv = comdat any

$_ZNSt15_Sp_counted_ptrIPN5osgeo4proj5datum22GeodeticReferenceFrameELN9__gnu_cxx12_Lock_policyE2EE10_M_destroyEv = comdat any

$_ZNSt15_Sp_counted_ptrIPN5osgeo4proj5datum22GeodeticReferenceFrameELN9__gnu_cxx12_Lock_policyE2EE14_M_get_deleterERKSt9type_info = comdat any

$_ZNSt15_Sp_counted_ptrIPN5osgeo4proj5datum29DynamicGeodeticReferenceFrameELN9__gnu_cxx12_Lock_policyE2EED0Ev = comdat any

$_ZNSt15_Sp_counted_ptrIPN5osgeo4proj5datum29DynamicGeodeticReferenceFrameELN9__gnu_cxx12_Lock_policyE2EE10_M_disposeEv = comdat any

$_ZNSt15_Sp_counted_ptrIPN5osgeo4proj5datum29DynamicGeodeticReferenceFrameELN9__gnu_cxx12_Lock_policyE2EE10_M_destroyEv = comdat any

$_ZNSt15_Sp_counted_ptrIPN5osgeo4proj5datum29DynamicGeodeticReferenceFrameELN9__gnu_cxx12_Lock_policyE2EE14_M_get_deleterERKSt9type_info = comdat any

$_ZN5osgeo4proj5datum13DatumEnsemble7PrivateD2Ev = comdat any

$_ZNSt15_Sp_counted_ptrIPN5osgeo4proj5datum13DatumEnsembleELN9__gnu_cxx12_Lock_policyE2EED0Ev = comdat any

$_ZNSt15_Sp_counted_ptrIPN5osgeo4proj5datum13DatumEnsembleELN9__gnu_cxx12_Lock_policyE2EE10_M_disposeEv = comdat any

$_ZNSt15_Sp_counted_ptrIPN5osgeo4proj5datum13DatumEnsembleELN9__gnu_cxx12_Lock_policyE2EE10_M_destroyEv = comdat any

$_ZNSt15_Sp_counted_ptrIPN5osgeo4proj5datum13DatumEnsembleELN9__gnu_cxx12_Lock_policyE2EE14_M_get_deleterERKSt9type_info = comdat any

$_ZNSt15_Sp_counted_ptrIPN5osgeo4proj5datum22VerticalReferenceFrameELN9__gnu_cxx12_Lock_policyE2EED0Ev = comdat any

$_ZNSt15_Sp_counted_ptrIPN5osgeo4proj5datum22VerticalReferenceFrameELN9__gnu_cxx12_Lock_policyE2EE10_M_disposeEv = comdat any

$_ZNSt15_Sp_counted_ptrIPN5osgeo4proj5datum22VerticalReferenceFrameELN9__gnu_cxx12_Lock_policyE2EE10_M_destroyEv = comdat any

$_ZNSt15_Sp_counted_ptrIPN5osgeo4proj5datum22VerticalReferenceFrameELN9__gnu_cxx12_Lock_policyE2EE14_M_get_deleterERKSt9type_info = comdat any

$_ZNSt15_Sp_counted_ptrIPN5osgeo4proj5datum29DynamicVerticalReferenceFrameELN9__gnu_cxx12_Lock_policyE2EED0Ev = comdat any

$_ZNSt15_Sp_counted_ptrIPN5osgeo4proj5datum29DynamicVerticalReferenceFrameELN9__gnu_cxx12_Lock_policyE2EE10_M_disposeEv = comdat any

$_ZNSt15_Sp_counted_ptrIPN5osgeo4proj5datum29DynamicVerticalReferenceFrameELN9__gnu_cxx12_Lock_policyE2EE10_M_destroyEv = comdat any

$_ZNSt15_Sp_counted_ptrIPN5osgeo4proj5datum29DynamicVerticalReferenceFrameELN9__gnu_cxx12_Lock_policyE2EE14_M_get_deleterERKSt9type_info = comdat any

$_ZNSt15_Sp_counted_ptrIPN5osgeo4proj5datum13TemporalDatumELN9__gnu_cxx12_Lock_policyE2EED0Ev = comdat any

$_ZNSt15_Sp_counted_ptrIPN5osgeo4proj5datum13TemporalDatumELN9__gnu_cxx12_Lock_policyE2EE10_M_disposeEv = comdat any

$_ZNSt15_Sp_counted_ptrIPN5osgeo4proj5datum13TemporalDatumELN9__gnu_cxx12_Lock_policyE2EE10_M_destroyEv = comdat any

$_ZNSt15_Sp_counted_ptrIPN5osgeo4proj5datum13TemporalDatumELN9__gnu_cxx12_Lock_policyE2EE14_M_get_deleterERKSt9type_info = comdat any

$_ZNSt15_Sp_counted_ptrIPN5osgeo4proj5datum16EngineeringDatumELN9__gnu_cxx12_Lock_policyE2EED0Ev = comdat any

$_ZNSt15_Sp_counted_ptrIPN5osgeo4proj5datum16EngineeringDatumELN9__gnu_cxx12_Lock_policyE2EE10_M_disposeEv = comdat any

$_ZNSt15_Sp_counted_ptrIPN5osgeo4proj5datum16EngineeringDatumELN9__gnu_cxx12_Lock_policyE2EE10_M_destroyEv = comdat any

$_ZNSt15_Sp_counted_ptrIPN5osgeo4proj5datum16EngineeringDatumELN9__gnu_cxx12_Lock_policyE2EE14_M_get_deleterERKSt9type_info = comdat any

$_ZNSt16_Sp_counted_baseILN9__gnu_cxx12_Lock_policyE2EED2Ev = comdat any

$_ZNSt15_Sp_counted_ptrIPN5osgeo4proj5datum15ParametricDatumELN9__gnu_cxx12_Lock_policyE2EED0Ev = comdat any

$_ZNSt15_Sp_counted_ptrIPN5osgeo4proj5datum15ParametricDatumELN9__gnu_cxx12_Lock_policyE2EE10_M_disposeEv = comdat any

$_ZNSt15_Sp_counted_ptrIPN5osgeo4proj5datum15ParametricDatumELN9__gnu_cxx12_Lock_policyE2EE10_M_destroyEv = comdat any

$_ZNSt15_Sp_counted_ptrIPN5osgeo4proj5datum15ParametricDatumELN9__gnu_cxx12_Lock_policyE2EE14_M_get_deleterERKSt9type_info = comdat any

$_ZTVSt23_Sp_counted_ptr_inplaceIN5osgeo4proj4util8optionalINS1_6common7MeasureEEESaIvELN9__gnu_cxx12_Lock_policyE2EE = comdat any

$_ZTISt23_Sp_counted_ptr_inplaceIN5osgeo4proj4util8optionalINS1_6common7MeasureEEESaIvELN9__gnu_cxx12_Lock_policyE2EE = comdat any

$_ZTSSt23_Sp_counted_ptr_inplaceIN5osgeo4proj4util8optionalINS1_6common7MeasureEEESaIvELN9__gnu_cxx12_Lock_policyE2EE = comdat any

$_ZTISt16_Sp_counted_baseILN9__gnu_cxx12_Lock_policyE2EE = comdat any

$_ZTSSt16_Sp_counted_baseILN9__gnu_cxx12_Lock_policyE2EE = comdat any

$_ZTISt11_Mutex_baseILN9__gnu_cxx12_Lock_policyE2EE = comdat any

$_ZTSSt11_Mutex_baseILN9__gnu_cxx12_Lock_policyE2EE = comdat any

$_ZTSSt19_Sp_make_shared_tag = comdat any

$_ZZNSt19_Sp_make_shared_tag5_S_tiEvE5__tag = comdat any

$_ZTVSt15_Sp_counted_ptrIPN5osgeo4proj5datum13PrimeMeridianELN9__gnu_cxx12_Lock_policyE2EE = comdat any

$_ZTISt15_Sp_counted_ptrIPN5osgeo4proj5datum13PrimeMeridianELN9__gnu_cxx12_Lock_policyE2EE = comdat any

$_ZTSSt15_Sp_counted_ptrIPN5osgeo4proj5datum13PrimeMeridianELN9__gnu_cxx12_Lock_policyE2EE = comdat any

$_ZTVSt15_Sp_counted_ptrIPN5osgeo4proj5datum9EllipsoidELN9__gnu_cxx12_Lock_policyE2EE = comdat any

$_ZTISt15_Sp_counted_ptrIPN5osgeo4proj5datum9EllipsoidELN9__gnu_cxx12_Lock_policyE2EE = comdat any

$_ZTSSt15_Sp_counted_ptrIPN5osgeo4proj5datum9EllipsoidELN9__gnu_cxx12_Lock_policyE2EE = comdat any

$_ZTVSt15_Sp_counted_ptrIPN5osgeo4proj5datum22GeodeticReferenceFrameELN9__gnu_cxx12_Lock_policyE2EE = comdat any

$_ZTISt15_Sp_counted_ptrIPN5osgeo4proj5datum22GeodeticReferenceFrameELN9__gnu_cxx12_Lock_policyE2EE = comdat any

$_ZTSSt15_Sp_counted_ptrIPN5osgeo4proj5datum22GeodeticReferenceFrameELN9__gnu_cxx12_Lock_policyE2EE = comdat any

$_ZTVSt15_Sp_counted_ptrIPN5osgeo4proj5datum29DynamicGeodeticReferenceFrameELN9__gnu_cxx12_Lock_policyE2EE = comdat any

$_ZTISt15_Sp_counted_ptrIPN5osgeo4proj5datum29DynamicGeodeticReferenceFrameELN9__gnu_cxx12_Lock_policyE2EE = comdat any

$_ZTSSt15_Sp_counted_ptrIPN5osgeo4proj5datum29DynamicGeodeticReferenceFrameELN9__gnu_cxx12_Lock_policyE2EE = comdat any

$_ZTVSt15_Sp_counted_ptrIPN5osgeo4proj5datum13DatumEnsembleELN9__gnu_cxx12_Lock_policyE2EE = comdat any

$_ZTISt15_Sp_counted_ptrIPN5osgeo4proj5datum13DatumEnsembleELN9__gnu_cxx12_Lock_policyE2EE = comdat any

$_ZTSSt15_Sp_counted_ptrIPN5osgeo4proj5datum13DatumEnsembleELN9__gnu_cxx12_Lock_policyE2EE = comdat any

$_ZTVSt15_Sp_counted_ptrIPN5osgeo4proj5datum22VerticalReferenceFrameELN9__gnu_cxx12_Lock_policyE2EE = comdat any

$_ZTISt15_Sp_counted_ptrIPN5osgeo4proj5datum22VerticalReferenceFrameELN9__gnu_cxx12_Lock_policyE2EE = comdat any

$_ZTSSt15_Sp_counted_ptrIPN5osgeo4proj5datum22VerticalReferenceFrameELN9__gnu_cxx12_Lock_policyE2EE = comdat any

$_ZTVSt15_Sp_counted_ptrIPN5osgeo4proj5datum29DynamicVerticalReferenceFrameELN9__gnu_cxx12_Lock_policyE2EE = comdat any

$_ZTISt15_Sp_counted_ptrIPN5osgeo4proj5datum29DynamicVerticalReferenceFrameELN9__gnu_cxx12_Lock_policyE2EE = comdat any

$_ZTSSt15_Sp_counted_ptrIPN5osgeo4proj5datum29DynamicVerticalReferenceFrameELN9__gnu_cxx12_Lock_policyE2EE = comdat any

$_ZTVSt15_Sp_counted_ptrIPN5osgeo4proj5datum13TemporalDatumELN9__gnu_cxx12_Lock_policyE2EE = comdat any

$_ZTISt15_Sp_counted_ptrIPN5osgeo4proj5datum13TemporalDatumELN9__gnu_cxx12_Lock_policyE2EE = comdat any

$_ZTSSt15_Sp_counted_ptrIPN5osgeo4proj5datum13TemporalDatumELN9__gnu_cxx12_Lock_policyE2EE = comdat any

$_ZTVSt15_Sp_counted_ptrIPN5osgeo4proj5datum16EngineeringDatumELN9__gnu_cxx12_Lock_policyE2EE = comdat any

$_ZTISt15_Sp_counted_ptrIPN5osgeo4proj5datum16EngineeringDatumELN9__gnu_cxx12_Lock_policyE2EE = comdat any

$_ZTSSt15_Sp_counted_ptrIPN5osgeo4proj5datum16EngineeringDatumELN9__gnu_cxx12_Lock_policyE2EE = comdat any

$_ZTVSt15_Sp_counted_ptrIPN5osgeo4proj5datum15ParametricDatumELN9__gnu_cxx12_Lock_policyE2EE = comdat any

$_ZTISt15_Sp_counted_ptrIPN5osgeo4proj5datum15ParametricDatumELN9__gnu_cxx12_Lock_policyE2EE = comdat any

$_ZTSSt15_Sp_counted_ptrIPN5osgeo4proj5datum15ParametricDatumELN9__gnu_cxx12_Lock_policyE2EE = comdat any

@_ZN5osgeo4proj2io12WKTConstants6ANCHORB5cxx11E = external global %"class.std::__cxx11::basic_string", align 8
@_ZN5osgeo4proj2io12WKTConstants11ANCHOREPOCHB5cxx11E = external global %"class.std::__cxx11::basic_string", align 8
@_ZN5osgeo4proj6common13UnitOfMeasure4YEARE = external global %"class.osgeo::proj::common::UnitOfMeasure", align 8
@.str = private unnamed_addr constant [7 x i8] c"anchor\00", align 1
@.str.1 = private unnamed_addr constant [13 x i8] c"anchor_epoch\00", align 1
@_ZTVN5osgeo4proj5datum5DatumE = unnamed_addr constant { [6 x ptr], [5 x ptr], [5 x ptr], [5 x ptr] } { [6 x ptr] [ptr null, ptr @_ZTIN5osgeo4proj5datum5DatumE, ptr @_ZN5osgeo4proj5datum5DatumD1Ev, ptr @_ZN5osgeo4proj5datum5DatumD0Ev, ptr @_ZNK5osgeo4proj5datum5Datum15_isEquivalentToEPKNS0_4util11IComparableENS4_9CriterionERKSt10shared_ptrINS0_2io15DatabaseContextEE, ptr @_ZNK5osgeo4proj6common16IdentifiedObject29hasEquivalentNameToUsingAliasEPKS2_RKSt10shared_ptrINS0_2io15DatabaseContextEE], [5 x ptr] [ptr inttoptr (i64 -16 to ptr), ptr @_ZTIN5osgeo4proj5datum5DatumE, ptr @_ZThn16_N5osgeo4proj5datum5DatumD1Ev, ptr @_ZThn16_N5osgeo4proj5datum5DatumD0Ev, ptr @_ZThn16_NK5osgeo4proj5datum5Datum15_isEquivalentToEPKNS0_4util11IComparableENS4_9CriterionERKSt10shared_ptrINS0_2io15DatabaseContextEE], [5 x ptr] [ptr inttoptr (i64 -24 to ptr), ptr @_ZTIN5osgeo4proj5datum5DatumE, ptr @_ZThn24_N5osgeo4proj5datum5DatumD1Ev, ptr @_ZThn24_N5osgeo4proj5datum5DatumD0Ev, ptr @__cxa_pure_virtual], [5 x ptr] [ptr inttoptr (i64 -48 to ptr), ptr @_ZTIN5osgeo4proj5datum5DatumE, ptr @_ZThn48_N5osgeo4proj5datum5DatumD1Ev, ptr @_ZThn48_N5osgeo4proj5datum5DatumD0Ev, ptr @__cxa_pure_virtual] }, align 8
@.str.2 = private unnamed_addr constant [17 x i8] c"PUBLICATION_DATE\00", align 1
@.str.3 = private unnamed_addr constant [13 x i8] c"ANCHOR_EPOCH\00", align 1
@_ZTIN5osgeo4proj4util11IComparableE = external constant ptr
@_ZTIN5osgeo4proj5datum5DatumE = constant { ptr, ptr, i32, i32, ptr, i64, ptr, i64 } { ptr getelementptr inbounds (ptr, ptr @_ZTVN10__cxxabiv121__vmi_class_type_infoE, i64 2), ptr @_ZTSN5osgeo4proj5datum5DatumE, i32 0, i32 2, ptr @_ZTIN5osgeo4proj6common11ObjectUsageE, i64 2, ptr @_ZTIN5osgeo4proj2io15IJSONExportableE, i64 12290 }, align 8
@_ZTVN10__cxxabiv121__vmi_class_type_infoE = external global [0 x ptr]
@_ZTSN5osgeo4proj5datum5DatumE = constant [26 x i8] c"N5osgeo4proj5datum5DatumE\00", align 1
@_ZTIN5osgeo4proj6common11ObjectUsageE = external constant ptr
@_ZTIN5osgeo4proj2io15IJSONExportableE = external constant ptr
@_ZTVN5osgeo4proj5datum13PrimeMeridianE = unnamed_addr constant { [9 x ptr], [5 x ptr], [5 x ptr], [5 x ptr], [5 x ptr] } { [9 x ptr] [ptr null, ptr @_ZTIN5osgeo4proj5datum13PrimeMeridianE, ptr @_ZN5osgeo4proj5datum13PrimeMeridianD1Ev, ptr @_ZN5osgeo4proj5datum13PrimeMeridianD0Ev, ptr @_ZNK5osgeo4proj5datum13PrimeMeridian15_isEquivalentToEPKNS0_4util11IComparableENS4_9CriterionERKSt10shared_ptrINS0_2io15DatabaseContextEE, ptr @_ZNK5osgeo4proj6common16IdentifiedObject29hasEquivalentNameToUsingAliasEPKS2_RKSt10shared_ptrINS0_2io15DatabaseContextEE, ptr @_ZNK5osgeo4proj5datum13PrimeMeridian19_exportToPROJStringEPNS0_2io19PROJStringFormatterE, ptr @_ZNK5osgeo4proj5datum13PrimeMeridian12_exportToWKTEPNS0_2io12WKTFormatterE, ptr @_ZNK5osgeo4proj5datum13PrimeMeridian13_exportToJSONEPNS0_2io13JSONFormatterE], [5 x ptr] [ptr inttoptr (i64 -16 to ptr), ptr @_ZTIN5osgeo4proj5datum13PrimeMeridianE, ptr @_ZThn16_N5osgeo4proj5datum13PrimeMeridianD1Ev, ptr @_ZThn16_N5osgeo4proj5datum13PrimeMeridianD0Ev, ptr @_ZThn16_NK5osgeo4proj5datum13PrimeMeridian15_isEquivalentToEPKNS0_4util11IComparableENS4_9CriterionERKSt10shared_ptrINS0_2io15DatabaseContextEE], [5 x ptr] [ptr inttoptr (i64 -24 to ptr), ptr @_ZTIN5osgeo4proj5datum13PrimeMeridianE, ptr @_ZThn24_N5osgeo4proj5datum13PrimeMeridianD1Ev, ptr @_ZThn24_N5osgeo4proj5datum13PrimeMeridianD0Ev, ptr @_ZThn24_NK5osgeo4proj5datum13PrimeMeridian12_exportToWKTEPNS0_2io12WKTFormatterE], [5 x ptr] [ptr inttoptr (i64 -40 to ptr), ptr @_ZTIN5osgeo4proj5datum13PrimeMeridianE, ptr @_ZThn40_N5osgeo4proj5datum13PrimeMeridianD1Ev, ptr @_ZThn40_N5osgeo4proj5datum13PrimeMeridianD0Ev, ptr @_ZThn40_NK5osgeo4proj5datum13PrimeMeridian19_exportToPROJStringEPNS0_2io19PROJStringFormatterE], [5 x ptr] [ptr inttoptr (i64 -48 to ptr), ptr @_ZTIN5osgeo4proj5datum13PrimeMeridianE, ptr @_ZThn48_N5osgeo4proj5datum13PrimeMeridianD1Ev, ptr @_ZThn48_N5osgeo4proj5datum13PrimeMeridianD0Ev, ptr @_ZThn48_NK5osgeo4proj5datum13PrimeMeridian13_exportToJSONEPNS0_2io13JSONFormatterE] }, align 8
@.str.4 = private unnamed_addr constant [10 x i8] c"Greenwich\00", align 1
@_ZN5osgeo4proj6common16IdentifiedObject8NAME_KEYB5cxx11E = external global %"class.std::__cxx11::basic_string", align 8
@.str.5 = private unnamed_addr constant [19 x i8] c"Reference meridian\00", align 1
@.str.6 = private unnamed_addr constant [6 x i8] c"Paris\00", align 1
@_ZN5osgeo4proj6common13UnitOfMeasure4GRADE = external global %"class.osgeo::proj::common::UnitOfMeasure", align 8
@_ZN5osgeo4proj2io12WKTConstants6PRIMEMB5cxx11E = external global %"class.std::__cxx11::basic_string", align 8
@.str.7 = private unnamed_addr constant [15 x i8] c"prime_meridian\00", align 1
@.str.8 = private unnamed_addr constant [5 x i8] c"ESRI\00", align 1
@_ZN5osgeo4proj6common13UnitOfMeasure6DEGREEE = external global %"class.osgeo::proj::common::UnitOfMeasure", align 8
@_ZN5osgeo4proj2io12WKTConstants9ANGLEUNITB5cxx11E = external global %"class.std::__cxx11::basic_string", align 8
@.str.9 = private unnamed_addr constant [14 x i8] c"PrimeMeridian\00", align 1
@.str.11 = private unnamed_addr constant [10 x i8] c"longitude\00", align 1
@.str.12 = private unnamed_addr constant [6 x i8] c"value\00", align 1
@.str.14 = private unnamed_addr constant [3 x i8] c"pm\00", align 1
@_ZTVN5osgeo4proj5datum9EllipsoidE = unnamed_addr constant { [9 x ptr], [5 x ptr], [5 x ptr], [5 x ptr], [5 x ptr] } { [9 x ptr] [ptr null, ptr @_ZTIN5osgeo4proj5datum9EllipsoidE, ptr @_ZN5osgeo4proj5datum9EllipsoidD1Ev, ptr @_ZN5osgeo4proj5datum9EllipsoidD0Ev, ptr @_ZNK5osgeo4proj5datum9Ellipsoid15_isEquivalentToEPKNS0_4util11IComparableENS4_9CriterionERKSt10shared_ptrINS0_2io15DatabaseContextEE, ptr @_ZNK5osgeo4proj6common16IdentifiedObject29hasEquivalentNameToUsingAliasEPKS2_RKSt10shared_ptrINS0_2io15DatabaseContextEE, ptr @_ZNK5osgeo4proj5datum9Ellipsoid12_exportToWKTEPNS0_2io12WKTFormatterE, ptr @_ZNK5osgeo4proj5datum9Ellipsoid13_exportToJSONEPNS0_2io13JSONFormatterE, ptr @_ZNK5osgeo4proj5datum9Ellipsoid19_exportToPROJStringEPNS0_2io19PROJStringFormatterE], [5 x ptr] [ptr inttoptr (i64 -16 to ptr), ptr @_ZTIN5osgeo4proj5datum9EllipsoidE, ptr @_ZThn16_N5osgeo4proj5datum9EllipsoidD1Ev, ptr @_ZThn16_N5osgeo4proj5datum9EllipsoidD0Ev, ptr @_ZThn16_NK5osgeo4proj5datum9Ellipsoid15_isEquivalentToEPKNS0_4util11IComparableENS4_9CriterionERKSt10shared_ptrINS0_2io15DatabaseContextEE], [5 x ptr] [ptr inttoptr (i64 -24 to ptr), ptr @_ZTIN5osgeo4proj5datum9EllipsoidE, ptr @_ZThn24_N5osgeo4proj5datum9EllipsoidD1Ev, ptr @_ZThn24_N5osgeo4proj5datum9EllipsoidD0Ev, ptr @_ZThn24_NK5osgeo4proj5datum9Ellipsoid12_exportToWKTEPNS0_2io12WKTFormatterE], [5 x ptr] [ptr inttoptr (i64 -40 to ptr), ptr @_ZTIN5osgeo4proj5datum9EllipsoidE, ptr @_ZThn40_N5osgeo4proj5datum9EllipsoidD1Ev, ptr @_ZThn40_N5osgeo4proj5datum9EllipsoidD0Ev, ptr @_ZThn40_NK5osgeo4proj5datum9Ellipsoid19_exportToPROJStringEPNS0_2io19PROJStringFormatterE], [5 x ptr] [ptr inttoptr (i64 -48 to ptr), ptr @_ZTIN5osgeo4proj5datum9EllipsoidE, ptr @_ZThn48_N5osgeo4proj5datum9EllipsoidD1Ev, ptr @_ZThn48_N5osgeo4proj5datum9EllipsoidD0Ev, ptr @_ZThn48_NK5osgeo4proj5datum9Ellipsoid13_exportToJSONEPNS0_2io13JSONFormatterE] }, align 8
@.str.15 = private unnamed_addr constant [12 x i8] c"Clarke 1866\00", align 1
@_ZN5osgeo4proj5datum9Ellipsoid5EARTHB5cxx11E = external global %"class.std::__cxx11::basic_string", align 8
@.str.16 = private unnamed_addr constant [7 x i8] c"WGS 84\00", align 1
@.str.17 = private unnamed_addr constant [9 x i8] c"GRS 1980\00", align 1
@_ZN5osgeo4proj2io12WKTConstants9ELLIPSOIDB5cxx11E = external global %"class.std::__cxx11::basic_string", align 8
@_ZN5osgeo4proj2io12WKTConstants8SPHEROIDB5cxx11E = external global %"class.std::__cxx11::basic_string", align 8
@.str.18 = private unnamed_addr constant [8 x i8] c"unnamed\00", align 1
@.str.19 = private unnamed_addr constant [9 x i8] c"WGS_1984\00", align 1
@.str.20 = private unnamed_addr constant [10 x i8] c"ellipsoid\00", align 1
@_ZN5osgeo4proj6common13UnitOfMeasure5METREE = external global %"class.osgeo::proj::common::UnitOfMeasure", align 8
@_ZN5osgeo4proj2io12WKTConstants10LENGTHUNITB5cxx11E = external global %"class.std::__cxx11::basic_string", align 8
@.str.21 = private unnamed_addr constant [10 x i8] c"Ellipsoid\00", align 1
@.str.22 = private unnamed_addr constant [7 x i8] c"radius\00", align 1
@.str.23 = private unnamed_addr constant [16 x i8] c"semi_major_axis\00", align 1
@.str.24 = private unnamed_addr constant [19 x i8] c"inverse_flattening\00", align 1
@.str.25 = private unnamed_addr constant [16 x i8] c"semi_minor_axis\00", align 1
@.str.27 = private unnamed_addr constant [6 x i8] c"ellps\00", align 1
@.str.28 = private unnamed_addr constant [2 x i8] c"R\00", align 1
@.str.29 = private unnamed_addr constant [2 x i8] c"a\00", align 1
@.str.30 = private unnamed_addr constant [3 x i8] c"rf\00", align 1
@.str.31 = private unnamed_addr constant [2 x i8] c"b\00", align 1
@.str.32 = private unnamed_addr constant [8 x i8] c"unknown\00", align 1
@.str.33 = private unnamed_addr constant [17 x i8] c"Clarke 1880 mod.\00", align 1
@_ZTISt9exception = external constant ptr
@.str.34 = private unnamed_addr constant [15 x i8] c"Non-Earth body\00", align 1
@_ZTVN5osgeo4proj5datum22GeodeticReferenceFrameE = unnamed_addr constant { [8 x ptr], [5 x ptr], [5 x ptr], [5 x ptr] } { [8 x ptr] [ptr null, ptr @_ZTIN5osgeo4proj5datum22GeodeticReferenceFrameE, ptr @_ZN5osgeo4proj5datum22GeodeticReferenceFrameD1Ev, ptr @_ZN5osgeo4proj5datum22GeodeticReferenceFrameD0Ev, ptr @_ZNK5osgeo4proj5datum22GeodeticReferenceFrame15_isEquivalentToEPKNS0_4util11IComparableENS4_9CriterionERKSt10shared_ptrINS0_2io15DatabaseContextEE, ptr @_ZNK5osgeo4proj5datum22GeodeticReferenceFrame29hasEquivalentNameToUsingAliasEPKNS0_6common16IdentifiedObjectERKSt10shared_ptrINS0_2io15DatabaseContextEE, ptr @_ZNK5osgeo4proj5datum22GeodeticReferenceFrame12_exportToWKTEPNS0_2io12WKTFormatterE, ptr @_ZNK5osgeo4proj5datum22GeodeticReferenceFrame13_exportToJSONEPNS0_2io13JSONFormatterE], [5 x ptr] [ptr inttoptr (i64 -16 to ptr), ptr @_ZTIN5osgeo4proj5datum22GeodeticReferenceFrameE, ptr @_ZThn16_N5osgeo4proj5datum22GeodeticReferenceFrameD1Ev, ptr @_ZThn16_N5osgeo4proj5datum22GeodeticReferenceFrameD0Ev, ptr @_ZThn16_NK5osgeo4proj5datum22GeodeticReferenceFrame15_isEquivalentToEPKNS0_4util11IComparableENS4_9CriterionERKSt10shared_ptrINS0_2io15DatabaseContextEE], [5 x ptr] [ptr inttoptr (i64 -24 to ptr), ptr @_ZTIN5osgeo4proj5datum22GeodeticReferenceFrameE, ptr @_ZThn24_N5osgeo4proj5datum22GeodeticReferenceFrameD1Ev, ptr @_ZThn24_N5osgeo4proj5datum22GeodeticReferenceFrameD0Ev, ptr @_ZThn24_NK5osgeo4proj5datum22GeodeticReferenceFrame12_exportToWKTEPNS0_2io12WKTFormatterE], [5 x ptr] [ptr inttoptr (i64 -48 to ptr), ptr @_ZTIN5osgeo4proj5datum22GeodeticReferenceFrameE, ptr @_ZThn48_N5osgeo4proj5datum22GeodeticReferenceFrameD1Ev, ptr @_ZThn48_N5osgeo4proj5datum22GeodeticReferenceFrameD0Ev, ptr @_ZThn48_NK5osgeo4proj5datum22GeodeticReferenceFrame13_exportToJSONEPNS0_2io13JSONFormatterE] }, align 8
@.str.35 = private unnamed_addr constant [26 x i8] c"North American Datum 1927\00", align 1
@_ZN5osgeo4proj5datum9Ellipsoid11CLARKE_1866E = external global %"class.dropbox::oxygen::nn.164", align 8
@_ZN5osgeo4proj5datum13PrimeMeridian9GREENWICHE = external global %"class.dropbox::oxygen::nn", align 8
@.str.36 = private unnamed_addr constant [26 x i8] c"North American Datum 1983\00", align 1
@_ZN5osgeo4proj5datum9Ellipsoid7GRS1980E = external global %"class.dropbox::oxygen::nn.164", align 8
@.str.37 = private unnamed_addr constant [27 x i8] c"World Geodetic System 1984\00", align 1
@_ZN5osgeo4proj5datum9Ellipsoid5WGS84E = external global %"class.dropbox::oxygen::nn.164", align 8
@_ZN5osgeo4proj2io12WKTConstants5DATUMB5cxx11E = external global %"class.std::__cxx11::basic_string", align 8
@.str.38 = private unnamed_addr constant [11 x i8] c"D_WGS_1984\00", align 1
@.str.39 = private unnamed_addr constant [15 x i8] c"geodetic_datum\00", align 1
@.str.40 = private unnamed_addr constant [3 x i8] c" (\00", align 1
@.str.41 = private unnamed_addr constant [9 x i8] c"EPSG_OLD\00", align 1
@.str.42 = private unnamed_addr constant [43 x i8] c"European Terrestrial Reference System 1989\00", align 1
@.str.43 = private unnamed_addr constant [10 x i8] c" ensemble\00", align 1
@.str.44 = private unnamed_addr constant [5 x i8] c"EPSG\00", align 1
@.str.45 = private unnamed_addr constant [3 x i8] c"D_\00", align 1
@.str.46 = private unnamed_addr constant [27 x i8] c"World_Geodetic_System_1984\00", align 1
@_ZN5osgeo4proj2io12WKTConstants7TOWGS84B5cxx11E = external global %"class.std::__cxx11::basic_string", align 8
@_ZN5osgeo4proj2io12WKTConstants9EXTENSIONB5cxx11E = external global %"class.std::__cxx11::basic_string", align 8
@.str.47 = private unnamed_addr constant [12 x i8] c"PROJ4_GRIDS\00", align 1
@_ZTVN5osgeo4proj5datum29DynamicGeodeticReferenceFrameE = unnamed_addr constant { [8 x ptr], [5 x ptr], [5 x ptr], [5 x ptr] } { [8 x ptr] [ptr null, ptr @_ZTIN5osgeo4proj5datum29DynamicGeodeticReferenceFrameE, ptr @_ZN5osgeo4proj5datum29DynamicGeodeticReferenceFrameD1Ev, ptr @_ZN5osgeo4proj5datum29DynamicGeodeticReferenceFrameD0Ev, ptr @_ZNK5osgeo4proj5datum29DynamicGeodeticReferenceFrame15_isEquivalentToEPKNS0_4util11IComparableENS4_9CriterionERKSt10shared_ptrINS0_2io15DatabaseContextEE, ptr @_ZNK5osgeo4proj5datum22GeodeticReferenceFrame29hasEquivalentNameToUsingAliasEPKNS0_6common16IdentifiedObjectERKSt10shared_ptrINS0_2io15DatabaseContextEE, ptr @_ZNK5osgeo4proj5datum29DynamicGeodeticReferenceFrame12_exportToWKTEPNS0_2io12WKTFormatterE, ptr @_ZNK5osgeo4proj5datum22GeodeticReferenceFrame13_exportToJSONEPNS0_2io13JSONFormatterE], [5 x ptr] [ptr inttoptr (i64 -16 to ptr), ptr @_ZTIN5osgeo4proj5datum29DynamicGeodeticReferenceFrameE, ptr @_ZThn16_N5osgeo4proj5datum29DynamicGeodeticReferenceFrameD1Ev, ptr @_ZThn16_N5osgeo4proj5datum29DynamicGeodeticReferenceFrameD0Ev, ptr @_ZThn16_NK5osgeo4proj5datum29DynamicGeodeticReferenceFrame15_isEquivalentToEPKNS0_4util11IComparableENS4_9CriterionERKSt10shared_ptrINS0_2io15DatabaseContextEE], [5 x ptr] [ptr inttoptr (i64 -24 to ptr), ptr @_ZTIN5osgeo4proj5datum29DynamicGeodeticReferenceFrameE, ptr @_ZThn24_N5osgeo4proj5datum29DynamicGeodeticReferenceFrameD1Ev, ptr @_ZThn24_N5osgeo4proj5datum29DynamicGeodeticReferenceFrameD0Ev, ptr @_ZThn24_NK5osgeo4proj5datum29DynamicGeodeticReferenceFrame12_exportToWKTEPNS0_2io12WKTFormatterE], [5 x ptr] [ptr inttoptr (i64 -48 to ptr), ptr @_ZTIN5osgeo4proj5datum29DynamicGeodeticReferenceFrameE, ptr @_ZThn48_N5osgeo4proj5datum29DynamicGeodeticReferenceFrameD1Ev, ptr @_ZThn48_N5osgeo4proj5datum29DynamicGeodeticReferenceFrameD0Ev, ptr @_ZThn48_NK5osgeo4proj5datum22GeodeticReferenceFrame13_exportToJSONEPNS0_2io13JSONFormatterE] }, align 8
@.str.48 = private unnamed_addr constant [30 x i8] c"DynamicGeodeticReferenceFrame\00", align 1
@.str.49 = private unnamed_addr constant [23 x i8] c"GeodeticReferenceFrame\00", align 1
@.str.50 = private unnamed_addr constant [22 x i8] c"frame_reference_epoch\00", align 1
@_ZTIN5osgeo4proj5datum22GeodeticReferenceFrameE = constant { ptr, ptr, ptr } { ptr getelementptr inbounds (ptr, ptr @_ZTVN10__cxxabiv120__si_class_type_infoE, i64 2), ptr @_ZTSN5osgeo4proj5datum22GeodeticReferenceFrameE, ptr @_ZTIN5osgeo4proj5datum5DatumE }, align 8
@_ZTVN10__cxxabiv120__si_class_type_infoE = external global [0 x ptr]
@_ZTSN5osgeo4proj5datum22GeodeticReferenceFrameE = constant [44 x i8] c"N5osgeo4proj5datum22GeodeticReferenceFrameE\00", align 1
@_ZN5osgeo4proj2io12WKTConstants7DYNAMICB5cxx11E = external global %"class.std::__cxx11::basic_string", align 8
@_ZN5osgeo4proj2io12WKTConstants10FRAMEEPOCHB5cxx11E = external global %"class.std::__cxx11::basic_string", align 8
@_ZN5osgeo4proj2io12WKTConstants5MODELB5cxx11E = external global %"class.std::__cxx11::basic_string", align 8
@_ZTVN5osgeo4proj5datum13DatumEnsembleE = unnamed_addr constant { [8 x ptr], [5 x ptr], [5 x ptr], [5 x ptr] } { [8 x ptr] [ptr null, ptr @_ZTIN5osgeo4proj5datum13DatumEnsembleE, ptr @_ZN5osgeo4proj5datum13DatumEnsembleD1Ev, ptr @_ZN5osgeo4proj5datum13DatumEnsembleD0Ev, ptr @_ZNK5osgeo4proj6common11ObjectUsage15_isEquivalentToEPKNS0_4util11IComparableENS4_9CriterionERKSt10shared_ptrINS0_2io15DatabaseContextEE, ptr @_ZNK5osgeo4proj6common16IdentifiedObject29hasEquivalentNameToUsingAliasEPKS2_RKSt10shared_ptrINS0_2io15DatabaseContextEE, ptr @_ZNK5osgeo4proj5datum13DatumEnsemble12_exportToWKTEPNS0_2io12WKTFormatterE, ptr @_ZNK5osgeo4proj5datum13DatumEnsemble13_exportToJSONEPNS0_2io13JSONFormatterE], [5 x ptr] [ptr inttoptr (i64 -16 to ptr), ptr @_ZTIN5osgeo4proj5datum13DatumEnsembleE, ptr @_ZThn16_N5osgeo4proj5datum13DatumEnsembleD1Ev, ptr @_ZThn16_N5osgeo4proj5datum13DatumEnsembleD0Ev, ptr @_ZThn16_NK5osgeo4proj6common11ObjectUsage15_isEquivalentToEPKNS0_4util11IComparableENS4_9CriterionERKSt10shared_ptrINS0_2io15DatabaseContextEE], [5 x ptr] [ptr inttoptr (i64 -24 to ptr), ptr @_ZTIN5osgeo4proj5datum13DatumEnsembleE, ptr @_ZThn24_N5osgeo4proj5datum13DatumEnsembleD1Ev, ptr @_ZThn24_N5osgeo4proj5datum13DatumEnsembleD0Ev, ptr @_ZThn24_NK5osgeo4proj5datum13DatumEnsemble12_exportToWKTEPNS0_2io12WKTFormatterE], [5 x ptr] [ptr inttoptr (i64 -48 to ptr), ptr @_ZTIN5osgeo4proj5datum13DatumEnsembleE, ptr @_ZThn48_N5osgeo4proj5datum13DatumEnsembleD1Ev, ptr @_ZThn48_N5osgeo4proj5datum13DatumEnsembleD0Ev, ptr @_ZThn48_NK5osgeo4proj5datum13DatumEnsemble13_exportToJSONEPNS0_2io13JSONFormatterE] }, align 8
@.str.51 = private unnamed_addr constant [36 x i8] c"World Geodetic System 1984 ensemble\00", align 1
@.str.52 = private unnamed_addr constant [52 x i8] c"European Terrestrial Reference System 1989 ensemble\00", align 1
@.str.53 = private unnamed_addr constant [34 x i8] c"Greenland Reference 1996 ensemble\00", align 1
@.str.54 = private unnamed_addr constant [15 x i8] c"Greenland 1996\00", align 1
@_ZN5osgeo4proj6common16IdentifiedObject14DEPRECATED_KEYB5cxx11E = external global %"class.std::__cxx11::basic_string", align 8
@_ZN5osgeo4proj8metadata10Identifier13CODESPACE_KEYB5cxx11E = external global %"class.std::__cxx11::basic_string", align 8
@_ZN5osgeo4proj8metadata10Identifier8CODE_KEYB5cxx11E = external global %"class.std::__cxx11::basic_string", align 8
@_ZN5osgeo4proj6common11ObjectUsage17OBJECT_DOMAIN_KEYB5cxx11E = external global %"class.std::__cxx11::basic_string", align 8
@_ZN5osgeo4proj2io12WKTConstants8ENSEMBLEB5cxx11E = external global %"class.std::__cxx11::basic_string", align 8
@_ZN5osgeo4proj2io12WKTConstants6MEMBERB5cxx11E = external global %"class.std::__cxx11::basic_string", align 8
@_ZN5osgeo4proj2io12WKTConstants16ENSEMBLEACCURACYB5cxx11E = external global %"class.std::__cxx11::basic_string", align 8
@.str.55 = private unnamed_addr constant [14 x i8] c"DatumEnsemble\00", align 1
@.str.56 = private unnamed_addr constant [8 x i8] c"members\00", align 1
@.str.58 = private unnamed_addr constant [39 x i8] c"ensemble should have at least 2 datums\00", align 1
@_ZTIN5osgeo4proj4util9ExceptionE = external constant ptr
@.str.59 = private unnamed_addr constant [44 x i8] c"ensemble should have consistent datum types\00", align 1
@.str.60 = private unnamed_addr constant [53 x i8] c"ensemble should have datums with identical ellipsoid\00", align 1
@.str.61 = private unnamed_addr constant [58 x i8] c"ensemble should have datums with identical prime meridian\00", align 1
@_ZTIN5osgeo4proj5datum22VerticalReferenceFrameE = constant { ptr, ptr, ptr } { ptr getelementptr inbounds (ptr, ptr @_ZTVN10__cxxabiv120__si_class_type_infoE, i64 2), ptr @_ZTSN5osgeo4proj5datum22VerticalReferenceFrameE, ptr @_ZTIN5osgeo4proj5datum5DatumE }, align 8
@_ZTSN5osgeo4proj5datum22VerticalReferenceFrameE = constant [44 x i8] c"N5osgeo4proj5datum22VerticalReferenceFrameE\00", align 1
@_ZTVN5osgeo4proj5datum22VerticalReferenceFrameE = unnamed_addr constant { [8 x ptr], [5 x ptr], [5 x ptr], [5 x ptr] } { [8 x ptr] [ptr null, ptr @_ZTIN5osgeo4proj5datum22VerticalReferenceFrameE, ptr @_ZN5osgeo4proj5datum22VerticalReferenceFrameD1Ev, ptr @_ZN5osgeo4proj5datum22VerticalReferenceFrameD0Ev, ptr @_ZNK5osgeo4proj5datum22VerticalReferenceFrame15_isEquivalentToEPKNS0_4util11IComparableENS4_9CriterionERKSt10shared_ptrINS0_2io15DatabaseContextEE, ptr @_ZNK5osgeo4proj6common16IdentifiedObject29hasEquivalentNameToUsingAliasEPKS2_RKSt10shared_ptrINS0_2io15DatabaseContextEE, ptr @_ZNK5osgeo4proj5datum22VerticalReferenceFrame12_exportToWKTEPNS0_2io12WKTFormatterE, ptr @_ZNK5osgeo4proj5datum22VerticalReferenceFrame13_exportToJSONEPNS0_2io13JSONFormatterE], [5 x ptr] [ptr inttoptr (i64 -16 to ptr), ptr @_ZTIN5osgeo4proj5datum22VerticalReferenceFrameE, ptr @_ZThn16_N5osgeo4proj5datum22VerticalReferenceFrameD1Ev, ptr @_ZThn16_N5osgeo4proj5datum22VerticalReferenceFrameD0Ev, ptr @_ZThn16_NK5osgeo4proj5datum22VerticalReferenceFrame15_isEquivalentToEPKNS0_4util11IComparableENS4_9CriterionERKSt10shared_ptrINS0_2io15DatabaseContextEE], [5 x ptr] [ptr inttoptr (i64 -24 to ptr), ptr @_ZTIN5osgeo4proj5datum22VerticalReferenceFrameE, ptr @_ZThn24_N5osgeo4proj5datum22VerticalReferenceFrameD1Ev, ptr @_ZThn24_N5osgeo4proj5datum22VerticalReferenceFrameD0Ev, ptr @_ZThn24_NK5osgeo4proj5datum22VerticalReferenceFrame12_exportToWKTEPNS0_2io12WKTFormatterE], [5 x ptr] [ptr inttoptr (i64 -48 to ptr), ptr @_ZTIN5osgeo4proj5datum22VerticalReferenceFrameE, ptr @_ZThn48_N5osgeo4proj5datum22VerticalReferenceFrameD1Ev, ptr @_ZThn48_N5osgeo4proj5datum22VerticalReferenceFrameD0Ev, ptr @_ZThn48_NK5osgeo4proj5datum22VerticalReferenceFrame13_exportToJSONEPNS0_2io13JSONFormatterE] }, align 8
@.str.62 = private unnamed_addr constant [16 x i8] c"VERT_DATUM_TYPE\00", align 1
@_ZN5osgeo4proj2io12WKTConstants6VDATUMB5cxx11E = external global %"class.std::__cxx11::basic_string", align 8
@_ZN5osgeo4proj2io12WKTConstants10VERT_DATUMB5cxx11E = external global %"class.std::__cxx11::basic_string", align 8
@.str.63 = private unnamed_addr constant [15 x i8] c"vertical_datum\00", align 1
@_ZTVN5osgeo4proj5datum29DynamicVerticalReferenceFrameE = unnamed_addr constant { [8 x ptr], [5 x ptr], [5 x ptr], [5 x ptr] } { [8 x ptr] [ptr null, ptr @_ZTIN5osgeo4proj5datum29DynamicVerticalReferenceFrameE, ptr @_ZN5osgeo4proj5datum29DynamicVerticalReferenceFrameD1Ev, ptr @_ZN5osgeo4proj5datum29DynamicVerticalReferenceFrameD0Ev, ptr @_ZNK5osgeo4proj5datum29DynamicVerticalReferenceFrame15_isEquivalentToEPKNS0_4util11IComparableENS4_9CriterionERKSt10shared_ptrINS0_2io15DatabaseContextEE, ptr @_ZNK5osgeo4proj6common16IdentifiedObject29hasEquivalentNameToUsingAliasEPKS2_RKSt10shared_ptrINS0_2io15DatabaseContextEE, ptr @_ZNK5osgeo4proj5datum29DynamicVerticalReferenceFrame12_exportToWKTEPNS0_2io12WKTFormatterE, ptr @_ZNK5osgeo4proj5datum22VerticalReferenceFrame13_exportToJSONEPNS0_2io13JSONFormatterE], [5 x ptr] [ptr inttoptr (i64 -16 to ptr), ptr @_ZTIN5osgeo4proj5datum29DynamicVerticalReferenceFrameE, ptr @_ZThn16_N5osgeo4proj5datum29DynamicVerticalReferenceFrameD1Ev, ptr @_ZThn16_N5osgeo4proj5datum29DynamicVerticalReferenceFrameD0Ev, ptr @_ZThn16_NK5osgeo4proj5datum29DynamicVerticalReferenceFrame15_isEquivalentToEPKNS0_4util11IComparableENS4_9CriterionERKSt10shared_ptrINS0_2io15DatabaseContextEE], [5 x ptr] [ptr inttoptr (i64 -24 to ptr), ptr @_ZTIN5osgeo4proj5datum29DynamicVerticalReferenceFrameE, ptr @_ZThn24_N5osgeo4proj5datum29DynamicVerticalReferenceFrameD1Ev, ptr @_ZThn24_N5osgeo4proj5datum29DynamicVerticalReferenceFrameD0Ev, ptr @_ZThn24_NK5osgeo4proj5datum29DynamicVerticalReferenceFrame12_exportToWKTEPNS0_2io12WKTFormatterE], [5 x ptr] [ptr inttoptr (i64 -48 to ptr), ptr @_ZTIN5osgeo4proj5datum29DynamicVerticalReferenceFrameE, ptr @_ZThn48_N5osgeo4proj5datum29DynamicVerticalReferenceFrameD1Ev, ptr @_ZThn48_N5osgeo4proj5datum29DynamicVerticalReferenceFrameD0Ev, ptr @_ZThn48_NK5osgeo4proj5datum22VerticalReferenceFrame13_exportToJSONEPNS0_2io13JSONFormatterE] }, align 8
@.str.64 = private unnamed_addr constant [30 x i8] c"DynamicVerticalReferenceFrame\00", align 1
@.str.65 = private unnamed_addr constant [23 x i8] c"VerticalReferenceFrame\00", align 1
@_ZTVN5osgeo4proj5datum13TemporalDatumE = unnamed_addr constant { [8 x ptr], [5 x ptr], [5 x ptr], [5 x ptr] } { [8 x ptr] [ptr null, ptr @_ZTIN5osgeo4proj5datum13TemporalDatumE, ptr @_ZN5osgeo4proj5datum13TemporalDatumD1Ev, ptr @_ZN5osgeo4proj5datum13TemporalDatumD0Ev, ptr @_ZNK5osgeo4proj5datum13TemporalDatum15_isEquivalentToEPKNS0_4util11IComparableENS4_9CriterionERKSt10shared_ptrINS0_2io15DatabaseContextEE, ptr @_ZNK5osgeo4proj6common16IdentifiedObject29hasEquivalentNameToUsingAliasEPKS2_RKSt10shared_ptrINS0_2io15DatabaseContextEE, ptr @_ZNK5osgeo4proj5datum13TemporalDatum12_exportToWKTEPNS0_2io12WKTFormatterE, ptr @_ZNK5osgeo4proj5datum13TemporalDatum13_exportToJSONEPNS0_2io13JSONFormatterE], [5 x ptr] [ptr inttoptr (i64 -16 to ptr), ptr @_ZTIN5osgeo4proj5datum13TemporalDatumE, ptr @_ZThn16_N5osgeo4proj5datum13TemporalDatumD1Ev, ptr @_ZThn16_N5osgeo4proj5datum13TemporalDatumD0Ev, ptr @_ZThn16_NK5osgeo4proj5datum13TemporalDatum15_isEquivalentToEPKNS0_4util11IComparableENS4_9CriterionERKSt10shared_ptrINS0_2io15DatabaseContextEE], [5 x ptr] [ptr inttoptr (i64 -24 to ptr), ptr @_ZTIN5osgeo4proj5datum13TemporalDatumE, ptr @_ZThn24_N5osgeo4proj5datum13TemporalDatumD1Ev, ptr @_ZThn24_N5osgeo4proj5datum13TemporalDatumD0Ev, ptr @_ZThn24_NK5osgeo4proj5datum13TemporalDatum12_exportToWKTEPNS0_2io12WKTFormatterE], [5 x ptr] [ptr inttoptr (i64 -48 to ptr), ptr @_ZTIN5osgeo4proj5datum13TemporalDatumE, ptr @_ZThn48_N5osgeo4proj5datum13TemporalDatumD1Ev, ptr @_ZThn48_N5osgeo4proj5datum13TemporalDatumD0Ev, ptr @_ZThn48_NK5osgeo4proj5datum13TemporalDatum13_exportToJSONEPNS0_2io13JSONFormatterE] }, align 8
@.str.66 = private unnamed_addr constant [43 x i8] c"TemporalDatum can only be exported to WKT2\00", align 1
@_ZTIN5osgeo4proj2io19FormattingExceptionE = external constant ptr
@_ZN5osgeo4proj2io12WKTConstants6TDATUMB5cxx11E = external global %"class.std::__cxx11::basic_string", align 8
@_ZN5osgeo4proj2io12WKTConstants8CALENDARB5cxx11E = external global %"class.std::__cxx11::basic_string", align 8
@_ZN5osgeo4proj2io12WKTConstants10TIMEORIGINB5cxx11E = external global %"class.std::__cxx11::basic_string", align 8
@.str.67 = private unnamed_addr constant [14 x i8] c"TemporalDatum\00", align 1
@.str.69 = private unnamed_addr constant [12 x i8] c"time_origin\00", align 1
@_ZTVN5osgeo4proj5datum16EngineeringDatumE = unnamed_addr constant { [8 x ptr], [5 x ptr], [5 x ptr], [5 x ptr] } { [8 x ptr] [ptr null, ptr @_ZTIN5osgeo4proj5datum16EngineeringDatumE, ptr @_ZN5osgeo4proj5datum16EngineeringDatumD1Ev, ptr @_ZN5osgeo4proj5datum16EngineeringDatumD0Ev, ptr @_ZNK5osgeo4proj5datum16EngineeringDatum15_isEquivalentToEPKNS0_4util11IComparableENS4_9CriterionERKSt10shared_ptrINS0_2io15DatabaseContextEE, ptr @_ZNK5osgeo4proj6common16IdentifiedObject29hasEquivalentNameToUsingAliasEPKS2_RKSt10shared_ptrINS0_2io15DatabaseContextEE, ptr @_ZNK5osgeo4proj5datum16EngineeringDatum12_exportToWKTEPNS0_2io12WKTFormatterE, ptr @_ZNK5osgeo4proj5datum16EngineeringDatum13_exportToJSONEPNS0_2io13JSONFormatterE], [5 x ptr] [ptr inttoptr (i64 -16 to ptr), ptr @_ZTIN5osgeo4proj5datum16EngineeringDatumE, ptr @_ZThn16_N5osgeo4proj5datum16EngineeringDatumD1Ev, ptr @_ZThn16_N5osgeo4proj5datum16EngineeringDatumD0Ev, ptr @_ZThn16_NK5osgeo4proj5datum16EngineeringDatum15_isEquivalentToEPKNS0_4util11IComparableENS4_9CriterionERKSt10shared_ptrINS0_2io15DatabaseContextEE], [5 x ptr] [ptr inttoptr (i64 -24 to ptr), ptr @_ZTIN5osgeo4proj5datum16EngineeringDatumE, ptr @_ZThn24_N5osgeo4proj5datum16EngineeringDatumD1Ev, ptr @_ZThn24_N5osgeo4proj5datum16EngineeringDatumD0Ev, ptr @_ZThn24_NK5osgeo4proj5datum16EngineeringDatum12_exportToWKTEPNS0_2io12WKTFormatterE], [5 x ptr] [ptr inttoptr (i64 -48 to ptr), ptr @_ZTIN5osgeo4proj5datum16EngineeringDatumE, ptr @_ZThn48_N5osgeo4proj5datum16EngineeringDatumD1Ev, ptr @_ZThn48_N5osgeo4proj5datum16EngineeringDatumD0Ev, ptr @_ZThn48_NK5osgeo4proj5datum16EngineeringDatum13_exportToJSONEPNS0_2io13JSONFormatterE] }, align 8
@_ZN5osgeo4proj2io12WKTConstants6EDATUMB5cxx11E = external global %"class.std::__cxx11::basic_string", align 8
@_ZN5osgeo4proj2io12WKTConstants11LOCAL_DATUMB5cxx11E = external global %"class.std::__cxx11::basic_string", align 8
@.str.70 = private unnamed_addr constant [17 x i8] c"EngineeringDatum\00", align 1
@.str.71 = private unnamed_addr constant [26 x i8] c"Unknown engineering datum\00", align 1
@_ZTVN5osgeo4proj5datum15ParametricDatumE = unnamed_addr constant { [8 x ptr], [5 x ptr], [5 x ptr], [5 x ptr] } { [8 x ptr] [ptr null, ptr @_ZTIN5osgeo4proj5datum15ParametricDatumE, ptr @_ZN5osgeo4proj5datum15ParametricDatumD1Ev, ptr @_ZN5osgeo4proj5datum15ParametricDatumD0Ev, ptr @_ZNK5osgeo4proj5datum15ParametricDatum15_isEquivalentToEPKNS0_4util11IComparableENS4_9CriterionERKSt10shared_ptrINS0_2io15DatabaseContextEE, ptr @_ZNK5osgeo4proj6common16IdentifiedObject29hasEquivalentNameToUsingAliasEPKS2_RKSt10shared_ptrINS0_2io15DatabaseContextEE, ptr @_ZNK5osgeo4proj5datum15ParametricDatum12_exportToWKTEPNS0_2io12WKTFormatterE, ptr @_ZNK5osgeo4proj5datum15ParametricDatum13_exportToJSONEPNS0_2io13JSONFormatterE], [5 x ptr] [ptr inttoptr (i64 -16 to ptr), ptr @_ZTIN5osgeo4proj5datum15ParametricDatumE, ptr @_ZThn16_N5osgeo4proj5datum15ParametricDatumD1Ev, ptr @_ZThn16_N5osgeo4proj5datum15ParametricDatumD0Ev, ptr @_ZThn16_NK5osgeo4proj5datum15ParametricDatum15_isEquivalentToEPKNS0_4util11IComparableENS4_9CriterionERKSt10shared_ptrINS0_2io15DatabaseContextEE], [5 x ptr] [ptr inttoptr (i64 -24 to ptr), ptr @_ZTIN5osgeo4proj5datum15ParametricDatumE, ptr @_ZThn24_N5osgeo4proj5datum15ParametricDatumD1Ev, ptr @_ZThn24_N5osgeo4proj5datum15ParametricDatumD0Ev, ptr @_ZThn24_NK5osgeo4proj5datum15ParametricDatum12_exportToWKTEPNS0_2io12WKTFormatterE], [5 x ptr] [ptr inttoptr (i64 -48 to ptr), ptr @_ZTIN5osgeo4proj5datum15ParametricDatumE, ptr @_ZThn48_N5osgeo4proj5datum15ParametricDatumD1Ev, ptr @_ZThn48_N5osgeo4proj5datum15ParametricDatumD0Ev, ptr @_ZThn48_NK5osgeo4proj5datum15ParametricDatum13_exportToJSONEPNS0_2io13JSONFormatterE] }, align 8
@.str.72 = private unnamed_addr constant [45 x i8] c"ParametricDatum can only be exported to WKT2\00", align 1
@_ZN5osgeo4proj2io12WKTConstants6PDATUMB5cxx11E = external global %"class.std::__cxx11::basic_string", align 8
@.str.73 = private unnamed_addr constant [16 x i8] c"ParametricDatum\00", align 1
@_ZTIN5osgeo4proj5datum13PrimeMeridianE = constant { ptr, ptr, i32, i32, ptr, i64, ptr, i64, ptr, i64 } { ptr getelementptr inbounds (ptr, ptr @_ZTVN10__cxxabiv121__vmi_class_type_infoE, i64 2), ptr @_ZTSN5osgeo4proj5datum13PrimeMeridianE, i32 0, i32 3, ptr @_ZTIN5osgeo4proj6common16IdentifiedObjectE, i64 2, ptr @_ZTIN5osgeo4proj2io21IPROJStringExportableE, i64 10242, ptr @_ZTIN5osgeo4proj2io15IJSONExportableE, i64 12290 }, align 8
@_ZTSN5osgeo4proj5datum13PrimeMeridianE = constant [35 x i8] c"N5osgeo4proj5datum13PrimeMeridianE\00", align 1
@_ZTIN5osgeo4proj6common16IdentifiedObjectE = external constant ptr
@_ZTIN5osgeo4proj2io21IPROJStringExportableE = external constant ptr
@_ZTIN5osgeo4proj5datum9EllipsoidE = constant { ptr, ptr, i32, i32, ptr, i64, ptr, i64, ptr, i64 } { ptr getelementptr inbounds (ptr, ptr @_ZTVN10__cxxabiv121__vmi_class_type_infoE, i64 2), ptr @_ZTSN5osgeo4proj5datum9EllipsoidE, i32 0, i32 3, ptr @_ZTIN5osgeo4proj6common16IdentifiedObjectE, i64 2, ptr @_ZTIN5osgeo4proj2io21IPROJStringExportableE, i64 10242, ptr @_ZTIN5osgeo4proj2io15IJSONExportableE, i64 12290 }, align 8
@_ZTSN5osgeo4proj5datum9EllipsoidE = constant [30 x i8] c"N5osgeo4proj5datum9EllipsoidE\00", align 1
@_ZTIN5osgeo4proj5datum29DynamicGeodeticReferenceFrameE = constant { ptr, ptr, ptr } { ptr getelementptr inbounds (ptr, ptr @_ZTVN10__cxxabiv120__si_class_type_infoE, i64 2), ptr @_ZTSN5osgeo4proj5datum29DynamicGeodeticReferenceFrameE, ptr @_ZTIN5osgeo4proj5datum22GeodeticReferenceFrameE }, align 8
@_ZTSN5osgeo4proj5datum29DynamicGeodeticReferenceFrameE = constant [51 x i8] c"N5osgeo4proj5datum29DynamicGeodeticReferenceFrameE\00", align 1
@_ZTIN5osgeo4proj5datum13DatumEnsembleE = constant { ptr, ptr, i32, i32, ptr, i64, ptr, i64 } { ptr getelementptr inbounds (ptr, ptr @_ZTVN10__cxxabiv121__vmi_class_type_infoE, i64 2), ptr @_ZTSN5osgeo4proj5datum13DatumEnsembleE, i32 0, i32 2, ptr @_ZTIN5osgeo4proj6common11ObjectUsageE, i64 2, ptr @_ZTIN5osgeo4proj2io15IJSONExportableE, i64 12290 }, align 8
@_ZTSN5osgeo4proj5datum13DatumEnsembleE = constant [35 x i8] c"N5osgeo4proj5datum13DatumEnsembleE\00", align 1
@_ZTIN5osgeo4proj5datum29DynamicVerticalReferenceFrameE = constant { ptr, ptr, ptr } { ptr getelementptr inbounds (ptr, ptr @_ZTVN10__cxxabiv120__si_class_type_infoE, i64 2), ptr @_ZTSN5osgeo4proj5datum29DynamicVerticalReferenceFrameE, ptr @_ZTIN5osgeo4proj5datum22VerticalReferenceFrameE }, align 8
@_ZTSN5osgeo4proj5datum29DynamicVerticalReferenceFrameE = constant [51 x i8] c"N5osgeo4proj5datum29DynamicVerticalReferenceFrameE\00", align 1
@_ZTIN5osgeo4proj5datum13TemporalDatumE = constant { ptr, ptr, ptr } { ptr getelementptr inbounds (ptr, ptr @_ZTVN10__cxxabiv120__si_class_type_infoE, i64 2), ptr @_ZTSN5osgeo4proj5datum13TemporalDatumE, ptr @_ZTIN5osgeo4proj5datum5DatumE }, align 8
@_ZTSN5osgeo4proj5datum13TemporalDatumE = constant [35 x i8] c"N5osgeo4proj5datum13TemporalDatumE\00", align 1
@_ZTIN5osgeo4proj5datum16EngineeringDatumE = constant { ptr, ptr, ptr } { ptr getelementptr inbounds (ptr, ptr @_ZTVN10__cxxabiv120__si_class_type_infoE, i64 2), ptr @_ZTSN5osgeo4proj5datum16EngineeringDatumE, ptr @_ZTIN5osgeo4proj5datum5DatumE }, align 8
@_ZTSN5osgeo4proj5datum16EngineeringDatumE = constant [38 x i8] c"N5osgeo4proj5datum16EngineeringDatumE\00", align 1
@_ZTIN5osgeo4proj5datum15ParametricDatumE = constant { ptr, ptr, ptr } { ptr getelementptr inbounds (ptr, ptr @_ZTVN10__cxxabiv120__si_class_type_infoE, i64 2), ptr @_ZTSN5osgeo4proj5datum15ParametricDatumE, ptr @_ZTIN5osgeo4proj5datum5DatumE }, align 8
@_ZTSN5osgeo4proj5datum15ParametricDatumE = constant [37 x i8] c"N5osgeo4proj5datum15ParametricDatumE\00", align 1
@__libc_single_threaded = external local_unnamed_addr global i8, align 1
@_ZN5osgeo4proj8metadata10Identifier4EPSGB5cxx11E = external global %"class.std::__cxx11::basic_string", align 8
@.str.74 = private unnamed_addr constant [18 x i8] c"Unknown based on \00", align 1
@.str.75 = private unnamed_addr constant [50 x i8] c"basic_string: construction from null is not valid\00", align 1
@_ZTVSt23_Sp_counted_ptr_inplaceIN5osgeo4proj4util8optionalINS1_6common7MeasureEEESaIvELN9__gnu_cxx12_Lock_policyE2EE = linkonce_odr hidden unnamed_addr constant { [7 x ptr] } { [7 x ptr] [ptr null, ptr @_ZTISt23_Sp_counted_ptr_inplaceIN5osgeo4proj4util8optionalINS1_6common7MeasureEEESaIvELN9__gnu_cxx12_Lock_policyE2EE, ptr @_ZNSt16_Sp_counted_baseILN9__gnu_cxx12_Lock_policyE2EED2Ev, ptr @_ZNSt23_Sp_counted_ptr_inplaceIN5osgeo4proj4util8optionalINS1_6common7MeasureEEESaIvELN9__gnu_cxx12_Lock_policyE2EED0Ev, ptr @_ZNSt23_Sp_counted_ptr_inplaceIN5osgeo4proj4util8optionalINS1_6common7MeasureEEESaIvELN9__gnu_cxx12_Lock_policyE2EE10_M_disposeEv, ptr @_ZNSt23_Sp_counted_ptr_inplaceIN5osgeo4proj4util8optionalINS1_6common7MeasureEEESaIvELN9__gnu_cxx12_Lock_policyE2EE10_M_destroyEv, ptr @_ZNSt23_Sp_counted_ptr_inplaceIN5osgeo4proj4util8optionalINS1_6common7MeasureEEESaIvELN9__gnu_cxx12_Lock_policyE2EE14_M_get_deleterERKSt9type_info] }, comdat, align 8
@_ZTISt23_Sp_counted_ptr_inplaceIN5osgeo4proj4util8optionalINS1_6common7MeasureEEESaIvELN9__gnu_cxx12_Lock_policyE2EE = linkonce_odr hidden constant { ptr, ptr, ptr } { ptr getelementptr inbounds (ptr, ptr @_ZTVN10__cxxabiv120__si_class_type_infoE, i64 2), ptr @_ZTSSt23_Sp_counted_ptr_inplaceIN5osgeo4proj4util8optionalINS1_6common7MeasureEEESaIvELN9__gnu_cxx12_Lock_policyE2EE, ptr @_ZTISt16_Sp_counted_baseILN9__gnu_cxx12_Lock_policyE2EE }, comdat, align 8
@_ZTSSt23_Sp_counted_ptr_inplaceIN5osgeo4proj4util8optionalINS1_6common7MeasureEEESaIvELN9__gnu_cxx12_Lock_policyE2EE = linkonce_odr hidden constant [113 x i8] c"St23_Sp_counted_ptr_inplaceIN5osgeo4proj4util8optionalINS1_6common7MeasureEEESaIvELN9__gnu_cxx12_Lock_policyE2EE\00", comdat, align 1
@_ZTISt16_Sp_counted_baseILN9__gnu_cxx12_Lock_policyE2EE = linkonce_odr constant { ptr, ptr, ptr } { ptr getelementptr inbounds (ptr, ptr @_ZTVN10__cxxabiv120__si_class_type_infoE, i64 2), ptr @_ZTSSt16_Sp_counted_baseILN9__gnu_cxx12_Lock_policyE2EE, ptr @_ZTISt11_Mutex_baseILN9__gnu_cxx12_Lock_policyE2EE }, comdat, align 8
@_ZTSSt16_Sp_counted_baseILN9__gnu_cxx12_Lock_policyE2EE = linkonce_odr constant [52 x i8] c"St16_Sp_counted_baseILN9__gnu_cxx12_Lock_policyE2EE\00", comdat, align 1
@_ZTISt11_Mutex_baseILN9__gnu_cxx12_Lock_policyE2EE = linkonce_odr constant { ptr, ptr } { ptr getelementptr inbounds (ptr, ptr @_ZTVN10__cxxabiv117__class_type_infoE, i64 2), ptr @_ZTSSt11_Mutex_baseILN9__gnu_cxx12_Lock_policyE2EE }, comdat, align 8
@_ZTVN10__cxxabiv117__class_type_infoE = external global [0 x ptr]
@_ZTSSt11_Mutex_baseILN9__gnu_cxx12_Lock_policyE2EE = linkonce_odr constant [47 x i8] c"St11_Mutex_baseILN9__gnu_cxx12_Lock_policyE2EE\00", comdat, align 1
@_ZTSSt19_Sp_make_shared_tag = linkonce_odr constant [24 x i8] c"St19_Sp_make_shared_tag\00", comdat, align 1
@_ZZNSt19_Sp_make_shared_tag5_S_tiEvE5__tag = linkonce_odr constant [16 x i8] zeroinitializer, comdat, align 8
@_ZTVSt15_Sp_counted_ptrIPN5osgeo4proj5datum13PrimeMeridianELN9__gnu_cxx12_Lock_policyE2EE = linkonce_odr unnamed_addr constant { [7 x ptr] } { [7 x ptr] [ptr null, ptr @_ZTISt15_Sp_counted_ptrIPN5osgeo4proj5datum13PrimeMeridianELN9__gnu_cxx12_Lock_policyE2EE, ptr @_ZNSt16_Sp_counted_baseILN9__gnu_cxx12_Lock_policyE2EED2Ev, ptr @_ZNSt15_Sp_counted_ptrIPN5osgeo4proj5datum13PrimeMeridianELN9__gnu_cxx12_Lock_policyE2EED0Ev, ptr @_ZNSt15_Sp_counted_ptrIPN5osgeo4proj5datum13PrimeMeridianELN9__gnu_cxx12_Lock_policyE2EE10_M_disposeEv, ptr @_ZNSt15_Sp_counted_ptrIPN5osgeo4proj5datum13PrimeMeridianELN9__gnu_cxx12_Lock_policyE2EE10_M_destroyEv, ptr @_ZNSt15_Sp_counted_ptrIPN5osgeo4proj5datum13PrimeMeridianELN9__gnu_cxx12_Lock_policyE2EE14_M_get_deleterERKSt9type_info] }, comdat, align 8
@_ZTISt15_Sp_counted_ptrIPN5osgeo4proj5datum13PrimeMeridianELN9__gnu_cxx12_Lock_policyE2EE = linkonce_odr constant { ptr, ptr, ptr } { ptr getelementptr inbounds (ptr, ptr @_ZTVN10__cxxabiv120__si_class_type_infoE, i64 2), ptr @_ZTSSt15_Sp_counted_ptrIPN5osgeo4proj5datum13PrimeMeridianELN9__gnu_cxx12_Lock_policyE2EE, ptr @_ZTISt16_Sp_counted_baseILN9__gnu_cxx12_Lock_policyE2EE }, comdat, align 8
@_ZTSSt15_Sp_counted_ptrIPN5osgeo4proj5datum13PrimeMeridianELN9__gnu_cxx12_Lock_policyE2EE = linkonce_odr constant [86 x i8] c"St15_Sp_counted_ptrIPN5osgeo4proj5datum13PrimeMeridianELN9__gnu_cxx12_Lock_policyE2EE\00", comdat, align 1
@.str.76 = private unnamed_addr constant [49 x i8] c"cannot create std::vector larger than max_size()\00", align 1
@_ZTVSt15_Sp_counted_ptrIPN5osgeo4proj5datum9EllipsoidELN9__gnu_cxx12_Lock_policyE2EE = linkonce_odr unnamed_addr constant { [7 x ptr] } { [7 x ptr] [ptr null, ptr @_ZTISt15_Sp_counted_ptrIPN5osgeo4proj5datum9EllipsoidELN9__gnu_cxx12_Lock_policyE2EE, ptr @_ZNSt16_Sp_counted_baseILN9__gnu_cxx12_Lock_policyE2EED2Ev, ptr @_ZNSt15_Sp_counted_ptrIPN5osgeo4proj5datum9EllipsoidELN9__gnu_cxx12_Lock_policyE2EED0Ev, ptr @_ZNSt15_Sp_counted_ptrIPN5osgeo4proj5datum9EllipsoidELN9__gnu_cxx12_Lock_policyE2EE10_M_disposeEv, ptr @_ZNSt15_Sp_counted_ptrIPN5osgeo4proj5datum9EllipsoidELN9__gnu_cxx12_Lock_policyE2EE10_M_destroyEv, ptr @_ZNSt15_Sp_counted_ptrIPN5osgeo4proj5datum9EllipsoidELN9__gnu_cxx12_Lock_policyE2EE14_M_get_deleterERKSt9type_info] }, comdat, align 8
@_ZTISt15_Sp_counted_ptrIPN5osgeo4proj5datum9EllipsoidELN9__gnu_cxx12_Lock_policyE2EE = linkonce_odr constant { ptr, ptr, ptr } { ptr getelementptr inbounds (ptr, ptr @_ZTVN10__cxxabiv120__si_class_type_infoE, i64 2), ptr @_ZTSSt15_Sp_counted_ptrIPN5osgeo4proj5datum9EllipsoidELN9__gnu_cxx12_Lock_policyE2EE, ptr @_ZTISt16_Sp_counted_baseILN9__gnu_cxx12_Lock_policyE2EE }, comdat, align 8
@_ZTSSt15_Sp_counted_ptrIPN5osgeo4proj5datum9EllipsoidELN9__gnu_cxx12_Lock_policyE2EE = linkonce_odr constant [81 x i8] c"St15_Sp_counted_ptrIPN5osgeo4proj5datum9EllipsoidELN9__gnu_cxx12_Lock_policyE2EE\00", comdat, align 1
@_ZTVSt15_Sp_counted_ptrIPN5osgeo4proj5datum22GeodeticReferenceFrameELN9__gnu_cxx12_Lock_policyE2EE = linkonce_odr unnamed_addr constant { [7 x ptr] } { [7 x ptr] [ptr null, ptr @_ZTISt15_Sp_counted_ptrIPN5osgeo4proj5datum22GeodeticReferenceFrameELN9__gnu_cxx12_Lock_policyE2EE, ptr @_ZNSt16_Sp_counted_baseILN9__gnu_cxx12_Lock_policyE2EED2Ev, ptr @_ZNSt15_Sp_counted_ptrIPN5osgeo4proj5datum22GeodeticReferenceFrameELN9__gnu_cxx12_Lock_policyE2EED0Ev, ptr @_ZNSt15_Sp_counted_ptrIPN5osgeo4proj5datum22GeodeticReferenceFrameELN9__gnu_cxx12_Lock_policyE2EE10_M_disposeEv, ptr @_ZNSt15_Sp_counted_ptrIPN5osgeo4proj5datum22GeodeticReferenceFrameELN9__gnu_cxx12_Lock_policyE2EE10_M_destroyEv, ptr @_ZNSt15_Sp_counted_ptrIPN5osgeo4proj5datum22GeodeticReferenceFrameELN9__gnu_cxx12_Lock_policyE2EE14_M_get_deleterERKSt9type_info] }, comdat, align 8
@_ZTISt15_Sp_counted_ptrIPN5osgeo4proj5datum22GeodeticReferenceFrameELN9__gnu_cxx12_Lock_policyE2EE = linkonce_odr constant { ptr, ptr, ptr } { ptr getelementptr inbounds (ptr, ptr @_ZTVN10__cxxabiv120__si_class_type_infoE, i64 2), ptr @_ZTSSt15_Sp_counted_ptrIPN5osgeo4proj5datum22GeodeticReferenceFrameELN9__gnu_cxx12_Lock_policyE2EE, ptr @_ZTISt16_Sp_counted_baseILN9__gnu_cxx12_Lock_policyE2EE }, comdat, align 8
@_ZTSSt15_Sp_counted_ptrIPN5osgeo4proj5datum22GeodeticReferenceFrameELN9__gnu_cxx12_Lock_policyE2EE = linkonce_odr constant [95 x i8] c"St15_Sp_counted_ptrIPN5osgeo4proj5datum22GeodeticReferenceFrameELN9__gnu_cxx12_Lock_policyE2EE\00", comdat, align 1
@.str.77 = private unnamed_addr constant [21 x i8] c"basic_string::substr\00", align 1
@.str.78 = private unnamed_addr constant [55 x i8] c"%s: __pos (which is %zu) > this->size() (which is %zu)\00", align 1
@.str.80 = private unnamed_addr constant [21 x i8] c"basic_string::append\00", align 1
@_ZTVSt15_Sp_counted_ptrIPN5osgeo4proj5datum29DynamicGeodeticReferenceFrameELN9__gnu_cxx12_Lock_policyE2EE = linkonce_odr unnamed_addr constant { [7 x ptr] } { [7 x ptr] [ptr null, ptr @_ZTISt15_Sp_counted_ptrIPN5osgeo4proj5datum29DynamicGeodeticReferenceFrameELN9__gnu_cxx12_Lock_policyE2EE, ptr @_ZNSt16_Sp_counted_baseILN9__gnu_cxx12_Lock_policyE2EED2Ev, ptr @_ZNSt15_Sp_counted_ptrIPN5osgeo4proj5datum29DynamicGeodeticReferenceFrameELN9__gnu_cxx12_Lock_policyE2EED0Ev, ptr @_ZNSt15_Sp_counted_ptrIPN5osgeo4proj5datum29DynamicGeodeticReferenceFrameELN9__gnu_cxx12_Lock_policyE2EE10_M_disposeEv, ptr @_ZNSt15_Sp_counted_ptrIPN5osgeo4proj5datum29DynamicGeodeticReferenceFrameELN9__gnu_cxx12_Lock_policyE2EE10_M_destroyEv, ptr @_ZNSt15_Sp_counted_ptrIPN5osgeo4proj5datum29DynamicGeodeticReferenceFrameELN9__gnu_cxx12_Lock_policyE2EE14_M_get_deleterERKSt9type_info] }, comdat, align 8
@_ZTISt15_Sp_counted_ptrIPN5osgeo4proj5datum29DynamicGeodeticReferenceFrameELN9__gnu_cxx12_Lock_policyE2EE = linkonce_odr constant { ptr, ptr, ptr } { ptr getelementptr inbounds (ptr, ptr @_ZTVN10__cxxabiv120__si_class_type_infoE, i64 2), ptr @_ZTSSt15_Sp_counted_ptrIPN5osgeo4proj5datum29DynamicGeodeticReferenceFrameELN9__gnu_cxx12_Lock_policyE2EE, ptr @_ZTISt16_Sp_counted_baseILN9__gnu_cxx12_Lock_policyE2EE }, comdat, align 8
@_ZTSSt15_Sp_counted_ptrIPN5osgeo4proj5datum29DynamicGeodeticReferenceFrameELN9__gnu_cxx12_Lock_policyE2EE = linkonce_odr constant [102 x i8] c"St15_Sp_counted_ptrIPN5osgeo4proj5datum29DynamicGeodeticReferenceFrameELN9__gnu_cxx12_Lock_policyE2EE\00", comdat, align 1
@_ZTVSt15_Sp_counted_ptrIPN5osgeo4proj5datum13DatumEnsembleELN9__gnu_cxx12_Lock_policyE2EE = linkonce_odr unnamed_addr constant { [7 x ptr] } { [7 x ptr] [ptr null, ptr @_ZTISt15_Sp_counted_ptrIPN5osgeo4proj5datum13DatumEnsembleELN9__gnu_cxx12_Lock_policyE2EE, ptr @_ZNSt16_Sp_counted_baseILN9__gnu_cxx12_Lock_policyE2EED2Ev, ptr @_ZNSt15_Sp_counted_ptrIPN5osgeo4proj5datum13DatumEnsembleELN9__gnu_cxx12_Lock_policyE2EED0Ev, ptr @_ZNSt15_Sp_counted_ptrIPN5osgeo4proj5datum13DatumEnsembleELN9__gnu_cxx12_Lock_policyE2EE10_M_disposeEv, ptr @_ZNSt15_Sp_counted_ptrIPN5osgeo4proj5datum13DatumEnsembleELN9__gnu_cxx12_Lock_policyE2EE10_M_destroyEv, ptr @_ZNSt15_Sp_counted_ptrIPN5osgeo4proj5datum13DatumEnsembleELN9__gnu_cxx12_Lock_policyE2EE14_M_get_deleterERKSt9type_info] }, comdat, align 8
@_ZTISt15_Sp_counted_ptrIPN5osgeo4proj5datum13DatumEnsembleELN9__gnu_cxx12_Lock_policyE2EE = linkonce_odr constant { ptr, ptr, ptr } { ptr getelementptr inbounds (ptr, ptr @_ZTVN10__cxxabiv120__si_class_type_infoE, i64 2), ptr @_ZTSSt15_Sp_counted_ptrIPN5osgeo4proj5datum13DatumEnsembleELN9__gnu_cxx12_Lock_policyE2EE, ptr @_ZTISt16_Sp_counted_baseILN9__gnu_cxx12_Lock_policyE2EE }, comdat, align 8
@_ZTSSt15_Sp_counted_ptrIPN5osgeo4proj5datum13DatumEnsembleELN9__gnu_cxx12_Lock_policyE2EE = linkonce_odr constant [86 x i8] c"St15_Sp_counted_ptrIPN5osgeo4proj5datum13DatumEnsembleELN9__gnu_cxx12_Lock_policyE2EE\00", comdat, align 1
@_ZTVSt15_Sp_counted_ptrIPN5osgeo4proj5datum22VerticalReferenceFrameELN9__gnu_cxx12_Lock_policyE2EE = linkonce_odr unnamed_addr constant { [7 x ptr] } { [7 x ptr] [ptr null, ptr @_ZTISt15_Sp_counted_ptrIPN5osgeo4proj5datum22VerticalReferenceFrameELN9__gnu_cxx12_Lock_policyE2EE, ptr @_ZNSt16_Sp_counted_baseILN9__gnu_cxx12_Lock_policyE2EED2Ev, ptr @_ZNSt15_Sp_counted_ptrIPN5osgeo4proj5datum22VerticalReferenceFrameELN9__gnu_cxx12_Lock_policyE2EED0Ev, ptr @_ZNSt15_Sp_counted_ptrIPN5osgeo4proj5datum22VerticalReferenceFrameELN9__gnu_cxx12_Lock_policyE2EE10_M_disposeEv, ptr @_ZNSt15_Sp_counted_ptrIPN5osgeo4proj5datum22VerticalReferenceFrameELN9__gnu_cxx12_Lock_policyE2EE10_M_destroyEv, ptr @_ZNSt15_Sp_counted_ptrIPN5osgeo4proj5datum22VerticalReferenceFrameELN9__gnu_cxx12_Lock_policyE2EE14_M_get_deleterERKSt9type_info] }, comdat, align 8
@_ZTISt15_Sp_counted_ptrIPN5osgeo4proj5datum22VerticalReferenceFrameELN9__gnu_cxx12_Lock_policyE2EE = linkonce_odr constant { ptr, ptr, ptr } { ptr getelementptr inbounds (ptr, ptr @_ZTVN10__cxxabiv120__si_class_type_infoE, i64 2), ptr @_ZTSSt15_Sp_counted_ptrIPN5osgeo4proj5datum22VerticalReferenceFrameELN9__gnu_cxx12_Lock_policyE2EE, ptr @_ZTISt16_Sp_counted_baseILN9__gnu_cxx12_Lock_policyE2EE }, comdat, align 8
@_ZTSSt15_Sp_counted_ptrIPN5osgeo4proj5datum22VerticalReferenceFrameELN9__gnu_cxx12_Lock_policyE2EE = linkonce_odr constant [95 x i8] c"St15_Sp_counted_ptrIPN5osgeo4proj5datum22VerticalReferenceFrameELN9__gnu_cxx12_Lock_policyE2EE\00", comdat, align 1
@_ZTVSt15_Sp_counted_ptrIPN5osgeo4proj5datum29DynamicVerticalReferenceFrameELN9__gnu_cxx12_Lock_policyE2EE = linkonce_odr unnamed_addr constant { [7 x ptr] } { [7 x ptr] [ptr null, ptr @_ZTISt15_Sp_counted_ptrIPN5osgeo4proj5datum29DynamicVerticalReferenceFrameELN9__gnu_cxx12_Lock_policyE2EE, ptr @_ZNSt16_Sp_counted_baseILN9__gnu_cxx12_Lock_policyE2EED2Ev, ptr @_ZNSt15_Sp_counted_ptrIPN5osgeo4proj5datum29DynamicVerticalReferenceFrameELN9__gnu_cxx12_Lock_policyE2EED0Ev, ptr @_ZNSt15_Sp_counted_ptrIPN5osgeo4proj5datum29DynamicVerticalReferenceFrameELN9__gnu_cxx12_Lock_policyE2EE10_M_disposeEv, ptr @_ZNSt15_Sp_counted_ptrIPN5osgeo4proj5datum29DynamicVerticalReferenceFrameELN9__gnu_cxx12_Lock_policyE2EE10_M_destroyEv, ptr @_ZNSt15_Sp_counted_ptrIPN5osgeo4proj5datum29DynamicVerticalReferenceFrameELN9__gnu_cxx12_Lock_policyE2EE14_M_get_deleterERKSt9type_info] }, comdat, align 8
@_ZTISt15_Sp_counted_ptrIPN5osgeo4proj5datum29DynamicVerticalReferenceFrameELN9__gnu_cxx12_Lock_policyE2EE = linkonce_odr constant { ptr, ptr, ptr } { ptr getelementptr inbounds (ptr, ptr @_ZTVN10__cxxabiv120__si_class_type_infoE, i64 2), ptr @_ZTSSt15_Sp_counted_ptrIPN5osgeo4proj5datum29DynamicVerticalReferenceFrameELN9__gnu_cxx12_Lock_policyE2EE, ptr @_ZTISt16_Sp_counted_baseILN9__gnu_cxx12_Lock_policyE2EE }, comdat, align 8
@_ZTSSt15_Sp_counted_ptrIPN5osgeo4proj5datum29DynamicVerticalReferenceFrameELN9__gnu_cxx12_Lock_policyE2EE = linkonce_odr constant [102 x i8] c"St15_Sp_counted_ptrIPN5osgeo4proj5datum29DynamicVerticalReferenceFrameELN9__gnu_cxx12_Lock_policyE2EE\00", comdat, align 1
@_ZTVSt15_Sp_counted_ptrIPN5osgeo4proj5datum13TemporalDatumELN9__gnu_cxx12_Lock_policyE2EE = linkonce_odr unnamed_addr constant { [7 x ptr] } { [7 x ptr] [ptr null, ptr @_ZTISt15_Sp_counted_ptrIPN5osgeo4proj5datum13TemporalDatumELN9__gnu_cxx12_Lock_policyE2EE, ptr @_ZNSt16_Sp_counted_baseILN9__gnu_cxx12_Lock_policyE2EED2Ev, ptr @_ZNSt15_Sp_counted_ptrIPN5osgeo4proj5datum13TemporalDatumELN9__gnu_cxx12_Lock_policyE2EED0Ev, ptr @_ZNSt15_Sp_counted_ptrIPN5osgeo4proj5datum13TemporalDatumELN9__gnu_cxx12_Lock_policyE2EE10_M_disposeEv, ptr @_ZNSt15_Sp_counted_ptrIPN5osgeo4proj5datum13TemporalDatumELN9__gnu_cxx12_Lock_policyE2EE10_M_destroyEv, ptr @_ZNSt15_Sp_counted_ptrIPN5osgeo4proj5datum13TemporalDatumELN9__gnu_cxx12_Lock_policyE2EE14_M_get_deleterERKSt9type_info] }, comdat, align 8
@_ZTISt15_Sp_counted_ptrIPN5osgeo4proj5datum13TemporalDatumELN9__gnu_cxx12_Lock_policyE2EE = linkonce_odr constant { ptr, ptr, ptr } { ptr getelementptr inbounds (ptr, ptr @_ZTVN10__cxxabiv120__si_class_type_infoE, i64 2), ptr @_ZTSSt15_Sp_counted_ptrIPN5osgeo4proj5datum13TemporalDatumELN9__gnu_cxx12_Lock_policyE2EE, ptr @_ZTISt16_Sp_counted_baseILN9__gnu_cxx12_Lock_policyE2EE }, comdat, align 8
@_ZTSSt15_Sp_counted_ptrIPN5osgeo4proj5datum13TemporalDatumELN9__gnu_cxx12_Lock_policyE2EE = linkonce_odr constant [86 x i8] c"St15_Sp_counted_ptrIPN5osgeo4proj5datum13TemporalDatumELN9__gnu_cxx12_Lock_policyE2EE\00", comdat, align 1
@_ZTVSt15_Sp_counted_ptrIPN5osgeo4proj5datum16EngineeringDatumELN9__gnu_cxx12_Lock_policyE2EE = linkonce_odr unnamed_addr constant { [7 x ptr] } { [7 x ptr] [ptr null, ptr @_ZTISt15_Sp_counted_ptrIPN5osgeo4proj5datum16EngineeringDatumELN9__gnu_cxx12_Lock_policyE2EE, ptr @_ZNSt16_Sp_counted_baseILN9__gnu_cxx12_Lock_policyE2EED2Ev, ptr @_ZNSt15_Sp_counted_ptrIPN5osgeo4proj5datum16EngineeringDatumELN9__gnu_cxx12_Lock_policyE2EED0Ev, ptr @_ZNSt15_Sp_counted_ptrIPN5osgeo4proj5datum16EngineeringDatumELN9__gnu_cxx12_Lock_policyE2EE10_M_disposeEv, ptr @_ZNSt15_Sp_counted_ptrIPN5osgeo4proj5datum16EngineeringDatumELN9__gnu_cxx12_Lock_policyE2EE10_M_destroyEv, ptr @_ZNSt15_Sp_counted_ptrIPN5osgeo4proj5datum16EngineeringDatumELN9__gnu_cxx12_Lock_policyE2EE14_M_get_deleterERKSt9type_info] }, comdat, align 8
@_ZTISt15_Sp_counted_ptrIPN5osgeo4proj5datum16EngineeringDatumELN9__gnu_cxx12_Lock_policyE2EE = linkonce_odr constant { ptr, ptr, ptr } { ptr getelementptr inbounds (ptr, ptr @_ZTVN10__cxxabiv120__si_class_type_infoE, i64 2), ptr @_ZTSSt15_Sp_counted_ptrIPN5osgeo4proj5datum16EngineeringDatumELN9__gnu_cxx12_Lock_policyE2EE, ptr @_ZTISt16_Sp_counted_baseILN9__gnu_cxx12_Lock_policyE2EE }, comdat, align 8
@_ZTSSt15_Sp_counted_ptrIPN5osgeo4proj5datum16EngineeringDatumELN9__gnu_cxx12_Lock_policyE2EE = linkonce_odr constant [89 x i8] c"St15_Sp_counted_ptrIPN5osgeo4proj5datum16EngineeringDatumELN9__gnu_cxx12_Lock_policyE2EE\00", comdat, align 1
@_ZTVSt15_Sp_counted_ptrIPN5osgeo4proj5datum15ParametricDatumELN9__gnu_cxx12_Lock_policyE2EE = linkonce_odr unnamed_addr constant { [7 x ptr] } { [7 x ptr] [ptr null, ptr @_ZTISt15_Sp_counted_ptrIPN5osgeo4proj5datum15ParametricDatumELN9__gnu_cxx12_Lock_policyE2EE, ptr @_ZNSt16_Sp_counted_baseILN9__gnu_cxx12_Lock_policyE2EED2Ev, ptr @_ZNSt15_Sp_counted_ptrIPN5osgeo4proj5datum15ParametricDatumELN9__gnu_cxx12_Lock_policyE2EED0Ev, ptr @_ZNSt15_Sp_counted_ptrIPN5osgeo4proj5datum15ParametricDatumELN9__gnu_cxx12_Lock_policyE2EE10_M_disposeEv, ptr @_ZNSt15_Sp_counted_ptrIPN5osgeo4proj5datum15ParametricDatumELN9__gnu_cxx12_Lock_policyE2EE10_M_destroyEv, ptr @_ZNSt15_Sp_counted_ptrIPN5osgeo4proj5datum15ParametricDatumELN9__gnu_cxx12_Lock_policyE2EE14_M_get_deleterERKSt9type_info] }, comdat, align 8
@_ZTISt15_Sp_counted_ptrIPN5osgeo4proj5datum15ParametricDatumELN9__gnu_cxx12_Lock_policyE2EE = linkonce_odr constant { ptr, ptr, ptr } { ptr getelementptr inbounds (ptr, ptr @_ZTVN10__cxxabiv120__si_class_type_infoE, i64 2), ptr @_ZTSSt15_Sp_counted_ptrIPN5osgeo4proj5datum15ParametricDatumELN9__gnu_cxx12_Lock_policyE2EE, ptr @_ZTISt16_Sp_counted_baseILN9__gnu_cxx12_Lock_policyE2EE }, comdat, align 8
@_ZTSSt15_Sp_counted_ptrIPN5osgeo4proj5datum15ParametricDatumELN9__gnu_cxx12_Lock_policyE2EE = linkonce_odr constant [88 x i8] c"St15_Sp_counted_ptrIPN5osgeo4proj5datum15ParametricDatumELN9__gnu_cxx12_Lock_policyE2EE\00", comdat, align 1

@_ZN5osgeo4proj5datum5DatumD1Ev = unnamed_addr alias void (ptr), ptr @_ZN5osgeo4proj5datum5DatumD2Ev
@_ZN5osgeo4proj5datum13PrimeMeridianC1ERKNS0_6common5AngleE = hidden unnamed_addr alias void (ptr, ptr), ptr @_ZN5osgeo4proj5datum13PrimeMeridianC2ERKNS0_6common5AngleE
@_ZN5osgeo4proj5datum13PrimeMeridianD1Ev = unnamed_addr alias void (ptr), ptr @_ZN5osgeo4proj5datum13PrimeMeridianD2Ev
@_ZN5osgeo4proj5datum9EllipsoidC1ERKNS0_6common6LengthERKNSt7__cxx1112basic_stringIcSt11char_traitsIcESaIcEEE = hidden unnamed_addr alias void (ptr, ptr, ptr), ptr @_ZN5osgeo4proj5datum9EllipsoidC2ERKNS0_6common6LengthERKNSt7__cxx1112basic_stringIcSt11char_traitsIcESaIcEEE
@_ZN5osgeo4proj5datum9EllipsoidC1ERKNS0_6common6LengthERKNS3_5ScaleERKNSt7__cxx1112basic_stringIcSt11char_traitsIcESaIcEEE = hidden unnamed_addr alias void (ptr, ptr, ptr, ptr), ptr @_ZN5osgeo4proj5datum9EllipsoidC2ERKNS0_6common6LengthERKNS3_5ScaleERKNSt7__cxx1112basic_stringIcSt11char_traitsIcESaIcEEE
@_ZN5osgeo4proj5datum9EllipsoidC1ERKNS0_6common6LengthES6_RKNSt7__cxx1112basic_stringIcSt11char_traitsIcESaIcEEE = hidden unnamed_addr alias void (ptr, ptr, ptr, ptr), ptr @_ZN5osgeo4proj5datum9EllipsoidC2ERKNS0_6common6LengthES6_RKNSt7__cxx1112basic_stringIcSt11char_traitsIcESaIcEEE
@_ZN5osgeo4proj5datum9EllipsoidD1Ev = unnamed_addr alias void (ptr), ptr @_ZN5osgeo4proj5datum9EllipsoidD2Ev
@_ZN5osgeo4proj5datum9EllipsoidC1ERKS2_ = hidden unnamed_addr alias void (ptr, ptr), ptr @_ZN5osgeo4proj5datum9EllipsoidC2ERKS2_
@_ZN5osgeo4proj5datum22GeodeticReferenceFrameC1ERKN7dropbox6oxygen2nnISt10shared_ptrINS1_9EllipsoidEEEERKNS5_IS6_INS1_13PrimeMeridianEEEE = hidden unnamed_addr alias void (ptr, ptr, ptr), ptr @_ZN5osgeo4proj5datum22GeodeticReferenceFrameC2ERKN7dropbox6oxygen2nnISt10shared_ptrINS1_9EllipsoidEEEERKNS5_IS6_INS1_13PrimeMeridianEEEE
@_ZN5osgeo4proj5datum22GeodeticReferenceFrameD1Ev = unnamed_addr alias void (ptr), ptr @_ZN5osgeo4proj5datum22GeodeticReferenceFrameD2Ev
@_ZN5osgeo4proj5datum29DynamicGeodeticReferenceFrameC1ERKN7dropbox6oxygen2nnISt10shared_ptrINS1_9EllipsoidEEEERKNS5_IS6_INS1_13PrimeMeridianEEEERKNS0_6common7MeasureERKNS0_4util8optionalINSt7__cxx1112basic_stringIcSt11char_traitsIcESaIcEEEEE = hidden unnamed_addr alias void (ptr, ptr, ptr, ptr, ptr), ptr @_ZN5osgeo4proj5datum29DynamicGeodeticReferenceFrameC2ERKN7dropbox6oxygen2nnISt10shared_ptrINS1_9EllipsoidEEEERKNS5_IS6_INS1_13PrimeMeridianEEEERKNS0_6common7MeasureERKNS0_4util8optionalINSt7__cxx1112basic_stringIcSt11char_traitsIcESaIcEEEEE
@_ZN5osgeo4proj5datum29DynamicGeodeticReferenceFrameD1Ev = unnamed_addr alias void (ptr), ptr @_ZN5osgeo4proj5datum29DynamicGeodeticReferenceFrameD2Ev
@_ZN5osgeo4proj5datum13DatumEnsembleC1ERKSt6vectorIN7dropbox6oxygen2nnISt10shared_ptrINS1_5DatumEEEESaISA_EERKNS6_IS7_INS0_8metadata18PositionalAccuracyEEEE = hidden unnamed_addr alias void (ptr, ptr, ptr), ptr @_ZN5osgeo4proj5datum13DatumEnsembleC2ERKSt6vectorIN7dropbox6oxygen2nnISt10shared_ptrINS1_5DatumEEEESaISA_EERKNS6_IS7_INS0_8metadata18PositionalAccuracyEEEE
@_ZN5osgeo4proj5datum13DatumEnsembleD1Ev = unnamed_addr alias void (ptr), ptr @_ZN5osgeo4proj5datum13DatumEnsembleD2Ev
@_ZN5osgeo4proj5datum17RealizationMethodC1ERKNSt7__cxx1112basic_stringIcSt11char_traitsIcESaIcEEE = unnamed_addr alias void (ptr, ptr), ptr @_ZN5osgeo4proj5datum17RealizationMethodC2ERKNSt7__cxx1112basic_stringIcSt11char_traitsIcESaIcEEE
@_ZN5osgeo4proj5datum22VerticalReferenceFrameC1ERKNS0_4util8optionalINS1_17RealizationMethodEEE = hidden unnamed_addr alias void (ptr, ptr), ptr @_ZN5osgeo4proj5datum22VerticalReferenceFrameC2ERKNS0_4util8optionalINS1_17RealizationMethodEEE
@_ZN5osgeo4proj5datum22VerticalReferenceFrameD1Ev = unnamed_addr alias void (ptr), ptr @_ZN5osgeo4proj5datum22VerticalReferenceFrameD2Ev
@_ZN5osgeo4proj5datum29DynamicVerticalReferenceFrameC1ERKNS0_4util8optionalINS1_17RealizationMethodEEERKNS0_6common7MeasureERKNS4_INSt7__cxx1112basic_stringIcSt11char_traitsIcESaIcEEEEE = hidden unnamed_addr alias void (ptr, ptr, ptr, ptr), ptr @_ZN5osgeo4proj5datum29DynamicVerticalReferenceFrameC2ERKNS0_4util8optionalINS1_17RealizationMethodEEERKNS0_6common7MeasureERKNS4_INSt7__cxx1112basic_stringIcSt11char_traitsIcESaIcEEEEE
@_ZN5osgeo4proj5datum29DynamicVerticalReferenceFrameD1Ev = unnamed_addr alias void (ptr), ptr @_ZN5osgeo4proj5datum29DynamicVerticalReferenceFrameD2Ev
@_ZN5osgeo4proj5datum13TemporalDatumC1ERKNS0_6common8DateTimeERKNSt7__cxx1112basic_stringIcSt11char_traitsIcESaIcEEE = hidden unnamed_addr alias void (ptr, ptr, ptr), ptr @_ZN5osgeo4proj5datum13TemporalDatumC2ERKNS0_6common8DateTimeERKNSt7__cxx1112basic_stringIcSt11char_traitsIcESaIcEEE
@_ZN5osgeo4proj5datum13TemporalDatumD1Ev = unnamed_addr alias void (ptr), ptr @_ZN5osgeo4proj5datum13TemporalDatumD2Ev
@_ZN5osgeo4proj5datum16EngineeringDatumC1Ev = hidden unnamed_addr alias void (ptr), ptr @_ZN5osgeo4proj5datum16EngineeringDatumC2Ev
@_ZN5osgeo4proj5datum16EngineeringDatumD1Ev = unnamed_addr alias void (ptr), ptr @_ZN5osgeo4proj5datum16EngineeringDatumD2Ev
@_ZN5osgeo4proj5datum15ParametricDatumC1Ev = hidden unnamed_addr alias void (ptr), ptr @_ZN5osgeo4proj5datum15ParametricDatumC2Ev
@_ZN5osgeo4proj5datum15ParametricDatumD1Ev = unnamed_addr alias void (ptr), ptr @_ZN5osgeo4proj5datum15ParametricDatumD2Ev

; Function Attrs: mustprogress sspstrong uwtable
define hidden void @_ZNK5osgeo4proj5datum5Datum7Private22exportAnchorDefinitionEPNS0_2io12WKTFormatterE(ptr noundef nonnull align 8 dereferenceable(88) %0, ptr noundef %1) local_unnamed_addr #0 align 2 {
  %3 = load i8, ptr %0, align 8, !tbaa !4, !range !14, !noundef !15
  %4 = trunc nuw i8 %3 to i1
  br i1 %4, label %5, label %7

5:                                                ; preds = %2
  tail call void @_ZN5osgeo4proj2io12WKTFormatter9startNodeERKNSt7__cxx1112basic_stringIcSt11char_traitsIcESaIcEEEb(ptr noundef nonnull align 8 dereferenceable(8) %1, ptr noundef nonnull align 8 dereferenceable(32) @_ZN5osgeo4proj2io12WKTConstants6ANCHORB5cxx11E, i1 noundef zeroext false)
  %6 = getelementptr inbounds nuw i8, ptr %0, i64 8
  tail call void @_ZN5osgeo4proj2io12WKTFormatter15addQuotedStringERKNSt7__cxx1112basic_stringIcSt11char_traitsIcESaIcEEE(ptr noundef nonnull align 8 dereferenceable(8) %1, ptr noundef nonnull align 8 dereferenceable(32) %6)
  tail call void @_ZN5osgeo4proj2io12WKTFormatter7endNodeEv(ptr noundef nonnull align 8 dereferenceable(8) %1)
  br label %7

7:                                                ; preds = %5, %2
  ret void
}

declare hidden void @_ZN5osgeo4proj2io12WKTFormatter9startNodeERKNSt7__cxx1112basic_stringIcSt11char_traitsIcESaIcEEEb(ptr noundef nonnull align 8 dereferenceable(8), ptr noundef nonnull align 8 dereferenceable(32), i1 noundef zeroext) local_unnamed_addr #1

declare hidden void @_ZN5osgeo4proj2io12WKTFormatter15addQuotedStringERKNSt7__cxx1112basic_stringIcSt11char_traitsIcESaIcEEE(ptr noundef nonnull align 8 dereferenceable(8), ptr noundef nonnull align 8 dereferenceable(32)) local_unnamed_addr #1

declare hidden void @_ZN5osgeo4proj2io12WKTFormatter7endNodeEv(ptr noundef nonnull align 8 dereferenceable(8)) local_unnamed_addr #1

; Function Attrs: mustprogress sspstrong uwtable
define hidden void @_ZNK5osgeo4proj5datum5Datum7Private17exportAnchorEpochEPNS0_2io12WKTFormatterE(ptr noundef nonnull readonly align 8 captures(none) dereferenceable(88) %0, ptr noundef %1) local_unnamed_addr #0 align 2 personality ptr @__gxx_personality_v0 {
  %3 = getelementptr inbounds nuw i8, ptr %0, i64 40
  %4 = load ptr, ptr %3, align 8, !tbaa !16
  %5 = load i8, ptr %4, align 8, !tbaa !21, !range !14, !noundef !15
  %6 = trunc nuw i8 %5 to i1
  br i1 %6, label %7, label %12

7:                                                ; preds = %2
  tail call void @_ZN5osgeo4proj2io12WKTFormatter9startNodeERKNSt7__cxx1112basic_stringIcSt11char_traitsIcESaIcEEEb(ptr noundef nonnull align 8 dereferenceable(8) %1, ptr noundef nonnull align 8 dereferenceable(32) @_ZN5osgeo4proj2io12WKTConstants11ANCHOREPOCHB5cxx11E, i1 noundef zeroext false)
  %8 = load ptr, ptr %3, align 8, !tbaa !16
  %9 = getelementptr inbounds nuw i8, ptr %8, i64 8
  %10 = tail call noundef double @_ZNK5osgeo4proj6common7Measure13convertToUnitERKNS1_13UnitOfMeasureE(ptr noundef nonnull align 8 dereferenceable(24) %9, ptr noundef nonnull align 8 dereferenceable(24) @_ZN5osgeo4proj6common13UnitOfMeasure4YEARE) #32
  %11 = tail call noundef double @_ZN5osgeo4proj8internal28getRoundedEpochInDecimalYearEd(double noundef %10)
  tail call void @_ZN5osgeo4proj2io12WKTFormatter3addEdi(ptr noundef nonnull align 8 dereferenceable(8) %1, double noundef %11, i32 noundef 15)
  tail call void @_ZN5osgeo4proj2io12WKTFormatter7endNodeEv(ptr noundef nonnull align 8 dereferenceable(8) %1)
  br label %12

12:                                               ; preds = %7, %2
  ret void
}

; Function Attrs: mustprogress nofree nounwind willreturn memory(read)
declare noundef double @_ZNK5osgeo4proj6common7Measure13convertToUnitERKNS1_13UnitOfMeasureE(ptr noundef nonnull align 8 dereferenceable(24), ptr noundef nonnull align 8 dereferenceable(24)) local_unnamed_addr #2

declare hidden void @_ZN5osgeo4proj2io12WKTFormatter3addEdi(ptr noundef nonnull align 8 dereferenceable(8), double noundef, i32 noundef) local_unnamed_addr #1

declare noundef double @_ZN5osgeo4proj8internal28getRoundedEpochInDecimalYearEd(double noundef) local_unnamed_addr #1

; Function Attrs: mustprogress sspstrong uwtable
define hidden void @_ZNK5osgeo4proj5datum5Datum7Private22exportAnchorDefinitionEPNS0_2io13JSONFormatterE(ptr noundef nonnull align 8 dereferenceable(88) %0, ptr noundef %1) local_unnamed_addr #0 align 2 personality ptr @__gxx_personality_v0 {
  %3 = alloca %"class.std::__cxx11::basic_string", align 8
  %4 = load i8, ptr %0, align 8, !tbaa !4, !range !14, !noundef !15
  %5 = trunc nuw i8 %4 to i1
  br i1 %5, label %6, label %33

6:                                                ; preds = %2
  %7 = tail call noundef ptr @_ZNK5osgeo4proj2io13JSONFormatter6writerEv(ptr noundef nonnull align 8 dereferenceable(8) %1)
  call void @llvm.lifetime.start.p0(ptr %3)
  %8 = getelementptr inbounds nuw i8, ptr %3, i64 16
  store ptr %8, ptr %3, align 8, !tbaa !39
  call void @llvm.memcpy.p0.p0.i64(ptr noundef nonnull align 8 dereferenceable(6) %8, ptr noundef nonnull align 1 dereferenceable(6) @.str, i64 6, i1 false)
  %9 = getelementptr inbounds nuw i8, ptr %3, i64 8
  store i64 6, ptr %9, align 8, !tbaa !40
  %10 = getelementptr inbounds nuw i8, ptr %3, i64 22
  store i8 0, ptr %10, align 2, !tbaa !41
  invoke void @_ZN5osgeo4proj22CPLJSonStreamingWriter9AddObjKeyERKNSt7__cxx1112basic_stringIcSt11char_traitsIcESaIcEEE(ptr noundef nonnull align 8 dereferenceable(153) %7, ptr noundef nonnull align 8 dereferenceable(32) %3)
          to label %11 unwind label %22

11:                                               ; preds = %6
  %12 = load ptr, ptr %3, align 8, !tbaa !42
  %13 = icmp eq ptr %12, %8
  br i1 %13, label %14, label %17

14:                                               ; preds = %11
  %15 = load i64, ptr %9, align 8, !tbaa !40
  %16 = icmp ult i64 %15, 16
  call void @llvm.assume(i1 %16)
  br label %20

17:                                               ; preds = %11
  %18 = load i64, ptr %8, align 8, !tbaa !41
  %19 = add i64 %18, 1
  call void @_ZdlPvm(ptr noundef %12, i64 noundef %19) #33
  br label %20

20:                                               ; preds = %17, %14
  call void @llvm.lifetime.end.p0(ptr %3)
  %21 = getelementptr inbounds nuw i8, ptr %0, i64 8
  call void @_ZN5osgeo4proj22CPLJSonStreamingWriter3AddERKNSt7__cxx1112basic_stringIcSt11char_traitsIcESaIcEEE(ptr noundef nonnull align 8 dereferenceable(153) %7, ptr noundef nonnull align 8 dereferenceable(32) %21)
  br label %33

22:                                               ; preds = %6
  %23 = landingpad { ptr, i32 }
          cleanup
  %24 = load ptr, ptr %3, align 8, !tbaa !42
  %25 = icmp eq ptr %24, %8
  br i1 %25, label %26, label %29

26:                                               ; preds = %22
  %27 = load i64, ptr %9, align 8, !tbaa !40
  %28 = icmp ult i64 %27, 16
  call void @llvm.assume(i1 %28)
  br label %32

29:                                               ; preds = %22
  %30 = load i64, ptr %8, align 8, !tbaa !41
  %31 = add i64 %30, 1
  call void @_ZdlPvm(ptr noundef %24, i64 noundef %31) #33
  br label %32

32:                                               ; preds = %29, %26
  call void @llvm.lifetime.end.p0(ptr %3)
  resume { ptr, i32 } %23

33:                                               ; preds = %20, %2
  ret void
}

declare hidden noundef ptr @_ZNK5osgeo4proj2io13JSONFormatter6writerEv(ptr noundef nonnull align 8 dereferenceable(8)) local_unnamed_addr #1

declare void @_ZN5osgeo4proj22CPLJSonStreamingWriter9AddObjKeyERKNSt7__cxx1112basic_stringIcSt11char_traitsIcESaIcEEE(ptr noundef nonnull align 8 dereferenceable(153), ptr noundef nonnull align 8 dereferenceable(32)) local_unnamed_addr #1

; Function Attrs: mustprogress sspstrong uwtable
define linkonce_odr void @_ZNSt7__cxx1112basic_stringIcSt11char_traitsIcESaIcEEC2IS3_EEPKcRKS3_(ptr noundef nonnull align 8 dereferenceable(32) %0, ptr noundef %1, ptr noundef nonnull align 1 dereferenceable(1) %2) unnamed_addr #0 comdat align 2 personality ptr @__gxx_personality_v0 {
  %4 = alloca i64, align 8
  %5 = getelementptr inbounds nuw i8, ptr %0, i64 16
  store ptr %5, ptr %0, align 8, !tbaa !39
  %6 = icmp eq ptr %1, null
  br i1 %6, label %7, label %8

7:                                                ; preds = %3
  tail call void @_ZSt19__throw_logic_errorPKc(ptr noundef nonnull @.str.75) #21
  unreachable

8:                                                ; preds = %3
  %9 = tail call noundef i64 @strlen(ptr noundef nonnull dereferenceable(1) %1) #34
  call void @llvm.lifetime.start.p0(ptr %4)
  store i64 %9, ptr %4, align 8, !tbaa !43
  %10 = icmp ugt i64 %9, 15
  br i1 %10, label %11, label %14

11:                                               ; preds = %8
  %12 = call noundef ptr @_ZNSt7__cxx1112basic_stringIcSt11char_traitsIcESaIcEE9_M_createERmm(ptr noundef nonnull align 8 dereferenceable(32) %0, ptr noundef nonnull align 8 dereferenceable(8) %4, i64 noundef 0)
  store ptr %12, ptr %0, align 8, !tbaa !42
  %13 = load i64, ptr %4, align 8, !tbaa !43
  store i64 %13, ptr %5, align 8, !tbaa !41
  br label %14

14:                                               ; preds = %11, %8
  %15 = phi ptr [ %12, %11 ], [ %5, %8 ]
  switch i64 %9, label %18 [
    i64 1, label %16
    i64 0, label %19
  ]

16:                                               ; preds = %14
  %17 = load i8, ptr %1, align 1, !tbaa !41
  store i8 %17, ptr %15, align 1, !tbaa !41
  br label %19

18:                                               ; preds = %14
  call void @llvm.memcpy.p0.p0.i64(ptr align 1 %15, ptr nonnull align 1 %1, i64 %9, i1 false)
  br label %19

19:                                               ; preds = %18, %16, %14
  %20 = load i64, ptr %4, align 8, !tbaa !43
  %21 = getelementptr inbounds nuw i8, ptr %0, i64 8
  store i64 %20, ptr %21, align 8, !tbaa !40
  %22 = load ptr, ptr %0, align 8, !tbaa !42
  %23 = getelementptr inbounds nuw i8, ptr %22, i64 %20
  store i8 0, ptr %23, align 1, !tbaa !41
  call void @llvm.lifetime.end.p0(ptr %4)
  ret void
}

declare i32 @__gxx_personality_v0(...)

declare void @_ZN5osgeo4proj22CPLJSonStreamingWriter3AddERKNSt7__cxx1112basic_stringIcSt11char_traitsIcESaIcEEE(ptr noundef nonnull align 8 dereferenceable(153), ptr noundef nonnull align 8 dereferenceable(32)) local_unnamed_addr #1

; Function Attrs: mustprogress sspstrong uwtable
define hidden void @_ZNK5osgeo4proj5datum5Datum7Private17exportAnchorEpochEPNS0_2io13JSONFormatterE(ptr noundef nonnull readonly align 8 captures(none) dereferenceable(88) %0, ptr noundef %1) local_unnamed_addr #0 align 2 personality ptr @__gxx_personality_v0 {
  %3 = alloca %"class.std::__cxx11::basic_string", align 8
  %4 = getelementptr inbounds nuw i8, ptr %0, i64 40
  %5 = load ptr, ptr %4, align 8, !tbaa !16
  %6 = load i8, ptr %5, align 8, !tbaa !21, !range !14, !noundef !15
  %7 = trunc nuw i8 %6 to i1
  br i1 %7, label %8, label %38

8:                                                ; preds = %2
  %9 = tail call noundef ptr @_ZNK5osgeo4proj2io13JSONFormatter6writerEv(ptr noundef nonnull align 8 dereferenceable(8) %1)
  call void @llvm.lifetime.start.p0(ptr %3)
  %10 = getelementptr inbounds nuw i8, ptr %3, i64 16
  store ptr %10, ptr %3, align 8, !tbaa !39
  call void @llvm.memcpy.p0.p0.i64(ptr noundef nonnull align 8 dereferenceable(12) %10, ptr noundef nonnull align 1 dereferenceable(12) @.str.1, i64 12, i1 false)
  %11 = getelementptr inbounds nuw i8, ptr %3, i64 8
  store i64 12, ptr %11, align 8, !tbaa !40
  %12 = getelementptr inbounds nuw i8, ptr %3, i64 28
  store i8 0, ptr %12, align 4, !tbaa !41
  invoke void @_ZN5osgeo4proj22CPLJSonStreamingWriter9AddObjKeyERKNSt7__cxx1112basic_stringIcSt11char_traitsIcESaIcEEE(ptr noundef nonnull align 8 dereferenceable(153) %9, ptr noundef nonnull align 8 dereferenceable(32) %3)
          to label %13 unwind label %27

13:                                               ; preds = %8
  %14 = load ptr, ptr %3, align 8, !tbaa !42
  %15 = icmp eq ptr %14, %10
  br i1 %15, label %16, label %19

16:                                               ; preds = %13
  %17 = load i64, ptr %11, align 8, !tbaa !40
  %18 = icmp ult i64 %17, 16
  call void @llvm.assume(i1 %18)
  br label %22

19:                                               ; preds = %13
  %20 = load i64, ptr %10, align 8, !tbaa !41
  %21 = add i64 %20, 1
  call void @_ZdlPvm(ptr noundef %14, i64 noundef %21) #33
  br label %22

22:                                               ; preds = %19, %16
  call void @llvm.lifetime.end.p0(ptr %3)
  %23 = load ptr, ptr %4, align 8, !tbaa !16
  %24 = getelementptr inbounds nuw i8, ptr %23, i64 8
  %25 = call noundef double @_ZNK5osgeo4proj6common7Measure13convertToUnitERKNS1_13UnitOfMeasureE(ptr noundef nonnull align 8 dereferenceable(24) %24, ptr noundef nonnull align 8 dereferenceable(24) @_ZN5osgeo4proj6common13UnitOfMeasure4YEARE) #32
  %26 = call noundef double @_ZN5osgeo4proj8internal28getRoundedEpochInDecimalYearEd(double noundef %25)
  call void @_ZN5osgeo4proj22CPLJSonStreamingWriter3AddEdi(ptr noundef nonnull align 8 dereferenceable(153) %9, double noundef %26, i32 noundef 18)
  br label %38

27:                                               ; preds = %8
  %28 = landingpad { ptr, i32 }
          cleanup
  %29 = load ptr, ptr %3, align 8, !tbaa !42
  %30 = icmp eq ptr %29, %10
  br i1 %30, label %31, label %34

31:                                               ; preds = %27
  %32 = load i64, ptr %11, align 8, !tbaa !40
  %33 = icmp ult i64 %32, 16
  call void @llvm.assume(i1 %33)
  br label %37

34:                                               ; preds = %27
  %35 = load i64, ptr %10, align 8, !tbaa !41
  %36 = add i64 %35, 1
  call void @_ZdlPvm(ptr noundef %29, i64 noundef %36) #33
  br label %37

37:                                               ; preds = %34, %31
  call void @llvm.lifetime.end.p0(ptr %3)
  resume { ptr, i32 } %28

38:                                               ; preds = %22, %2
  ret void
}

declare void @_ZN5osgeo4proj22CPLJSonStreamingWriter3AddEdi(ptr noundef nonnull align 8 dereferenceable(153), double noundef, i32 noundef) local_unnamed_addr #1

; Function Attrs: mustprogress sspstrong uwtable
define hidden void @_ZN5osgeo4proj5datum5DatumC2Ev(ptr noundef nonnull align 8 dereferenceable(64) %0) unnamed_addr #0 align 2 personality ptr @__gxx_personality_v0 {
  tail call void @_ZN5osgeo4proj6common11ObjectUsageC2Ev(ptr noundef nonnull align 8 dereferenceable(48) %0)
  %2 = getelementptr inbounds nuw i8, ptr %0, i64 48
  store ptr getelementptr inbounds nuw inrange(-16, 32) (i8, ptr @_ZTVN5osgeo4proj5datum5DatumE, i64 16), ptr %0, align 8, !tbaa !44
  %3 = getelementptr inbounds nuw i8, ptr %0, i64 16
  store ptr getelementptr inbounds nuw inrange(-16, 24) (i8, ptr @_ZTVN5osgeo4proj5datum5DatumE, i64 64), ptr %3, align 8, !tbaa !44
  %4 = getelementptr inbounds nuw i8, ptr %0, i64 24
  store ptr getelementptr inbounds nuw inrange(-16, 24) (i8, ptr @_ZTVN5osgeo4proj5datum5DatumE, i64 104), ptr %4, align 8, !tbaa !44
  store ptr getelementptr inbounds nuw inrange(-16, 24) (i8, ptr @_ZTVN5osgeo4proj5datum5DatumE, i64 144), ptr %2, align 8, !tbaa !44
  %5 = getelementptr inbounds nuw i8, ptr %0, i64 56
  invoke void @_ZSt11make_uniqueIN5osgeo4proj5datum5Datum7PrivateEJEENSt8__detail9_MakeUniqIT_E15__single_objectEDpOT0_(ptr dead_on_unwind nonnull writable sret(%"class.std::unique_ptr.66") align 8 %5)
          to label %6 unwind label %7

6:                                                ; preds = %1
  ret void

7:                                                ; preds = %1
  %8 = landingpad { ptr, i32 }
          cleanup
  tail call void @_ZN5osgeo4proj2io15IJSONExportableD2Ev(ptr noundef nonnull align 8 dereferenceable(8) %2) #34
  tail call void @_ZN5osgeo4proj6common11ObjectUsageD2Ev(ptr noundef nonnull align 8 dereferenceable(48) %0) #34
  resume { ptr, i32 } %8
}

declare void @_ZN5osgeo4proj6common11ObjectUsageC2Ev(ptr noundef nonnull align 8 dereferenceable(48)) unnamed_addr #1

; Function Attrs: inlinehint mustprogress sspstrong uwtable
define linkonce_odr hidden void @_ZSt11make_uniqueIN5osgeo4proj5datum5Datum7PrivateEJEENSt8__detail9_MakeUniqIT_E15__single_objectEDpOT0_(ptr dead_on_unwind noalias writable sret(%"class.std::unique_ptr.66") align 8 %0) local_unnamed_addr #3 comdat personality ptr @__gxx_personality_v0 {
  %2 = tail call noalias noundef nonnull dereferenceable(88) ptr @_Znwm(i64 noundef 88) #35
  %3 = getelementptr inbounds nuw i8, ptr %2, i64 8
  %4 = getelementptr inbounds nuw i8, ptr %2, i64 24
  tail call void @llvm.memset.p0.i64(ptr noundef nonnull align 8 dereferenceable(88) %2, i8 0, i64 88, i1 false)
  store ptr %4, ptr %3, align 8, !tbaa !39
  %5 = getelementptr inbounds nuw i8, ptr %2, i64 16
  store i8 0, ptr %4, align 1, !tbaa !41
  %6 = getelementptr inbounds nuw i8, ptr %2, i64 40
  tail call void @llvm.experimental.noalias.scope.decl(metadata !46)
  %7 = invoke noalias noundef nonnull dereferenceable(48) ptr @_Znwm(i64 noundef 48) #35
          to label %8 unwind label %18

8:                                                ; preds = %1
  %9 = getelementptr inbounds nuw i8, ptr %7, i64 8
  store i32 1, ptr %9, align 8, !tbaa !49, !noalias !46
  %10 = getelementptr inbounds nuw i8, ptr %7, i64 12
  store i32 1, ptr %10, align 4, !tbaa !52, !noalias !46
  store ptr getelementptr inbounds nuw inrange(-16, 40) (i8, ptr @_ZTVSt23_Sp_counted_ptr_inplaceIN5osgeo4proj4util8optionalINS1_6common7MeasureEEESaIvELN9__gnu_cxx12_Lock_policyE2EE, i64 16), ptr %7, align 8, !tbaa !44, !noalias !46
  %11 = getelementptr inbounds nuw i8, ptr %7, i64 16
  invoke void @_ZN5osgeo4proj4util8optionalINS0_6common7MeasureEEC2Ev(ptr noundef nonnull align 8 dereferenceable(32) %11)
          to label %14 unwind label %12, !noalias !46

12:                                               ; preds = %8
  %13 = landingpad { ptr, i32 }
          cleanup
  tail call void @_ZdlPvm(ptr noundef nonnull %7, i64 noundef 48) #33, !noalias !46
  br label %22

14:                                               ; preds = %8
  %15 = getelementptr inbounds nuw i8, ptr %2, i64 48
  store ptr %7, ptr %15, align 8, !tbaa !53, !alias.scope !46
  store ptr %11, ptr %6, align 8, !tbaa !54, !alias.scope !46
  %16 = getelementptr inbounds nuw i8, ptr %2, i64 56
  store i8 0, ptr %16, align 8, !tbaa !55
  %17 = getelementptr inbounds nuw i8, ptr %2, i64 64
  invoke void @_ZN5osgeo4proj6common8DateTimeC1Ev(ptr noundef nonnull align 8 dereferenceable(8) %17)
          to label %32 unwind label %20

18:                                               ; preds = %1
  %19 = landingpad { ptr, i32 }
          cleanup
  br label %22

20:                                               ; preds = %14
  %21 = landingpad { ptr, i32 }
          cleanup
  tail call void @_ZNSt12__shared_ptrIN5osgeo4proj4util8optionalINS1_6common7MeasureEEELN9__gnu_cxx12_Lock_policyE2EED2Ev(ptr noundef nonnull align 8 dereferenceable(16) %6) #34
  br label %22

22:                                               ; preds = %20, %18, %12
  %23 = phi { ptr, i32 } [ %21, %20 ], [ %19, %18 ], [ %13, %12 ]
  %24 = load ptr, ptr %3, align 8, !tbaa !42
  %25 = icmp eq ptr %24, %4
  br i1 %25, label %26, label %29

26:                                               ; preds = %22
  %27 = load i64, ptr %5, align 8, !tbaa !40
  %28 = icmp ult i64 %27, 16
  tail call void @llvm.assume(i1 %28)
  br label %34

29:                                               ; preds = %22
  %30 = load i64, ptr %4, align 8, !tbaa !41
  %31 = add i64 %30, 1
  tail call void @_ZdlPvm(ptr noundef %24, i64 noundef %31) #33
  br label %34

32:                                               ; preds = %14
  %33 = getelementptr inbounds nuw i8, ptr %2, i64 72
  tail call void @llvm.memset.p0.i64(ptr noundef nonnull align 8 dereferenceable(16) %33, i8 0, i64 16, i1 false)
  store ptr %2, ptr %0, align 8, !tbaa !65
  ret void

34:                                               ; preds = %29, %26
  tail call void @_ZdlPvm(ptr noundef nonnull %2, i64 noundef 88) #33
  resume { ptr, i32 } %23
}

; Function Attrs: nounwind
declare void @_ZN5osgeo4proj2io15IJSONExportableD2Ev(ptr noundef nonnull align 8 dereferenceable(8)) unnamed_addr #4

; Function Attrs: nounwind
declare void @_ZN5osgeo4proj6common11ObjectUsageD2Ev(ptr noundef nonnull align 8 dereferenceable(48)) unnamed_addr #4

; Function Attrs: mustprogress nounwind sspstrong uwtable
define void @_ZN5osgeo4proj5datum5DatumD2Ev(ptr noundef nonnull align 8 dereferenceable(64) initializes((0, 8), (16, 32), (48, 56)) %0) unnamed_addr #5 align 2 personality ptr @__gxx_personality_v0 {
  store ptr getelementptr inbounds nuw inrange(-16, 32) (i8, ptr @_ZTVN5osgeo4proj5datum5DatumE, i64 16), ptr %0, align 8, !tbaa !44
  %2 = getelementptr inbounds nuw i8, ptr %0, i64 16
  store ptr getelementptr inbounds nuw inrange(-16, 24) (i8, ptr @_ZTVN5osgeo4proj5datum5DatumE, i64 64), ptr %2, align 8, !tbaa !44
  %3 = getelementptr inbounds nuw i8, ptr %0, i64 24
  store ptr getelementptr inbounds nuw inrange(-16, 24) (i8, ptr @_ZTVN5osgeo4proj5datum5DatumE, i64 104), ptr %3, align 8, !tbaa !44
  %4 = getelementptr inbounds nuw i8, ptr %0, i64 48
  store ptr getelementptr inbounds nuw inrange(-16, 24) (i8, ptr @_ZTVN5osgeo4proj5datum5DatumE, i64 144), ptr %4, align 8, !tbaa !44
  %5 = getelementptr inbounds nuw i8, ptr %0, i64 56
  %6 = load ptr, ptr %5, align 8, !tbaa !65
  %7 = icmp eq ptr %6, null
  br i1 %7, label %9, label %8

8:                                                ; preds = %1
  tail call void @_ZN5osgeo4proj5datum5Datum7PrivateD2Ev(ptr noundef nonnull align 8 dereferenceable(88) %6) #34
  tail call void @_ZdlPvm(ptr noundef nonnull %6, i64 noundef 88) #33
  br label %9

9:                                                ; preds = %8, %1
  store ptr null, ptr %5, align 8, !tbaa !65
  tail call void @_ZN5osgeo4proj2io15IJSONExportableD2Ev(ptr noundef nonnull align 8 dereferenceable(8) %4) #34
  tail call void @_ZN5osgeo4proj6common11ObjectUsageD2Ev(ptr noundef nonnull align 8 dereferenceable(48) %0) #34
  ret void
}

; Function Attrs: nounwind sspstrong uwtable
define void @_ZThn16_N5osgeo4proj5datum5DatumD1Ev(ptr noundef %0) unnamed_addr #6 align 2 {
  %2 = getelementptr inbounds i8, ptr %0, i64 -16
  tail call void @_ZN5osgeo4proj5datum5DatumD1Ev(ptr noundef nonnull align 8 dereferenceable(64) %2) #34
  ret void
}

; Function Attrs: nounwind sspstrong uwtable
define void @_ZThn24_N5osgeo4proj5datum5DatumD1Ev(ptr noundef %0) unnamed_addr #6 align 2 {
  %2 = getelementptr inbounds i8, ptr %0, i64 -24
  tail call void @_ZN5osgeo4proj5datum5DatumD1Ev(ptr noundef nonnull align 8 dereferenceable(64) %2) #34
  ret void
}

; Function Attrs: nounwind sspstrong uwtable
define void @_ZThn48_N5osgeo4proj5datum5DatumD1Ev(ptr noundef %0) unnamed_addr #6 align 2 {
  %2 = getelementptr inbounds i8, ptr %0, i64 -48
  tail call void @_ZN5osgeo4proj5datum5DatumD1Ev(ptr noundef nonnull align 8 dereferenceable(64) %2) #34
  ret void
}

; Function Attrs: cold mustprogress noreturn nounwind sspstrong memory(inaccessiblemem: write) uwtable
define void @_ZN5osgeo4proj5datum5DatumD0Ev(ptr nonnull readnone align 8 captures(none) %0) unnamed_addr #7 align 2 {
  tail call void @llvm.trap() #36
  unreachable
}

; Function Attrs: cold noreturn nounwind memory(inaccessiblemem: write)
declare void @llvm.trap() #8

; Function Attrs: cold noreturn nounwind sspstrong memory(inaccessiblemem: write) uwtable
define void @_ZThn16_N5osgeo4proj5datum5DatumD0Ev(ptr readnone captures(none) %0) unnamed_addr #9 align 2 {
  tail call void @llvm.trap() #36
  unreachable
}

; Function Attrs: cold noreturn nounwind sspstrong memory(inaccessiblemem: write) uwtable
define void @_ZThn24_N5osgeo4proj5datum5DatumD0Ev(ptr readnone captures(none) %0) unnamed_addr #9 align 2 {
  tail call void @llvm.trap() #36
  unreachable
}

; Function Attrs: cold noreturn nounwind sspstrong memory(inaccessiblemem: write) uwtable
define void @_ZThn48_N5osgeo4proj5datum5DatumD0Ev(ptr readnone captures(none) %0) unnamed_addr #9 align 2 {
  tail call void @llvm.trap() #36
  unreachable
}

; Function Attrs: mustprogress nofree norecurse nosync nounwind sspstrong willreturn memory(argmem: read) uwtable
define noundef nonnull align 8 dereferenceable(40) ptr @_ZNK5osgeo4proj5datum5Datum16anchorDefinitionB5cxx11Ev(ptr noundef nonnull readonly align 8 captures(none) dereferenceable(64) %0) local_unnamed_addr #10 align 2 {
  %2 = getelementptr inbounds nuw i8, ptr %0, i64 56
  %3 = load ptr, ptr %2, align 8, !tbaa !65
  ret ptr %3
}

; Function Attrs: mustprogress nofree norecurse nosync nounwind sspstrong willreturn memory(read, inaccessiblemem: none) uwtable
define noundef nonnull align 8 dereferenceable(32) ptr @_ZNK5osgeo4proj5datum5Datum11anchorEpochEv(ptr noundef nonnull readonly align 8 captures(none) dereferenceable(64) %0) local_unnamed_addr #11 align 2 personality ptr @__gxx_personality_v0 {
  %2 = getelementptr inbounds nuw i8, ptr %0, i64 56
  %3 = load ptr, ptr %2, align 8, !tbaa !65
  %4 = getelementptr inbounds nuw i8, ptr %3, i64 40
  %5 = load ptr, ptr %4, align 8, !tbaa !16
  ret ptr %5
}

; Function Attrs: mustprogress nofree norecurse nosync nounwind sspstrong willreturn memory(argmem: read) uwtable
define noundef nonnull align 8 dereferenceable(16) ptr @_ZNK5osgeo4proj5datum5Datum15publicationDateEv(ptr noundef nonnull readonly align 8 captures(none) dereferenceable(64) %0) local_unnamed_addr #10 align 2 {
  %2 = getelementptr inbounds nuw i8, ptr %0, i64 56
  %3 = load ptr, ptr %2, align 8, !tbaa !65
  %4 = getelementptr inbounds nuw i8, ptr %3, i64 56
  ret ptr %4
}

; Function Attrs: mustprogress nofree norecurse nosync nounwind sspstrong willreturn memory(argmem: read) uwtable
define noundef nonnull align 8 dereferenceable(16) ptr @_ZNK5osgeo4proj5datum5Datum14conventionalRSEv(ptr noundef nonnull readonly align 8 captures(none) dereferenceable(64) %0) local_unnamed_addr #10 align 2 {
  %2 = getelementptr inbounds nuw i8, ptr %0, i64 56
  %3 = load ptr, ptr %2, align 8, !tbaa !65
  %4 = getelementptr inbounds nuw i8, ptr %3, i64 72
  ret ptr %4
}

; Function Attrs: mustprogress sspstrong uwtable
define hidden void @_ZN5osgeo4proj5datum5Datum9setAnchorERKNS0_4util8optionalINSt7__cxx1112basic_stringIcSt11char_traitsIcESaIcEEEEE(ptr noundef nonnull readonly align 8 captures(none) dereferenceable(64) %0, ptr noundef nonnull align 8 dereferenceable(40) %1) local_unnamed_addr #0 align 2 {
  %3 = getelementptr inbounds nuw i8, ptr %0, i64 56
  %4 = load ptr, ptr %3, align 8, !tbaa !65
  %5 = load i8, ptr %1, align 8, !tbaa !4, !range !14, !noundef !15
  store i8 %5, ptr %4, align 8, !tbaa !4
  %6 = getelementptr inbounds nuw i8, ptr %4, i64 8
  %7 = getelementptr inbounds nuw i8, ptr %1, i64 8
  tail call void @_ZNSt7__cxx1112basic_stringIcSt11char_traitsIcESaIcEE9_M_assignERKS4_(ptr noundef nonnull align 8 dereferenceable(32) %6, ptr noundef nonnull align 8 dereferenceable(32) %7)
  ret void
}

; Function Attrs: mustprogress sspstrong uwtable
define hidden void @_ZN5osgeo4proj5datum5Datum14setAnchorEpochERKNS0_4util8optionalINS0_6common7MeasureEEE(ptr noundef nonnull readonly align 8 captures(none) dereferenceable(64) %0, ptr noundef nonnull align 8 dereferenceable(32) %1) local_unnamed_addr #0 align 2 personality ptr @__gxx_personality_v0 {
  %3 = tail call noalias noundef nonnull dereferenceable(48) ptr @_Znwm(i64 noundef 48) #35, !noalias !67
  %4 = getelementptr inbounds nuw i8, ptr %3, i64 8
  store i32 1, ptr %4, align 8, !tbaa !49, !noalias !67
  %5 = getelementptr inbounds nuw i8, ptr %3, i64 12
  store i32 1, ptr %5, align 4, !tbaa !52, !noalias !67
  store ptr getelementptr inbounds nuw inrange(-16, 40) (i8, ptr @_ZTVSt23_Sp_counted_ptr_inplaceIN5osgeo4proj4util8optionalINS1_6common7MeasureEEESaIvELN9__gnu_cxx12_Lock_policyE2EE, i64 16), ptr %3, align 8, !tbaa !44, !noalias !67
  %6 = getelementptr inbounds nuw i8, ptr %3, i64 16
  %7 = load i8, ptr %1, align 8, !tbaa !21, !range !14, !noalias !67, !noundef !15
  store i8 %7, ptr %6, align 8, !tbaa !21, !noalias !67
  %8 = getelementptr inbounds nuw i8, ptr %3, i64 24
  %9 = getelementptr inbounds nuw i8, ptr %1, i64 8
  invoke void @_ZN5osgeo4proj6common7MeasureC1ERKS2_(ptr noundef nonnull align 8 dereferenceable(24) %8, ptr noundef nonnull align 8 dereferenceable(24) %9)
          to label %12 unwind label %10, !noalias !67

10:                                               ; preds = %2
  %11 = landingpad { ptr, i32 }
          cleanup
  tail call void @_ZdlPvm(ptr noundef nonnull %3, i64 noundef 48) #33, !noalias !67
  resume { ptr, i32 } %11

12:                                               ; preds = %2
  %13 = getelementptr inbounds nuw i8, ptr %0, i64 56
  %14 = load ptr, ptr %13, align 8, !tbaa !65
  %15 = getelementptr inbounds nuw i8, ptr %14, i64 40
  store ptr %6, ptr %15, align 8, !tbaa !54
  %16 = getelementptr inbounds nuw i8, ptr %14, i64 48
  %17 = load ptr, ptr %16, align 8, !tbaa !53
  store ptr %3, ptr %16, align 8, !tbaa !53
  %18 = icmp eq ptr %17, null
  br i1 %18, label %43, label %19

19:                                               ; preds = %12
  %20 = getelementptr inbounds nuw i8, ptr %17, i64 8
  %21 = load atomic i64, ptr %20 acquire, align 8
  %22 = icmp eq i64 %21, 4294967297
  %23 = trunc i64 %21 to i32
  br i1 %22, label %24, label %32

24:                                               ; preds = %19
  store i32 0, ptr %20, align 8, !tbaa !49
  %25 = getelementptr inbounds nuw i8, ptr %17, i64 12
  store i32 0, ptr %25, align 4, !tbaa !52
  %26 = load ptr, ptr %17, align 8, !tbaa !44
  %27 = getelementptr inbounds nuw i8, ptr %26, i64 16
  %28 = load ptr, ptr %27, align 8
  tail call void %28(ptr noundef nonnull align 8 dereferenceable(16) %17) #34
  %29 = load ptr, ptr %17, align 8, !tbaa !44
  %30 = getelementptr inbounds nuw i8, ptr %29, i64 24
  %31 = load ptr, ptr %30, align 8
  tail call void %31(ptr noundef nonnull align 8 dereferenceable(16) %17) #34
  br label %43

32:                                               ; preds = %19
  %33 = load i8, ptr @__libc_single_threaded, align 1, !tbaa !41
  %34 = icmp eq i8 %33, 0
  br i1 %34, label %37, label %35

35:                                               ; preds = %32
  %36 = add nsw i32 %23, -1
  store i32 %36, ptr %20, align 4, !tbaa !70
  br label %39

37:                                               ; preds = %32
  %38 = atomicrmw volatile add ptr %20, i32 -1 acq_rel, align 4
  br label %39

39:                                               ; preds = %37, %35
  %40 = phi i32 [ %23, %35 ], [ %38, %37 ]
  %41 = icmp eq i32 %40, 1
  br i1 %41, label %42, label %43, !prof !71

42:                                               ; preds = %39
  tail call void @_ZNSt16_Sp_counted_baseILN9__gnu_cxx12_Lock_policyE2EE24_M_release_last_use_coldEv(ptr noundef nonnull align 8 dereferenceable(16) %17) #34
  br label %43

43:                                               ; preds = %42, %39, %24, %12
  ret void
}

; Function Attrs: mustprogress sspstrong uwtable
define hidden void @_ZN5osgeo4proj5datum5Datum13setPropertiesERKNS0_4util11PropertyMapE(ptr noundef nonnull align 8 dereferenceable(64) %0, ptr noundef nonnull align 8 dereferenceable(8) %1) local_unnamed_addr #0 align 2 personality ptr @__gxx_personality_v0 {
  %3 = alloca i64, align 8
  %4 = alloca %"class.std::__cxx11::basic_string", align 8
  %5 = alloca %"class.std::__cxx11::basic_string", align 8
  %6 = alloca %"class.osgeo::proj::common::DateTime", align 8
  %7 = alloca %"class.std::__cxx11::basic_string", align 8
  %8 = alloca %"class.std::__cxx11::basic_string", align 8
  %9 = alloca i8, align 1
  %10 = alloca %"class.osgeo::proj::util::optional.14", align 8
  %11 = alloca %"class.osgeo::proj::common::Measure", align 8
  call void @llvm.lifetime.start.p0(ptr %4)
  %12 = getelementptr inbounds nuw i8, ptr %4, i64 16
  store ptr %12, ptr %4, align 8, !tbaa !39
  %13 = getelementptr inbounds nuw i8, ptr %4, i64 8
  store i64 0, ptr %13, align 8, !tbaa !40
  store i8 0, ptr %12, align 8, !tbaa !41
  call void @llvm.lifetime.start.p0(ptr %5)
  %14 = getelementptr inbounds nuw i8, ptr %5, i64 16
  store ptr %14, ptr %5, align 8, !tbaa !39
  call void @llvm.lifetime.start.p0(ptr %3)
  store i64 16, ptr %3, align 8, !tbaa !43
  %15 = invoke noundef ptr @_ZNSt7__cxx1112basic_stringIcSt11char_traitsIcESaIcEE9_M_createERmm(ptr noundef nonnull align 8 dereferenceable(32) %5, ptr noundef nonnull align 8 dereferenceable(8) %3, i64 noundef 0)
          to label %16 unwind label %45

16:                                               ; preds = %2
  store ptr %15, ptr %5, align 8, !tbaa !42
  %17 = load i64, ptr %3, align 8, !tbaa !43
  store i64 %17, ptr %14, align 8, !tbaa !41
  call void @llvm.memcpy.p0.p0.i64(ptr noundef nonnull align 1 dereferenceable(16) %15, ptr noundef nonnull align 1 dereferenceable(16) @.str.2, i64 16, i1 false)
  %18 = getelementptr inbounds nuw i8, ptr %5, i64 8
  store i64 %17, ptr %18, align 8, !tbaa !40
  %19 = load ptr, ptr %5, align 8, !tbaa !42
  %20 = getelementptr inbounds nuw i8, ptr %19, i64 %17
  store i8 0, ptr %20, align 1, !tbaa !41
  call void @llvm.lifetime.end.p0(ptr %3)
  %21 = invoke noundef zeroext i1 @_ZNK5osgeo4proj4util11PropertyMap14getStringValueERKNSt7__cxx1112basic_stringIcSt11char_traitsIcESaIcEEERS8_(ptr noundef nonnull align 8 dereferenceable(8) %1, ptr noundef nonnull align 8 dereferenceable(32) %5, ptr noundef nonnull align 8 dereferenceable(32) %4)
          to label %22 unwind label %47

22:                                               ; preds = %16
  %23 = load ptr, ptr %5, align 8, !tbaa !42
  %24 = icmp eq ptr %23, %14
  br i1 %24, label %25, label %28

25:                                               ; preds = %22
  %26 = load i64, ptr %18, align 8, !tbaa !40
  %27 = icmp ult i64 %26, 16
  call void @llvm.assume(i1 %27)
  br label %31

28:                                               ; preds = %22
  %29 = load i64, ptr %14, align 8, !tbaa !41
  %30 = add i64 %29, 1
  call void @_ZdlPvm(ptr noundef %23, i64 noundef %30) #33
  br label %31

31:                                               ; preds = %28, %25
  call void @llvm.lifetime.end.p0(ptr %5)
  %32 = load i64, ptr %13, align 8, !tbaa !40
  %33 = icmp eq i64 %32, 0
  br i1 %33, label %61, label %34

34:                                               ; preds = %31
  call void @llvm.lifetime.start.p0(ptr %6)
  invoke void @_ZN5osgeo4proj6common8DateTime6createERKNSt7__cxx1112basic_stringIcSt11char_traitsIcESaIcEEE(ptr dead_on_unwind nonnull writable sret(%"class.osgeo::proj::common::DateTime") align 8 %6, ptr noundef nonnull align 8 dereferenceable(32) %4)
          to label %35 unwind label %59

35:                                               ; preds = %34
  %36 = getelementptr inbounds nuw i8, ptr %0, i64 56
  %37 = load ptr, ptr %36, align 8, !tbaa !65
  %38 = getelementptr inbounds nuw i8, ptr %37, i64 56
  store i8 1, ptr %38, align 8, !tbaa !55
  %39 = getelementptr inbounds nuw i8, ptr %37, i64 64
  %40 = invoke noundef nonnull align 8 dereferenceable(8) ptr @_ZN5osgeo4proj6common8DateTimeaSERKS2_(ptr noundef nonnull align 8 dereferenceable(8) %39, ptr noundef nonnull align 8 dereferenceable(8) %6)
          to label %44 unwind label %41

41:                                               ; preds = %35
  %42 = landingpad { ptr, i32 }
          catch ptr null
  %43 = extractvalue { ptr, i32 } %42, 0
  call void @__clang_call_terminate(ptr %43) #36
  unreachable

44:                                               ; preds = %35
  call void @_ZN5osgeo4proj6common8DateTimeD1Ev(ptr noundef nonnull align 8 dereferenceable(8) %6) #34
  call void @llvm.lifetime.end.p0(ptr %6)
  br label %61

45:                                               ; preds = %2
  %46 = landingpad { ptr, i32 }
          cleanup
  br label %57

47:                                               ; preds = %16
  %48 = landingpad { ptr, i32 }
          cleanup
  %49 = load ptr, ptr %5, align 8, !tbaa !42
  %50 = icmp eq ptr %49, %14
  br i1 %50, label %51, label %54

51:                                               ; preds = %47
  %52 = load i64, ptr %18, align 8, !tbaa !40
  %53 = icmp ult i64 %52, 16
  call void @llvm.assume(i1 %53)
  br label %57

54:                                               ; preds = %47
  %55 = load i64, ptr %14, align 8, !tbaa !41
  %56 = add i64 %55, 1
  call void @_ZdlPvm(ptr noundef %49, i64 noundef %56) #33
  br label %57

57:                                               ; preds = %54, %51, %45
  %58 = phi { ptr, i32 } [ %46, %45 ], [ %48, %51 ], [ %48, %54 ]
  call void @llvm.lifetime.end.p0(ptr %5)
  br label %149

59:                                               ; preds = %34
  %60 = landingpad { ptr, i32 }
          cleanup
  call void @llvm.lifetime.end.p0(ptr %6)
  br label %149

61:                                               ; preds = %44, %31
  call void @llvm.lifetime.start.p0(ptr %7)
  %62 = getelementptr inbounds nuw i8, ptr %7, i64 16
  store ptr %62, ptr %7, align 8, !tbaa !39
  %63 = getelementptr inbounds nuw i8, ptr %7, i64 8
  store i64 0, ptr %63, align 8, !tbaa !40
  store i8 0, ptr %62, align 8, !tbaa !41
  call void @llvm.lifetime.start.p0(ptr %8)
  %64 = getelementptr inbounds nuw i8, ptr %8, i64 16
  store ptr %64, ptr %8, align 8, !tbaa !39
  call void @llvm.memcpy.p0.p0.i64(ptr noundef nonnull align 8 dereferenceable(12) %64, ptr noundef nonnull align 1 dereferenceable(12) @.str.3, i64 12, i1 false)
  %65 = getelementptr inbounds nuw i8, ptr %8, i64 8
  store i64 12, ptr %65, align 8, !tbaa !40
  %66 = getelementptr inbounds nuw i8, ptr %8, i64 28
  store i8 0, ptr %66, align 4, !tbaa !41
  %67 = invoke noundef zeroext i1 @_ZNK5osgeo4proj4util11PropertyMap14getStringValueERKNSt7__cxx1112basic_stringIcSt11char_traitsIcESaIcEEERS8_(ptr noundef nonnull align 8 dereferenceable(8) %1, ptr noundef nonnull align 8 dereferenceable(32) %8, ptr noundef nonnull align 8 dereferenceable(32) %7)
          to label %68 unwind label %90

68:                                               ; preds = %61
  %69 = load ptr, ptr %8, align 8, !tbaa !42
  %70 = icmp eq ptr %69, %64
  br i1 %70, label %71, label %74

71:                                               ; preds = %68
  %72 = load i64, ptr %65, align 8, !tbaa !40
  %73 = icmp ult i64 %72, 16
  call void @llvm.assume(i1 %73)
  br label %77

74:                                               ; preds = %68
  %75 = load i64, ptr %64, align 8, !tbaa !41
  %76 = add i64 %75, 1
  call void @_ZdlPvm(ptr noundef %69, i64 noundef %76) #33
  br label %77

77:                                               ; preds = %74, %71
  call void @llvm.lifetime.end.p0(ptr %8)
  %78 = load i64, ptr %63, align 8, !tbaa !40
  %79 = icmp eq i64 %78, 0
  br i1 %79, label %116, label %80

80:                                               ; preds = %77
  call void @llvm.lifetime.start.p0(ptr %9)
  store i8 0, ptr %9, align 1, !tbaa !72
  %81 = invoke noundef double @_ZN5osgeo4proj8internal13c_locale_stodERKNSt7__cxx1112basic_stringIcSt11char_traitsIcESaIcEEERb(ptr noundef nonnull align 8 dereferenceable(32) %7, ptr noundef nonnull align 1 dereferenceable(1) %9)
          to label %82 unwind label %101

82:                                               ; preds = %80
  %83 = load i8, ptr %9, align 1, !tbaa !72, !range !14, !noundef !15
  %84 = trunc nuw i8 %83 to i1
  br i1 %84, label %85, label %113

85:                                               ; preds = %82
  call void @llvm.lifetime.start.p0(ptr %10)
  call void @llvm.lifetime.start.p0(ptr %11)
  invoke void @_ZN5osgeo4proj6common7MeasureC1EdRKNS1_13UnitOfMeasureE(ptr noundef nonnull align 8 dereferenceable(24) %11, double noundef %81, ptr noundef nonnull align 8 dereferenceable(24) @_ZN5osgeo4proj6common13UnitOfMeasure4YEARE)
          to label %86 unwind label %103

86:                                               ; preds = %85
  store i8 1, ptr %10, align 8, !tbaa !21
  %87 = getelementptr inbounds nuw i8, ptr %10, i64 8
  invoke void @_ZN5osgeo4proj6common7MeasureC1ERKS2_(ptr noundef nonnull align 8 dereferenceable(24) %87, ptr noundef nonnull align 8 dereferenceable(24) %11)
          to label %88 unwind label %105

88:                                               ; preds = %86
  invoke void @_ZN5osgeo4proj5datum5Datum14setAnchorEpochERKNS0_4util8optionalINS0_6common7MeasureEEE(ptr noundef nonnull align 8 dereferenceable(64) %0, ptr noundef nonnull align 8 dereferenceable(32) %10)
          to label %89 unwind label %107

89:                                               ; preds = %88
  call void @_ZN5osgeo4proj6common7MeasureD1Ev(ptr noundef nonnull align 8 dereferenceable(24) %87) #34
  call void @_ZN5osgeo4proj6common7MeasureD1Ev(ptr noundef nonnull align 8 dereferenceable(24) %11) #34
  call void @llvm.lifetime.end.p0(ptr %11)
  call void @llvm.lifetime.end.p0(ptr %10)
  br label %113

90:                                               ; preds = %61
  %91 = landingpad { ptr, i32 }
          cleanup
  %92 = load ptr, ptr %8, align 8, !tbaa !42
  %93 = icmp eq ptr %92, %64
  br i1 %93, label %94, label %97

94:                                               ; preds = %90
  %95 = load i64, ptr %65, align 8, !tbaa !40
  %96 = icmp ult i64 %95, 16
  call void @llvm.assume(i1 %96)
  br label %100

97:                                               ; preds = %90
  %98 = load i64, ptr %64, align 8, !tbaa !41
  %99 = add i64 %98, 1
  call void @_ZdlPvm(ptr noundef %92, i64 noundef %99) #33
  br label %100

100:                                              ; preds = %97, %94
  call void @llvm.lifetime.end.p0(ptr %8)
  br label %138

101:                                              ; preds = %80
  %102 = landingpad { ptr, i32 }
          cleanup
  br label %114

103:                                              ; preds = %85
  %104 = landingpad { ptr, i32 }
          cleanup
  br label %111

105:                                              ; preds = %86
  %106 = landingpad { ptr, i32 }
          cleanup
  br label %109

107:                                              ; preds = %88
  %108 = landingpad { ptr, i32 }
          cleanup
  call void @_ZN5osgeo4proj6common7MeasureD1Ev(ptr noundef nonnull align 8 dereferenceable(24) %87) #34
  br label %109

109:                                              ; preds = %107, %105
  %110 = phi { ptr, i32 } [ %108, %107 ], [ %106, %105 ]
  call void @_ZN5osgeo4proj6common7MeasureD1Ev(ptr noundef nonnull align 8 dereferenceable(24) %11) #34
  br label %111

111:                                              ; preds = %109, %103
  %112 = phi { ptr, i32 } [ %110, %109 ], [ %104, %103 ]
  call void @llvm.lifetime.end.p0(ptr %11)
  call void @llvm.lifetime.end.p0(ptr %10)
  br label %114

113:                                              ; preds = %89, %82
  call void @llvm.lifetime.end.p0(ptr %9)
  br label %116

114:                                              ; preds = %111, %101
  %115 = phi { ptr, i32 } [ %112, %111 ], [ %102, %101 ]
  call void @llvm.lifetime.end.p0(ptr %9)
  br label %138

116:                                              ; preds = %113, %77
  invoke void @_ZN5osgeo4proj6common11ObjectUsage13setPropertiesERKNS0_4util11PropertyMapE(ptr noundef nonnull align 8 dereferenceable(48) %0, ptr noundef nonnull align 8 dereferenceable(8) %1)
          to label %117 unwind label %136

117:                                              ; preds = %116
  %118 = load ptr, ptr %7, align 8, !tbaa !42
  %119 = icmp eq ptr %118, %62
  br i1 %119, label %120, label %123

120:                                              ; preds = %117
  %121 = load i64, ptr %63, align 8, !tbaa !40
  %122 = icmp ult i64 %121, 16
  call void @llvm.assume(i1 %122)
  br label %126

123:                                              ; preds = %117
  %124 = load i64, ptr %62, align 8, !tbaa !41
  %125 = add i64 %124, 1
  call void @_ZdlPvm(ptr noundef %118, i64 noundef %125) #33
  br label %126

126:                                              ; preds = %123, %120
  call void @llvm.lifetime.end.p0(ptr %7)
  %127 = load ptr, ptr %4, align 8, !tbaa !42
  %128 = icmp eq ptr %127, %12
  br i1 %128, label %129, label %132

129:                                              ; preds = %126
  %130 = load i64, ptr %13, align 8, !tbaa !40
  %131 = icmp ult i64 %130, 16
  call void @llvm.assume(i1 %131)
  br label %135

132:                                              ; preds = %126
  %133 = load i64, ptr %12, align 8, !tbaa !41
  %134 = add i64 %133, 1
  call void @_ZdlPvm(ptr noundef %127, i64 noundef %134) #33
  br label %135

135:                                              ; preds = %132, %129
  call void @llvm.lifetime.end.p0(ptr %4)
  ret void

136:                                              ; preds = %116
  %137 = landingpad { ptr, i32 }
          cleanup
  br label %138

138:                                              ; preds = %136, %114, %100
  %139 = phi { ptr, i32 } [ %137, %136 ], [ %115, %114 ], [ %91, %100 ]
  %140 = load ptr, ptr %7, align 8, !tbaa !42
  %141 = icmp eq ptr %140, %62
  br i1 %141, label %142, label %145

142:                                              ; preds = %138
  %143 = load i64, ptr %63, align 8, !tbaa !40
  %144 = icmp ult i64 %143, 16
  call void @llvm.assume(i1 %144)
  br label %148

145:                                              ; preds = %138
  %146 = load i64, ptr %62, align 8, !tbaa !41
  %147 = add i64 %146, 1
  call void @_ZdlPvm(ptr noundef %140, i64 noundef %147) #33
  br label %148

148:                                              ; preds = %145, %142
  call void @llvm.lifetime.end.p0(ptr %7)
  br label %149

149:                                              ; preds = %148, %59, %57
  %150 = phi { ptr, i32 } [ %139, %148 ], [ %60, %59 ], [ %58, %57 ]
  %151 = load ptr, ptr %4, align 8, !tbaa !42
  %152 = icmp eq ptr %151, %12
  br i1 %152, label %153, label %156

153:                                              ; preds = %149
  %154 = load i64, ptr %13, align 8, !tbaa !40
  %155 = icmp ult i64 %154, 16
  call void @llvm.assume(i1 %155)
  br label %159

156:                                              ; preds = %149
  %157 = load i64, ptr %12, align 8, !tbaa !41
  %158 = add i64 %157, 1
  call void @_ZdlPvm(ptr noundef %151, i64 noundef %158) #33
  br label %159

159:                                              ; preds = %156, %153
  call void @llvm.lifetime.end.p0(ptr %4)
  resume { ptr, i32 } %150
}

declare noundef zeroext i1 @_ZNK5osgeo4proj4util11PropertyMap14getStringValueERKNSt7__cxx1112basic_stringIcSt11char_traitsIcESaIcEEERS8_(ptr noundef nonnull align 8 dereferenceable(8), ptr noundef nonnull align 8 dereferenceable(32), ptr noundef nonnull align 8 dereferenceable(32)) local_unnamed_addr #1

declare void @_ZN5osgeo4proj6common8DateTime6createERKNSt7__cxx1112basic_stringIcSt11char_traitsIcESaIcEEE(ptr dead_on_unwind writable sret(%"class.osgeo::proj::common::DateTime") align 8, ptr noundef nonnull align 8 dereferenceable(32)) local_unnamed_addr #1

; Function Attrs: nounwind
declare void @_ZN5osgeo4proj6common8DateTimeD1Ev(ptr noundef nonnull align 8 dereferenceable(8)) unnamed_addr #4

declare noundef double @_ZN5osgeo4proj8internal13c_locale_stodERKNSt7__cxx1112basic_stringIcSt11char_traitsIcESaIcEEERb(ptr noundef nonnull align 8 dereferenceable(32), ptr noundef nonnull align 1 dereferenceable(1)) local_unnamed_addr #1

declare void @_ZN5osgeo4proj6common7MeasureC1EdRKNS1_13UnitOfMeasureE(ptr noundef nonnull align 8 dereferenceable(24), double noundef, ptr noundef nonnull align 8 dereferenceable(24)) unnamed_addr #1

; Function Attrs: nounwind
declare void @_ZN5osgeo4proj6common7MeasureD1Ev(ptr noundef nonnull align 8 dereferenceable(24)) unnamed_addr #4

declare void @_ZN5osgeo4proj6common11ObjectUsage13setPropertiesERKNS0_4util11PropertyMapE(ptr noundef nonnull align 8 dereferenceable(48), ptr noundef nonnull align 8 dereferenceable(8)) local_unnamed_addr #1

; Function Attrs: mustprogress sspstrong uwtable
define hidden noundef zeroext i1 @_ZNK5osgeo4proj5datum5Datum15_isEquivalentToEPKNS0_4util11IComparableENS4_9CriterionERKSt10shared_ptrINS0_2io15DatabaseContextEE(ptr noundef nonnull align 8 dereferenceable(64) %0, ptr noundef %1, i32 noundef %2, ptr noundef nonnull align 8 dereferenceable(16) %3) unnamed_addr #0 align 2 personality ptr @__gxx_personality_v0 {
  %5 = alloca %"class.std::__cxx11::basic_string", align 8
  %6 = alloca %"class.std::__cxx11::basic_string", align 8
  %7 = icmp eq ptr %1, null
  br i1 %7, label %115, label %8

8:                                                ; preds = %4
  %9 = tail call ptr @__dynamic_cast(ptr nonnull %1, ptr nonnull @_ZTIN5osgeo4proj4util11IComparableE, ptr nonnull @_ZTIN5osgeo4proj5datum5DatumE, i64 16) #34
  %10 = icmp eq ptr %9, null
  br i1 %10, label %115, label %11

11:                                               ; preds = %8
  %12 = tail call noundef zeroext i1 @_ZNK5osgeo4proj6common11ObjectUsage15_isEquivalentToEPKNS0_4util11IComparableENS4_9CriterionERKSt10shared_ptrINS0_2io15DatabaseContextEE(ptr noundef nonnull align 8 dereferenceable(48) %0, ptr noundef nonnull %1, i32 noundef %2, ptr noundef nonnull align 8 dereferenceable(16) %3)
  br i1 %12, label %13, label %115

13:                                               ; preds = %11
  %14 = icmp eq i32 %2, 0
  br i1 %14, label %15, label %114

15:                                               ; preds = %13
  %16 = getelementptr inbounds nuw i8, ptr %0, i64 56
  %17 = load ptr, ptr %16, align 8, !tbaa !65
  %18 = load i8, ptr %17, align 8, !tbaa !4, !range !14, !noundef !15
  %19 = getelementptr inbounds nuw i8, ptr %9, i64 56
  %20 = load ptr, ptr %19, align 8, !tbaa !65
  %21 = load i8, ptr %20, align 8, !tbaa !4, !range !14, !noundef !15
  %22 = icmp eq i8 %18, %21
  br i1 %22, label %23, label %115

23:                                               ; preds = %15
  %24 = icmp eq i8 %18, 0
  br i1 %24, label %32, label %25

25:                                               ; preds = %23
  %26 = getelementptr inbounds nuw i8, ptr %17, i64 8
  %27 = getelementptr inbounds nuw i8, ptr %20, i64 8
  %28 = tail call noundef zeroext i1 @_ZStneIcSt11char_traitsIcESaIcEEbRKNSt7__cxx1112basic_stringIT_T0_T1_EESA_(ptr noundef nonnull align 8 dereferenceable(32) %26, ptr noundef nonnull align 8 dereferenceable(32) %27) #34
  br i1 %28, label %115, label %29

29:                                               ; preds = %25
  %30 = load ptr, ptr %16, align 8, !tbaa !65
  %31 = load ptr, ptr %19, align 8, !tbaa !65
  br label %32

32:                                               ; preds = %29, %23
  %33 = phi ptr [ %31, %29 ], [ %20, %23 ]
  %34 = phi ptr [ %30, %29 ], [ %17, %23 ]
  %35 = getelementptr inbounds nuw i8, ptr %34, i64 56
  %36 = load i8, ptr %35, align 8, !tbaa !55, !range !14, !noundef !15
  %37 = getelementptr inbounds nuw i8, ptr %33, i64 56
  %38 = load i8, ptr %37, align 8, !tbaa !55, !range !14, !noundef !15
  %39 = icmp eq i8 %36, %38
  br i1 %39, label %40, label %115

40:                                               ; preds = %32
  %41 = icmp eq i8 %36, 0
  br i1 %41, label %100, label %42

42:                                               ; preds = %40
  call void @llvm.lifetime.start.p0(ptr %5)
  %43 = getelementptr inbounds nuw i8, ptr %34, i64 64
  call void @_ZNK5osgeo4proj6common8DateTime8toStringB5cxx11Ev(ptr dead_on_unwind nonnull writable sret(%"class.std::__cxx11::basic_string") align 8 %5, ptr noundef nonnull align 8 dereferenceable(8) %43)
  call void @llvm.lifetime.start.p0(ptr %6)
  %44 = load ptr, ptr %19, align 8, !tbaa !65
  %45 = getelementptr inbounds nuw i8, ptr %44, i64 64
  invoke void @_ZNK5osgeo4proj6common8DateTime8toStringB5cxx11Ev(ptr dead_on_unwind nonnull writable sret(%"class.std::__cxx11::basic_string") align 8 %6, ptr noundef nonnull align 8 dereferenceable(8) %45)
          to label %46 unwind label %87

46:                                               ; preds = %42
  %47 = getelementptr inbounds nuw i8, ptr %5, i64 8
  %48 = load i64, ptr %47, align 8, !tbaa !40
  %49 = icmp ult i64 %48, 9223372036854775807
  call void @llvm.assume(i1 %49)
  %50 = getelementptr inbounds nuw i8, ptr %6, i64 8
  %51 = load i64, ptr %50, align 8, !tbaa !40
  %52 = icmp ult i64 %51, 9223372036854775807
  call void @llvm.assume(i1 %52)
  %53 = icmp eq i64 %48, %51
  br i1 %53, label %56, label %54

54:                                               ; preds = %46
  %55 = load ptr, ptr %6, align 8, !tbaa !42
  br label %63

56:                                               ; preds = %46
  %57 = icmp eq i64 %48, 0
  %58 = load ptr, ptr %6, align 8, !tbaa !42
  br i1 %57, label %63, label %59

59:                                               ; preds = %56
  %60 = load ptr, ptr %5, align 8, !tbaa !42
  %61 = call i32 @bcmp(ptr %60, ptr %58, i64 %48)
  %62 = icmp ne i32 %61, 0
  br label %63

63:                                               ; preds = %59, %56, %54
  %64 = phi ptr [ %58, %56 ], [ %58, %59 ], [ %55, %54 ]
  %65 = phi i1 [ false, %56 ], [ %62, %59 ], [ true, %54 ]
  %66 = getelementptr inbounds nuw i8, ptr %6, i64 16
  %67 = icmp eq ptr %64, %66
  br i1 %67, label %68, label %70

68:                                               ; preds = %63
  %69 = icmp samesign ult i64 %51, 16
  call void @llvm.assume(i1 %69)
  br label %73

70:                                               ; preds = %63
  %71 = load i64, ptr %66, align 8, !tbaa !41
  %72 = add i64 %71, 1
  call void @_ZdlPvm(ptr noundef %64, i64 noundef %72) #33
  br label %73

73:                                               ; preds = %70, %68
  call void @llvm.lifetime.end.p0(ptr %6)
  %74 = load ptr, ptr %5, align 8, !tbaa !42
  %75 = getelementptr inbounds nuw i8, ptr %5, i64 16
  %76 = icmp eq ptr %74, %75
  br i1 %76, label %77, label %80

77:                                               ; preds = %73
  %78 = load i64, ptr %47, align 8, !tbaa !40
  %79 = icmp ult i64 %78, 16
  call void @llvm.assume(i1 %79)
  br label %83

80:                                               ; preds = %73
  %81 = load i64, ptr %75, align 8, !tbaa !41
  %82 = add i64 %81, 1
  call void @_ZdlPvm(ptr noundef %74, i64 noundef %82) #33
  br label %83

83:                                               ; preds = %80, %77
  call void @llvm.lifetime.end.p0(ptr %5)
  br i1 %65, label %115, label %84

84:                                               ; preds = %83
  %85 = load ptr, ptr %16, align 8, !tbaa !65
  %86 = load ptr, ptr %19, align 8, !tbaa !65
  br label %100

87:                                               ; preds = %42
  %88 = landingpad { ptr, i32 }
          cleanup
  call void @llvm.lifetime.end.p0(ptr %6)
  %89 = load ptr, ptr %5, align 8, !tbaa !42
  %90 = getelementptr inbounds nuw i8, ptr %5, i64 16
  %91 = icmp eq ptr %89, %90
  br i1 %91, label %92, label %96

92:                                               ; preds = %87
  %93 = getelementptr inbounds nuw i8, ptr %5, i64 8
  %94 = load i64, ptr %93, align 8, !tbaa !40
  %95 = icmp ult i64 %94, 16
  call void @llvm.assume(i1 %95)
  br label %99

96:                                               ; preds = %87
  %97 = load i64, ptr %90, align 8, !tbaa !41
  %98 = add i64 %97, 1
  call void @_ZdlPvm(ptr noundef %89, i64 noundef %98) #33
  br label %99

99:                                               ; preds = %96, %92
  call void @llvm.lifetime.end.p0(ptr %5)
  resume { ptr, i32 } %88

100:                                              ; preds = %84, %40
  %101 = phi ptr [ %86, %84 ], [ %33, %40 ]
  %102 = phi ptr [ %85, %84 ], [ %34, %40 ]
  %103 = getelementptr inbounds nuw i8, ptr %102, i64 72
  %104 = load ptr, ptr %103, align 8, !tbaa !73
  %105 = icmp ne ptr %104, null
  %106 = getelementptr inbounds nuw i8, ptr %101, i64 72
  %107 = load ptr, ptr %106, align 8, !tbaa !73
  %108 = icmp ne ptr %107, null
  %109 = xor i1 %105, %108
  br i1 %109, label %115, label %110

110:                                              ; preds = %100
  %111 = and i1 %105, %108
  br i1 %111, label %112, label %114

112:                                              ; preds = %110
  %113 = call noundef zeroext i1 @_ZNK5osgeo4proj6common16IdentifiedObject15_isEquivalentToEPKS2_NS0_4util11IComparable9CriterionERKSt10shared_ptrINS0_2io15DatabaseContextEE(ptr noundef nonnull align 8 dereferenceable(40) %104, ptr noundef nonnull %107, i32 noundef 0, ptr noundef nonnull align 8 dereferenceable(16) %3) #32
  br i1 %113, label %115, label %114

114:                                              ; preds = %112, %110, %13
  br label %115

115:                                              ; preds = %114, %112, %100, %83, %32, %25, %15, %11, %8, %4
  %116 = phi i1 [ true, %114 ], [ false, %11 ], [ false, %8 ], [ false, %15 ], [ false, %25 ], [ false, %32 ], [ false, %83 ], [ false, %100 ], [ false, %112 ], [ false, %4 ]
  ret i1 %116
}

; Function Attrs: mustprogress nofree nounwind willreturn memory(read)
declare ptr @__dynamic_cast(ptr, ptr, ptr, i64) local_unnamed_addr #12

declare noundef zeroext i1 @_ZNK5osgeo4proj6common11ObjectUsage15_isEquivalentToEPKNS0_4util11IComparableENS4_9CriterionERKSt10shared_ptrINS0_2io15DatabaseContextEE(ptr noundef nonnull align 8 dereferenceable(48), ptr noundef, i32 noundef, ptr noundef nonnull align 8 dereferenceable(16)) unnamed_addr #1

; Function Attrs: inlinehint mustprogress nounwind sspstrong uwtable
define linkonce_odr noundef zeroext i1 @_ZStneIcSt11char_traitsIcESaIcEEbRKNSt7__cxx1112basic_stringIT_T0_T1_EESA_(ptr noundef nonnull align 8 dereferenceable(32) %0, ptr noundef nonnull align 8 dereferenceable(32) %1) local_unnamed_addr #13 comdat personality ptr @__gxx_personality_v0 {
  %3 = getelementptr inbounds nuw i8, ptr %0, i64 8
  %4 = load i64, ptr %3, align 8, !tbaa !40
  %5 = icmp ult i64 %4, 9223372036854775807
  tail call void @llvm.assume(i1 %5)
  %6 = getelementptr inbounds nuw i8, ptr %1, i64 8
  %7 = load i64, ptr %6, align 8, !tbaa !40
  %8 = icmp ult i64 %7, 9223372036854775807
  tail call void @llvm.assume(i1 %8)
  %9 = icmp eq i64 %4, %7
  br i1 %9, label %10, label %17

10:                                               ; preds = %2
  %11 = icmp eq i64 %4, 0
  br i1 %11, label %17, label %12

12:                                               ; preds = %10
  %13 = load ptr, ptr %1, align 8, !tbaa !42
  %14 = load ptr, ptr %0, align 8, !tbaa !42
  %15 = tail call i32 @bcmp(ptr %14, ptr %13, i64 %4)
  %16 = icmp ne i32 %15, 0
  br label %17

17:                                               ; preds = %12, %10, %2
  %18 = phi i1 [ true, %2 ], [ %16, %12 ], [ false, %10 ]
  ret i1 %18
}

declare void @_ZNK5osgeo4proj6common8DateTime8toStringB5cxx11Ev(ptr dead_on_unwind writable sret(%"class.std::__cxx11::basic_string") align 8, ptr noundef nonnull align 8 dereferenceable(8)) local_unnamed_addr #1

; Function Attrs: mustprogress nofree nounwind willreturn memory(read)
declare hidden noundef zeroext i1 @_ZNK5osgeo4proj6common16IdentifiedObject15_isEquivalentToEPKS2_NS0_4util11IComparable9CriterionERKSt10shared_ptrINS0_2io15DatabaseContextEE(ptr noundef nonnull align 8 dereferenceable(40), ptr noundef, i32 noundef, ptr noundef nonnull align 8 dereferenceable(16)) local_unnamed_addr #2

; Function Attrs: sspstrong uwtable
define hidden noundef zeroext i1 @_ZThn16_NK5osgeo4proj5datum5Datum15_isEquivalentToEPKNS0_4util11IComparableENS4_9CriterionERKSt10shared_ptrINS0_2io15DatabaseContextEE(ptr noundef %0, ptr noundef %1, i32 noundef %2, ptr noundef nonnull align 8 dereferenceable(16) %3) unnamed_addr #14 align 2 {
  %5 = getelementptr inbounds i8, ptr %0, i64 -16
  %6 = tail call noundef zeroext i1 @_ZNK5osgeo4proj5datum5Datum15_isEquivalentToEPKNS0_4util11IComparableENS4_9CriterionERKSt10shared_ptrINS0_2io15DatabaseContextEE(ptr noundef nonnull align 8 dereferenceable(64) %5, ptr noundef %1, i32 noundef %2, ptr noundef nonnull align 8 dereferenceable(16) %3)
  ret i1 %6
}

; Function Attrs: mustprogress sspstrong uwtable
define hidden void @_ZN5osgeo4proj5datum13PrimeMeridianC2ERKNS0_6common5AngleE(ptr noundef nonnull align 8 dereferenceable(64) %0, ptr noundef nonnull align 8 dereferenceable(24) %1) unnamed_addr #0 align 2 personality ptr @__gxx_personality_v0 {
  tail call void @_ZN5osgeo4proj6common16IdentifiedObjectC2Ev(ptr noundef nonnull align 8 dereferenceable(40) %0)
  %3 = getelementptr inbounds nuw i8, ptr %0, i64 40
  %4 = getelementptr inbounds nuw i8, ptr %0, i64 48
  store ptr getelementptr inbounds nuw inrange(-16, 56) (i8, ptr @_ZTVN5osgeo4proj5datum13PrimeMeridianE, i64 16), ptr %0, align 8, !tbaa !44
  %5 = getelementptr inbounds nuw i8, ptr %0, i64 16
  store ptr getelementptr inbounds nuw inrange(-16, 24) (i8, ptr @_ZTVN5osgeo4proj5datum13PrimeMeridianE, i64 88), ptr %5, align 8, !tbaa !44
  %6 = getelementptr inbounds nuw i8, ptr %0, i64 24
  store ptr getelementptr inbounds nuw inrange(-16, 24) (i8, ptr @_ZTVN5osgeo4proj5datum13PrimeMeridianE, i64 128), ptr %6, align 8, !tbaa !44
  store ptr getelementptr inbounds nuw inrange(-16, 24) (i8, ptr @_ZTVN5osgeo4proj5datum13PrimeMeridianE, i64 168), ptr %3, align 8, !tbaa !44
  store ptr getelementptr inbounds nuw inrange(-16, 24) (i8, ptr @_ZTVN5osgeo4proj5datum13PrimeMeridianE, i64 208), ptr %4, align 8, !tbaa !44
  tail call void @llvm.experimental.noalias.scope.decl(metadata !76)
  %7 = invoke noalias noundef nonnull dereferenceable(24) ptr @_Znwm(i64 noundef 24) #35
          to label %8 unwind label %13

8:                                                ; preds = %2
  invoke void @_ZN5osgeo4proj6common5AngleC1ERKS2_(ptr noundef nonnull align 8 dereferenceable(24) %7, ptr noundef nonnull align 8 dereferenceable(24) %1)
          to label %11 unwind label %9, !noalias !76

9:                                                ; preds = %8
  %10 = landingpad { ptr, i32 }
          cleanup
  tail call void @_ZdlPvm(ptr noundef nonnull %7, i64 noundef 24) #33, !noalias !76
  br label %15

11:                                               ; preds = %8
  %12 = getelementptr inbounds nuw i8, ptr %0, i64 56
  store ptr %7, ptr %12, align 8, !tbaa !79, !alias.scope !76
  ret void

13:                                               ; preds = %2
  %14 = landingpad { ptr, i32 }
          cleanup
  br label %15

15:                                               ; preds = %13, %9
  %16 = phi { ptr, i32 } [ %14, %13 ], [ %10, %9 ]
  tail call void @_ZN5osgeo4proj2io15IJSONExportableD2Ev(ptr noundef nonnull align 8 dereferenceable(8) %4) #34
  tail call void @_ZN5osgeo4proj2io21IPROJStringExportableD2Ev(ptr noundef nonnull align 8 dereferenceable(8) %3) #34
  tail call void @_ZN5osgeo4proj6common16IdentifiedObjectD2Ev(ptr noundef nonnull align 8 dereferenceable(40) %0) #34
  resume { ptr, i32 } %16
}

declare void @_ZN5osgeo4proj6common16IdentifiedObjectC2Ev(ptr noundef nonnull align 8 dereferenceable(40)) unnamed_addr #1

; Function Attrs: nounwind
declare void @_ZN5osgeo4proj2io21IPROJStringExportableD2Ev(ptr noundef nonnull align 8 dereferenceable(8)) unnamed_addr #4

; Function Attrs: nounwind
declare void @_ZN5osgeo4proj6common16IdentifiedObjectD2Ev(ptr noundef nonnull align 8 dereferenceable(40)) unnamed_addr #4

; Function Attrs: mustprogress nounwind sspstrong uwtable
define void @_ZN5osgeo4proj5datum13PrimeMeridianD2Ev(ptr noundef nonnull align 8 dereferenceable(64) %0) unnamed_addr #5 align 2 personality ptr @__gxx_personality_v0 {
  %2 = getelementptr inbounds nuw i8, ptr %0, i64 56
  %3 = load ptr, ptr %2, align 8, !tbaa !79
  %4 = icmp eq ptr %3, null
  br i1 %4, label %6, label %5

5:                                                ; preds = %1
  tail call void @_ZN5osgeo4proj6common5AngleD1Ev(ptr noundef nonnull align 8 dereferenceable(24) %3) #34
  tail call void @_ZdlPvm(ptr noundef nonnull %3, i64 noundef 24) #33
  br label %6

6:                                                ; preds = %5, %1
  store ptr null, ptr %2, align 8, !tbaa !79
  %7 = getelementptr inbounds nuw i8, ptr %0, i64 48
  tail call void @_ZN5osgeo4proj2io15IJSONExportableD2Ev(ptr noundef nonnull align 8 dereferenceable(8) %7) #34
  %8 = getelementptr inbounds nuw i8, ptr %0, i64 40
  tail call void @_ZN5osgeo4proj2io21IPROJStringExportableD2Ev(ptr noundef nonnull align 8 dereferenceable(8) %8) #34
  tail call void @_ZN5osgeo4proj6common16IdentifiedObjectD2Ev(ptr noundef nonnull align 8 dereferenceable(40) %0) #34
  ret void
}

; Function Attrs: nounwind sspstrong uwtable
define void @_ZThn16_N5osgeo4proj5datum13PrimeMeridianD1Ev(ptr noundef %0) unnamed_addr #6 align 2 {
  %2 = getelementptr inbounds i8, ptr %0, i64 -16
  tail call void @_ZN5osgeo4proj5datum13PrimeMeridianD1Ev(ptr noundef nonnull align 8 dereferenceable(64) %2) #34
  ret void
}

; Function Attrs: nounwind sspstrong uwtable
define void @_ZThn24_N5osgeo4proj5datum13PrimeMeridianD1Ev(ptr noundef %0) unnamed_addr #6 align 2 {
  %2 = getelementptr inbounds i8, ptr %0, i64 -24
  tail call void @_ZN5osgeo4proj5datum13PrimeMeridianD1Ev(ptr noundef nonnull align 8 dereferenceable(64) %2) #34
  ret void
}

; Function Attrs: nounwind sspstrong uwtable
define void @_ZThn40_N5osgeo4proj5datum13PrimeMeridianD1Ev(ptr noundef %0) unnamed_addr #6 align 2 {
  %2 = getelementptr inbounds i8, ptr %0, i64 -40
  tail call void @_ZN5osgeo4proj5datum13PrimeMeridianD1Ev(ptr noundef nonnull align 8 dereferenceable(64) %2) #34
  ret void
}

; Function Attrs: nounwind sspstrong uwtable
define void @_ZThn48_N5osgeo4proj5datum13PrimeMeridianD1Ev(ptr noundef %0) unnamed_addr #6 align 2 {
  %2 = getelementptr inbounds i8, ptr %0, i64 -48
  tail call void @_ZN5osgeo4proj5datum13PrimeMeridianD1Ev(ptr noundef nonnull align 8 dereferenceable(64) %2) #34
  ret void
}

; Function Attrs: mustprogress nounwind sspstrong uwtable
define void @_ZN5osgeo4proj5datum13PrimeMeridianD0Ev(ptr noundef nonnull align 8 dereferenceable(64) %0) unnamed_addr #5 align 2 {
  tail call void @_ZN5osgeo4proj5datum13PrimeMeridianD1Ev(ptr noundef nonnull align 8 dereferenceable(64) %0) #34
  tail call void @_ZdlPvm(ptr noundef nonnull %0, i64 noundef 64) #33
  ret void
}

; Function Attrs: nobuiltin nounwind
declare void @_ZdlPvm(ptr noundef, i64 noundef) local_unnamed_addr #15

; Function Attrs: nounwind sspstrong uwtable
define void @_ZThn16_N5osgeo4proj5datum13PrimeMeridianD0Ev(ptr noundef %0) unnamed_addr #6 align 2 {
  %2 = getelementptr inbounds i8, ptr %0, i64 -16
  tail call void @_ZN5osgeo4proj5datum13PrimeMeridianD1Ev(ptr noundef nonnull align 8 dereferenceable(64) %2) #34
  tail call void @_ZdlPvm(ptr noundef nonnull align 8 dereferenceable(64) %2, i64 noundef 64) #33
  ret void
}

; Function Attrs: nounwind sspstrong uwtable
define void @_ZThn24_N5osgeo4proj5datum13PrimeMeridianD0Ev(ptr noundef %0) unnamed_addr #6 align 2 {
  %2 = getelementptr inbounds i8, ptr %0, i64 -24
  tail call void @_ZN5osgeo4proj5datum13PrimeMeridianD1Ev(ptr noundef nonnull align 8 dereferenceable(64) %2) #34
  tail call void @_ZdlPvm(ptr noundef nonnull align 8 dereferenceable(64) %2, i64 noundef 64) #33
  ret void
}

; Function Attrs: nounwind sspstrong uwtable
define void @_ZThn40_N5osgeo4proj5datum13PrimeMeridianD0Ev(ptr noundef %0) unnamed_addr #6 align 2 {
  %2 = getelementptr inbounds i8, ptr %0, i64 -40
  tail call void @_ZN5osgeo4proj5datum13PrimeMeridianD1Ev(ptr noundef nonnull align 8 dereferenceable(64) %2) #34
  tail call void @_ZdlPvm(ptr noundef nonnull align 8 dereferenceable(64) %2, i64 noundef 64) #33
  ret void
}

; Function Attrs: nounwind sspstrong uwtable
define void @_ZThn48_N5osgeo4proj5datum13PrimeMeridianD0Ev(ptr noundef %0) unnamed_addr #6 align 2 {
  %2 = getelementptr inbounds i8, ptr %0, i64 -48
  tail call void @_ZN5osgeo4proj5datum13PrimeMeridianD1Ev(ptr noundef nonnull align 8 dereferenceable(64) %2) #34
  tail call void @_ZdlPvm(ptr noundef nonnull align 8 dereferenceable(64) %2, i64 noundef 64) #33
  ret void
}

; Function Attrs: mustprogress nofree norecurse nosync nounwind sspstrong willreturn memory(argmem: read) uwtable
define noundef nonnull align 8 dereferenceable(24) ptr @_ZNK5osgeo4proj5datum13PrimeMeridian9longitudeEv(ptr noundef nonnull readonly align 8 captures(none) dereferenceable(64) %0) local_unnamed_addr #10 align 2 {
  %2 = getelementptr inbounds nuw i8, ptr %0, i64 56
  %3 = load ptr, ptr %2, align 8, !tbaa !79
  ret ptr %3
}

; Function Attrs: mustprogress sspstrong uwtable
define void @_ZN5osgeo4proj5datum13PrimeMeridian6createERKNS0_4util11PropertyMapERKNS0_6common5AngleE(ptr dead_on_unwind noalias writable sret(%"class.dropbox::oxygen::nn") align 8 %0, ptr noundef nonnull align 8 dereferenceable(8) %1, ptr noundef nonnull align 8 dereferenceable(24) %2) local_unnamed_addr #0 align 2 personality ptr @__gxx_personality_v0 {
  tail call void @_ZN5osgeo4proj5datum13PrimeMeridian14nn_make_sharedIS2_JRKNS0_6common5AngleEEEEN7dropbox6oxygen2nnISt10shared_ptrIT_EEEDpOT0_(ptr dead_on_unwind writable sret(%"class.dropbox::oxygen::nn") align 8 %0, ptr noundef nonnull align 8 dereferenceable(24) %2)
  %4 = load ptr, ptr %0, align 8, !tbaa !81
  invoke void @_ZN5osgeo4proj6common16IdentifiedObject13setPropertiesERKNS0_4util11PropertyMapE(ptr noundef nonnull align 8 dereferenceable(40) %4, ptr noundef nonnull align 8 dereferenceable(8) %1)
          to label %7 unwind label %5

5:                                                ; preds = %3
  %6 = landingpad { ptr, i32 }
          cleanup
  tail call void @_ZN7dropbox6oxygen2nnISt10shared_ptrIN5osgeo4proj5datum13PrimeMeridianEEED2Ev(ptr noundef nonnull align 8 dereferenceable(16) %0) #34
  resume { ptr, i32 } %6

7:                                                ; preds = %3
  ret void
}

; Function Attrs: mustprogress sspstrong uwtable
define linkonce_odr hidden void @_ZN5osgeo4proj5datum13PrimeMeridian14nn_make_sharedIS2_JRKNS0_6common5AngleEEEEN7dropbox6oxygen2nnISt10shared_ptrIT_EEEDpOT0_(ptr dead_on_unwind noalias writable sret(%"class.dropbox::oxygen::nn") align 8 %0, ptr noundef nonnull align 8 dereferenceable(24) %1) local_unnamed_addr #0 comdat align 2 personality ptr @__gxx_personality_v0 {
  %3 = tail call noalias noundef nonnull dereferenceable(64) ptr @_Znwm(i64 noundef 64) #35
  invoke void @_ZN5osgeo4proj5datum13PrimeMeridianC2ERKNS0_6common5AngleE(ptr noundef nonnull align 8 dereferenceable(64) %3, ptr noundef nonnull align 8 dereferenceable(24) %1)
          to label %4 unwind label %23

4:                                                ; preds = %2
  %5 = invoke noalias noundef nonnull dereferenceable(24) ptr @_Znwm(i64 noundef 24) #35
          to label %18 unwind label %6

6:                                                ; preds = %4
  %7 = landingpad { ptr, i32 }
          catch ptr null
  %8 = extractvalue { ptr, i32 } %7, 0
  %9 = tail call ptr @__cxa_begin_catch(ptr %8) #34
  tail call void @_ZN5osgeo4proj5datum13PrimeMeridianD1Ev(ptr noundef nonnull align 8 dereferenceable(64) %3) #34
  tail call void @_ZdlPvm(ptr noundef nonnull %3, i64 noundef 64) #33
  invoke void @__cxa_rethrow() #37
          to label %17 unwind label %10

10:                                               ; preds = %6
  %11 = landingpad { ptr, i32 }
          cleanup
  invoke void @__cxa_end_catch()
          to label %12 unwind label %14

12:                                               ; preds = %23, %10
  %13 = phi { ptr, i32 } [ %24, %23 ], [ %11, %10 ]
  resume { ptr, i32 } %13

14:                                               ; preds = %10
  %15 = landingpad { ptr, i32 }
          catch ptr null
  %16 = extractvalue { ptr, i32 } %15, 0
  tail call void @__clang_call_terminate(ptr %16) #36
  unreachable

17:                                               ; preds = %6
  unreachable

18:                                               ; preds = %4
  %19 = getelementptr inbounds nuw i8, ptr %5, i64 8
  store i32 1, ptr %19, align 8, !tbaa !49
  %20 = getelementptr inbounds nuw i8, ptr %5, i64 12
  store i32 1, ptr %20, align 4, !tbaa !52
  store ptr getelementptr inbounds nuw inrange(-16, 40) (i8, ptr @_ZTVSt15_Sp_counted_ptrIPN5osgeo4proj5datum13PrimeMeridianELN9__gnu_cxx12_Lock_policyE2EE, i64 16), ptr %5, align 8, !tbaa !44
  %21 = getelementptr inbounds nuw i8, ptr %5, i64 16
  store ptr %3, ptr %21, align 8, !tbaa !84
  store ptr %3, ptr %0, align 8, !tbaa !81
  %22 = getelementptr inbounds nuw i8, ptr %0, i64 8
  store ptr %5, ptr %22, align 8, !tbaa !53
  ret void

23:                                               ; preds = %2
  %24 = landingpad { ptr, i32 }
          cleanup
  tail call void @_ZdlPvm(ptr noundef nonnull %3, i64 noundef 64) #33
  br label %12
}

declare void @_ZN5osgeo4proj6common16IdentifiedObject13setPropertiesERKNS0_4util11PropertyMapE(ptr noundef nonnull align 8 dereferenceable(40), ptr noundef nonnull align 8 dereferenceable(8)) local_unnamed_addr #1

; Function Attrs: inlinehint mustprogress nounwind sspstrong uwtable
define linkonce_odr hidden void @_ZN7dropbox6oxygen2nnISt10shared_ptrIN5osgeo4proj5datum13PrimeMeridianEEED2Ev(ptr noundef nonnull align 8 dereferenceable(16) %0) unnamed_addr #13 comdat align 2 personality ptr @__gxx_personality_v0 {
  %2 = getelementptr inbounds nuw i8, ptr %0, i64 8
  %3 = load ptr, ptr %2, align 8, !tbaa !53
  %4 = icmp eq ptr %3, null
  br i1 %4, label %29, label %5

5:                                                ; preds = %1
  %6 = getelementptr inbounds nuw i8, ptr %3, i64 8
  %7 = load atomic i64, ptr %6 acquire, align 8
  %8 = icmp eq i64 %7, 4294967297
  %9 = trunc i64 %7 to i32
  br i1 %8, label %10, label %18

10:                                               ; preds = %5
  store i32 0, ptr %6, align 8, !tbaa !49
  %11 = getelementptr inbounds nuw i8, ptr %3, i64 12
  store i32 0, ptr %11, align 4, !tbaa !52
  %12 = load ptr, ptr %3, align 8, !tbaa !44
  %13 = getelementptr inbounds nuw i8, ptr %12, i64 16
  %14 = load ptr, ptr %13, align 8
  tail call void %14(ptr noundef nonnull align 8 dereferenceable(16) %3) #34
  %15 = load ptr, ptr %3, align 8, !tbaa !44
  %16 = getelementptr inbounds nuw i8, ptr %15, i64 24
  %17 = load ptr, ptr %16, align 8
  tail call void %17(ptr noundef nonnull align 8 dereferenceable(16) %3) #34
  br label %29

18:                                               ; preds = %5
  %19 = load i8, ptr @__libc_single_threaded, align 1, !tbaa !41
  %20 = icmp eq i8 %19, 0
  br i1 %20, label %23, label %21

21:                                               ; preds = %18
  %22 = add nsw i32 %9, -1
  store i32 %22, ptr %6, align 4, !tbaa !70
  br label %25

23:                                               ; preds = %18
  %24 = atomicrmw volatile add ptr %6, i32 -1 acq_rel, align 4
  br label %25

25:                                               ; preds = %23, %21
  %26 = phi i32 [ %9, %21 ], [ %24, %23 ]
  %27 = icmp eq i32 %26, 1
  br i1 %27, label %28, label %29, !prof !71

28:                                               ; preds = %25
  tail call void @_ZNSt16_Sp_counted_baseILN9__gnu_cxx12_Lock_policyE2EE24_M_release_last_use_coldEv(ptr noundef nonnull align 8 dereferenceable(16) %3) #34
  br label %29

29:                                               ; preds = %28, %25, %10, %1
  ret void
}

; Function Attrs: mustprogress sspstrong uwtable
define hidden void @_ZN5osgeo4proj5datum13PrimeMeridian15createGREENWICHEv(ptr dead_on_unwind noalias writable sret(%"class.dropbox::oxygen::nn") align 8 %0) local_unnamed_addr #0 align 2 personality ptr @__gxx_personality_v0 {
  %2 = alloca %"class.osgeo::proj::util::PropertyMap", align 8
  %3 = alloca %"class.osgeo::proj::common::Angle", align 8
  call void @llvm.lifetime.start.p0(ptr %2)
  call fastcc void @_ZN5osgeo4proj5datumL21createMapNameEPSGCodeEPKci(ptr dead_on_unwind noalias writable align 8 %2, ptr noundef nonnull @.str.4, i32 noundef 8901)
  call void @llvm.lifetime.start.p0(ptr %3)
  invoke void @_ZN5osgeo4proj6common5AngleC1Ed(ptr noundef nonnull align 8 dereferenceable(24) %3, double noundef 0.000000e+00)
          to label %4 unwind label %10

4:                                                ; preds = %1
  invoke void @_ZN5osgeo4proj5datum13PrimeMeridian14nn_make_sharedIS2_JRKNS0_6common5AngleEEEEN7dropbox6oxygen2nnISt10shared_ptrIT_EEEDpOT0_(ptr dead_on_unwind writable sret(%"class.dropbox::oxygen::nn") align 8 %0, ptr noundef nonnull align 8 dereferenceable(24) %3)
          to label %5 unwind label %12

5:                                                ; preds = %4
  %6 = load ptr, ptr %0, align 8, !tbaa !81, !alias.scope !86
  invoke void @_ZN5osgeo4proj6common16IdentifiedObject13setPropertiesERKNS0_4util11PropertyMapE(ptr noundef nonnull align 8 dereferenceable(40) %6, ptr noundef nonnull align 8 dereferenceable(8) %2)
          to label %9 unwind label %7

7:                                                ; preds = %5
  %8 = landingpad { ptr, i32 }
          cleanup
  call void @_ZN7dropbox6oxygen2nnISt10shared_ptrIN5osgeo4proj5datum13PrimeMeridianEEED2Ev(ptr noundef nonnull align 8 dereferenceable(16) %0) #34
  br label %14

9:                                                ; preds = %5
  call void @_ZN5osgeo4proj6common5AngleD1Ev(ptr noundef nonnull align 8 dereferenceable(24) %3) #34
  call void @llvm.lifetime.end.p0(ptr %3)
  call void @_ZN5osgeo4proj4util11PropertyMapD1Ev(ptr noundef nonnull align 8 dereferenceable(8) %2) #34
  call void @llvm.lifetime.end.p0(ptr %2)
  ret void

10:                                               ; preds = %1
  %11 = landingpad { ptr, i32 }
          cleanup
  br label %16

12:                                               ; preds = %4
  %13 = landingpad { ptr, i32 }
          cleanup
  br label %14

14:                                               ; preds = %12, %7
  %15 = phi { ptr, i32 } [ %13, %12 ], [ %8, %7 ]
  call void @_ZN5osgeo4proj6common5AngleD1Ev(ptr noundef nonnull align 8 dereferenceable(24) %3) #34
  br label %16

16:                                               ; preds = %14, %10
  %17 = phi { ptr, i32 } [ %15, %14 ], [ %11, %10 ]
  call void @llvm.lifetime.end.p0(ptr %3)
  call void @_ZN5osgeo4proj4util11PropertyMapD1Ev(ptr noundef nonnull align 8 dereferenceable(8) %2) #34
  call void @llvm.lifetime.end.p0(ptr %2)
  resume { ptr, i32 } %17
}

; Function Attrs: mustprogress sspstrong uwtable
define internal fastcc void @_ZN5osgeo4proj5datumL21createMapNameEPSGCodeEPKci(ptr dead_on_unwind noalias nonnull writable align 8 %0, ptr noundef %1, i32 noundef range(i32 6267, 8904) %2) unnamed_addr #0 personality ptr @__gxx_personality_v0 {
  %4 = alloca %"class.osgeo::proj::util::PropertyMap", align 8
  call void @llvm.lifetime.start.p0(ptr %4)
  call void @_ZN5osgeo4proj4util11PropertyMapC1Ev(ptr noundef nonnull align 8 dereferenceable(8) %4)
  %5 = invoke noundef nonnull align 8 dereferenceable(8) ptr @_ZN5osgeo4proj4util11PropertyMap3setERKNSt7__cxx1112basic_stringIcSt11char_traitsIcESaIcEEEPKc(ptr noundef nonnull align 8 dereferenceable(8) %4, ptr noundef nonnull align 8 dereferenceable(32) @_ZN5osgeo4proj6common16IdentifiedObject8NAME_KEYB5cxx11E, ptr noundef %1)
          to label %6 unwind label %12

6:                                                ; preds = %3
  %7 = invoke noundef nonnull align 8 dereferenceable(8) ptr @_ZN5osgeo4proj4util11PropertyMap3setERKNSt7__cxx1112basic_stringIcSt11char_traitsIcESaIcEEESA_(ptr noundef nonnull align 8 dereferenceable(8) %5, ptr noundef nonnull align 8 dereferenceable(32) @_ZN5osgeo4proj8metadata10Identifier13CODESPACE_KEYB5cxx11E, ptr noundef nonnull align 8 dereferenceable(32) @_ZN5osgeo4proj8metadata10Identifier4EPSGB5cxx11E)
          to label %8 unwind label %12

8:                                                ; preds = %6
  %9 = invoke noundef nonnull align 8 dereferenceable(8) ptr @_ZN5osgeo4proj4util11PropertyMap3setERKNSt7__cxx1112basic_stringIcSt11char_traitsIcESaIcEEEi(ptr noundef nonnull align 8 dereferenceable(8) %7, ptr noundef nonnull align 8 dereferenceable(32) @_ZN5osgeo4proj8metadata10Identifier8CODE_KEYB5cxx11E, i32 noundef %2)
          to label %10 unwind label %12

10:                                               ; preds = %8
  invoke void @_ZN5osgeo4proj4util11PropertyMapC1ERKS2_(ptr noundef nonnull align 8 dereferenceable(8) %0, ptr noundef nonnull align 8 dereferenceable(8) %9)
          to label %11 unwind label %12

11:                                               ; preds = %10
  call void @_ZN5osgeo4proj4util11PropertyMapD1Ev(ptr noundef nonnull align 8 dereferenceable(8) %4) #34
  call void @llvm.lifetime.end.p0(ptr %4)
  ret void

12:                                               ; preds = %10, %8, %6, %3
  %13 = landingpad { ptr, i32 }
          cleanup
  call void @_ZN5osgeo4proj4util11PropertyMapD1Ev(ptr noundef nonnull align 8 dereferenceable(8) %4) #34
  call void @llvm.lifetime.end.p0(ptr %4)
  resume { ptr, i32 } %13
}

declare void @_ZN5osgeo4proj6common5AngleC1Ed(ptr noundef nonnull align 8 dereferenceable(24), double noundef) unnamed_addr #1

; Function Attrs: nounwind
declare void @_ZN5osgeo4proj6common5AngleD1Ev(ptr noundef nonnull align 8 dereferenceable(24)) unnamed_addr #4

; Function Attrs: nounwind
declare void @_ZN5osgeo4proj4util11PropertyMapD1Ev(ptr noundef nonnull align 8 dereferenceable(8)) unnamed_addr #4

; Function Attrs: mustprogress sspstrong uwtable
define hidden void @_ZN5osgeo4proj5datum13PrimeMeridian24createREFERENCE_MERIDIANEv(ptr dead_on_unwind noalias writable sret(%"class.dropbox::oxygen::nn") align 8 %0) local_unnamed_addr #0 align 2 personality ptr @__gxx_personality_v0 {
  %2 = alloca %"class.osgeo::proj::util::PropertyMap", align 8
  %3 = alloca %"class.osgeo::proj::common::Angle", align 8
  call void @llvm.lifetime.start.p0(ptr %2)
  call void @_ZN5osgeo4proj4util11PropertyMapC1Ev(ptr noundef nonnull align 8 dereferenceable(8) %2)
  %4 = invoke noundef nonnull align 8 dereferenceable(8) ptr @_ZN5osgeo4proj4util11PropertyMap3setERKNSt7__cxx1112basic_stringIcSt11char_traitsIcESaIcEEEPKc(ptr noundef nonnull align 8 dereferenceable(8) %2, ptr noundef nonnull align 8 dereferenceable(32) @_ZN5osgeo4proj6common16IdentifiedObject8NAME_KEYB5cxx11E, ptr noundef nonnull @.str.5)
          to label %5 unwind label %12

5:                                                ; preds = %1
  call void @llvm.lifetime.start.p0(ptr %3)
  invoke void @_ZN5osgeo4proj6common5AngleC1Ed(ptr noundef nonnull align 8 dereferenceable(24) %3, double noundef 0.000000e+00)
          to label %6 unwind label %14

6:                                                ; preds = %5
  invoke void @_ZN5osgeo4proj5datum13PrimeMeridian14nn_make_sharedIS2_JRKNS0_6common5AngleEEEEN7dropbox6oxygen2nnISt10shared_ptrIT_EEEDpOT0_(ptr dead_on_unwind writable sret(%"class.dropbox::oxygen::nn") align 8 %0, ptr noundef nonnull align 8 dereferenceable(24) %3)
          to label %7 unwind label %16

7:                                                ; preds = %6
  %8 = load ptr, ptr %0, align 8, !tbaa !81, !alias.scope !89
  invoke void @_ZN5osgeo4proj6common16IdentifiedObject13setPropertiesERKNS0_4util11PropertyMapE(ptr noundef nonnull align 8 dereferenceable(40) %8, ptr noundef nonnull align 8 dereferenceable(8) %4)
          to label %11 unwind label %9

9:                                                ; preds = %7
  %10 = landingpad { ptr, i32 }
          cleanup
  call void @_ZN7dropbox6oxygen2nnISt10shared_ptrIN5osgeo4proj5datum13PrimeMeridianEEED2Ev(ptr noundef nonnull align 8 dereferenceable(16) %0) #34
  br label %18

11:                                               ; preds = %7
  call void @_ZN5osgeo4proj6common5AngleD1Ev(ptr noundef nonnull align 8 dereferenceable(24) %3) #34
  call void @llvm.lifetime.end.p0(ptr %3)
  call void @_ZN5osgeo4proj4util11PropertyMapD1Ev(ptr noundef nonnull align 8 dereferenceable(8) %2) #34
  call void @llvm.lifetime.end.p0(ptr %2)
  ret void

12:                                               ; preds = %1
  %13 = landingpad { ptr, i32 }
          cleanup
  br label %22

14:                                               ; preds = %5
  %15 = landingpad { ptr, i32 }
          cleanup
  br label %20

16:                                               ; preds = %6
  %17 = landingpad { ptr, i32 }
          cleanup
  br label %18

18:                                               ; preds = %16, %9
  %19 = phi { ptr, i32 } [ %17, %16 ], [ %10, %9 ]
  call void @_ZN5osgeo4proj6common5AngleD1Ev(ptr noundef nonnull align 8 dereferenceable(24) %3) #34
  br label %20

20:                                               ; preds = %18, %14
  %21 = phi { ptr, i32 } [ %19, %18 ], [ %15, %14 ]
  call void @llvm.lifetime.end.p0(ptr %3)
  br label %22

22:                                               ; preds = %20, %12
  %23 = phi { ptr, i32 } [ %21, %20 ], [ %13, %12 ]
  call void @_ZN5osgeo4proj4util11PropertyMapD1Ev(ptr noundef nonnull align 8 dereferenceable(8) %2) #34
  call void @llvm.lifetime.end.p0(ptr %2)
  resume { ptr, i32 } %23
}

declare void @_ZN5osgeo4proj4util11PropertyMapC1Ev(ptr noundef nonnull align 8 dereferenceable(8)) unnamed_addr #1

declare noundef nonnull align 8 dereferenceable(8) ptr @_ZN5osgeo4proj4util11PropertyMap3setERKNSt7__cxx1112basic_stringIcSt11char_traitsIcESaIcEEEPKc(ptr noundef nonnull align 8 dereferenceable(8), ptr noundef nonnull align 8 dereferenceable(32), ptr noundef) local_unnamed_addr #1

; Function Attrs: mustprogress sspstrong uwtable
define hidden void @_ZN5osgeo4proj5datum13PrimeMeridian11createPARISEv(ptr dead_on_unwind noalias writable sret(%"class.dropbox::oxygen::nn") align 8 %0) local_unnamed_addr #0 align 2 personality ptr @__gxx_personality_v0 {
  %2 = alloca %"class.osgeo::proj::util::PropertyMap", align 8
  %3 = alloca %"class.osgeo::proj::common::Angle", align 8
  call void @llvm.lifetime.start.p0(ptr %2)
  call fastcc void @_ZN5osgeo4proj5datumL21createMapNameEPSGCodeEPKci(ptr dead_on_unwind noalias writable align 8 %2, ptr noundef nonnull @.str.6, i32 noundef 8903)
  call void @llvm.lifetime.start.p0(ptr %3)
  invoke void @_ZN5osgeo4proj6common5AngleC1EdRKNS1_13UnitOfMeasureE(ptr noundef nonnull align 8 dereferenceable(24) %3, double noundef 0x4004C67EACAE4954, ptr noundef nonnull align 8 dereferenceable(24) @_ZN5osgeo4proj6common13UnitOfMeasure4GRADE)
          to label %4 unwind label %10

4:                                                ; preds = %1
  invoke void @_ZN5osgeo4proj5datum13PrimeMeridian14nn_make_sharedIS2_JRKNS0_6common5AngleEEEEN7dropbox6oxygen2nnISt10shared_ptrIT_EEEDpOT0_(ptr dead_on_unwind writable sret(%"class.dropbox::oxygen::nn") align 8 %0, ptr noundef nonnull align 8 dereferenceable(24) %3)
          to label %5 unwind label %12

5:                                                ; preds = %4
  %6 = load ptr, ptr %0, align 8, !tbaa !81, !alias.scope !92
  invoke void @_ZN5osgeo4proj6common16IdentifiedObject13setPropertiesERKNS0_4util11PropertyMapE(ptr noundef nonnull align 8 dereferenceable(40) %6, ptr noundef nonnull align 8 dereferenceable(8) %2)
          to label %9 unwind label %7

7:                                                ; preds = %5
  %8 = landingpad { ptr, i32 }
          cleanup
  call void @_ZN7dropbox6oxygen2nnISt10shared_ptrIN5osgeo4proj5datum13PrimeMeridianEEED2Ev(ptr noundef nonnull align 8 dereferenceable(16) %0) #34
  br label %14

9:                                                ; preds = %5
  call void @_ZN5osgeo4proj6common5AngleD1Ev(ptr noundef nonnull align 8 dereferenceable(24) %3) #34
  call void @llvm.lifetime.end.p0(ptr %3)
  call void @_ZN5osgeo4proj4util11PropertyMapD1Ev(ptr noundef nonnull align 8 dereferenceable(8) %2) #34
  call void @llvm.lifetime.end.p0(ptr %2)
  ret void

10:                                               ; preds = %1
  %11 = landingpad { ptr, i32 }
          cleanup
  br label %16

12:                                               ; preds = %4
  %13 = landingpad { ptr, i32 }
          cleanup
  br label %14

14:                                               ; preds = %12, %7
  %15 = phi { ptr, i32 } [ %13, %12 ], [ %8, %7 ]
  call void @_ZN5osgeo4proj6common5AngleD1Ev(ptr noundef nonnull align 8 dereferenceable(24) %3) #34
  br label %16

16:                                               ; preds = %14, %10
  %17 = phi { ptr, i32 } [ %15, %14 ], [ %11, %10 ]
  call void @llvm.lifetime.end.p0(ptr %3)
  call void @_ZN5osgeo4proj4util11PropertyMapD1Ev(ptr noundef nonnull align 8 dereferenceable(8) %2) #34
  call void @llvm.lifetime.end.p0(ptr %2)
  resume { ptr, i32 } %17
}

declare void @_ZN5osgeo4proj6common5AngleC1EdRKNS1_13UnitOfMeasureE(ptr noundef nonnull align 8 dereferenceable(24), double noundef, ptr noundef nonnull align 8 dereferenceable(24)) unnamed_addr #1

; Function Attrs: mustprogress sspstrong uwtable
define hidden void @_ZNK5osgeo4proj5datum13PrimeMeridian12_exportToWKTEPNS0_2io12WKTFormatterE(ptr noundef nonnull align 8 dereferenceable(64) %0, ptr noundef nonnull %1) unnamed_addr #0 align 2 personality ptr @__gxx_personality_v0 {
  %3 = alloca i64, align 8
  %4 = alloca %"class.std::__cxx11::basic_string", align 8
  %5 = alloca %"class.std::__cxx11::basic_string", align 8
  %6 = alloca %"class.std::__cxx11::basic_string", align 8
  %7 = alloca %"class.std::__cxx11::basic_string", align 8
  %8 = alloca %"class.dropbox::oxygen::nn.121", align 8
  %9 = alloca %"class.dropbox::oxygen::nn.125", align 8
  %10 = alloca %"class.std::__cxx11::basic_string", align 8
  %11 = alloca %"class.std::__cxx11::list", align 8
  %12 = alloca %"class.std::vector.137", align 8
  %13 = alloca %"class.std::__cxx11::basic_string", align 8
  %14 = alloca %"class.std::__cxx11::basic_string", align 8
  %15 = tail call noundef i32 @_ZNK5osgeo4proj2io12WKTFormatter7versionEv(ptr noundef nonnull align 8 dereferenceable(8) %1)
  %16 = icmp eq i32 %15, 1
  call void @llvm.lifetime.start.p0(ptr %4)
  %17 = tail call noundef nonnull align 8 dereferenceable(16) ptr @_ZNK5osgeo4proj6common16IdentifiedObject4nameEv(ptr noundef nonnull align 8 dereferenceable(40) %0) #32
  %18 = load ptr, ptr %17, align 8, !tbaa !95
  %19 = tail call noundef nonnull align 8 dereferenceable(40) ptr @_ZNK5osgeo4proj8metadata10Identifier11descriptionB5cxx11Ev(ptr noundef nonnull align 8 dereferenceable(40) %18) #32
  %20 = load i8, ptr %19, align 8, !tbaa !4, !range !14, !noundef !15
  %21 = trunc nuw i8 %20 to i1
  br i1 %21, label %22, label %43

22:                                               ; preds = %2
  %23 = tail call noundef nonnull align 8 dereferenceable(32) ptr @_ZNK5osgeo4proj6common16IdentifiedObject7nameStrB5cxx11Ev(ptr noundef nonnull align 8 dereferenceable(40) %0) #32
  %24 = getelementptr inbounds nuw i8, ptr %4, i64 16
  store ptr %24, ptr %4, align 8, !tbaa !39
  %25 = load ptr, ptr %23, align 8, !tbaa !42
  %26 = getelementptr inbounds nuw i8, ptr %23, i64 8
  %27 = load i64, ptr %26, align 8, !tbaa !40
  %28 = icmp ult i64 %27, 9223372036854775807
  call void @llvm.assume(i1 %28)
  call void @llvm.lifetime.start.p0(ptr %3)
  store i64 %27, ptr %3, align 8, !tbaa !43
  %29 = icmp samesign ugt i64 %27, 15
  br i1 %29, label %30, label %33

30:                                               ; preds = %22
  %31 = call noundef ptr @_ZNSt7__cxx1112basic_stringIcSt11char_traitsIcESaIcEE9_M_createERmm(ptr noundef nonnull align 8 dereferenceable(32) %4, ptr noundef nonnull align 8 dereferenceable(8) %3, i64 noundef 0)
  store ptr %31, ptr %4, align 8, !tbaa !42
  %32 = load i64, ptr %3, align 8, !tbaa !43
  store i64 %32, ptr %24, align 8, !tbaa !41
  br label %33

33:                                               ; preds = %30, %22
  %34 = phi i64 [ %32, %30 ], [ %27, %22 ]
  %35 = phi ptr [ %31, %30 ], [ %24, %22 ]
  switch i64 %34, label %38 [
    i64 0, label %36
    i64 -1, label %40
  ]

36:                                               ; preds = %33
  %37 = load i8, ptr %25, align 1, !tbaa !41
  store i8 %37, ptr %35, align 1, !tbaa !41
  br label %40

38:                                               ; preds = %33
  %39 = add nuw i64 %34, 1
  call void @llvm.memcpy.p0.p0.i64(ptr noundef nonnull align 1 dereferenceable(1) %35, ptr noundef nonnull align 1 dereferenceable(1) %25, i64 %39, i1 false)
  br label %40

40:                                               ; preds = %38, %36, %33
  %41 = load i64, ptr %3, align 8, !tbaa !43
  %42 = getelementptr inbounds nuw i8, ptr %4, i64 8
  store i64 %41, ptr %42, align 8, !tbaa !40
  call void @llvm.lifetime.end.p0(ptr %3)
  br label %47

43:                                               ; preds = %2
  %44 = getelementptr inbounds nuw i8, ptr %4, i64 16
  store ptr %44, ptr %4, align 8, !tbaa !39
  call void @llvm.memcpy.p0.p0.i64(ptr noundef nonnull align 8 dereferenceable(9) %44, ptr noundef nonnull align 1 dereferenceable(9) @.str.4, i64 9, i1 false)
  %45 = getelementptr inbounds nuw i8, ptr %4, i64 8
  store i64 9, ptr %45, align 8, !tbaa !40
  %46 = getelementptr inbounds nuw i8, ptr %4, i64 25
  store i8 0, ptr %46, align 1, !tbaa !41
  br label %47

47:                                               ; preds = %43, %40
  br i1 %16, label %48, label %60

48:                                               ; preds = %47
  %49 = invoke noundef zeroext i1 @_ZNK5osgeo4proj2io12WKTFormatter31primeMeridianOmittedIfGreenwichEv(ptr noundef nonnull align 8 dereferenceable(8) %1)
          to label %50 unwind label %146

50:                                               ; preds = %48
  br i1 %49, label %51, label %60

51:                                               ; preds = %50
  %52 = getelementptr inbounds nuw i8, ptr %4, i64 8
  %53 = load i64, ptr %52, align 8, !tbaa !40
  %54 = icmp ult i64 %53, 9223372036854775807
  call void @llvm.assume(i1 %54)
  %55 = icmp eq i64 %53, 9
  br i1 %55, label %56, label %60

56:                                               ; preds = %51
  %57 = load ptr, ptr %4, align 8, !tbaa !42
  %58 = call i32 @bcmp(ptr noundef nonnull dereferenceable(9) %57, ptr noundef nonnull dereferenceable(9) @.str.4, i64 9)
  %59 = icmp eq i32 %58, 0
  br i1 %59, label %468, label %60

60:                                               ; preds = %56, %51, %50, %47
  %61 = call noundef nonnull align 8 dereferenceable(24) ptr @_ZNK5osgeo4proj6common16IdentifiedObject11identifiersEv(ptr noundef nonnull align 8 dereferenceable(40) %0) #32
  %62 = load ptr, ptr %61, align 8, !tbaa !98
  %63 = getelementptr inbounds nuw i8, ptr %61, i64 8
  %64 = load ptr, ptr %63, align 8, !tbaa !98
  %65 = icmp ne ptr %62, %64
  invoke void @_ZN5osgeo4proj2io12WKTFormatter9startNodeERKNSt7__cxx1112basic_stringIcSt11char_traitsIcESaIcEEEb(ptr noundef nonnull align 8 dereferenceable(8) %1, ptr noundef nonnull align 8 dereferenceable(32) @_ZN5osgeo4proj2io12WKTConstants6PRIMEMB5cxx11E, i1 noundef zeroext %65)
          to label %66 unwind label %146

66:                                               ; preds = %60
  %67 = invoke noundef zeroext i1 @_ZNK5osgeo4proj2io12WKTFormatter14useESRIDialectEv(ptr noundef nonnull align 8 dereferenceable(8) %1)
          to label %68 unwind label %146

68:                                               ; preds = %66
  br i1 %67, label %69, label %407

69:                                               ; preds = %68
  %70 = invoke noundef nonnull align 8 dereferenceable(16) ptr @_ZNK5osgeo4proj2io12WKTFormatter15databaseContextEv(ptr noundef nonnull align 8 dereferenceable(8) %1)
          to label %71 unwind label %148

71:                                               ; preds = %69
  %72 = load ptr, ptr %70, align 8, !tbaa !100
  %73 = icmp eq ptr %72, null
  br i1 %73, label %346, label %74

74:                                               ; preds = %71
  call void @llvm.lifetime.start.p0(ptr %5)
  call void @llvm.lifetime.start.p0(ptr %6)
  %75 = getelementptr inbounds nuw i8, ptr %6, i64 16
  store ptr %75, ptr %6, align 8, !tbaa !39
  call void @llvm.memcpy.p0.p0.i64(ptr noundef nonnull align 8 dereferenceable(14) %75, ptr noundef nonnull align 1 dereferenceable(14) @.str.7, i64 14, i1 false)
  %76 = getelementptr inbounds nuw i8, ptr %6, i64 8
  store i64 14, ptr %76, align 8, !tbaa !40
  %77 = getelementptr inbounds nuw i8, ptr %6, i64 30
  store i8 0, ptr %77, align 2, !tbaa !41
  call void @llvm.lifetime.start.p0(ptr %7)
  %78 = getelementptr inbounds nuw i8, ptr %7, i64 16
  store ptr %78, ptr %7, align 8, !tbaa !39
  store i32 1230132037, ptr %78, align 8
  %79 = getelementptr inbounds nuw i8, ptr %7, i64 8
  store i64 4, ptr %79, align 8, !tbaa !40
  %80 = getelementptr inbounds nuw i8, ptr %7, i64 20
  store i8 0, ptr %80, align 4, !tbaa !41
  invoke void @_ZNK5osgeo4proj2io15DatabaseContext24getAliasFromOfficialNameERKNSt7__cxx1112basic_stringIcSt11char_traitsIcESaIcEEESA_SA_(ptr dead_on_unwind nonnull writable sret(%"class.std::__cxx11::basic_string") align 8 %5, ptr noundef nonnull align 8 dereferenceable(8) %72, ptr noundef nonnull align 8 dereferenceable(32) %4, ptr noundef nonnull align 8 dereferenceable(32) %6, ptr noundef nonnull align 8 dereferenceable(32) %7)
          to label %81 unwind label %150

81:                                               ; preds = %74
  %82 = load ptr, ptr %7, align 8, !tbaa !42
  %83 = icmp eq ptr %82, %78
  br i1 %83, label %84, label %87

84:                                               ; preds = %81
  %85 = load i64, ptr %79, align 8, !tbaa !40
  %86 = icmp ult i64 %85, 16
  call void @llvm.assume(i1 %86)
  br label %90

87:                                               ; preds = %81
  %88 = load i64, ptr %78, align 8, !tbaa !41
  %89 = add i64 %88, 1
  call void @_ZdlPvm(ptr noundef %82, i64 noundef %89) #33
  br label %90

90:                                               ; preds = %87, %84
  call void @llvm.lifetime.end.p0(ptr %7)
  %91 = load ptr, ptr %6, align 8, !tbaa !42
  %92 = icmp eq ptr %91, %75
  br i1 %92, label %93, label %96

93:                                               ; preds = %90
  %94 = load i64, ptr %76, align 8, !tbaa !40
  %95 = icmp ult i64 %94, 16
  call void @llvm.assume(i1 %95)
  br label %99

96:                                               ; preds = %90
  %97 = load i64, ptr %75, align 8, !tbaa !41
  %98 = add i64 %97, 1
  call void @_ZdlPvm(ptr noundef %91, i64 noundef %98) #33
  br label %99

99:                                               ; preds = %96, %93
  call void @llvm.lifetime.end.p0(ptr %6)
  %100 = getelementptr inbounds nuw i8, ptr %5, i64 8
  %101 = load i64, ptr %100, align 8, !tbaa !40
  %102 = icmp eq i64 %101, 0
  br i1 %102, label %170, label %103

103:                                              ; preds = %99
  %104 = load ptr, ptr %4, align 8, !tbaa !42
  %105 = getelementptr inbounds nuw i8, ptr %4, i64 16
  %106 = icmp eq ptr %104, %105
  br i1 %106, label %107, label %117

107:                                              ; preds = %103
  %108 = getelementptr inbounds nuw i8, ptr %4, i64 8
  %109 = load i64, ptr %108, align 8, !tbaa !40
  %110 = icmp ult i64 %109, 16
  call void @llvm.assume(i1 %110)
  %111 = load ptr, ptr %5, align 8, !tbaa !42
  %112 = getelementptr inbounds nuw i8, ptr %5, i64 16
  %113 = icmp eq ptr %111, %112
  br i1 %113, label %121, label %114

114:                                              ; preds = %107
  store ptr %111, ptr %4, align 8, !tbaa !42
  %115 = icmp ult i64 %101, 9223372036854775807
  call void @llvm.assume(i1 %115)
  store i64 %101, ptr %108, align 8, !tbaa !40
  %116 = load i64, ptr %112, align 8, !tbaa !41
  store i64 %116, ptr %105, align 8, !tbaa !41
  br label %142

117:                                              ; preds = %103
  %118 = load ptr, ptr %5, align 8, !tbaa !42
  %119 = getelementptr inbounds nuw i8, ptr %5, i64 16
  %120 = icmp eq ptr %118, %119
  br i1 %120, label %121, label %135

121:                                              ; preds = %117, %107
  %122 = phi ptr [ %118, %117 ], [ %111, %107 ]
  %123 = icmp ult i64 %101, 16
  call void @llvm.assume(i1 %123)
  %124 = icmp eq i64 %101, 1
  br i1 %124, label %125, label %127

125:                                              ; preds = %121
  %126 = load i8, ptr %122, align 1, !tbaa !41
  store i8 %126, ptr %104, align 1, !tbaa !41
  br label %128

127:                                              ; preds = %121
  call void @llvm.memcpy.p0.p0.i64(ptr align 1 %104, ptr align 1 %122, i64 %101, i1 false)
  br label %128

128:                                              ; preds = %127, %125
  %129 = load i64, ptr %100, align 8, !tbaa !40
  %130 = icmp ult i64 %129, 9223372036854775807
  call void @llvm.assume(i1 %130)
  %131 = getelementptr inbounds nuw i8, ptr %4, i64 8
  store i64 %129, ptr %131, align 8, !tbaa !40
  %132 = load ptr, ptr %4, align 8, !tbaa !42
  %133 = getelementptr inbounds nuw i8, ptr %132, i64 %129
  store i8 0, ptr %133, align 1, !tbaa !41
  %134 = load ptr, ptr %5, align 8, !tbaa !42
  br label %144

135:                                              ; preds = %117
  %136 = load i64, ptr %105, align 8, !tbaa !41
  store ptr %118, ptr %4, align 8, !tbaa !42
  %137 = icmp ult i64 %101, 9223372036854775807
  call void @llvm.assume(i1 %137)
  %138 = getelementptr inbounds nuw i8, ptr %4, i64 8
  store i64 %101, ptr %138, align 8, !tbaa !40
  %139 = load i64, ptr %119, align 8, !tbaa !41
  store i64 %139, ptr %105, align 8, !tbaa !41
  %140 = icmp eq ptr %104, null
  br i1 %140, label %142, label %141

141:                                              ; preds = %135
  store ptr %104, ptr %5, align 8, !tbaa !42
  store i64 %136, ptr %119, align 8, !tbaa !41
  br label %144

142:                                              ; preds = %135, %114
  %143 = phi ptr [ %112, %114 ], [ %119, %135 ]
  store ptr %143, ptr %5, align 8, !tbaa !42
  br label %144

144:                                              ; preds = %142, %141, %128
  %145 = phi ptr [ %134, %128 ], [ %104, %141 ], [ %143, %142 ]
  store i64 0, ptr %100, align 8, !tbaa !40
  store i8 0, ptr %145, align 1, !tbaa !41
  br label %170

146:                                              ; preds = %407, %66, %60, %48
  %147 = landingpad { ptr, i32 }
          cleanup
  br label %480

148:                                              ; preds = %69
  %149 = landingpad { ptr, i32 }
          cleanup
  br label %480

150:                                              ; preds = %74
  %151 = landingpad { ptr, i32 }
          cleanup
  %152 = load ptr, ptr %7, align 8, !tbaa !42
  %153 = icmp eq ptr %152, %78
  br i1 %153, label %154, label %157

154:                                              ; preds = %150
  %155 = load i64, ptr %79, align 8, !tbaa !40
  %156 = icmp ult i64 %155, 16
  call void @llvm.assume(i1 %156)
  br label %160

157:                                              ; preds = %150
  %158 = load i64, ptr %78, align 8, !tbaa !41
  %159 = add i64 %158, 1
  call void @_ZdlPvm(ptr noundef %152, i64 noundef %159) #33
  br label %160

160:                                              ; preds = %157, %154
  call void @llvm.lifetime.end.p0(ptr %7)
  %161 = load ptr, ptr %6, align 8, !tbaa !42
  %162 = icmp eq ptr %161, %75
  br i1 %162, label %163, label %166

163:                                              ; preds = %160
  %164 = load i64, ptr %76, align 8, !tbaa !40
  %165 = icmp ult i64 %164, 16
  call void @llvm.assume(i1 %165)
  br label %169

166:                                              ; preds = %160
  %167 = load i64, ptr %75, align 8, !tbaa !41
  %168 = add i64 %167, 1
  call void @_ZdlPvm(ptr noundef %161, i64 noundef %168) #33
  br label %169

169:                                              ; preds = %166, %163
  call void @llvm.lifetime.end.p0(ptr %6)
  call void @llvm.lifetime.end.p0(ptr %5)
  br label %480

170:                                              ; preds = %144, %99
  %171 = load ptr, ptr %5, align 8, !tbaa !42
  %172 = getelementptr inbounds nuw i8, ptr %5, i64 16
  %173 = icmp eq ptr %171, %172
  br i1 %173, label %174, label %177

174:                                              ; preds = %170
  %175 = load i64, ptr %100, align 8, !tbaa !40
  %176 = icmp ult i64 %175, 16
  call void @llvm.assume(i1 %176)
  br label %180

177:                                              ; preds = %170
  %178 = load i64, ptr %172, align 8, !tbaa !41
  %179 = add i64 %178, 1
  call void @_ZdlPvm(ptr noundef %171, i64 noundef %179) #33
  br label %180

180:                                              ; preds = %177, %174
  call void @llvm.lifetime.end.p0(ptr %5)
  br i1 %102, label %181, label %407

181:                                              ; preds = %180
  %182 = load ptr, ptr %70, align 8, !tbaa !100
  %183 = icmp eq ptr %182, null
  br i1 %183, label %346, label %184

184:                                              ; preds = %181
  call void @llvm.lifetime.start.p0(ptr %8)
  call void @llvm.lifetime.start.p0(ptr %9)
  store ptr %182, ptr %9, align 8, !tbaa !100
  %185 = getelementptr inbounds nuw i8, ptr %9, i64 8
  %186 = getelementptr inbounds nuw i8, ptr %70, i64 8
  %187 = load ptr, ptr %186, align 8, !tbaa !53
  store ptr %187, ptr %185, align 8, !tbaa !53
  %188 = icmp eq ptr %187, null
  br i1 %188, label %198, label %189

189:                                              ; preds = %184
  %190 = getelementptr inbounds nuw i8, ptr %187, i64 8
  %191 = load i8, ptr @__libc_single_threaded, align 1, !tbaa !41
  %192 = icmp eq i8 %191, 0
  br i1 %192, label %196, label %193

193:                                              ; preds = %189
  %194 = load i32, ptr %190, align 4, !tbaa !70
  %195 = add nsw i32 %194, 1
  store i32 %195, ptr %190, align 4, !tbaa !70
  br label %198

196:                                              ; preds = %189
  %197 = atomicrmw volatile add ptr %190, i32 1 acq_rel, align 4
  br label %198

198:                                              ; preds = %196, %193, %184
  call void @llvm.lifetime.start.p0(ptr %10)
  %199 = getelementptr inbounds nuw i8, ptr %10, i64 16
  store ptr %199, ptr %10, align 8, !tbaa !39
  store i32 1230132037, ptr %199, align 8
  %200 = getelementptr inbounds nuw i8, ptr %10, i64 8
  store i64 4, ptr %200, align 8, !tbaa !40
  %201 = getelementptr inbounds nuw i8, ptr %10, i64 20
  store i8 0, ptr %201, align 4, !tbaa !41
  invoke void @_ZN5osgeo4proj2io16AuthorityFactory6createERKN7dropbox6oxygen2nnISt10shared_ptrINS1_15DatabaseContextEEEERKNSt7__cxx1112basic_stringIcSt11char_traitsIcESaIcEEE(ptr dead_on_unwind nonnull writable sret(%"class.dropbox::oxygen::nn.121") align 8 %8, ptr noundef nonnull align 8 dereferenceable(16) %9, ptr noundef nonnull align 8 dereferenceable(32) %10)
          to label %202 unwind label %321

202:                                              ; preds = %198
  %203 = load ptr, ptr %10, align 8, !tbaa !42
  %204 = icmp eq ptr %203, %199
  br i1 %204, label %205, label %208

205:                                              ; preds = %202
  %206 = load i64, ptr %200, align 8, !tbaa !40
  %207 = icmp ult i64 %206, 16
  call void @llvm.assume(i1 %207)
  br label %211

208:                                              ; preds = %202
  %209 = load i64, ptr %199, align 8, !tbaa !41
  %210 = add i64 %209, 1
  call void @_ZdlPvm(ptr noundef %203, i64 noundef %210) #33
  br label %211

211:                                              ; preds = %208, %205
  call void @llvm.lifetime.end.p0(ptr %10)
  %212 = load ptr, ptr %185, align 8, !tbaa !53
  %213 = icmp eq ptr %212, null
  br i1 %213, label %238, label %214

214:                                              ; preds = %211
  %215 = getelementptr inbounds nuw i8, ptr %212, i64 8
  %216 = load atomic i64, ptr %215 acquire, align 8
  %217 = icmp eq i64 %216, 4294967297
  %218 = trunc i64 %216 to i32
  br i1 %217, label %219, label %227

219:                                              ; preds = %214
  store i32 0, ptr %215, align 8, !tbaa !49
  %220 = getelementptr inbounds nuw i8, ptr %212, i64 12
  store i32 0, ptr %220, align 4, !tbaa !52
  %221 = load ptr, ptr %212, align 8, !tbaa !44
  %222 = getelementptr inbounds nuw i8, ptr %221, i64 16
  %223 = load ptr, ptr %222, align 8
  call void %223(ptr noundef nonnull align 8 dereferenceable(16) %212) #34
  %224 = load ptr, ptr %212, align 8, !tbaa !44
  %225 = getelementptr inbounds nuw i8, ptr %224, i64 24
  %226 = load ptr, ptr %225, align 8
  call void %226(ptr noundef nonnull align 8 dereferenceable(16) %212) #34
  br label %238

227:                                              ; preds = %214
  %228 = load i8, ptr @__libc_single_threaded, align 1, !tbaa !41
  %229 = icmp eq i8 %228, 0
  br i1 %229, label %232, label %230

230:                                              ; preds = %227
  %231 = add nsw i32 %218, -1
  store i32 %231, ptr %215, align 4, !tbaa !70
  br label %234

232:                                              ; preds = %227
  %233 = atomicrmw volatile add ptr %215, i32 -1 acq_rel, align 4
  br label %234

234:                                              ; preds = %232, %230
  %235 = phi i32 [ %218, %230 ], [ %233, %232 ]
  %236 = icmp eq i32 %235, 1
  br i1 %236, label %237, label %238, !prof !71

237:                                              ; preds = %234
  call void @_ZNSt16_Sp_counted_baseILN9__gnu_cxx12_Lock_policyE2EE24_M_release_last_use_coldEv(ptr noundef nonnull align 8 dereferenceable(16) %212) #34
  br label %238

238:                                              ; preds = %237, %234, %219, %211
  call void @llvm.lifetime.end.p0(ptr %9)
  call void @llvm.lifetime.start.p0(ptr %11)
  %239 = load ptr, ptr %8, align 8, !tbaa !103
  call void @llvm.lifetime.start.p0(ptr %12)
  %240 = invoke noalias noundef nonnull dereferenceable(4) ptr @_Znwm(i64 noundef 4) #35
          to label %243 unwind label %241

241:                                              ; preds = %238
  %242 = landingpad { ptr, i32 }
          cleanup
  br label %341

243:                                              ; preds = %238
  %244 = getelementptr inbounds nuw i8, ptr %12, i64 8
  store ptr %240, ptr %12, align 8, !tbaa !106
  %245 = getelementptr inbounds nuw i8, ptr %240, i64 4
  %246 = getelementptr inbounds nuw i8, ptr %12, i64 16
  store ptr %245, ptr %246, align 8, !tbaa !108
  store i32 0, ptr %240, align 4
  store ptr %245, ptr %244, align 8, !tbaa !109
  invoke void @_ZNK5osgeo4proj2io16AuthorityFactory21createObjectsFromNameERKNSt7__cxx1112basic_stringIcSt11char_traitsIcESaIcEEERKSt6vectorINS2_10ObjectTypeESaISC_EEbm(ptr dead_on_unwind nonnull writable sret(%"class.std::__cxx11::list") align 8 %11, ptr noundef nonnull align 8 dereferenceable(8) %239, ptr noundef nonnull align 8 dereferenceable(32) %4, ptr noundef nonnull align 8 dereferenceable(24) %12, i1 noundef zeroext false, i64 noundef 0)
          to label %247 unwind label %332

247:                                              ; preds = %243
  %248 = getelementptr inbounds nuw i8, ptr %11, i64 16
  %249 = load i64, ptr %248, align 8, !tbaa !110
  %250 = icmp eq i64 %249, 1
  %251 = load ptr, ptr %11, align 8, !tbaa !112
  %252 = icmp eq ptr %251, %11
  br i1 %252, label %285, label %253

253:                                              ; preds = %283, %247
  %254 = phi ptr [ %255, %283 ], [ %251, %247 ]
  %255 = load ptr, ptr %254, align 8, !tbaa !112
  %256 = getelementptr inbounds nuw i8, ptr %254, i64 24
  %257 = load ptr, ptr %256, align 8, !tbaa !53
  %258 = icmp eq ptr %257, null
  br i1 %258, label %283, label %259

259:                                              ; preds = %253
  %260 = getelementptr inbounds nuw i8, ptr %257, i64 8
  %261 = load atomic i64, ptr %260 acquire, align 8
  %262 = icmp eq i64 %261, 4294967297
  %263 = trunc i64 %261 to i32
  br i1 %262, label %264, label %272

264:                                              ; preds = %259
  store i32 0, ptr %260, align 8, !tbaa !49
  %265 = getelementptr inbounds nuw i8, ptr %257, i64 12
  store i32 0, ptr %265, align 4, !tbaa !52
  %266 = load ptr, ptr %257, align 8, !tbaa !44
  %267 = getelementptr inbounds nuw i8, ptr %266, i64 16
  %268 = load ptr, ptr %267, align 8
  call void %268(ptr noundef nonnull align 8 dereferenceable(16) %257) #34
  %269 = load ptr, ptr %257, align 8, !tbaa !44
  %270 = getelementptr inbounds nuw i8, ptr %269, i64 24
  %271 = load ptr, ptr %270, align 8
  call void %271(ptr noundef nonnull align 8 dereferenceable(16) %257) #34
  br label %283

272:                                              ; preds = %259
  %273 = load i8, ptr @__libc_single_threaded, align 1, !tbaa !41
  %274 = icmp eq i8 %273, 0
  br i1 %274, label %277, label %275

275:                                              ; preds = %272
  %276 = add nsw i32 %263, -1
  store i32 %276, ptr %260, align 4, !tbaa !70
  br label %279

277:                                              ; preds = %272
  %278 = atomicrmw volatile add ptr %260, i32 -1 acq_rel, align 4
  br label %279

279:                                              ; preds = %277, %275
  %280 = phi i32 [ %263, %275 ], [ %278, %277 ]
  %281 = icmp eq i32 %280, 1
  br i1 %281, label %282, label %283, !prof !71

282:                                              ; preds = %279
  call void @_ZNSt16_Sp_counted_baseILN9__gnu_cxx12_Lock_policyE2EE24_M_release_last_use_coldEv(ptr noundef nonnull align 8 dereferenceable(16) %257) #34
  br label %283

283:                                              ; preds = %282, %279, %264, %253
  call void @_ZdlPvm(ptr noundef nonnull %254, i64 noundef 32) #33
  %284 = icmp eq ptr %255, %11
  br i1 %284, label %285, label %253

285:                                              ; preds = %283, %247
  %286 = load ptr, ptr %12, align 8, !tbaa !106
  %287 = icmp eq ptr %286, null
  br i1 %287, label %293, label %288

288:                                              ; preds = %285
  %289 = load ptr, ptr %246, align 8, !tbaa !108
  %290 = ptrtoint ptr %289 to i64
  %291 = ptrtoint ptr %286 to i64
  %292 = sub i64 %290, %291
  call void @_ZdlPvm(ptr noundef nonnull %286, i64 noundef %292) #33
  br label %293

293:                                              ; preds = %288, %285
  call void @llvm.lifetime.end.p0(ptr %12)
  call void @llvm.lifetime.end.p0(ptr %11)
  %294 = getelementptr inbounds nuw i8, ptr %8, i64 8
  %295 = load ptr, ptr %294, align 8, !tbaa !53
  %296 = icmp eq ptr %295, null
  br i1 %296, label %345, label %297

297:                                              ; preds = %293
  %298 = getelementptr inbounds nuw i8, ptr %295, i64 8
  %299 = load atomic i64, ptr %298 acquire, align 8
  %300 = icmp eq i64 %299, 4294967297
  %301 = trunc i64 %299 to i32
  br i1 %300, label %302, label %310

302:                                              ; preds = %297
  store i32 0, ptr %298, align 8, !tbaa !49
  %303 = getelementptr inbounds nuw i8, ptr %295, i64 12
  store i32 0, ptr %303, align 4, !tbaa !52
  %304 = load ptr, ptr %295, align 8, !tbaa !44
  %305 = getelementptr inbounds nuw i8, ptr %304, i64 16
  %306 = load ptr, ptr %305, align 8
  call void %306(ptr noundef nonnull align 8 dereferenceable(16) %295) #34
  %307 = load ptr, ptr %295, align 8, !tbaa !44
  %308 = getelementptr inbounds nuw i8, ptr %307, i64 24
  %309 = load ptr, ptr %308, align 8
  call void %309(ptr noundef nonnull align 8 dereferenceable(16) %295) #34
  br label %345

310:                                              ; preds = %297
  %311 = load i8, ptr @__libc_single_threaded, align 1, !tbaa !41
  %312 = icmp eq i8 %311, 0
  br i1 %312, label %315, label %313

313:                                              ; preds = %310
  %314 = add nsw i32 %301, -1
  store i32 %314, ptr %298, align 4, !tbaa !70
  br label %317

315:                                              ; preds = %310
  %316 = atomicrmw volatile add ptr %298, i32 -1 acq_rel, align 4
  br label %317

317:                                              ; preds = %315, %313
  %318 = phi i32 [ %301, %313 ], [ %316, %315 ]
  %319 = icmp eq i32 %318, 1
  br i1 %319, label %320, label %345, !prof !71

320:                                              ; preds = %317
  call void @_ZNSt16_Sp_counted_baseILN9__gnu_cxx12_Lock_policyE2EE24_M_release_last_use_coldEv(ptr noundef nonnull align 8 dereferenceable(16) %295) #34
  br label %345

321:                                              ; preds = %198
  %322 = landingpad { ptr, i32 }
          cleanup
  %323 = load ptr, ptr %10, align 8, !tbaa !42
  %324 = icmp eq ptr %323, %199
  br i1 %324, label %325, label %328

325:                                              ; preds = %321
  %326 = load i64, ptr %200, align 8, !tbaa !40
  %327 = icmp ult i64 %326, 16
  call void @llvm.assume(i1 %327)
  br label %331

328:                                              ; preds = %321
  %329 = load i64, ptr %199, align 8, !tbaa !41
  %330 = add i64 %329, 1
  call void @_ZdlPvm(ptr noundef %323, i64 noundef %330) #33
  br label %331

331:                                              ; preds = %328, %325
  call void @llvm.lifetime.end.p0(ptr %10)
  call void @_ZN7dropbox6oxygen2nnISt10shared_ptrIN5osgeo4proj2io15DatabaseContextEEED2Ev(ptr noundef nonnull align 8 dereferenceable(16) %9) #34
  call void @llvm.lifetime.end.p0(ptr %9)
  br label %343

332:                                              ; preds = %243
  %333 = landingpad { ptr, i32 }
          cleanup
  %334 = load ptr, ptr %12, align 8, !tbaa !106
  %335 = icmp eq ptr %334, null
  br i1 %335, label %341, label %336

336:                                              ; preds = %332
  %337 = load ptr, ptr %246, align 8, !tbaa !108
  %338 = ptrtoint ptr %337 to i64
  %339 = ptrtoint ptr %334 to i64
  %340 = sub i64 %338, %339
  call void @_ZdlPvm(ptr noundef nonnull %334, i64 noundef %340) #33
  br label %341

341:                                              ; preds = %336, %332, %241
  %342 = phi { ptr, i32 } [ %242, %241 ], [ %333, %332 ], [ %333, %336 ]
  call void @llvm.lifetime.end.p0(ptr %12)
  call void @llvm.lifetime.end.p0(ptr %11)
  call void @_ZN7dropbox6oxygen2nnISt10shared_ptrIN5osgeo4proj2io16AuthorityFactoryEEED2Ev(ptr noundef nonnull align 8 dereferenceable(16) %8) #34
  br label %343

343:                                              ; preds = %341, %331
  %344 = phi { ptr, i32 } [ %342, %341 ], [ %322, %331 ]
  call void @llvm.lifetime.end.p0(ptr %8)
  br label %480

345:                                              ; preds = %320, %317, %302, %293
  call void @llvm.lifetime.end.p0(ptr %8)
  br i1 %250, label %407, label %346

346:                                              ; preds = %345, %181, %71
  call void @llvm.lifetime.start.p0(ptr %13)
  invoke void @_ZN5osgeo4proj2io12WKTFormatter15morphNameToESRIERKNSt7__cxx1112basic_stringIcSt11char_traitsIcESaIcEEE(ptr dead_on_unwind nonnull writable sret(%"class.std::__cxx11::basic_string") align 8 %13, ptr noundef nonnull align 8 dereferenceable(32) %4)
          to label %347 unwind label %405

347:                                              ; preds = %346
  %348 = load ptr, ptr %4, align 8, !tbaa !42
  %349 = getelementptr inbounds nuw i8, ptr %4, i64 16
  %350 = icmp eq ptr %348, %349
  br i1 %350, label %351, label %358

351:                                              ; preds = %347
  %352 = getelementptr inbounds nuw i8, ptr %4, i64 8
  %353 = load i64, ptr %352, align 8, !tbaa !40
  %354 = icmp ult i64 %353, 16
  call void @llvm.assume(i1 %354)
  %355 = load ptr, ptr %13, align 8, !tbaa !42
  %356 = getelementptr inbounds nuw i8, ptr %13, i64 16
  %357 = icmp eq ptr %355, %356
  br i1 %357, label %362, label %379

358:                                              ; preds = %347
  %359 = load ptr, ptr %13, align 8, !tbaa !42
  %360 = getelementptr inbounds nuw i8, ptr %13, i64 16
  %361 = icmp eq ptr %359, %360
  br i1 %361, label %362, label %377

362:                                              ; preds = %358, %351
  %363 = phi ptr [ %359, %358 ], [ %355, %351 ]
  %364 = getelementptr inbounds nuw i8, ptr %13, i64 8
  %365 = load i64, ptr %364, align 8, !tbaa !40
  %366 = icmp ult i64 %365, 16
  call void @llvm.assume(i1 %366)
  switch i64 %365, label %369 [
    i64 0, label %370
    i64 1, label %367
  ]

367:                                              ; preds = %362
  %368 = load i8, ptr %363, align 1, !tbaa !41
  store i8 %368, ptr %348, align 1, !tbaa !41
  br label %370

369:                                              ; preds = %362
  call void @llvm.memcpy.p0.p0.i64(ptr align 1 %348, ptr align 1 %363, i64 %365, i1 false)
  br label %370

370:                                              ; preds = %369, %367, %362
  %371 = load i64, ptr %364, align 8, !tbaa !40
  %372 = icmp ult i64 %371, 9223372036854775807
  call void @llvm.assume(i1 %372)
  %373 = getelementptr inbounds nuw i8, ptr %4, i64 8
  store i64 %371, ptr %373, align 8, !tbaa !40
  %374 = load ptr, ptr %4, align 8, !tbaa !42
  %375 = getelementptr inbounds nuw i8, ptr %374, i64 %371
  store i8 0, ptr %375, align 1, !tbaa !41
  %376 = load ptr, ptr %13, align 8, !tbaa !42
  br label %392

377:                                              ; preds = %358
  %378 = load i64, ptr %349, align 8, !tbaa !41
  br label %379

379:                                              ; preds = %377, %351
  %380 = phi ptr [ %360, %377 ], [ %356, %351 ]
  %381 = phi ptr [ %359, %377 ], [ %355, %351 ]
  %382 = phi ptr [ %348, %377 ], [ null, %351 ]
  %383 = phi i64 [ %378, %377 ], [ undef, %351 ]
  store ptr %381, ptr %4, align 8, !tbaa !42
  %384 = getelementptr inbounds nuw i8, ptr %13, i64 8
  %385 = load i64, ptr %384, align 8, !tbaa !40
  %386 = icmp ult i64 %385, 9223372036854775807
  call void @llvm.assume(i1 %386)
  %387 = getelementptr inbounds nuw i8, ptr %4, i64 8
  store i64 %385, ptr %387, align 8, !tbaa !40
  %388 = load i64, ptr %380, align 8, !tbaa !41
  store i64 %388, ptr %349, align 8, !tbaa !41
  %389 = icmp eq ptr %382, null
  br i1 %389, label %391, label %390

390:                                              ; preds = %379
  store ptr %382, ptr %13, align 8, !tbaa !42
  store i64 %383, ptr %380, align 8, !tbaa !41
  br label %392

391:                                              ; preds = %379
  store ptr %380, ptr %13, align 8, !tbaa !42
  br label %392

392:                                              ; preds = %391, %390, %370
  %393 = phi ptr [ %376, %370 ], [ %382, %390 ], [ %380, %391 ]
  %394 = getelementptr inbounds nuw i8, ptr %13, i64 8
  store i64 0, ptr %394, align 8, !tbaa !40
  store i8 0, ptr %393, align 1, !tbaa !41
  %395 = load ptr, ptr %13, align 8, !tbaa !42
  %396 = getelementptr inbounds nuw i8, ptr %13, i64 16
  %397 = icmp eq ptr %395, %396
  br i1 %397, label %398, label %401

398:                                              ; preds = %392
  %399 = load i64, ptr %394, align 8, !tbaa !40
  %400 = icmp ult i64 %399, 16
  call void @llvm.assume(i1 %400)
  br label %404

401:                                              ; preds = %392
  %402 = load i64, ptr %396, align 8, !tbaa !41
  %403 = add i64 %402, 1
  call void @_ZdlPvm(ptr noundef %395, i64 noundef %403) #33
  br label %404

404:                                              ; preds = %401, %398
  call void @llvm.lifetime.end.p0(ptr %13)
  br label %407

405:                                              ; preds = %346
  %406 = landingpad { ptr, i32 }
          cleanup
  call void @llvm.lifetime.end.p0(ptr %13)
  br label %480

407:                                              ; preds = %404, %345, %180, %68
  invoke void @_ZN5osgeo4proj2io12WKTFormatter15addQuotedStringERKNSt7__cxx1112basic_stringIcSt11char_traitsIcESaIcEEE(ptr noundef nonnull align 8 dereferenceable(8) %1, ptr noundef nonnull align 8 dereferenceable(32) %4)
          to label %408 unwind label %146

408:                                              ; preds = %407
  %409 = getelementptr inbounds nuw i8, ptr %0, i64 56
  %410 = load ptr, ptr %409, align 8, !tbaa !79
  %411 = invoke noundef zeroext i1 @_ZNK5osgeo4proj2io12WKTFormatter21primeMeridianInDegreeEv(ptr noundef nonnull align 8 dereferenceable(8) %1)
          to label %412 unwind label %415

412:                                              ; preds = %408
  br i1 %411, label %413, label %417

413:                                              ; preds = %412
  %414 = call noundef double @_ZNK5osgeo4proj6common7Measure13convertToUnitERKNS1_13UnitOfMeasureE(ptr noundef nonnull align 8 dereferenceable(24) %410, ptr noundef nonnull align 8 dereferenceable(24) @_ZN5osgeo4proj6common13UnitOfMeasure6DEGREEE) #32
  br label %419

415:                                              ; preds = %419, %408
  %416 = landingpad { ptr, i32 }
          cleanup
  br label %480

417:                                              ; preds = %412
  %418 = call noundef double @_ZNK5osgeo4proj6common7Measure5valueEv(ptr noundef nonnull align 8 dereferenceable(24) %410) #32
  br label %419

419:                                              ; preds = %417, %413
  %420 = phi double [ %418, %417 ], [ %414, %413 ]
  invoke void @_ZN5osgeo4proj2io12WKTFormatter3addEdi(ptr noundef nonnull align 8 dereferenceable(8) %1, double noundef %420, i32 noundef 15)
          to label %421 unwind label %415

421:                                              ; preds = %419
  %422 = call noundef nonnull align 8 dereferenceable(24) ptr @_ZNK5osgeo4proj6common7Measure4unitEv(ptr noundef nonnull align 8 dereferenceable(24) %410) #32
  br i1 %16, label %423, label %434

423:                                              ; preds = %421
  %424 = invoke noundef zeroext i1 @_ZNK5osgeo4proj2io12WKTFormatter47primeMeridianOrParameterUnitOmittedIfSameAsAxisEv(ptr noundef nonnull align 8 dereferenceable(8) %1)
          to label %425 unwind label %432

425:                                              ; preds = %423
  br i1 %424, label %426, label %431

426:                                              ; preds = %425
  %427 = invoke noundef nonnull align 8 dereferenceable(16) ptr @_ZNK5osgeo4proj2io12WKTFormatter15axisAngularUnitEv(ptr noundef nonnull align 8 dereferenceable(8) %1)
          to label %428 unwind label %432

428:                                              ; preds = %426
  %429 = load ptr, ptr %427, align 8, !tbaa !115
  %430 = call noundef zeroext i1 @_ZNK5osgeo4proj6common13UnitOfMeasureeqERKS2_(ptr noundef nonnull align 8 dereferenceable(24) %422, ptr noundef nonnull align 8 dereferenceable(24) %429) #32
  br i1 %430, label %461, label %431

431:                                              ; preds = %428, %425
  invoke void @_ZNK5osgeo4proj6common13UnitOfMeasure12_exportToWKTEPNS0_2io12WKTFormatterERKNSt7__cxx1112basic_stringIcSt11char_traitsIcESaIcEEE(ptr noundef nonnull align 8 dereferenceable(24) %422, ptr noundef nonnull %1, ptr noundef nonnull align 8 dereferenceable(32) @_ZN5osgeo4proj2io12WKTConstants9ANGLEUNITB5cxx11E)
          to label %461 unwind label %432

432:                                              ; preds = %465, %464, %461, %434, %431, %426, %423
  %433 = landingpad { ptr, i32 }
          cleanup
  br label %480

434:                                              ; preds = %421
  %435 = invoke noundef zeroext i1 @_ZNK5osgeo4proj2io12WKTFormatter21primeMeridianInDegreeEv(ptr noundef nonnull align 8 dereferenceable(8) %1)
          to label %436 unwind label %432

436:                                              ; preds = %434
  br i1 %435, label %461, label %437

437:                                              ; preds = %436
  call void @llvm.lifetime.start.p0(ptr %14)
  %438 = getelementptr inbounds nuw i8, ptr %14, i64 16
  store ptr %438, ptr %14, align 8, !tbaa !39
  %439 = getelementptr inbounds nuw i8, ptr %14, i64 8
  store i64 0, ptr %439, align 8, !tbaa !40
  store i8 0, ptr %438, align 8, !tbaa !41
  invoke void @_ZNK5osgeo4proj6common13UnitOfMeasure12_exportToWKTEPNS0_2io12WKTFormatterERKNSt7__cxx1112basic_stringIcSt11char_traitsIcESaIcEEE(ptr noundef nonnull align 8 dereferenceable(24) %422, ptr noundef nonnull %1, ptr noundef nonnull align 8 dereferenceable(32) %14)
          to label %440 unwind label %450

440:                                              ; preds = %437
  %441 = load ptr, ptr %14, align 8, !tbaa !42
  %442 = icmp eq ptr %441, %438
  br i1 %442, label %443, label %446

443:                                              ; preds = %440
  %444 = load i64, ptr %439, align 8, !tbaa !40
  %445 = icmp ult i64 %444, 16
  call void @llvm.assume(i1 %445)
  br label %449

446:                                              ; preds = %440
  %447 = load i64, ptr %438, align 8, !tbaa !41
  %448 = add i64 %447, 1
  call void @_ZdlPvm(ptr noundef %441, i64 noundef %448) #33
  br label %449

449:                                              ; preds = %446, %443
  call void @llvm.lifetime.end.p0(ptr %14)
  br label %461

450:                                              ; preds = %437
  %451 = landingpad { ptr, i32 }
          cleanup
  %452 = load ptr, ptr %14, align 8, !tbaa !42
  %453 = icmp eq ptr %452, %438
  br i1 %453, label %454, label %457

454:                                              ; preds = %450
  %455 = load i64, ptr %439, align 8, !tbaa !40
  %456 = icmp ult i64 %455, 16
  call void @llvm.assume(i1 %456)
  br label %460

457:                                              ; preds = %450
  %458 = load i64, ptr %438, align 8, !tbaa !41
  %459 = add i64 %458, 1
  call void @_ZdlPvm(ptr noundef %452, i64 noundef %459) #33
  br label %460

460:                                              ; preds = %457, %454
  call void @llvm.lifetime.end.p0(ptr %14)
  br label %480

461:                                              ; preds = %449, %436, %431, %428
  %462 = invoke noundef zeroext i1 @_ZNK5osgeo4proj2io12WKTFormatter8outputIdEv(ptr noundef nonnull align 8 dereferenceable(8) %1)
          to label %463 unwind label %432

463:                                              ; preds = %461
  br i1 %462, label %464, label %465

464:                                              ; preds = %463
  invoke void @_ZNK5osgeo4proj6common16IdentifiedObject8formatIDEPNS0_2io12WKTFormatterE(ptr noundef nonnull align 8 dereferenceable(40) %0, ptr noundef nonnull %1)
          to label %465 unwind label %432

465:                                              ; preds = %464, %463
  invoke void @_ZN5osgeo4proj2io12WKTFormatter7endNodeEv(ptr noundef nonnull align 8 dereferenceable(8) %1)
          to label %466 unwind label %432

466:                                              ; preds = %465
  %467 = load ptr, ptr %4, align 8, !tbaa !42
  br label %468

468:                                              ; preds = %466, %56
  %469 = phi ptr [ %467, %466 ], [ %57, %56 ]
  %470 = getelementptr inbounds nuw i8, ptr %4, i64 16
  %471 = icmp eq ptr %469, %470
  br i1 %471, label %472, label %476

472:                                              ; preds = %468
  %473 = getelementptr inbounds nuw i8, ptr %4, i64 8
  %474 = load i64, ptr %473, align 8, !tbaa !40
  %475 = icmp ult i64 %474, 16
  call void @llvm.assume(i1 %475)
  br label %479

476:                                              ; preds = %468
  %477 = load i64, ptr %470, align 8, !tbaa !41
  %478 = add i64 %477, 1
  call void @_ZdlPvm(ptr noundef %469, i64 noundef %478) #33
  br label %479

479:                                              ; preds = %476, %472
  call void @llvm.lifetime.end.p0(ptr %4)
  ret void

480:                                              ; preds = %460, %432, %415, %405, %343, %169, %148, %146
  %481 = phi { ptr, i32 } [ %147, %146 ], [ %406, %405 ], [ %344, %343 ], [ %151, %169 ], [ %149, %148 ], [ %416, %415 ], [ %433, %432 ], [ %451, %460 ]
  %482 = load ptr, ptr %4, align 8, !tbaa !42
  %483 = getelementptr inbounds nuw i8, ptr %4, i64 16
  %484 = icmp eq ptr %482, %483
  br i1 %484, label %485, label %489

485:                                              ; preds = %480
  %486 = getelementptr inbounds nuw i8, ptr %4, i64 8
  %487 = load i64, ptr %486, align 8, !tbaa !40
  %488 = icmp ult i64 %487, 16
  call void @llvm.assume(i1 %488)
  br label %492

489:                                              ; preds = %480
  %490 = load i64, ptr %483, align 8, !tbaa !41
  %491 = add i64 %490, 1
  call void @_ZdlPvm(ptr noundef %482, i64 noundef %491) #33
  br label %492

492:                                              ; preds = %489, %485
  call void @llvm.lifetime.end.p0(ptr %4)
  resume { ptr, i32 } %481
}

declare hidden noundef i32 @_ZNK5osgeo4proj2io12WKTFormatter7versionEv(ptr noundef nonnull align 8 dereferenceable(8)) local_unnamed_addr #1

; Function Attrs: mustprogress nofree nounwind willreturn memory(read)
declare noundef nonnull align 8 dereferenceable(16) ptr @_ZNK5osgeo4proj6common16IdentifiedObject4nameEv(ptr noundef nonnull align 8 dereferenceable(40)) local_unnamed_addr #2

; Function Attrs: mustprogress nofree nounwind willreturn memory(read)
declare noundef nonnull align 8 dereferenceable(40) ptr @_ZNK5osgeo4proj8metadata10Identifier11descriptionB5cxx11Ev(ptr noundef nonnull align 8 dereferenceable(40)) local_unnamed_addr #2

; Function Attrs: mustprogress nofree nounwind willreturn memory(read)
declare noundef nonnull align 8 dereferenceable(32) ptr @_ZNK5osgeo4proj6common16IdentifiedObject7nameStrB5cxx11Ev(ptr noundef nonnull align 8 dereferenceable(40)) local_unnamed_addr #2

; Function Attrs: mustprogress sspstrong uwtable
declare void @_ZNSt7__cxx1112basic_stringIcSt11char_traitsIcESaIcEEC2ERKS4_(ptr noundef nonnull align 8 dereferenceable(32), ptr noundef nonnull align 8 dereferenceable(32)) unnamed_addr #0 align 2

declare hidden noundef zeroext i1 @_ZNK5osgeo4proj2io12WKTFormatter31primeMeridianOmittedIfGreenwichEv(ptr noundef nonnull align 8 dereferenceable(8)) local_unnamed_addr #1

; Function Attrs: inlinehint mustprogress nounwind sspstrong uwtable
define linkonce_odr noundef zeroext i1 @_ZSteqIcSt11char_traitsIcESaIcEEbRKNSt7__cxx1112basic_stringIT_T0_T1_EEPKS5_(ptr noundef nonnull align 8 dereferenceable(32) %0, ptr noundef %1) local_unnamed_addr #13 comdat personality ptr @__gxx_personality_v0 {
  %3 = getelementptr inbounds nuw i8, ptr %0, i64 8
  %4 = load i64, ptr %3, align 8, !tbaa !40
  %5 = icmp ult i64 %4, 9223372036854775807
  tail call void @llvm.assume(i1 %5)
  %6 = tail call noundef i64 @strlen(ptr noundef nonnull dereferenceable(1) %1) #34
  %7 = icmp eq i64 %4, %6
  br i1 %7, label %8, label %14

8:                                                ; preds = %2
  %9 = icmp eq i64 %4, 0
  br i1 %9, label %14, label %10

10:                                               ; preds = %8
  %11 = load ptr, ptr %0, align 8, !tbaa !42
  %12 = tail call i32 @bcmp(ptr %11, ptr nonnull %1, i64 %4)
  %13 = icmp eq i32 %12, 0
  br label %14

14:                                               ; preds = %10, %8, %2
  %15 = phi i1 [ false, %2 ], [ %13, %10 ], [ true, %8 ]
  ret i1 %15
}

; Function Attrs: mustprogress nofree nounwind willreturn memory(read)
declare noundef nonnull align 8 dereferenceable(24) ptr @_ZNK5osgeo4proj6common16IdentifiedObject11identifiersEv(ptr noundef nonnull align 8 dereferenceable(40)) local_unnamed_addr #2

declare hidden noundef zeroext i1 @_ZNK5osgeo4proj2io12WKTFormatter14useESRIDialectEv(ptr noundef nonnull align 8 dereferenceable(8)) local_unnamed_addr #1

declare hidden noundef nonnull align 8 dereferenceable(16) ptr @_ZNK5osgeo4proj2io12WKTFormatter15databaseContextEv(ptr noundef nonnull align 8 dereferenceable(8)) local_unnamed_addr #1

declare hidden void @_ZNK5osgeo4proj2io15DatabaseContext24getAliasFromOfficialNameERKNSt7__cxx1112basic_stringIcSt11char_traitsIcESaIcEEESA_SA_(ptr dead_on_unwind writable sret(%"class.std::__cxx11::basic_string") align 8, ptr noundef nonnull align 8 dereferenceable(8), ptr noundef nonnull align 8 dereferenceable(32), ptr noundef nonnull align 8 dereferenceable(32), ptr noundef nonnull align 8 dereferenceable(32)) local_unnamed_addr #1

; Function Attrs: mustprogress nounwind sspstrong uwtable
declare noundef nonnull align 8 dereferenceable(32) ptr @_ZNSt7__cxx1112basic_stringIcSt11char_traitsIcESaIcEEaSEOS4_(ptr noundef nonnull align 8 dereferenceable(32), ptr noundef nonnull align 8 dereferenceable(32)) local_unnamed_addr #5 align 2

declare void @_ZN5osgeo4proj2io16AuthorityFactory6createERKN7dropbox6oxygen2nnISt10shared_ptrINS1_15DatabaseContextEEEERKNSt7__cxx1112basic_stringIcSt11char_traitsIcESaIcEEE(ptr dead_on_unwind writable sret(%"class.dropbox::oxygen::nn.121") align 8, ptr noundef nonnull align 8 dereferenceable(16), ptr noundef nonnull align 8 dereferenceable(32)) local_unnamed_addr #1

; Function Attrs: inlinehint mustprogress nounwind sspstrong uwtable
define linkonce_odr hidden void @_ZN7dropbox6oxygen2nnISt10shared_ptrIN5osgeo4proj2io15DatabaseContextEEED2Ev(ptr noundef nonnull align 8 dereferenceable(16) %0) unnamed_addr #13 comdat align 2 personality ptr @__gxx_personality_v0 {
  %2 = getelementptr inbounds nuw i8, ptr %0, i64 8
  %3 = load ptr, ptr %2, align 8, !tbaa !53
  %4 = icmp eq ptr %3, null
  br i1 %4, label %29, label %5

5:                                                ; preds = %1
  %6 = getelementptr inbounds nuw i8, ptr %3, i64 8
  %7 = load atomic i64, ptr %6 acquire, align 8
  %8 = icmp eq i64 %7, 4294967297
  %9 = trunc i64 %7 to i32
  br i1 %8, label %10, label %18

10:                                               ; preds = %5
  store i32 0, ptr %6, align 8, !tbaa !49
  %11 = getelementptr inbounds nuw i8, ptr %3, i64 12
  store i32 0, ptr %11, align 4, !tbaa !52
  %12 = load ptr, ptr %3, align 8, !tbaa !44
  %13 = getelementptr inbounds nuw i8, ptr %12, i64 16
  %14 = load ptr, ptr %13, align 8
  tail call void %14(ptr noundef nonnull align 8 dereferenceable(16) %3) #34
  %15 = load ptr, ptr %3, align 8, !tbaa !44
  %16 = getelementptr inbounds nuw i8, ptr %15, i64 24
  %17 = load ptr, ptr %16, align 8
  tail call void %17(ptr noundef nonnull align 8 dereferenceable(16) %3) #34
  br label %29

18:                                               ; preds = %5
  %19 = load i8, ptr @__libc_single_threaded, align 1, !tbaa !41
  %20 = icmp eq i8 %19, 0
  br i1 %20, label %23, label %21

21:                                               ; preds = %18
  %22 = add nsw i32 %9, -1
  store i32 %22, ptr %6, align 4, !tbaa !70
  br label %25

23:                                               ; preds = %18
  %24 = atomicrmw volatile add ptr %6, i32 -1 acq_rel, align 4
  br label %25

25:                                               ; preds = %23, %21
  %26 = phi i32 [ %9, %21 ], [ %24, %23 ]
  %27 = icmp eq i32 %26, 1
  br i1 %27, label %28, label %29, !prof !71

28:                                               ; preds = %25
  tail call void @_ZNSt16_Sp_counted_baseILN9__gnu_cxx12_Lock_policyE2EE24_M_release_last_use_coldEv(ptr noundef nonnull align 8 dereferenceable(16) %3) #34
  br label %29

29:                                               ; preds = %28, %25, %10, %1
  ret void
}

declare void @_ZNK5osgeo4proj2io16AuthorityFactory21createObjectsFromNameERKNSt7__cxx1112basic_stringIcSt11char_traitsIcESaIcEEERKSt6vectorINS2_10ObjectTypeESaISC_EEbm(ptr dead_on_unwind writable sret(%"class.std::__cxx11::list") align 8, ptr noundef nonnull align 8 dereferenceable(8), ptr noundef nonnull align 8 dereferenceable(32), ptr noundef nonnull align 8 dereferenceable(24), i1 noundef zeroext, i64 noundef) local_unnamed_addr #1

; Function Attrs: mustprogress sspstrong uwtable
define linkonce_odr void @_ZNSt6vectorIN5osgeo4proj2io16AuthorityFactory10ObjectTypeESaIS4_EEC2ESt16initializer_listIS4_ERKS5_(ptr noundef nonnull align 8 dereferenceable(24) %0, ptr %1, i64 %2, ptr noundef nonnull align 1 dereferenceable(1) %3) unnamed_addr #0 comdat align 2 personality ptr @__gxx_personality_v0 {
  tail call void @llvm.memset.p0.i64(ptr noundef nonnull align 8 dereferenceable(24) %0, i8 0, i64 24, i1 false)
  %5 = icmp ugt i64 %2, 2305843009213693951
  br i1 %5, label %6, label %8

6:                                                ; preds = %4
  invoke void @_ZSt20__throw_length_errorPKc(ptr noundef nonnull @.str.76) #21
          to label %7 unwind label %26

7:                                                ; preds = %6
  unreachable

8:                                                ; preds = %4
  %9 = icmp eq i64 %2, 0
  br i1 %9, label %10, label %14

10:                                               ; preds = %8
  %11 = getelementptr inbounds nuw i8, ptr %0, i64 8
  %12 = getelementptr inbounds nuw i32, ptr null, i64 %2
  %13 = getelementptr inbounds nuw i8, ptr %0, i64 16
  tail call void @llvm.memset.p0.i64(ptr noundef nonnull align 8 dereferenceable(16) %0, i8 0, i64 16, i1 false)
  store ptr %12, ptr %13, align 8, !tbaa !108
  br label %23

14:                                               ; preds = %8
  %15 = shl nuw nsw i64 %2, 2
  %16 = invoke noalias noundef nonnull ptr @_Znwm(i64 noundef %15) #35
          to label %17 unwind label %26

17:                                               ; preds = %14
  %18 = getelementptr inbounds nuw i8, ptr %0, i64 8
  store ptr %16, ptr %18, align 8, !tbaa !109
  store ptr %16, ptr %0, align 8, !tbaa !106
  %19 = getelementptr inbounds nuw i32, ptr %16, i64 %2
  %20 = getelementptr inbounds nuw i8, ptr %0, i64 16
  store ptr %19, ptr %20, align 8, !tbaa !108
  %21 = shl nuw nsw i64 %2, 2
  tail call void @llvm.memcpy.p0.p0.i64(ptr nonnull align 4 %16, ptr align 4 %1, i64 %21, i1 false)
  %22 = getelementptr inbounds nuw i8, ptr %16, i64 %21
  br label %23

23:                                               ; preds = %17, %10
  %24 = phi ptr [ %18, %17 ], [ %11, %10 ]
  %25 = phi ptr [ %22, %17 ], [ null, %10 ]
  store ptr %25, ptr %24, align 8, !tbaa !109
  ret void

26:                                               ; preds = %14, %6
  %27 = landingpad { ptr, i32 }
          cleanup
  %28 = load ptr, ptr %0, align 8, !tbaa !106
  %29 = icmp eq ptr %28, null
  br i1 %29, label %36, label %30

30:                                               ; preds = %26
  %31 = getelementptr inbounds nuw i8, ptr %0, i64 16
  %32 = load ptr, ptr %31, align 8, !tbaa !108
  %33 = ptrtoint ptr %32 to i64
  %34 = ptrtoint ptr %28 to i64
  %35 = sub i64 %33, %34
  tail call void @_ZdlPvm(ptr noundef nonnull %28, i64 noundef %35) #33
  br label %36

36:                                               ; preds = %30, %26
  resume { ptr, i32 } %27
}

; Function Attrs: mustprogress nounwind sspstrong uwtable
define linkonce_odr hidden void @_ZNSt7__cxx1110_List_baseIN7dropbox6oxygen2nnISt10shared_ptrIN5osgeo4proj6common16IdentifiedObjectEEEESaISA_EED2Ev(ptr noundef nonnull align 8 dereferenceable(24) %0) unnamed_addr #5 comdat align 2 personality ptr @__gxx_personality_v0 {
  %2 = load ptr, ptr %0, align 8, !tbaa !112
  %3 = icmp eq ptr %2, %0
  br i1 %3, label %36, label %4

4:                                                ; preds = %34, %1
  %5 = phi ptr [ %6, %34 ], [ %2, %1 ]
  %6 = load ptr, ptr %5, align 8, !tbaa !112
  %7 = getelementptr inbounds nuw i8, ptr %5, i64 24
  %8 = load ptr, ptr %7, align 8, !tbaa !53
  %9 = icmp eq ptr %8, null
  br i1 %9, label %34, label %10

10:                                               ; preds = %4
  %11 = getelementptr inbounds nuw i8, ptr %8, i64 8
  %12 = load atomic i64, ptr %11 acquire, align 8
  %13 = icmp eq i64 %12, 4294967297
  %14 = trunc i64 %12 to i32
  br i1 %13, label %15, label %23

15:                                               ; preds = %10
  store i32 0, ptr %11, align 8, !tbaa !49
  %16 = getelementptr inbounds nuw i8, ptr %8, i64 12
  store i32 0, ptr %16, align 4, !tbaa !52
  %17 = load ptr, ptr %8, align 8, !tbaa !44
  %18 = getelementptr inbounds nuw i8, ptr %17, i64 16
  %19 = load ptr, ptr %18, align 8
  tail call void %19(ptr noundef nonnull align 8 dereferenceable(16) %8) #34
  %20 = load ptr, ptr %8, align 8, !tbaa !44
  %21 = getelementptr inbounds nuw i8, ptr %20, i64 24
  %22 = load ptr, ptr %21, align 8
  tail call void %22(ptr noundef nonnull align 8 dereferenceable(16) %8) #34
  br label %34

23:                                               ; preds = %10
  %24 = load i8, ptr @__libc_single_threaded, align 1, !tbaa !41
  %25 = icmp eq i8 %24, 0
  br i1 %25, label %28, label %26

26:                                               ; preds = %23
  %27 = add nsw i32 %14, -1
  store i32 %27, ptr %11, align 4, !tbaa !70
  br label %30

28:                                               ; preds = %23
  %29 = atomicrmw volatile add ptr %11, i32 -1 acq_rel, align 4
  br label %30

30:                                               ; preds = %28, %26
  %31 = phi i32 [ %14, %26 ], [ %29, %28 ]
  %32 = icmp eq i32 %31, 1
  br i1 %32, label %33, label %34, !prof !71

33:                                               ; preds = %30
  tail call void @_ZNSt16_Sp_counted_baseILN9__gnu_cxx12_Lock_policyE2EE24_M_release_last_use_coldEv(ptr noundef nonnull align 8 dereferenceable(16) %8) #34
  br label %34

34:                                               ; preds = %33, %30, %15, %4
  tail call void @_ZdlPvm(ptr noundef nonnull %5, i64 noundef 32) #33
  %35 = icmp eq ptr %6, %0
  br i1 %35, label %36, label %4

36:                                               ; preds = %34, %1
  ret void
}

; Function Attrs: inlinehint mustprogress nounwind sspstrong uwtable
define linkonce_odr hidden void @_ZN7dropbox6oxygen2nnISt10shared_ptrIN5osgeo4proj2io16AuthorityFactoryEEED2Ev(ptr noundef nonnull align 8 dereferenceable(16) %0) unnamed_addr #13 comdat align 2 personality ptr @__gxx_personality_v0 {
  %2 = getelementptr inbounds nuw i8, ptr %0, i64 8
  %3 = load ptr, ptr %2, align 8, !tbaa !53
  %4 = icmp eq ptr %3, null
  br i1 %4, label %29, label %5

5:                                                ; preds = %1
  %6 = getelementptr inbounds nuw i8, ptr %3, i64 8
  %7 = load atomic i64, ptr %6 acquire, align 8
  %8 = icmp eq i64 %7, 4294967297
  %9 = trunc i64 %7 to i32
  br i1 %8, label %10, label %18

10:                                               ; preds = %5
  store i32 0, ptr %6, align 8, !tbaa !49
  %11 = getelementptr inbounds nuw i8, ptr %3, i64 12
  store i32 0, ptr %11, align 4, !tbaa !52
  %12 = load ptr, ptr %3, align 8, !tbaa !44
  %13 = getelementptr inbounds nuw i8, ptr %12, i64 16
  %14 = load ptr, ptr %13, align 8
  tail call void %14(ptr noundef nonnull align 8 dereferenceable(16) %3) #34
  %15 = load ptr, ptr %3, align 8, !tbaa !44
  %16 = getelementptr inbounds nuw i8, ptr %15, i64 24
  %17 = load ptr, ptr %16, align 8
  tail call void %17(ptr noundef nonnull align 8 dereferenceable(16) %3) #34
  br label %29

18:                                               ; preds = %5
  %19 = load i8, ptr @__libc_single_threaded, align 1, !tbaa !41
  %20 = icmp eq i8 %19, 0
  br i1 %20, label %23, label %21

21:                                               ; preds = %18
  %22 = add nsw i32 %9, -1
  store i32 %22, ptr %6, align 4, !tbaa !70
  br label %25

23:                                               ; preds = %18
  %24 = atomicrmw volatile add ptr %6, i32 -1 acq_rel, align 4
  br label %25

25:                                               ; preds = %23, %21
  %26 = phi i32 [ %9, %21 ], [ %24, %23 ]
  %27 = icmp eq i32 %26, 1
  br i1 %27, label %28, label %29, !prof !71

28:                                               ; preds = %25
  tail call void @_ZNSt16_Sp_counted_baseILN9__gnu_cxx12_Lock_policyE2EE24_M_release_last_use_coldEv(ptr noundef nonnull align 8 dereferenceable(16) %3) #34
  br label %29

29:                                               ; preds = %28, %25, %10, %1
  ret void
}

declare hidden void @_ZN5osgeo4proj2io12WKTFormatter15morphNameToESRIERKNSt7__cxx1112basic_stringIcSt11char_traitsIcESaIcEEE(ptr dead_on_unwind writable sret(%"class.std::__cxx11::basic_string") align 8, ptr noundef nonnull align 8 dereferenceable(32)) local_unnamed_addr #1

declare hidden noundef zeroext i1 @_ZNK5osgeo4proj2io12WKTFormatter21primeMeridianInDegreeEv(ptr noundef nonnull align 8 dereferenceable(8)) local_unnamed_addr #1

; Function Attrs: mustprogress nofree nounwind willreturn memory(read)
declare noundef double @_ZNK5osgeo4proj6common7Measure5valueEv(ptr noundef nonnull align 8 dereferenceable(24)) local_unnamed_addr #2

; Function Attrs: mustprogress nofree nounwind willreturn memory(read)
declare noundef nonnull align 8 dereferenceable(24) ptr @_ZNK5osgeo4proj6common7Measure4unitEv(ptr noundef nonnull align 8 dereferenceable(24)) local_unnamed_addr #2

declare hidden noundef zeroext i1 @_ZNK5osgeo4proj2io12WKTFormatter47primeMeridianOrParameterUnitOmittedIfSameAsAxisEv(ptr noundef nonnull align 8 dereferenceable(8)) local_unnamed_addr #1

; Function Attrs: mustprogress nofree nounwind willreturn memory(read)
declare noundef zeroext i1 @_ZNK5osgeo4proj6common13UnitOfMeasureeqERKS2_(ptr noundef nonnull align 8 dereferenceable(24), ptr noundef nonnull align 8 dereferenceable(24)) local_unnamed_addr #2

declare hidden noundef nonnull align 8 dereferenceable(16) ptr @_ZNK5osgeo4proj2io12WKTFormatter15axisAngularUnitEv(ptr noundef nonnull align 8 dereferenceable(8)) local_unnamed_addr #1

declare hidden void @_ZNK5osgeo4proj6common13UnitOfMeasure12_exportToWKTEPNS0_2io12WKTFormatterERKNSt7__cxx1112basic_stringIcSt11char_traitsIcESaIcEEE(ptr noundef nonnull align 8 dereferenceable(24), ptr noundef, ptr noundef nonnull align 8 dereferenceable(32)) local_unnamed_addr #1

declare hidden noundef zeroext i1 @_ZNK5osgeo4proj2io12WKTFormatter8outputIdEv(ptr noundef nonnull align 8 dereferenceable(8)) local_unnamed_addr #1

declare void @_ZNK5osgeo4proj6common16IdentifiedObject8formatIDEPNS0_2io12WKTFormatterE(ptr noundef nonnull align 8 dereferenceable(40), ptr noundef) local_unnamed_addr #1

; Function Attrs: sspstrong uwtable
define hidden void @_ZThn24_NK5osgeo4proj5datum13PrimeMeridian12_exportToWKTEPNS0_2io12WKTFormatterE(ptr noundef %0, ptr noundef nonnull %1) unnamed_addr #14 align 2 {
  %3 = getelementptr inbounds i8, ptr %0, i64 -24
  tail call void @_ZNK5osgeo4proj5datum13PrimeMeridian12_exportToWKTEPNS0_2io12WKTFormatterE(ptr noundef nonnull align 8 dereferenceable(64) %3, ptr noundef %1)
  ret void
}

; Function Attrs: mustprogress sspstrong uwtable
define hidden void @_ZNK5osgeo4proj5datum13PrimeMeridian13_exportToJSONEPNS0_2io13JSONFormatterE(ptr noundef nonnull align 8 dereferenceable(64) %0, ptr noundef nonnull %1) unnamed_addr #0 align 2 personality ptr @__gxx_personality_v0 {
  %3 = alloca i64, align 8
  %4 = alloca %"struct.osgeo::proj::io::JSONFormatter::ObjectContext", align 8
  %5 = alloca %"class.std::__cxx11::basic_string", align 8
  %6 = alloca %"class.std::__cxx11::basic_string", align 8
  %7 = alloca %"class.std::__cxx11::basic_string", align 8
  %8 = alloca %"struct.osgeo::proj::io::JSONFormatter::ObjectContext", align 8
  %9 = alloca %"class.std::__cxx11::basic_string", align 8
  %10 = alloca %"class.std::__cxx11::basic_string", align 8
  %11 = tail call noundef ptr @_ZNK5osgeo4proj2io13JSONFormatter6writerEv(ptr noundef nonnull align 8 dereferenceable(8) %1)
  call void @llvm.lifetime.start.p0(ptr %4)
  %12 = tail call noundef nonnull align 8 dereferenceable(24) ptr @_ZNK5osgeo4proj6common16IdentifiedObject11identifiersEv(ptr noundef nonnull align 8 dereferenceable(40) %0) #32
  %13 = load ptr, ptr %12, align 8, !tbaa !98
  %14 = getelementptr inbounds nuw i8, ptr %12, i64 8
  %15 = load ptr, ptr %14, align 8, !tbaa !98
  %16 = icmp ne ptr %13, %15
  call void @_ZN5osgeo4proj2io13JSONFormatter13ObjectContextC1ERS2_PKcb(ptr noundef nonnull align 8 dereferenceable(8) %4, ptr noundef nonnull align 8 dereferenceable(8) %1, ptr noundef nonnull @.str.9, i1 noundef zeroext %16)
  call void @llvm.lifetime.start.p0(ptr %5)
  %17 = getelementptr inbounds nuw i8, ptr %5, i64 16
  store ptr %17, ptr %5, align 8, !tbaa !39
  store i32 1701667182, ptr %17, align 8
  %18 = getelementptr inbounds nuw i8, ptr %5, i64 8
  store i64 4, ptr %18, align 8, !tbaa !40
  %19 = getelementptr inbounds nuw i8, ptr %5, i64 20
  store i8 0, ptr %19, align 4, !tbaa !41
  invoke void @_ZN5osgeo4proj22CPLJSonStreamingWriter9AddObjKeyERKNSt7__cxx1112basic_stringIcSt11char_traitsIcESaIcEEE(ptr noundef nonnull align 8 dereferenceable(153) %11, ptr noundef nonnull align 8 dereferenceable(32) %5)
          to label %20 unwind label %82

20:                                               ; preds = %2
  %21 = load ptr, ptr %5, align 8, !tbaa !42
  %22 = icmp eq ptr %21, %17
  br i1 %22, label %23, label %26

23:                                               ; preds = %20
  %24 = load i64, ptr %18, align 8, !tbaa !40
  %25 = icmp ult i64 %24, 16
  call void @llvm.assume(i1 %25)
  br label %29

26:                                               ; preds = %20
  %27 = load i64, ptr %17, align 8, !tbaa !41
  %28 = add i64 %27, 1
  call void @_ZdlPvm(ptr noundef %21, i64 noundef %28) #33
  br label %29

29:                                               ; preds = %26, %23
  call void @llvm.lifetime.end.p0(ptr %5)
  call void @llvm.lifetime.start.p0(ptr %6)
  %30 = call noundef nonnull align 8 dereferenceable(16) ptr @_ZNK5osgeo4proj6common16IdentifiedObject4nameEv(ptr noundef nonnull align 8 dereferenceable(40) %0) #32
  %31 = load ptr, ptr %30, align 8, !tbaa !95
  %32 = call noundef nonnull align 8 dereferenceable(40) ptr @_ZNK5osgeo4proj8metadata10Identifier11descriptionB5cxx11Ev(ptr noundef nonnull align 8 dereferenceable(40) %31) #32
  %33 = load i8, ptr %32, align 8, !tbaa !4, !range !14, !noundef !15
  %34 = trunc nuw i8 %33 to i1
  br i1 %34, label %35, label %57

35:                                               ; preds = %29
  %36 = call noundef nonnull align 8 dereferenceable(32) ptr @_ZNK5osgeo4proj6common16IdentifiedObject7nameStrB5cxx11Ev(ptr noundef nonnull align 8 dereferenceable(40) %0) #32
  %37 = getelementptr inbounds nuw i8, ptr %6, i64 16
  store ptr %37, ptr %6, align 8, !tbaa !39
  %38 = load ptr, ptr %36, align 8, !tbaa !42
  %39 = getelementptr inbounds nuw i8, ptr %36, i64 8
  %40 = load i64, ptr %39, align 8, !tbaa !40
  %41 = icmp ult i64 %40, 9223372036854775807
  call void @llvm.assume(i1 %41)
  call void @llvm.lifetime.start.p0(ptr %3)
  store i64 %40, ptr %3, align 8, !tbaa !43
  %42 = icmp samesign ugt i64 %40, 15
  br i1 %42, label %43, label %47

43:                                               ; preds = %35
  %44 = invoke noundef ptr @_ZNSt7__cxx1112basic_stringIcSt11char_traitsIcESaIcEE9_M_createERmm(ptr noundef nonnull align 8 dereferenceable(32) %6, ptr noundef nonnull align 8 dereferenceable(8) %3, i64 noundef 0)
          to label %45 unwind label %93

45:                                               ; preds = %43
  store ptr %44, ptr %6, align 8, !tbaa !42
  %46 = load i64, ptr %3, align 8, !tbaa !43
  store i64 %46, ptr %37, align 8, !tbaa !41
  br label %47

47:                                               ; preds = %45, %35
  %48 = phi i64 [ %46, %45 ], [ %40, %35 ]
  %49 = phi ptr [ %44, %45 ], [ %37, %35 ]
  switch i64 %48, label %52 [
    i64 0, label %50
    i64 -1, label %54
  ]

50:                                               ; preds = %47
  %51 = load i8, ptr %38, align 1, !tbaa !41
  store i8 %51, ptr %49, align 1, !tbaa !41
  br label %54

52:                                               ; preds = %47
  %53 = add nuw i64 %48, 1
  call void @llvm.memcpy.p0.p0.i64(ptr noundef nonnull align 1 dereferenceable(1) %49, ptr noundef nonnull align 1 dereferenceable(1) %38, i64 %53, i1 false)
  br label %54

54:                                               ; preds = %52, %50, %47
  %55 = load i64, ptr %3, align 8, !tbaa !43
  %56 = getelementptr inbounds nuw i8, ptr %6, i64 8
  store i64 %55, ptr %56, align 8, !tbaa !40
  call void @llvm.lifetime.end.p0(ptr %3)
  br label %61

57:                                               ; preds = %29
  %58 = getelementptr inbounds nuw i8, ptr %6, i64 16
  store ptr %58, ptr %6, align 8, !tbaa !39
  call void @llvm.memcpy.p0.p0.i64(ptr noundef nonnull align 8 dereferenceable(9) %58, ptr noundef nonnull align 1 dereferenceable(9) @.str.4, i64 9, i1 false)
  %59 = getelementptr inbounds nuw i8, ptr %6, i64 8
  store i64 9, ptr %59, align 8, !tbaa !40
  %60 = getelementptr inbounds nuw i8, ptr %6, i64 25
  store i8 0, ptr %60, align 1, !tbaa !41
  br label %61

61:                                               ; preds = %57, %54
  invoke void @_ZN5osgeo4proj22CPLJSonStreamingWriter3AddERKNSt7__cxx1112basic_stringIcSt11char_traitsIcESaIcEEE(ptr noundef nonnull align 8 dereferenceable(153) %11, ptr noundef nonnull align 8 dereferenceable(32) %6)
          to label %62 unwind label %95

62:                                               ; preds = %61
  %63 = getelementptr inbounds nuw i8, ptr %0, i64 56
  %64 = load ptr, ptr %63, align 8, !tbaa !79
  call void @llvm.lifetime.start.p0(ptr %7)
  %65 = getelementptr inbounds nuw i8, ptr %7, i64 16
  store ptr %65, ptr %7, align 8, !tbaa !39
  call void @llvm.memcpy.p0.p0.i64(ptr noundef nonnull align 8 dereferenceable(9) %65, ptr noundef nonnull align 1 dereferenceable(9) @.str.11, i64 9, i1 false)
  %66 = getelementptr inbounds nuw i8, ptr %7, i64 8
  store i64 9, ptr %66, align 8, !tbaa !40
  %67 = getelementptr inbounds nuw i8, ptr %7, i64 25
  store i8 0, ptr %67, align 1, !tbaa !41
  invoke void @_ZN5osgeo4proj22CPLJSonStreamingWriter9AddObjKeyERKNSt7__cxx1112basic_stringIcSt11char_traitsIcESaIcEEE(ptr noundef nonnull align 8 dereferenceable(153) %11, ptr noundef nonnull align 8 dereferenceable(32) %7)
          to label %68 unwind label %97

68:                                               ; preds = %62
  %69 = load ptr, ptr %7, align 8, !tbaa !42
  %70 = icmp eq ptr %69, %65
  br i1 %70, label %71, label %74

71:                                               ; preds = %68
  %72 = load i64, ptr %66, align 8, !tbaa !40
  %73 = icmp ult i64 %72, 16
  call void @llvm.assume(i1 %73)
  br label %77

74:                                               ; preds = %68
  %75 = load i64, ptr %65, align 8, !tbaa !41
  %76 = add i64 %75, 1
  call void @_ZdlPvm(ptr noundef %69, i64 noundef %76) #33
  br label %77

77:                                               ; preds = %74, %71
  call void @llvm.lifetime.end.p0(ptr %7)
  %78 = call noundef nonnull align 8 dereferenceable(24) ptr @_ZNK5osgeo4proj6common7Measure4unitEv(ptr noundef nonnull align 8 dereferenceable(24) %64) #32
  %79 = call noundef zeroext i1 @_ZNK5osgeo4proj6common13UnitOfMeasureeqERKS2_(ptr noundef nonnull align 8 dereferenceable(24) %78, ptr noundef nonnull align 8 dereferenceable(24) @_ZN5osgeo4proj6common13UnitOfMeasure6DEGREEE) #32
  br i1 %79, label %80, label %110

80:                                               ; preds = %77
  %81 = call noundef double @_ZNK5osgeo4proj6common7Measure5valueEv(ptr noundef nonnull align 8 dereferenceable(24) %64) #32
  invoke void @_ZN5osgeo4proj22CPLJSonStreamingWriter3AddEdi(ptr noundef nonnull align 8 dereferenceable(153) %11, double noundef %81, i32 noundef 15)
          to label %171 unwind label %108

82:                                               ; preds = %2
  %83 = landingpad { ptr, i32 }
          cleanup
  %84 = load ptr, ptr %5, align 8, !tbaa !42
  %85 = icmp eq ptr %84, %17
  br i1 %85, label %86, label %89

86:                                               ; preds = %82
  %87 = load i64, ptr %18, align 8, !tbaa !40
  %88 = icmp ult i64 %87, 16
  call void @llvm.assume(i1 %88)
  br label %92

89:                                               ; preds = %82
  %90 = load i64, ptr %17, align 8, !tbaa !41
  %91 = add i64 %90, 1
  call void @_ZdlPvm(ptr noundef %84, i64 noundef %91) #33
  br label %92

92:                                               ; preds = %89, %86
  call void @llvm.lifetime.end.p0(ptr %5)
  br label %201

93:                                               ; preds = %43
  %94 = landingpad { ptr, i32 }
          cleanup
  br label %199

95:                                               ; preds = %61
  %96 = landingpad { ptr, i32 }
          cleanup
  br label %187

97:                                               ; preds = %62
  %98 = landingpad { ptr, i32 }
          cleanup
  %99 = load ptr, ptr %7, align 8, !tbaa !42
  %100 = icmp eq ptr %99, %65
  br i1 %100, label %101, label %104

101:                                              ; preds = %97
  %102 = load i64, ptr %66, align 8, !tbaa !40
  %103 = icmp ult i64 %102, 16
  call void @llvm.assume(i1 %103)
  br label %107

104:                                              ; preds = %97
  %105 = load i64, ptr %65, align 8, !tbaa !41
  %106 = add i64 %105, 1
  call void @_ZdlPvm(ptr noundef %99, i64 noundef %106) #33
  br label %107

107:                                              ; preds = %104, %101
  call void @llvm.lifetime.end.p0(ptr %7)
  br label %187

108:                                              ; preds = %174, %171, %80
  %109 = landingpad { ptr, i32 }
          cleanup
  br label %187

110:                                              ; preds = %77
  call void @llvm.lifetime.start.p0(ptr %8)
  invoke void @_ZN5osgeo4proj2io13JSONFormatter13ObjectContextC1ERS2_PKcb(ptr noundef nonnull align 8 dereferenceable(8) %8, ptr noundef nonnull align 8 dereferenceable(8) %1, ptr noundef null, i1 noundef zeroext false)
          to label %111 unwind label %141

111:                                              ; preds = %110
  call void @llvm.lifetime.start.p0(ptr %9)
  %112 = getelementptr inbounds nuw i8, ptr %9, i64 16
  store ptr %112, ptr %9, align 8, !tbaa !39
  call void @llvm.memcpy.p0.p0.i64(ptr noundef nonnull align 8 dereferenceable(5) %112, ptr noundef nonnull align 1 dereferenceable(5) @.str.12, i64 5, i1 false)
  %113 = getelementptr inbounds nuw i8, ptr %9, i64 8
  store i64 5, ptr %113, align 8, !tbaa !40
  %114 = getelementptr inbounds nuw i8, ptr %9, i64 21
  store i8 0, ptr %114, align 1, !tbaa !41
  invoke void @_ZN5osgeo4proj22CPLJSonStreamingWriter9AddObjKeyERKNSt7__cxx1112basic_stringIcSt11char_traitsIcESaIcEEE(ptr noundef nonnull align 8 dereferenceable(153) %11, ptr noundef nonnull align 8 dereferenceable(32) %9)
          to label %115 unwind label %143

115:                                              ; preds = %111
  %116 = load ptr, ptr %9, align 8, !tbaa !42
  %117 = icmp eq ptr %116, %112
  br i1 %117, label %118, label %121

118:                                              ; preds = %115
  %119 = load i64, ptr %113, align 8, !tbaa !40
  %120 = icmp ult i64 %119, 16
  call void @llvm.assume(i1 %120)
  br label %124

121:                                              ; preds = %115
  %122 = load i64, ptr %112, align 8, !tbaa !41
  %123 = add i64 %122, 1
  call void @_ZdlPvm(ptr noundef %116, i64 noundef %123) #33
  br label %124

124:                                              ; preds = %121, %118
  call void @llvm.lifetime.end.p0(ptr %9)
  %125 = call noundef double @_ZNK5osgeo4proj6common7Measure5valueEv(ptr noundef nonnull align 8 dereferenceable(24) %64) #32
  invoke void @_ZN5osgeo4proj22CPLJSonStreamingWriter3AddEdi(ptr noundef nonnull align 8 dereferenceable(153) %11, double noundef %125, i32 noundef 15)
          to label %126 unwind label %154

126:                                              ; preds = %124
  call void @llvm.lifetime.start.p0(ptr %10)
  %127 = getelementptr inbounds nuw i8, ptr %10, i64 16
  store ptr %127, ptr %10, align 8, !tbaa !39
  store i32 1953066613, ptr %127, align 8
  %128 = getelementptr inbounds nuw i8, ptr %10, i64 8
  store i64 4, ptr %128, align 8, !tbaa !40
  %129 = getelementptr inbounds nuw i8, ptr %10, i64 20
  store i8 0, ptr %129, align 4, !tbaa !41
  invoke void @_ZN5osgeo4proj22CPLJSonStreamingWriter9AddObjKeyERKNSt7__cxx1112basic_stringIcSt11char_traitsIcESaIcEEE(ptr noundef nonnull align 8 dereferenceable(153) %11, ptr noundef nonnull align 8 dereferenceable(32) %10)
          to label %130 unwind label %156

130:                                              ; preds = %126
  %131 = load ptr, ptr %10, align 8, !tbaa !42
  %132 = icmp eq ptr %131, %127
  br i1 %132, label %133, label %136

133:                                              ; preds = %130
  %134 = load i64, ptr %128, align 8, !tbaa !40
  %135 = icmp ult i64 %134, 16
  call void @llvm.assume(i1 %135)
  br label %139

136:                                              ; preds = %130
  %137 = load i64, ptr %127, align 8, !tbaa !41
  %138 = add i64 %137, 1
  call void @_ZdlPvm(ptr noundef %131, i64 noundef %138) #33
  br label %139

139:                                              ; preds = %136, %133
