; ModuleID = 'temp/PROJ/defmodel.cpp.ll'
source_filename = "/home/mitch/Documents/PROJ/src/transformations/defmodel.cpp"
target datalayout = "e-m:e-p270:32:32-p271:32:32-p272:64:64-i64:64-i128:128-f80:128-n8:16:32:64-S128"
target triple = "x86_64-pc-linux-gnu"

%"class.std::__cxx11::basic_string" = type { %"struct.std::__cxx11::basic_string<char>::_Alloc_hider", i64, %union.anon }
%"struct.std::__cxx11::basic_string<char>::_Alloc_hider" = type { ptr }
%union.anon = type { i64, [8 x i8] }
%"struct.std::piecewise_construct_t" = type { i8 }
%"class.std::unique_ptr" = type { %"struct.std::__uniq_ptr_data" }
%"struct.std::__uniq_ptr_data" = type { %"class.std::__uniq_ptr_impl" }
%"class.std::__uniq_ptr_impl" = type { %"class.std::tuple" }
%"class.std::tuple" = type { %"struct.std::_Tuple_impl" }
%"struct.std::_Tuple_impl" = type { %"struct.std::_Head_base.1" }
%"struct.std::_Head_base.1" = type { ptr }
%"class.proj_nlohmann::basic_json" = type { i8, %"union.proj_nlohmann::basic_json<>::json_value" }
%"union.proj_nlohmann::basic_json<>::json_value" = type { ptr }
%"class.std::function" = type { %"class.std::_Function_base", ptr }
%"class.std::_Function_base" = type { %"union.std::_Any_data", ptr }
%"union.std::_Any_data" = type { %"union.std::_Nocopy_types" }
%"union.std::_Nocopy_types" = type { { i64, i64 } }
%"class.std::allocator" = type { i8 }
%"class.proj_nlohmann::detail::iter_impl" = type { ptr, %"struct.proj_nlohmann::detail::internal_iterator" }
%"struct.proj_nlohmann::detail::internal_iterator" = type { %"struct.std::_Rb_tree_iterator", %"class.__gnu_cxx::__normal_iterator", %"class.proj_nlohmann::detail::primitive_iterator_t" }
%"struct.std::_Rb_tree_iterator" = type { ptr }
%"class.__gnu_cxx::__normal_iterator" = type { ptr }
%"class.proj_nlohmann::detail::primitive_iterator_t" = type { i64 }
%"struct.DeformationModel::MasterFile::Link" = type { %"class.std::__cxx11::basic_string", %"class.std::__cxx11::basic_string", %"class.std::__cxx11::basic_string", %"class.std::__cxx11::basic_string" }
%"class.DeformationModel::SpatialExtent" = type { double, double, double, double, double, double, double, double }
%"class.DeformationModel::Epoch" = type { %"class.std::__cxx11::basic_string", double }
%"class.DeformationModel::Component" = type { %"class.std::__cxx11::basic_string", %"class.DeformationModel::SpatialExtent", %"class.std::__cxx11::basic_string", %"class.std::__cxx11::basic_string", double, double, %"struct.DeformationModel::Component::SpatialModel", %"class.std::unique_ptr.10" }
%"struct.DeformationModel::Component::SpatialModel" = type { %"class.std::__cxx11::basic_string", %"class.std::__cxx11::basic_string", %"class.std::__cxx11::basic_string", %"class.std::__cxx11::basic_string" }
%"class.std::unique_ptr.10" = type { %"struct.std::__uniq_ptr_data.11" }
%"struct.std::__uniq_ptr_data.11" = type { %"class.std::__uniq_ptr_impl.12" }
%"class.std::__uniq_ptr_impl.12" = type { %"class.std::tuple.13" }
%"class.std::tuple.13" = type { %"struct.std::_Tuple_impl.14" }
%"struct.std::_Tuple_impl.14" = type { %"struct.std::_Head_base.17" }
%"struct.std::_Head_base.17" = type { ptr }
%"class.proj_nlohmann::detail::iterator_input_adapter" = type { %"class.__gnu_cxx::__normal_iterator.291", %"class.__gnu_cxx::__normal_iterator.291" }
%"class.__gnu_cxx::__normal_iterator.291" = type { ptr }
%"class.proj_nlohmann::detail::parser" = type <{ %"class.std::function", i32, [4 x i8], %"class.proj_nlohmann::detail::lexer", i8, [7 x i8] }>
%"class.proj_nlohmann::detail::lexer" = type <{ %"class.proj_nlohmann::detail::iterator_input_adapter", i8, [3 x i8], i32, i8, [7 x i8], %"struct.proj_nlohmann::detail::position_t", %"class.std::vector.292", %"class.std::__cxx11::basic_string", ptr, i64, i64, double, i32, [4 x i8] }>
%"struct.proj_nlohmann::detail::position_t" = type { i64, i64, i64 }
%"class.std::vector.292" = type { %"struct.std::_Vector_base.293" }
%"struct.std::_Vector_base.293" = type { %"struct.std::_Vector_base<char, std::allocator<char>>::_Vector_impl" }
%"struct.std::_Vector_base<char, std::allocator<char>>::_Vector_impl" = type { %"struct.std::_Vector_base<char, std::allocator<char>>::_Vector_impl_data" }
%"struct.std::_Vector_base<char, std::allocator<char>>::_Vector_impl_data" = type { ptr, ptr, ptr }
%"class.proj_nlohmann::detail::type_error" = type { %"class.proj_nlohmann::detail::exception" }
%"class.proj_nlohmann::detail::exception" = type { %"class.std::exception", i32, %"class.std::runtime_error" }
%"class.std::exception" = type { ptr }
%"class.std::runtime_error" = type { %"class.std::exception", %"struct.std::__cow_string" }
%"struct.std::__cow_string" = type { %union.anon.106 }
%union.anon.106 = type { ptr }
%"struct.std::_Rb_tree<std::__cxx11::basic_string<char>, std::pair<const std::__cxx11::basic_string<char>, proj_nlohmann::basic_json<>>, std::_Select1st<std::pair<const std::__cxx11::basic_string<char>, proj_nlohmann::basic_json<>>>, std::less<void>>::_Alloc_node" = type { ptr }
%"class.proj_nlohmann::detail::invalid_iterator" = type { %"class.proj_nlohmann::detail::exception" }
%"struct.DeformationModel::Component::PiecewiseTimeFunction::EpochScaleFactorTuple" = type { %"class.DeformationModel::Epoch", double }
%"class.std::unique_ptr.109" = type { %"struct.std::__uniq_ptr_data.110" }
%"struct.std::__uniq_ptr_data.110" = type { %"class.std::__uniq_ptr_impl.111" }
%"class.std::__uniq_ptr_impl.111" = type { %"class.std::tuple.112" }
%"class.std::tuple.112" = type { %"struct.std::_Tuple_impl.113" }
%"struct.std::_Tuple_impl.113" = type { %"struct.std::_Head_base.116" }
%"struct.std::_Head_base.116" = type { ptr }
%"class.std::unique_ptr.89" = type { %"struct.std::__uniq_ptr_data.90" }
%"struct.std::__uniq_ptr_data.90" = type { %"class.std::__uniq_ptr_impl.91" }
%"class.std::__uniq_ptr_impl.91" = type { %"class.std::tuple.92" }
%"class.std::tuple.92" = type { %"struct.std::_Tuple_impl.93" }
%"struct.std::_Tuple_impl.93" = type { %"struct.std::_Head_base.96" }
%"struct.std::_Head_base.96" = type { ptr }
%union.PJ_COORD = type { [4 x double] }
%struct.PJ_LPZ = type { double, double, double }
%struct.PJ_XYZ = type { double, double, double }
%"class.std::unique_ptr.139" = type { %"struct.std::__uniq_ptr_data.140" }
%"struct.std::__uniq_ptr_data.140" = type { %"class.std::__uniq_ptr_impl.141" }
%"class.std::__uniq_ptr_impl.141" = type { %"class.std::tuple.142" }
%"class.std::tuple.142" = type { %"struct.std::_Tuple_impl.143" }
%"struct.std::_Tuple_impl.143" = type { %"struct.std::_Head_base.146" }
%"struct.std::_Head_base.146" = type { ptr }
%"struct.std::pair.178" = type { ptr, %"struct.DeformationModel::GridEx" }
%"struct.DeformationModel::GridEx" = type { ptr, i8, double, double, double, double, i32, i32, double, double, double, double, double, double, double, double, double, double, double, double, double, double, double, double }
%"class.std::vector.197" = type { %"struct.std::_Vector_base.198" }
%"struct.std::_Vector_base.198" = type { %"struct.std::_Vector_base<proj_nlohmann::basic_json<>, std::allocator<proj_nlohmann::basic_json<>>>::_Vector_impl" }
%"struct.std::_Vector_base<proj_nlohmann::basic_json<>, std::allocator<proj_nlohmann::basic_json<>>>::_Vector_impl" = type { %"struct.std::_Vector_base<proj_nlohmann::basic_json<>, std::allocator<proj_nlohmann::basic_json<>>>::_Vector_impl_data" }
%"struct.std::_Vector_base<proj_nlohmann::basic_json<>, std::allocator<proj_nlohmann::basic_json<>>>::_Vector_impl_data" = type { ptr, ptr, ptr }
%"struct.std::_UninitDestroyGuard" = type { ptr, ptr }
%"class.proj_nlohmann::detail::json_sax_dom_callback_parser" = type { ptr, %"class.std::vector.297", %"class.std::vector.302", %"class.std::vector.302", ptr, i8, %"class.std::function", i8, %"class.proj_nlohmann::basic_json" }
%"class.std::vector.297" = type { %"struct.std::_Vector_base.298" }
%"struct.std::_Vector_base.298" = type { %"struct.std::_Vector_base<proj_nlohmann::basic_json<> *, std::allocator<proj_nlohmann::basic_json<> *>>::_Vector_impl" }
%"struct.std::_Vector_base<proj_nlohmann::basic_json<> *, std::allocator<proj_nlohmann::basic_json<> *>>::_Vector_impl" = type { %"struct.std::_Vector_base<proj_nlohmann::basic_json<> *, std::allocator<proj_nlohmann::basic_json<> *>>::_Vector_impl_data" }
%"struct.std::_Vector_base<proj_nlohmann::basic_json<> *, std::allocator<proj_nlohmann::basic_json<> *>>::_Vector_impl_data" = type { ptr, ptr, ptr }
%"class.std::vector.302" = type { %"struct.std::_Bvector_base" }
%"struct.std::_Bvector_base" = type { %"struct.std::_Bvector_base<std::allocator<bool>>::_Bvector_impl" }
%"struct.std::_Bvector_base<std::allocator<bool>>::_Bvector_impl" = type { %"struct.std::_Bvector_base<std::allocator<bool>>::_Bvector_impl_data" }
%"struct.std::_Bvector_base<std::allocator<bool>>::_Bvector_impl_data" = type { %"struct.std::_Bit_iterator", %"struct.std::_Bit_iterator", ptr }
%"struct.std::_Bit_iterator" = type { %"struct.std::_Bit_iterator_base.base", [4 x i8] }
%"struct.std::_Bit_iterator_base.base" = type <{ ptr, i32 }>
%"class.proj_nlohmann::detail::parse_error" = type { %"class.proj_nlohmann::detail::exception", i64 }
%"class.proj_nlohmann::detail::json_sax_dom_parser" = type <{ ptr, %"class.std::vector.297", ptr, i8, i8, [6 x i8] }>
%"class.proj_nlohmann::detail::out_of_range" = type { %"class.proj_nlohmann::detail::exception" }
%"struct.std::array.321" = type { [9 x i8] }
%"class.proj_nlohmann::detail::iter_impl.313" = type { ptr, %"struct.proj_nlohmann::detail::internal_iterator" }
%"class.std::tuple.314" = type { %"struct.std::_Tuple_impl.315" }
%"struct.std::_Tuple_impl.315" = type { %"struct.std::_Head_base.316" }
%"struct.std::_Head_base.316" = type { ptr }
%"class.std::tuple.317" = type { i8 }
%"struct.std::_Rb_tree<std::__cxx11::basic_string<char>, std::pair<const std::__cxx11::basic_string<char>, proj_nlohmann::basic_json<>>, std::_Select1st<std::pair<const std::__cxx11::basic_string<char>, proj_nlohmann::basic_json<>>>, std::less<void>>::_Auto_node" = type { ptr, ptr }
%"class.std::tuple.324" = type { %"struct.std::_Tuple_impl.325" }
%"struct.std::_Tuple_impl.325" = type { %"struct.std::_Head_base.326" }
%"struct.std::_Head_base.326" = type { ptr }

$_ZNSt7__cxx1112basic_stringIcSt11char_traitsIcESaIcEEC2IS3_EEPKcRKS3_ = comdat any

$_ZN16DeformationModel10MasterFileC2Ev = comdat any

$_ZN13proj_nlohmann10basic_jsonISt3mapSt6vectorNSt7__cxx1112basic_stringIcSt11char_traitsIcESaIcEEEblmdSaNS_14adl_serializerES2_IhSaIhEEE5parseIRKS8_EESC_OT_St8functionIFbiNS_6detail13parse_event_tERSC_EEbb = comdat any

$_ZN16DeformationModel16ParsingExceptionC2ERKNSt7__cxx1112basic_stringIcSt11char_traitsIcESaIcEEE = comdat any

$_ZN16DeformationModel16ParsingExceptionD2Ev = comdat any

$__clang_call_terminate = comdat any

$_ZN13proj_nlohmann10basic_jsonISt3mapSt6vectorNSt7__cxx1112basic_stringIcSt11char_traitsIcESaIcEEEblmdSaNS_14adl_serializerES2_IhSaIhEEEixIKcEERSC_PT_ = comdat any

$_ZN13proj_nlohmann10basic_jsonISt3mapSt6vectorNSt7__cxx1112basic_stringIcSt11char_traitsIcESaIcEEEblmdSaNS_14adl_serializerES2_IhSaIhEEEC2ERKSC_ = comdat any

$_ZNK13proj_nlohmann6detail9iter_implIKNS_10basic_jsonISt3mapSt6vectorNSt7__cxx1112basic_stringIcSt11char_traitsIcESaIcEEEblmdSaNS_14adl_serializerES4_IhSaIhEEEEEdeEv = comdat any

$_ZNSt6vectorIN16DeformationModel10MasterFile4LinkESaIS2_EE12emplace_backIJS2_EEERS2_DpOT_ = comdat any

$_ZN16DeformationModel10MasterFile4LinkD2Ev = comdat any

$_ZN16DeformationModel9ComponentD2Ev = comdat any

$_ZNSt10unique_ptrIN16DeformationModel10MasterFileESt14default_deleteIS1_EED2Ev = comdat any

$_ZStneIcSt11char_traitsIcESaIcEEbRKNSt7__cxx1112basic_stringIT_T0_T1_EEPKS5_ = comdat any

$_ZNK13proj_nlohmann10basic_jsonISt3mapSt6vectorNSt7__cxx1112basic_stringIcSt11char_traitsIcESaIcEEEblmdSaNS_14adl_serializerES2_IhSaIhEEEixEm = comdat any

$_ZN16DeformationModel9Component23ExponentialTimeFunctionC2Ev = comdat any

$_ZStplIcSt11char_traitsIcESaIcEENSt7__cxx1112basic_stringIT_T0_T1_EEPKS5_RKS8_ = comdat any

$_ZN16DeformationModel16ParsingExceptionD0Ev = comdat any

$_ZN16DeformationModel22UnimplementedExceptionD2Ev = comdat any

$_ZN16DeformationModel22UnimplementedExceptionD0Ev = comdat any

$_ZN16DeformationModel18EvaluatorExceptionD2Ev = comdat any

$_ZN16DeformationModel18EvaluatorExceptionD0Ev = comdat any

$_ZN16DeformationModel9Component20ConstantTimeFunctionD0Ev = comdat any

$_ZN16DeformationModel9Component20VelocityTimeFunctionD2Ev = comdat any

$_ZN16DeformationModel9Component20VelocityTimeFunctionD0Ev = comdat any

$_ZN16DeformationModel9Component16StepTimeFunctionD2Ev = comdat any

$_ZN16DeformationModel9Component16StepTimeFunctionD0Ev = comdat any

$_ZN16DeformationModel9Component23ReverseStepTimeFunctionD2Ev = comdat any

$_ZN16DeformationModel9Component23ReverseStepTimeFunctionD0Ev = comdat any

$_ZN16DeformationModel9Component21PiecewiseTimeFunctionD2Ev = comdat any

$_ZN16DeformationModel9Component21PiecewiseTimeFunctionD0Ev = comdat any

$_ZN16DeformationModel9Component23ExponentialTimeFunctionD2Ev = comdat any

$_ZN16DeformationModel9Component23ExponentialTimeFunctionD0Ev = comdat any

$_ZNSt6vectorIN16DeformationModel10MasterFile4LinkESaIS2_EED2Ev = comdat any

$_ZN16DeformationModel10MasterFile9AuthorityD2Ev = comdat any

$_ZStplIcSt11char_traitsIcESaIcEENSt7__cxx1112basic_stringIT_T0_T1_EEOS8_PKS5_ = comdat any

$_ZNK13proj_nlohmann10basic_jsonISt3mapSt6vectorNSt7__cxx1112basic_stringIcSt11char_traitsIcESaIcEEEblmdSaNS_14adl_serializerES2_IhSaIhEEEixIKcEERKSC_PT_ = comdat any

$_ZNKSt8_Rb_treeINSt7__cxx1112basic_stringIcSt11char_traitsIcESaIcEEESt4pairIKS5_N13proj_nlohmann10basic_jsonISt3mapSt6vectorS5_blmdSaNS8_14adl_serializerESB_IhSaIhEEEEESt10_Select1stISG_ESt4lessIvESaISG_EE10_M_find_trIPKcvEESt23_Rb_tree_const_iteratorISG_ERKT_ = comdat any

$_ZN13proj_nlohmann6detail10type_error6createEiRKNSt7__cxx1112basic_stringIcSt11char_traitsIcESaIcEEE = comdat any

$_ZStplIcSt11char_traitsIcESaIcEENSt7__cxx1112basic_stringIT_T0_T1_EEPKS5_OS8_ = comdat any

$_ZNK13proj_nlohmann10basic_jsonISt3mapSt6vectorNSt7__cxx1112basic_stringIcSt11char_traitsIcESaIcEEEblmdSaNS_14adl_serializerES2_IhSaIhEEE9type_nameEv = comdat any

$_ZN13proj_nlohmann6detail9exception4nameERKNSt7__cxx1112basic_stringIcSt11char_traitsIcESaIcEEEi = comdat any

$_ZStplIcSt11char_traitsIcESaIcEENSt7__cxx1112basic_stringIT_T0_T1_EEOS8_S9_ = comdat any

$_ZN13proj_nlohmann6detail10type_errorD0Ev = comdat any

$_ZNK13proj_nlohmann6detail9exception4whatEv = comdat any

$_ZN13proj_nlohmann6detail9exceptionD0Ev = comdat any

$_ZN13proj_nlohmann6detail9from_jsonINS_10basic_jsonISt3mapSt6vectorNSt7__cxx1112basic_stringIcSt11char_traitsIcESaIcEEEblmdSaNS_14adl_serializerES4_IhSaIhEEEEEEvRKT_RNSF_8string_tE = comdat any

$_ZN13proj_nlohmann10basic_jsonISt3mapSt6vectorNSt7__cxx1112basic_stringIcSt11char_traitsIcESaIcEEEblmdSaNS_14adl_serializerES2_IhSaIhEEE10json_value7destroyENS_6detail7value_tE = comdat any

$_ZNSt6vectorIN13proj_nlohmann10basic_jsonISt3mapS_NSt7__cxx1112basic_stringIcSt11char_traitsIcESaIcEEEblmdSaNS0_14adl_serializerES_IhSaIhEEEESaISC_EE17_M_realloc_appendIJSC_EEEvDpOT_ = comdat any

$_ZNSt8_Rb_treeINSt7__cxx1112basic_stringIcSt11char_traitsIcESaIcEEESt4pairIKS5_N13proj_nlohmann10basic_jsonISt3mapSt6vectorS5_blmdSaNS8_14adl_serializerESB_IhSaIhEEEEESt10_Select1stISG_ESt4lessIvESaISG_EE8_M_eraseEPSt13_Rb_tree_nodeISG_E = comdat any

$_ZNSt8_Rb_treeINSt7__cxx1112basic_stringIcSt11char_traitsIcESaIcEEESt4pairIKS5_N13proj_nlohmann10basic_jsonISt3mapSt6vectorS5_blmdSaNS8_14adl_serializerESB_IhSaIhEEEEESt10_Select1stISG_ESt4lessIvESaISG_EE7_M_copyILb0ENSM_11_Alloc_nodeEEEPSt18_Rb_tree_node_basePSt13_Rb_tree_nodeISG_ESQ_RT0_ = comdat any

$_ZNSt8_Rb_treeINSt7__cxx1112basic_stringIcSt11char_traitsIcESaIcEEESt4pairIKS5_N13proj_nlohmann10basic_jsonISt3mapSt6vectorS5_blmdSaNS8_14adl_serializerESB_IhSaIhEEEEESt10_Select1stISG_ESt4lessIvESaISG_EE17_M_construct_nodeIJRKSG_EEEvPSt13_Rb_tree_nodeISG_EDpOT_ = comdat any

$_ZNSt6vectorIN13proj_nlohmann10basic_jsonISt3mapS_NSt7__cxx1112basic_stringIcSt11char_traitsIcESaIcEEEblmdSaNS0_14adl_serializerES_IhSaIhEEEESaISC_EEC2ERKSE_ = comdat any

$_ZNSt19_UninitDestroyGuardIPN13proj_nlohmann10basic_jsonISt3mapSt6vectorNSt7__cxx1112basic_stringIcSt11char_traitsIcESaIcEEEblmdSaNS0_14adl_serializerES3_IhSaIhEEEEvED2Ev = comdat any

$_ZN13proj_nlohmann6detail20get_arithmetic_valueINS_10basic_jsonISt3mapSt6vectorNSt7__cxx1112basic_stringIcSt11char_traitsIcESaIcEEEblmdSaNS_14adl_serializerES4_IhSaIhEEEEdTnNSt9enable_ifIXaasr3std13is_arithmeticIT0_EE5valuentsr3std7is_sameISG_NT_9boolean_tEEE5valueEiE4typeELi0EEEvRKSH_RSG_ = comdat any

$_ZN16DeformationModel10MasterFileD2Ev = comdat any

$_ZN13proj_nlohmann10basic_jsonISt3mapSt6vectorNSt7__cxx1112basic_stringIcSt11char_traitsIcESaIcEEEblmdSaNS_14adl_serializerES2_IhSaIhEEE10json_valueC2ENS_6detail7value_tE = comdat any

$_ZN13proj_nlohmann6detail6parserINS_10basic_jsonISt3mapSt6vectorNSt7__cxx1112basic_stringIcSt11char_traitsIcESaIcEEEblmdSaNS_14adl_serializerES4_IhSaIhEEEENS0_22iterator_input_adapterIN9__gnu_cxx17__normal_iteratorIPKcSA_EEEEE5parseEbRSE_ = comdat any

$_ZN13proj_nlohmann6detail6parserINS_10basic_jsonISt3mapSt6vectorNSt7__cxx1112basic_stringIcSt11char_traitsIcESaIcEEEblmdSaNS_14adl_serializerES4_IhSaIhEEEENS0_22iterator_input_adapterIN9__gnu_cxx17__normal_iteratorIPKcSA_EEEEED2Ev = comdat any

$_ZN13proj_nlohmann6detail6parserINS_10basic_jsonISt3mapSt6vectorNSt7__cxx1112basic_stringIcSt11char_traitsIcESaIcEEEblmdSaNS_14adl_serializerES4_IhSaIhEEEENS0_22iterator_input_adapterIN9__gnu_cxx17__normal_iteratorIPKcSA_EEEEEC2EOSL_St8functionIFbiNS0_13parse_event_tERSE_EEbb = comdat any

$_ZN13proj_nlohmann6detail5lexerINS_10basic_jsonISt3mapSt6vectorNSt7__cxx1112basic_stringIcSt11char_traitsIcESaIcEEEblmdSaNS_14adl_serializerES4_IhSaIhEEEENS0_22iterator_input_adapterIN9__gnu_cxx17__normal_iteratorIPKcSA_EEEEED2Ev = comdat any

$_ZN13proj_nlohmann6detail5lexerINS_10basic_jsonISt3mapSt6vectorNSt7__cxx1112basic_stringIcSt11char_traitsIcESaIcEEEblmdSaNS_14adl_serializerES4_IhSaIhEEEENS0_22iterator_input_adapterIN9__gnu_cxx17__normal_iteratorIPKcSA_EEEEE4scanEv = comdat any

$_ZN13proj_nlohmann6detail5lexerINS_10basic_jsonISt3mapSt6vectorNSt7__cxx1112basic_stringIcSt11char_traitsIcESaIcEEEblmdSaNS_14adl_serializerES4_IhSaIhEEEENS0_22iterator_input_adapterIN9__gnu_cxx17__normal_iteratorIPKcSA_EEEEE15skip_whitespaceEv = comdat any

$_ZN13proj_nlohmann6detail5lexerINS_10basic_jsonISt3mapSt6vectorNSt7__cxx1112basic_stringIcSt11char_traitsIcESaIcEEEblmdSaNS_14adl_serializerES4_IhSaIhEEEENS0_22iterator_input_adapterIN9__gnu_cxx17__normal_iteratorIPKcSA_EEEEE12scan_commentEv = comdat any

$_ZN13proj_nlohmann6detail5lexerINS_10basic_jsonISt3mapSt6vectorNSt7__cxx1112basic_stringIcSt11char_traitsIcESaIcEEEblmdSaNS_14adl_serializerES4_IhSaIhEEEENS0_22iterator_input_adapterIN9__gnu_cxx17__normal_iteratorIPKcSA_EEEEE11scan_stringEv = comdat any

$_ZN13proj_nlohmann6detail5lexerINS_10basic_jsonISt3mapSt6vectorNSt7__cxx1112basic_stringIcSt11char_traitsIcESaIcEEEblmdSaNS_14adl_serializerES4_IhSaIhEEEENS0_22iterator_input_adapterIN9__gnu_cxx17__normal_iteratorIPKcSA_EEEEE11scan_numberEv = comdat any

$_ZN13proj_nlohmann6detail5lexerINS_10basic_jsonISt3mapSt6vectorNSt7__cxx1112basic_stringIcSt11char_traitsIcESaIcEEEblmdSaNS_14adl_serializerES4_IhSaIhEEEENS0_22iterator_input_adapterIN9__gnu_cxx17__normal_iteratorIPKcSA_EEEEE3getEv = comdat any

$_ZN13proj_nlohmann6detail5lexerINS_10basic_jsonISt3mapSt6vectorNSt7__cxx1112basic_stringIcSt11char_traitsIcESaIcEEEblmdSaNS_14adl_serializerES4_IhSaIhEEEENS0_22iterator_input_adapterIN9__gnu_cxx17__normal_iteratorIPKcSA_EEEEE5resetEv = comdat any

$_ZN13proj_nlohmann6detail5lexerINS_10basic_jsonISt3mapSt6vectorNSt7__cxx1112basic_stringIcSt11char_traitsIcESaIcEEEblmdSaNS_14adl_serializerES4_IhSaIhEEEENS0_22iterator_input_adapterIN9__gnu_cxx17__normal_iteratorIPKcSA_EEEEE3addEi = comdat any

$_ZN13proj_nlohmann6detail5lexerINS_10basic_jsonISt3mapSt6vectorNSt7__cxx1112basic_stringIcSt11char_traitsIcESaIcEEEblmdSaNS_14adl_serializerES4_IhSaIhEEEENS0_22iterator_input_adapterIN9__gnu_cxx17__normal_iteratorIPKcSA_EEEEE13get_codepointEv = comdat any

$_ZN13proj_nlohmann6detail5lexerINS_10basic_jsonISt3mapSt6vectorNSt7__cxx1112basic_stringIcSt11char_traitsIcESaIcEEEblmdSaNS_14adl_serializerES4_IhSaIhEEEENS0_22iterator_input_adapterIN9__gnu_cxx17__normal_iteratorIPKcSA_EEEEE18next_byte_in_rangeESt16initializer_listIiE = comdat any

$_ZN13proj_nlohmann6detail28json_sax_dom_callback_parserINS_10basic_jsonISt3mapSt6vectorNSt7__cxx1112basic_stringIcSt11char_traitsIcESaIcEEEblmdSaNS_14adl_serializerES4_IhSaIhEEEEEC2ERSE_St8functionIFbiNS0_13parse_event_tESG_EEb = comdat any

$_ZN13proj_nlohmann6detail6parserINS_10basic_jsonISt3mapSt6vectorNSt7__cxx1112basic_stringIcSt11char_traitsIcESaIcEEEblmdSaNS_14adl_serializerES4_IhSaIhEEEENS0_22iterator_input_adapterIN9__gnu_cxx17__normal_iteratorIPKcSA_EEEEE18sax_parse_internalINS0_28json_sax_dom_callback_parserISE_EEEEbPT_ = comdat any

$_ZN13proj_nlohmann6detail28json_sax_dom_callback_parserINS_10basic_jsonISt3mapSt6vectorNSt7__cxx1112basic_stringIcSt11char_traitsIcESaIcEEEblmdSaNS_14adl_serializerES4_IhSaIhEEEEE11parse_errorINS0_11parse_errorEEEbmRKSA_RKT_ = comdat any

$_ZNK13proj_nlohmann6detail5lexerINS_10basic_jsonISt3mapSt6vectorNSt7__cxx1112basic_stringIcSt11char_traitsIcESaIcEEEblmdSaNS_14adl_serializerES4_IhSaIhEEEENS0_22iterator_input_adapterIN9__gnu_cxx17__normal_iteratorIPKcSA_EEEEE16get_token_stringEv = comdat any

$_ZN13proj_nlohmann6detail11parse_error6createEiRKNS0_10position_tERKNSt7__cxx1112basic_stringIcSt11char_traitsIcESaIcEEE = comdat any

$_ZN13proj_nlohmann6detail6parserINS_10basic_jsonISt3mapSt6vectorNSt7__cxx1112basic_stringIcSt11char_traitsIcESaIcEEEblmdSaNS_14adl_serializerES4_IhSaIhEEEENS0_22iterator_input_adapterIN9__gnu_cxx17__normal_iteratorIPKcSA_EEEEE17exception_messageENS0_10lexer_baseISE_E10token_typeERKSA_ = comdat any

$_ZN13proj_nlohmann6detail9exceptionD2Ev = comdat any

$_ZN13proj_nlohmann6detail28json_sax_dom_callback_parserINS_10basic_jsonISt3mapSt6vectorNSt7__cxx1112basic_stringIcSt11char_traitsIcESaIcEEEblmdSaNS_14adl_serializerES4_IhSaIhEEEEED2Ev = comdat any

$_ZN13proj_nlohmann6detail6parserINS_10basic_jsonISt3mapSt6vectorNSt7__cxx1112basic_stringIcSt11char_traitsIcESaIcEEEblmdSaNS_14adl_serializerES4_IhSaIhEEEENS0_22iterator_input_adapterIN9__gnu_cxx17__normal_iteratorIPKcSA_EEEEE18sax_parse_internalINS0_19json_sax_dom_parserISE_EEEEbPT_ = comdat any

$_ZN13proj_nlohmann6detail19json_sax_dom_parserINS_10basic_jsonISt3mapSt6vectorNSt7__cxx1112basic_stringIcSt11char_traitsIcESaIcEEEblmdSaNS_14adl_serializerES4_IhSaIhEEEEE11parse_errorINS0_11parse_errorEEEbmRKSA_RKT_ = comdat any

$_ZNSt13_Bvector_baseISaIbEED2Ev = comdat any

$_ZNSt6vectorIbSaIbEE13_M_insert_auxESt13_Bit_iteratorb = comdat any

$_ZN13proj_nlohmann6detail28json_sax_dom_callback_parserINS_10basic_jsonISt3mapSt6vectorNSt7__cxx1112basic_stringIcSt11char_traitsIcESaIcEEEblmdSaNS_14adl_serializerES4_IhSaIhEEEEE12start_objectEm = comdat any

$_ZN13proj_nlohmann6detail28json_sax_dom_callback_parserINS_10basic_jsonISt3mapSt6vectorNSt7__cxx1112basic_stringIcSt11char_traitsIcESaIcEEEblmdSaNS_14adl_serializerES4_IhSaIhEEEEE10end_objectEv = comdat any

$_ZN13proj_nlohmann6detail28json_sax_dom_callback_parserINS_10basic_jsonISt3mapSt6vectorNSt7__cxx1112basic_stringIcSt11char_traitsIcESaIcEEEblmdSaNS_14adl_serializerES4_IhSaIhEEEEE3keyERSA_ = comdat any

$_ZN13proj_nlohmann6detail28json_sax_dom_callback_parserINS_10basic_jsonISt3mapSt6vectorNSt7__cxx1112basic_stringIcSt11char_traitsIcESaIcEEEblmdSaNS_14adl_serializerES4_IhSaIhEEEEE11start_arrayEm = comdat any

$_ZN13proj_nlohmann6detail28json_sax_dom_callback_parserINS_10basic_jsonISt3mapSt6vectorNSt7__cxx1112basic_stringIcSt11char_traitsIcESaIcEEEblmdSaNS_14adl_serializerES4_IhSaIhEEEEE9end_arrayEv = comdat any

$_ZN13proj_nlohmann6detail28json_sax_dom_callback_parserINS_10basic_jsonISt3mapSt6vectorNSt7__cxx1112basic_stringIcSt11char_traitsIcESaIcEEEblmdSaNS_14adl_serializerES4_IhSaIhEEEEE11parse_errorINS0_12out_of_rangeEEEbmRKSA_RKT_ = comdat any

$_ZN13proj_nlohmann6detail12out_of_range6createEiRKNSt7__cxx1112basic_stringIcSt11char_traitsIcESaIcEEE = comdat any

$_ZN13proj_nlohmann6detail28json_sax_dom_callback_parserINS_10basic_jsonISt3mapSt6vectorNSt7__cxx1112basic_stringIcSt11char_traitsIcESaIcEEEblmdSaNS_14adl_serializerES4_IhSaIhEEEEE12handle_valueINS0_7value_tEEESt4pairIbPSE_EOT_b = comdat any

$_ZNSt7__cxx119to_stringEm = comdat any

$_ZNK13proj_nlohmann6detail9iter_implINS_10basic_jsonISt3mapSt6vectorNSt7__cxx1112basic_stringIcSt11char_traitsIcESaIcEEEblmdSaNS_14adl_serializerES4_IhSaIhEEEEEptEv = comdat any

$_ZN13proj_nlohmann10basic_jsonISt3mapSt6vectorNSt7__cxx1112basic_stringIcSt11char_traitsIcESaIcEEEblmdSaNS_14adl_serializerES2_IhSaIhEEE5eraseINS_6detail9iter_implISC_EETnNSt9enable_ifIXoosr3std7is_sameIT_SG_EE5valuesr3std7is_sameISI_NSF_IKSC_EEEE5valueEiE4typeELi0EEESI_SI_ = comdat any

$_ZNK13proj_nlohmann6detail9iter_implINS_10basic_jsonISt3mapSt6vectorNSt7__cxx1112basic_stringIcSt11char_traitsIcESaIcEEEblmdSaNS_14adl_serializerES4_IhSaIhEEEEEeqERKSF_ = comdat any

$_ZN13proj_nlohmann6detail16invalid_iterator6createEiRKNSt7__cxx1112basic_stringIcSt11char_traitsIcESaIcEEE = comdat any

$_ZN13proj_nlohmann6detail16invalid_iteratorD0Ev = comdat any

$_ZNSt3mapINSt7__cxx1112basic_stringIcSt11char_traitsIcESaIcEEEN13proj_nlohmann10basic_jsonIS_St6vectorS5_blmdSaNS6_14adl_serializerES8_IhSaIhEEEESt4lessIvESaISt4pairIKS5_SC_EEEixERSG_ = comdat any

$_ZNSt8_Rb_treeINSt7__cxx1112basic_stringIcSt11char_traitsIcESaIcEEESt4pairIKS5_N13proj_nlohmann10basic_jsonISt3mapSt6vectorS5_blmdSaNS8_14adl_serializerESB_IhSaIhEEEEESt10_Select1stISG_ESt4lessIvESaISG_EE22_M_emplace_hint_uniqueIJRKSt21piecewise_construct_tSt5tupleIJRS7_EESR_IJEEEEESt17_Rb_tree_iteratorISG_ESt23_Rb_tree_const_iteratorISG_EDpOT_ = comdat any

$_ZNSt8_Rb_treeINSt7__cxx1112basic_stringIcSt11char_traitsIcESaIcEEESt4pairIKS5_N13proj_nlohmann10basic_jsonISt3mapSt6vectorS5_blmdSaNS8_14adl_serializerESB_IhSaIhEEEEESt10_Select1stISG_ESt4lessIvESaISG_EE29_M_get_insert_hint_unique_posESt23_Rb_tree_const_iteratorISG_ERS7_ = comdat any

$_ZNSt8_Rb_treeINSt7__cxx1112basic_stringIcSt11char_traitsIcESaIcEEESt4pairIKS5_N13proj_nlohmann10basic_jsonISt3mapSt6vectorS5_blmdSaNS8_14adl_serializerESB_IhSaIhEEEEESt10_Select1stISG_ESt4lessIvESaISG_EE10_Auto_nodeD2Ev = comdat any

$_ZNSt8_Rb_treeINSt7__cxx1112basic_stringIcSt11char_traitsIcESaIcEEESt4pairIKS5_N13proj_nlohmann10basic_jsonISt3mapSt6vectorS5_blmdSaNS8_14adl_serializerESB_IhSaIhEEEEESt10_Select1stISG_ESt4lessIvESaISG_EE17_M_construct_nodeIJRKSt21piecewise_construct_tSt5tupleIJRS7_EESR_IJEEEEEvPSt13_Rb_tree_nodeISG_EDpOT_ = comdat any

$_ZNSt8_Rb_treeINSt7__cxx1112basic_stringIcSt11char_traitsIcESaIcEEESt4pairIKS5_N13proj_nlohmann10basic_jsonISt3mapSt6vectorS5_blmdSaNS8_14adl_serializerESB_IhSaIhEEEEESt10_Select1stISG_ESt4lessIvESaISG_EE24_M_get_insert_unique_posERS7_ = comdat any

$_ZN13proj_nlohmann6detail12out_of_rangeC2ERKS1_ = comdat any

$_ZN13proj_nlohmann6detail12out_of_rangeD0Ev = comdat any

$_ZN13proj_nlohmann6detail28json_sax_dom_callback_parserINS_10basic_jsonISt3mapSt6vectorNSt7__cxx1112basic_stringIcSt11char_traitsIcESaIcEEEblmdSaNS_14adl_serializerES4_IhSaIhEEEEE12handle_valueIRdEESt4pairIbPSE_EOT_b = comdat any

$_ZN13proj_nlohmann6detail28json_sax_dom_callback_parserINS_10basic_jsonISt3mapSt6vectorNSt7__cxx1112basic_stringIcSt11char_traitsIcESaIcEEEblmdSaNS_14adl_serializerES4_IhSaIhEEEEE12handle_valueIRbEESt4pairIbPSE_EOT_b = comdat any

$_ZN13proj_nlohmann6detail28json_sax_dom_callback_parserINS_10basic_jsonISt3mapSt6vectorNSt7__cxx1112basic_stringIcSt11char_traitsIcESaIcEEEblmdSaNS_14adl_serializerES4_IhSaIhEEEEE12handle_valueIDnEESt4pairIbPSE_EOT_b = comdat any

$_ZN13proj_nlohmann6detail28json_sax_dom_callback_parserINS_10basic_jsonISt3mapSt6vectorNSt7__cxx1112basic_stringIcSt11char_traitsIcESaIcEEEblmdSaNS_14adl_serializerES4_IhSaIhEEEEE12handle_valueIRlEESt4pairIbPSE_EOT_b = comdat any

$_ZN13proj_nlohmann6detail28json_sax_dom_callback_parserINS_10basic_jsonISt3mapSt6vectorNSt7__cxx1112basic_stringIcSt11char_traitsIcESaIcEEEblmdSaNS_14adl_serializerES4_IhSaIhEEEEE12handle_valueIRSA_EESt4pairIbPSE_EOT_b = comdat any

$_ZN13proj_nlohmann6detail28json_sax_dom_callback_parserINS_10basic_jsonISt3mapSt6vectorNSt7__cxx1112basic_stringIcSt11char_traitsIcESaIcEEEblmdSaNS_14adl_serializerES4_IhSaIhEEEEE12handle_valueIRmEESt4pairIbPSE_EOT_b = comdat any

$_ZN13proj_nlohmann6detail11parse_errorC2ERKS1_ = comdat any

$_ZN13proj_nlohmann6detail11parse_errorD0Ev = comdat any

$_ZN13proj_nlohmann6detail11parse_error15position_stringB5cxx11ERKNS0_10position_tE = comdat any

$_ZN13proj_nlohmann6detail19json_sax_dom_parserINS_10basic_jsonISt3mapSt6vectorNSt7__cxx1112basic_stringIcSt11char_traitsIcESaIcEEEblmdSaNS_14adl_serializerES4_IhSaIhEEEEE12start_objectEm = comdat any

$_ZN13proj_nlohmann6detail19json_sax_dom_parserINS_10basic_jsonISt3mapSt6vectorNSt7__cxx1112basic_stringIcSt11char_traitsIcESaIcEEEblmdSaNS_14adl_serializerES4_IhSaIhEEEEE11start_arrayEm = comdat any

$_ZN13proj_nlohmann6detail19json_sax_dom_parserINS_10basic_jsonISt3mapSt6vectorNSt7__cxx1112basic_stringIcSt11char_traitsIcESaIcEEEblmdSaNS_14adl_serializerES4_IhSaIhEEEEE11parse_errorINS0_12out_of_rangeEEEbmRKSA_RKT_ = comdat any

$_ZN13proj_nlohmann6detail19json_sax_dom_parserINS_10basic_jsonISt3mapSt6vectorNSt7__cxx1112basic_stringIcSt11char_traitsIcESaIcEEEblmdSaNS_14adl_serializerES4_IhSaIhEEEEE12handle_valueINS0_7value_tEEEPSE_OT_ = comdat any

$_ZNSt6vectorIN13proj_nlohmann10basic_jsonISt3mapS_NSt7__cxx1112basic_stringIcSt11char_traitsIcESaIcEEEblmdSaNS0_14adl_serializerES_IhSaIhEEEESaISC_EE17_M_realloc_appendIJNS0_6detail7value_tEEEEvDpOT_ = comdat any

$_ZN13proj_nlohmann6detail19json_sax_dom_parserINS_10basic_jsonISt3mapSt6vectorNSt7__cxx1112basic_stringIcSt11char_traitsIcESaIcEEEblmdSaNS_14adl_serializerES4_IhSaIhEEEEE12handle_valueIRdEEPSE_OT_ = comdat any

$_ZNSt6vectorIN13proj_nlohmann10basic_jsonISt3mapS_NSt7__cxx1112basic_stringIcSt11char_traitsIcESaIcEEEblmdSaNS0_14adl_serializerES_IhSaIhEEEESaISC_EE17_M_realloc_appendIJRdEEEvDpOT_ = comdat any

$_ZN13proj_nlohmann6detail19json_sax_dom_parserINS_10basic_jsonISt3mapSt6vectorNSt7__cxx1112basic_stringIcSt11char_traitsIcESaIcEEEblmdSaNS_14adl_serializerES4_IhSaIhEEEEE12handle_valueIRbEEPSE_OT_ = comdat any

$_ZNSt6vectorIN13proj_nlohmann10basic_jsonISt3mapS_NSt7__cxx1112basic_stringIcSt11char_traitsIcESaIcEEEblmdSaNS0_14adl_serializerES_IhSaIhEEEESaISC_EE17_M_realloc_appendIJRbEEEvDpOT_ = comdat any

$_ZN13proj_nlohmann6detail19json_sax_dom_parserINS_10basic_jsonISt3mapSt6vectorNSt7__cxx1112basic_stringIcSt11char_traitsIcESaIcEEEblmdSaNS_14adl_serializerES4_IhSaIhEEEEE12handle_valueIDnEEPSE_OT_ = comdat any

$_ZNSt6vectorIN13proj_nlohmann10basic_jsonISt3mapS_NSt7__cxx1112basic_stringIcSt11char_traitsIcESaIcEEEblmdSaNS0_14adl_serializerES_IhSaIhEEEESaISC_EE17_M_realloc_appendIJDnEEEvDpOT_ = comdat any

$_ZN13proj_nlohmann6detail19json_sax_dom_parserINS_10basic_jsonISt3mapSt6vectorNSt7__cxx1112basic_stringIcSt11char_traitsIcESaIcEEEblmdSaNS_14adl_serializerES4_IhSaIhEEEEE12handle_valueIRlEEPSE_OT_ = comdat any

$_ZNSt6vectorIN13proj_nlohmann10basic_jsonISt3mapS_NSt7__cxx1112basic_stringIcSt11char_traitsIcESaIcEEEblmdSaNS0_14adl_serializerES_IhSaIhEEEESaISC_EE17_M_realloc_appendIJRlEEEvDpOT_ = comdat any

$_ZN13proj_nlohmann6detail19json_sax_dom_parserINS_10basic_jsonISt3mapSt6vectorNSt7__cxx1112basic_stringIcSt11char_traitsIcESaIcEEEblmdSaNS_14adl_serializerES4_IhSaIhEEEEE12handle_valueIRSA_EEPSE_OT_ = comdat any

$_ZNSt6vectorIN13proj_nlohmann10basic_jsonISt3mapS_NSt7__cxx1112basic_stringIcSt11char_traitsIcESaIcEEEblmdSaNS0_14adl_serializerES_IhSaIhEEEESaISC_EE12emplace_backIJRS8_EEERSC_DpOT_ = comdat any

$_ZNSt6vectorIN13proj_nlohmann10basic_jsonISt3mapS_NSt7__cxx1112basic_stringIcSt11char_traitsIcESaIcEEEblmdSaNS0_14adl_serializerES_IhSaIhEEEESaISC_EE17_M_realloc_appendIJRS8_EEEvDpOT_ = comdat any

$_ZN13proj_nlohmann6detail19json_sax_dom_parserINS_10basic_jsonISt3mapSt6vectorNSt7__cxx1112basic_stringIcSt11char_traitsIcESaIcEEEblmdSaNS_14adl_serializerES4_IhSaIhEEEEE12handle_valueIRmEEPSE_OT_ = comdat any

$_ZNSt6vectorIN13proj_nlohmann10basic_jsonISt3mapS_NSt7__cxx1112basic_stringIcSt11char_traitsIcESaIcEEEblmdSaNS0_14adl_serializerES_IhSaIhEEEESaISC_EE17_M_realloc_appendIJRmEEEvDpOT_ = comdat any

$_ZNKSt8_Rb_treeINSt7__cxx1112basic_stringIcSt11char_traitsIcESaIcEEESt4pairIKS5_N13proj_nlohmann10basic_jsonISt3mapSt6vectorS5_blmdSaNS8_14adl_serializerESB_IhSaIhEEEEESt10_Select1stISG_ESt4lessIvESaISG_EE10_M_find_trIA10_cvEESt23_Rb_tree_const_iteratorISG_ERKT_ = comdat any

$_ZNSt3mapINSt7__cxx1112basic_stringIcSt11char_traitsIcESaIcEEEN13proj_nlohmann10basic_jsonIS_St6vectorS5_blmdSaNS6_14adl_serializerES8_IhSaIhEEEESt4lessIvESaISt4pairIKS5_SC_EEEixEOS5_ = comdat any

$_ZNSt8_Rb_treeINSt7__cxx1112basic_stringIcSt11char_traitsIcESaIcEEESt4pairIKS5_N13proj_nlohmann10basic_jsonISt3mapSt6vectorS5_blmdSaNS8_14adl_serializerESB_IhSaIhEEEEESt10_Select1stISG_ESt4lessIvESaISG_EE22_M_emplace_hint_uniqueIJRKSt21piecewise_construct_tSt5tupleIJOS5_EESR_IJEEEEESt17_Rb_tree_iteratorISG_ESt23_Rb_tree_const_iteratorISG_EDpOT_ = comdat any

$_ZNKSt8_Rb_treeINSt7__cxx1112basic_stringIcSt11char_traitsIcESaIcEEESt4pairIKS5_N13proj_nlohmann10basic_jsonISt3mapSt6vectorS5_blmdSaNS8_14adl_serializerESB_IhSaIhEEEEESt10_Select1stISG_ESt4lessIvESaISG_EE10_M_find_trIA6_cvEESt23_Rb_tree_const_iteratorISG_ERKT_ = comdat any

$_ZNK13proj_nlohmann6detail9iter_implIKNS_10basic_jsonISt3mapSt6vectorNSt7__cxx1112basic_stringIcSt11char_traitsIcESaIcEEEblmdSaNS_14adl_serializerES4_IhSaIhEEEEEeqERKSG_ = comdat any

$_ZNSt6vectorIN16DeformationModel10MasterFile4LinkESaIS2_EE17_M_realloc_appendIJS2_EEEvDpOT_ = comdat any

$_ZNSt6vectorIN16DeformationModel10MasterFile4LinkESaIS2_EE11_S_relocateEPS2_S5_S5_RS3_ = comdat any

$_ZNSt6vectorIN16DeformationModel9ComponentESaIS1_EE17_M_realloc_appendIJS1_EEEvDpOT_ = comdat any

$_ZN16DeformationModel9ComponentC2EOS0_ = comdat any

$_ZNSt6vectorIN16DeformationModel9Component21PiecewiseTimeFunction21EpochScaleFactorTupleESaIS3_EE17_M_realloc_appendIJS3_EEEvDpOT_ = comdat any

$_ZN16DeformationModel18EvaluatorExceptionC2ERKNSt7__cxx1112basic_stringIcSt11char_traitsIcESaIcEEE = comdat any

$_ZTIN13proj_nlohmann6detail10type_errorE = comdat any

$_ZTSN13proj_nlohmann6detail10type_errorE = comdat any

$_ZTIN13proj_nlohmann6detail9exceptionE = comdat any

$_ZTSN13proj_nlohmann6detail9exceptionE = comdat any

$_ZTVN13proj_nlohmann6detail10type_errorE = comdat any

$_ZTVN13proj_nlohmann6detail9exceptionE = comdat any

$_ZTIN13proj_nlohmann6detail12out_of_rangeE = comdat any

$_ZTSN13proj_nlohmann6detail12out_of_rangeE = comdat any

$_ZTIN13proj_nlohmann6detail16invalid_iteratorE = comdat any

$_ZTSN13proj_nlohmann6detail16invalid_iteratorE = comdat any

$_ZTVN13proj_nlohmann6detail16invalid_iteratorE = comdat any

$_ZSt19piecewise_construct = comdat any

$_ZTVN13proj_nlohmann6detail12out_of_rangeE = comdat any

$_ZTIN13proj_nlohmann6detail11parse_errorE = comdat any

$_ZTSN13proj_nlohmann6detail11parse_errorE = comdat any

$_ZTVN13proj_nlohmann6detail11parse_errorE = comdat any

@_ZTVN16DeformationModel9Component12TimeFunctionE = hidden unnamed_addr constant { [5 x ptr] } { [5 x ptr] [ptr null, ptr @_ZTIN16DeformationModel9Component12TimeFunctionE, ptr @_ZN16DeformationModel9Component12TimeFunctionD2Ev, ptr @_ZN16DeformationModel9Component12TimeFunctionD0Ev, ptr @__cxa_pure_virtual] }, align 8
@_ZN16DeformationModelL10STR_DEGREEB5cxx11E = internal global %"class.std::__cxx11::basic_string" zeroinitializer, align 8
@.str = private unnamed_addr constant [7 x i8] c"degree\00", align 1
@__dso_handle = external hidden global i8
@_ZN16DeformationModelL9STR_METREB5cxx11E = internal global %"class.std::__cxx11::basic_string" zeroinitializer, align 8
@.str.2 = private unnamed_addr constant [6 x i8] c"metre\00", align 1
@_ZN16DeformationModelL12STR_ADDITIONB5cxx11E = internal global %"class.std::__cxx11::basic_string" zeroinitializer, align 8
@_ZN16DeformationModelL14STR_GEOCENTRICB5cxx11E = internal global %"class.std::__cxx11::basic_string" zeroinitializer, align 8
@.str.6 = private unnamed_addr constant [11 x i8] c"geocentric\00", align 1
@_ZN16DeformationModelL12STR_BILINEARB5cxx11E = internal global %"class.std::__cxx11::basic_string" zeroinitializer, align 8
@_ZN16DeformationModelL23STR_GEOCENTRIC_BILINEARB5cxx11E = internal global %"class.std::__cxx11::basic_string" zeroinitializer, align 8
@.str.10 = private unnamed_addr constant [20 x i8] c"geocentric_bilinear\00", align 1
@_ZN16DeformationModelL8STR_NONEB5cxx11E = internal global %"class.std::__cxx11::basic_string" zeroinitializer, align 8
@_ZN16DeformationModelL14STR_HORIZONTALB5cxx11E = internal global %"class.std::__cxx11::basic_string" zeroinitializer, align 8
@.str.14 = private unnamed_addr constant [11 x i8] c"horizontal\00", align 1
@_ZN16DeformationModelL12STR_VERTICALB5cxx11E = internal global %"class.std::__cxx11::basic_string" zeroinitializer, align 8
@_ZN16DeformationModelL6STR_3DB5cxx11E = internal global %"class.std::__cxx11::basic_string" zeroinitializer, align 8
@_ZTISt9exception = external constant ptr
@_ZTIN16DeformationModel16ParsingExceptionE = hidden constant { ptr, ptr, ptr } { ptr getelementptr inbounds (ptr, ptr @_ZTVN10__cxxabiv120__si_class_type_infoE, i64 2), ptr @_ZTSN16DeformationModel16ParsingExceptionE, ptr @_ZTISt9exception }, align 8
@_ZTVN10__cxxabiv120__si_class_type_infoE = external global [0 x ptr]
@_ZTSN16DeformationModel16ParsingExceptionE = hidden constant [39 x i8] c"N16DeformationModel16ParsingExceptionE\00", align 1
@.str.19 = private unnamed_addr constant [14 x i8] c"Not an object\00", align 1
@.str.20 = private unnamed_addr constant [10 x i8] c"file_type\00", align 1
@.str.21 = private unnamed_addr constant [15 x i8] c"format_version\00", align 1
@.str.22 = private unnamed_addr constant [5 x i8] c"name\00", align 1
@.str.23 = private unnamed_addr constant [8 x i8] c"version\00", align 1
@.str.24 = private unnamed_addr constant [8 x i8] c"license\00", align 1
@.str.25 = private unnamed_addr constant [12 x i8] c"description\00", align 1
@.str.26 = private unnamed_addr constant [17 x i8] c"publication_date\00", align 1
@.str.27 = private unnamed_addr constant [10 x i8] c"authority\00", align 1
@.str.28 = private unnamed_addr constant [26 x i8] c"authority is not a object\00", align 1
@.str.29 = private unnamed_addr constant [4 x i8] c"url\00", align 1
@.str.30 = private unnamed_addr constant [8 x i8] c"address\00", align 1
@.str.31 = private unnamed_addr constant [6 x i8] c"email\00", align 1
@.str.32 = private unnamed_addr constant [6 x i8] c"links\00", align 1
@.str.33 = private unnamed_addr constant [22 x i8] c"links is not an array\00", align 1
@.str.34 = private unnamed_addr constant [30 x i8] c"links[] item is not an object\00", align 1
@.str.35 = private unnamed_addr constant [5 x i8] c"href\00", align 1
@.str.36 = private unnamed_addr constant [4 x i8] c"rel\00", align 1
@.str.37 = private unnamed_addr constant [5 x i8] c"type\00", align 1
@.str.38 = private unnamed_addr constant [6 x i8] c"title\00", align 1
@.str.39 = private unnamed_addr constant [11 x i8] c"source_crs\00", align 1
@.str.40 = private unnamed_addr constant [11 x i8] c"target_crs\00", align 1
@.str.41 = private unnamed_addr constant [15 x i8] c"definition_crs\00", align 1
@.str.42 = private unnamed_addr constant [53 x i8] c"source_crs != definition_crs not currently supported\00", align 1
@.str.43 = private unnamed_addr constant [16 x i8] c"reference_epoch\00", align 1
@.str.44 = private unnamed_addr constant [28 x i8] c"uncertainty_reference_epoch\00", align 1
@.str.45 = private unnamed_addr constant [23 x i8] c"horizontal_offset_unit\00", align 1
@.str.46 = private unnamed_addr constant [45 x i8] c"Unsupported value for horizontal_offset_unit\00", align 1
@.str.47 = private unnamed_addr constant [21 x i8] c"vertical_offset_unit\00", align 1
@.str.48 = private unnamed_addr constant [43 x i8] c"Unsupported value for vertical_offset_unit\00", align 1
@.str.49 = private unnamed_addr constant [28 x i8] c"horizontal_uncertainty_type\00", align 1
@.str.50 = private unnamed_addr constant [28 x i8] c"horizontal_uncertainty_unit\00", align 1
@.str.51 = private unnamed_addr constant [26 x i8] c"vertical_uncertainty_type\00", align 1
@.str.52 = private unnamed_addr constant [26 x i8] c"vertical_uncertainty_unit\00", align 1
@.str.53 = private unnamed_addr constant [25 x i8] c"horizontal_offset_method\00", align 1
@.str.54 = private unnamed_addr constant [47 x i8] c"Unsupported value for horizontal_offset_method\00", align 1
@.str.55 = private unnamed_addr constant [7 x i8] c"extent\00", align 1
@.str.56 = private unnamed_addr constant [12 x i8] c"time_extent\00", align 1
@.str.57 = private unnamed_addr constant [6 x i8] c"first\00", align 1
@.str.58 = private unnamed_addr constant [5 x i8] c"last\00", align 1
@.str.59 = private unnamed_addr constant [11 x i8] c"components\00", align 1
@.str.60 = private unnamed_addr constant [104 x i8] c"horizontal_offset_unit should be defined as there is a component with displacement_type = horizontal/3d\00", align 1
@.str.61 = private unnamed_addr constant [106 x i8] c"horizontal_offset_method should be defined as there is a component with displacement_type = horizontal/3d\00", align 1
@.str.62 = private unnamed_addr constant [100 x i8] c"vertical_offset_unit should be defined as there is a component with displacement_type = vertical/3d\00", align 1
@.str.63 = private unnamed_addr constant [86 x i8] c"horizontal_offset_unit = degree can only be used with interpolation_method = bilinear\00", align 1
@.str.64 = private unnamed_addr constant [90 x i8] c"horizontal_offset_unit = degree can only be used with horizontal_offset_method = addition\00", align 1
@.str.65 = private unnamed_addr constant [5 x i8] c"bbox\00", align 1
@.str.66 = private unnamed_addr constant [27 x i8] c"unsupported type of extent\00", align 1
@.str.67 = private unnamed_addr constant [11 x i8] c"parameters\00", align 1
@.str.68 = private unnamed_addr constant [43 x i8] c"bbox is not an array of 4 numeric elements\00", align 1
@.str.69 = private unnamed_addr constant [27 x i8] c"component is not an object\00", align 1
@.str.70 = private unnamed_addr constant [18 x i8] c"displacement_type\00", align 1
@.str.71 = private unnamed_addr constant [40 x i8] c"Unsupported value for displacement_type\00", align 1
@.str.72 = private unnamed_addr constant [17 x i8] c"uncertainty_type\00", align 1
@.str.73 = private unnamed_addr constant [23 x i8] c"horizontal_uncertainty\00", align 1
@.str.74 = private unnamed_addr constant [21 x i8] c"vertical_uncertainty\00", align 1
@.str.75 = private unnamed_addr constant [14 x i8] c"spatial_model\00", align 1
@.str.76 = private unnamed_addr constant [21 x i8] c"interpolation_method\00", align 1
@.str.77 = private unnamed_addr constant [43 x i8] c"Unsupported value for interpolation_method\00", align 1
@.str.78 = private unnamed_addr constant [9 x i8] c"filename\00", align 1
@.str.79 = private unnamed_addr constant [13 x i8] c"md5_checksum\00", align 1
@.str.80 = private unnamed_addr constant [14 x i8] c"time_function\00", align 1
@.str.81 = private unnamed_addr constant [9 x i8] c"constant\00", align 1
@.str.82 = private unnamed_addr constant [9 x i8] c"velocity\00", align 1
@.str.83 = private unnamed_addr constant [5 x i8] c"step\00", align 1
@.str.84 = private unnamed_addr constant [11 x i8] c"step_epoch\00", align 1
@.str.85 = private unnamed_addr constant [13 x i8] c"reverse_step\00", align 1
@.str.86 = private unnamed_addr constant [10 x i8] c"piecewise\00", align 1
@.str.87 = private unnamed_addr constant [13 x i8] c"before_first\00", align 1
@.str.88 = private unnamed_addr constant [5 x i8] c"zero\00", align 1
@.str.89 = private unnamed_addr constant [7 x i8] c"linear\00", align 1
@.str.90 = private unnamed_addr constant [35 x i8] c"Unsupported value for before_first\00", align 1
@.str.91 = private unnamed_addr constant [11 x i8] c"after_last\00", align 1
@.str.92 = private unnamed_addr constant [32 x i8] c"Unsupported value for afterLast\00", align 1
@.str.93 = private unnamed_addr constant [6 x i8] c"model\00", align 1
@.str.94 = private unnamed_addr constant [33 x i8] c"model[] element is not an object\00", align 1
@.str.95 = private unnamed_addr constant [6 x i8] c"epoch\00", align 1
@.str.96 = private unnamed_addr constant [13 x i8] c"scale_factor\00", align 1
@.str.97 = private unnamed_addr constant [12 x i8] c"exponential\00", align 1
@.str.98 = private unnamed_addr constant [10 x i8] c"end_epoch\00", align 1
@.str.99 = private unnamed_addr constant [20 x i8] c"relaxation_constant\00", align 1
@.str.100 = private unnamed_addr constant [38 x i8] c"Invalid value for relaxation_constant\00", align 1
@.str.101 = private unnamed_addr constant [20 x i8] c"before_scale_factor\00", align 1
@.str.102 = private unnamed_addr constant [21 x i8] c"initial_scale_factor\00", align 1
@.str.103 = private unnamed_addr constant [19 x i8] c"final_scale_factor\00", align 1
@.str.104 = private unnamed_addr constant [36 x i8] c"Unsupported type of time function: \00", align 1
@_ZL12des_defmodel = internal constant [18 x i8] c"Deformation model\00", align 16
@pj_s_defmodel = hidden local_unnamed_addr constant ptr @_ZL12des_defmodel, align 8
@.str.105 = private unnamed_addr constant [9 x i8] c"defmodel\00", align 1
@.str.106 = private unnamed_addr constant [16 x i8] c"+proj=cart +a=1\00", align 1
@.str.107 = private unnamed_addr constant [7 x i8] c"smodel\00", align 1
@.str.108 = private unnamed_addr constant [29 x i8] c"+model= should be specified.\00", align 1
@.str.109 = private unnamed_addr constant [15 x i8] c"Cannot open %s\00", align 1
@.str.110 = private unnamed_addr constant [18 x i8] c"File %s too large\00", align 1
@.str.111 = private unnamed_addr constant [15 x i8] c"Cannot read %s\00", align 1
@.str.112 = private unnamed_addr constant [18 x i8] c"invalid model: %s\00", align 1
@_ZTVN16DeformationModel16ParsingExceptionE = hidden unnamed_addr constant { [5 x ptr] } { [5 x ptr] [ptr null, ptr @_ZTIN16DeformationModel16ParsingExceptionE, ptr @_ZN16DeformationModel16ParsingExceptionD2Ev, ptr @_ZN16DeformationModel16ParsingExceptionD0Ev, ptr @_ZNK16DeformationModel16ParsingException4whatEv] }, align 8
@_ZTVN16DeformationModel22UnimplementedExceptionE = hidden unnamed_addr constant { [5 x ptr] } { [5 x ptr] [ptr null, ptr @_ZTIN16DeformationModel22UnimplementedExceptionE, ptr @_ZN16DeformationModel22UnimplementedExceptionD2Ev, ptr @_ZN16DeformationModel22UnimplementedExceptionD0Ev, ptr @_ZNK16DeformationModel22UnimplementedException4whatEv] }, align 8
@_ZTIN16DeformationModel22UnimplementedExceptionE = hidden constant { ptr, ptr, ptr } { ptr getelementptr inbounds (ptr, ptr @_ZTVN10__cxxabiv120__si_class_type_infoE, i64 2), ptr @_ZTSN16DeformationModel22UnimplementedExceptionE, ptr @_ZTISt9exception }, align 8
@_ZTSN16DeformationModel22UnimplementedExceptionE = hidden constant [45 x i8] c"N16DeformationModel22UnimplementedExceptionE\00", align 1
@_ZTVN16DeformationModel18EvaluatorExceptionE = hidden unnamed_addr constant { [5 x ptr] } { [5 x ptr] [ptr null, ptr @_ZTIN16DeformationModel18EvaluatorExceptionE, ptr @_ZN16DeformationModel18EvaluatorExceptionD2Ev, ptr @_ZN16DeformationModel18EvaluatorExceptionD0Ev, ptr @_ZNK16DeformationModel18EvaluatorException4whatEv] }, align 8
@_ZTIN16DeformationModel18EvaluatorExceptionE = hidden constant { ptr, ptr, ptr } { ptr getelementptr inbounds (ptr, ptr @_ZTVN10__cxxabiv120__si_class_type_infoE, i64 2), ptr @_ZTSN16DeformationModel18EvaluatorExceptionE, ptr @_ZTISt9exception }, align 8
@_ZTSN16DeformationModel18EvaluatorExceptionE = hidden constant [41 x i8] c"N16DeformationModel18EvaluatorExceptionE\00", align 1
@_ZTIN16DeformationModel9Component12TimeFunctionE = hidden constant { ptr, ptr } { ptr getelementptr inbounds (ptr, ptr @_ZTVN10__cxxabiv117__class_type_infoE, i64 2), ptr @_ZTSN16DeformationModel9Component12TimeFunctionE }, align 8
@_ZTVN10__cxxabiv117__class_type_infoE = external global [0 x ptr]
@_ZTSN16DeformationModel9Component12TimeFunctionE = hidden constant [45 x i8] c"N16DeformationModel9Component12TimeFunctionE\00", align 1
@_ZTVN16DeformationModel9Component20ConstantTimeFunctionE = hidden unnamed_addr constant { [5 x ptr] } { [5 x ptr] [ptr null, ptr @_ZTIN16DeformationModel9Component20ConstantTimeFunctionE, ptr @_ZN16DeformationModel9Component12TimeFunctionD2Ev, ptr @_ZN16DeformationModel9Component20ConstantTimeFunctionD0Ev, ptr @_ZNK16DeformationModel9Component20ConstantTimeFunction10evaluateAtEd] }, align 8
@_ZTIN16DeformationModel9Component20ConstantTimeFunctionE = hidden constant { ptr, ptr, ptr } { ptr getelementptr inbounds (ptr, ptr @_ZTVN10__cxxabiv120__si_class_type_infoE, i64 2), ptr @_ZTSN16DeformationModel9Component20ConstantTimeFunctionE, ptr @_ZTIN16DeformationModel9Component12TimeFunctionE }, align 8
@_ZTSN16DeformationModel9Component20ConstantTimeFunctionE = hidden constant [53 x i8] c"N16DeformationModel9Component20ConstantTimeFunctionE\00", align 1
@_ZTVN16DeformationModel9Component20VelocityTimeFunctionE = hidden unnamed_addr constant { [5 x ptr] } { [5 x ptr] [ptr null, ptr @_ZTIN16DeformationModel9Component20VelocityTimeFunctionE, ptr @_ZN16DeformationModel9Component20VelocityTimeFunctionD2Ev, ptr @_ZN16DeformationModel9Component20VelocityTimeFunctionD0Ev, ptr @_ZNK16DeformationModel9Component20VelocityTimeFunction10evaluateAtEd] }, align 8
@_ZTIN16DeformationModel9Component20VelocityTimeFunctionE = hidden constant { ptr, ptr, ptr } { ptr getelementptr inbounds (ptr, ptr @_ZTVN10__cxxabiv120__si_class_type_infoE, i64 2), ptr @_ZTSN16DeformationModel9Component20VelocityTimeFunctionE, ptr @_ZTIN16DeformationModel9Component12TimeFunctionE }, align 8
@_ZTSN16DeformationModel9Component20VelocityTimeFunctionE = hidden constant [53 x i8] c"N16DeformationModel9Component20VelocityTimeFunctionE\00", align 1
@_ZTVN16DeformationModel9Component16StepTimeFunctionE = hidden unnamed_addr constant { [5 x ptr] } { [5 x ptr] [ptr null, ptr @_ZTIN16DeformationModel9Component16StepTimeFunctionE, ptr @_ZN16DeformationModel9Component16StepTimeFunctionD2Ev, ptr @_ZN16DeformationModel9Component16StepTimeFunctionD0Ev, ptr @_ZNK16DeformationModel9Component16StepTimeFunction10evaluateAtEd] }, align 8
@_ZTIN16DeformationModel9Component16StepTimeFunctionE = hidden constant { ptr, ptr, ptr } { ptr getelementptr inbounds (ptr, ptr @_ZTVN10__cxxabiv120__si_class_type_infoE, i64 2), ptr @_ZTSN16DeformationModel9Component16StepTimeFunctionE, ptr @_ZTIN16DeformationModel9Component12TimeFunctionE }, align 8
@_ZTSN16DeformationModel9Component16StepTimeFunctionE = hidden constant [49 x i8] c"N16DeformationModel9Component16StepTimeFunctionE\00", align 1
@_ZTVN16DeformationModel9Component23ReverseStepTimeFunctionE = hidden unnamed_addr constant { [5 x ptr] } { [5 x ptr] [ptr null, ptr @_ZTIN16DeformationModel9Component23ReverseStepTimeFunctionE, ptr @_ZN16DeformationModel9Component23ReverseStepTimeFunctionD2Ev, ptr @_ZN16DeformationModel9Component23ReverseStepTimeFunctionD0Ev, ptr @_ZNK16DeformationModel9Component23ReverseStepTimeFunction10evaluateAtEd] }, align 8
@_ZTIN16DeformationModel9Component23ReverseStepTimeFunctionE = hidden constant { ptr, ptr, ptr } { ptr getelementptr inbounds (ptr, ptr @_ZTVN10__cxxabiv120__si_class_type_infoE, i64 2), ptr @_ZTSN16DeformationModel9Component23ReverseStepTimeFunctionE, ptr @_ZTIN16DeformationModel9Component12TimeFunctionE }, align 8
@_ZTSN16DeformationModel9Component23ReverseStepTimeFunctionE = hidden constant [56 x i8] c"N16DeformationModel9Component23ReverseStepTimeFunctionE\00", align 1
@_ZTVN16DeformationModel9Component21PiecewiseTimeFunctionE = hidden unnamed_addr constant { [5 x ptr] } { [5 x ptr] [ptr null, ptr @_ZTIN16DeformationModel9Component21PiecewiseTimeFunctionE, ptr @_ZN16DeformationModel9Component21PiecewiseTimeFunctionD2Ev, ptr @_ZN16DeformationModel9Component21PiecewiseTimeFunctionD0Ev, ptr @_ZNK16DeformationModel9Component21PiecewiseTimeFunction10evaluateAtEd] }, align 8
@_ZTIN16DeformationModel9Component21PiecewiseTimeFunctionE = hidden constant { ptr, ptr, ptr } { ptr getelementptr inbounds (ptr, ptr @_ZTVN10__cxxabiv120__si_class_type_infoE, i64 2), ptr @_ZTSN16DeformationModel9Component21PiecewiseTimeFunctionE, ptr @_ZTIN16DeformationModel9Component12TimeFunctionE }, align 8
@_ZTSN16DeformationModel9Component21PiecewiseTimeFunctionE = hidden constant [54 x i8] c"N16DeformationModel9Component21PiecewiseTimeFunctionE\00", align 1
@_ZTVN16DeformationModel9Component23ExponentialTimeFunctionE = hidden unnamed_addr constant { [5 x ptr] } { [5 x ptr] [ptr null, ptr @_ZTIN16DeformationModel9Component23ExponentialTimeFunctionE, ptr @_ZN16DeformationModel9Component23ExponentialTimeFunctionD2Ev, ptr @_ZN16DeformationModel9Component23ExponentialTimeFunctionD0Ev, ptr @_ZNK16DeformationModel9Component23ExponentialTimeFunction10evaluateAtEd] }, align 8
@_ZTIN16DeformationModel9Component23ExponentialTimeFunctionE = hidden constant { ptr, ptr, ptr } { ptr getelementptr inbounds (ptr, ptr @_ZTVN10__cxxabiv120__si_class_type_infoE, i64 2), ptr @_ZTSN16DeformationModel9Component23ExponentialTimeFunctionE, ptr @_ZTIN16DeformationModel9Component12TimeFunctionE }, align 8
@_ZTSN16DeformationModel9Component23ExponentialTimeFunctionE = hidden constant [56 x i8] c"N16DeformationModel9Component23ExponentialTimeFunctionE\00", align 1
@.str.113 = private unnamed_addr constant [31 x i8] c"%04d-%02d-%02dT%02d:%02d:%02dZ\00", align 1
@.str.114 = private unnamed_addr constant [42 x i8] c"Wrong formatting / invalid date-time for \00", align 1
@__const._ZN16DeformationModelL20ISO8601ToDecimalYearERKNSt7__cxx1112basic_stringIcSt11char_traitsIcESaIcEEE.month_table = private unnamed_addr constant [2 x [12 x i32]] [[12 x i32] [i32 31, i32 28, i32 31, i32 30, i32 31, i32 30, i32 31, i32 31, i32 30, i32 31, i32 30, i32 31], [12 x i32] [i32 31, i32 29, i32 31, i32 30, i32 31, i32 30, i32 31, i32 31, i32 30, i32 31, i32 30, i32 31]], align 16
@.str.115 = private unnamed_addr constant [10 x i8] c"Missing \22\00", align 1
@.str.116 = private unnamed_addr constant [6 x i8] c"\22 key\00", align 1
@.str.117 = private unnamed_addr constant [15 x i8] c"The value of \22\00", align 1
@.str.118 = private unnamed_addr constant [21 x i8] c"\22 should be a string\00", align 1
@.str.119 = private unnamed_addr constant [21 x i8] c"basic_string::append\00", align 1
@.str.120 = private unnamed_addr constant [51 x i8] c"cannot use operator[] with a string argument with \00", align 1
@_ZTIN13proj_nlohmann6detail10type_errorE = linkonce_odr hidden constant { ptr, ptr, ptr } { ptr getelementptr inbounds (ptr, ptr @_ZTVN10__cxxabiv120__si_class_type_infoE, i64 2), ptr @_ZTSN13proj_nlohmann6detail10type_errorE, ptr @_ZTIN13proj_nlohmann6detail9exceptionE }, comdat, align 8
@_ZTSN13proj_nlohmann6detail10type_errorE = linkonce_odr hidden constant [37 x i8] c"N13proj_nlohmann6detail10type_errorE\00", comdat, align 1
@_ZTIN13proj_nlohmann6detail9exceptionE = linkonce_odr hidden constant { ptr, ptr, ptr } { ptr getelementptr inbounds (ptr, ptr @_ZTVN10__cxxabiv120__si_class_type_infoE, i64 2), ptr @_ZTSN13proj_nlohmann6detail9exceptionE, ptr @_ZTISt9exception }, comdat, align 8
@_ZTSN13proj_nlohmann6detail9exceptionE = linkonce_odr hidden constant [35 x i8] c"N13proj_nlohmann6detail9exceptionE\00", comdat, align 1
@.str.121 = private unnamed_addr constant [11 x i8] c"type_error\00", align 1
@.str.122 = private unnamed_addr constant [17 x i8] c"[json.exception.\00", align 1
@.str.123 = private unnamed_addr constant [2 x i8] c".\00", align 1
@.str.124 = private unnamed_addr constant [3 x i8] c"] \00", align 1
@_ZTVN13proj_nlohmann6detail10type_errorE = linkonce_odr hidden unnamed_addr constant { [5 x ptr] } { [5 x ptr] [ptr null, ptr @_ZTIN13proj_nlohmann6detail10type_errorE, ptr @_ZN13proj_nlohmann6detail9exceptionD2Ev, ptr @_ZN13proj_nlohmann6detail10type_errorD0Ev, ptr @_ZNK13proj_nlohmann6detail9exception4whatEv] }, comdat, align 8
@_ZTVN13proj_nlohmann6detail9exceptionE = linkonce_odr hidden unnamed_addr constant { [5 x ptr] } { [5 x ptr] [ptr null, ptr @_ZTIN13proj_nlohmann6detail9exceptionE, ptr @_ZN13proj_nlohmann6detail9exceptionD2Ev, ptr @_ZN13proj_nlohmann6detail9exceptionD0Ev, ptr @_ZNK13proj_nlohmann6detail9exception4whatEv] }, comdat, align 8
@.str.127 = private unnamed_addr constant [5 x i8] c"null\00", align 1
@.str.128 = private unnamed_addr constant [7 x i8] c"object\00", align 1
@.str.129 = private unnamed_addr constant [6 x i8] c"array\00", align 1
@.str.130 = private unnamed_addr constant [7 x i8] c"string\00", align 1
@.str.131 = private unnamed_addr constant [8 x i8] c"boolean\00", align 1
@.str.132 = private unnamed_addr constant [7 x i8] c"binary\00", align 1
@.str.133 = private unnamed_addr constant [10 x i8] c"discarded\00", align 1
@.str.134 = private unnamed_addr constant [7 x i8] c"number\00", align 1
@.str.135 = private unnamed_addr constant [29 x i8] c"type must be string, but is \00", align 1
@.str.136 = private unnamed_addr constant [21 x i8] c"\22 should be a object\00", align 1
@.str.137 = private unnamed_addr constant [20 x i8] c"\22 should be a array\00", align 1
@.str.138 = private unnamed_addr constant [21 x i8] c"\22 should be a number\00", align 1
@.str.139 = private unnamed_addr constant [15 x i8] c"cannot open %s\00", align 1
@.str.140 = private unnamed_addr constant [31 x i8] c"grid %s has not enough samples\00", align 1
@.str.141 = private unnamed_addr constant [16 x i8] c"vertical_offset\00", align 1
@.str.142 = private unnamed_addr constant [60 x i8] c"grid %s : Found band description, but not the ones expected\00", align 1
@.str.143 = private unnamed_addr constant [58 x i8] c"grid %s : Only unit=metre currently handled for this mode\00", align 1
@.str.144 = private unnamed_addr constant [12 x i8] c"east_offset\00", align 1
@.str.145 = private unnamed_addr constant [13 x i8] c"north_offset\00", align 1
@.str.146 = private unnamed_addr constant [55 x i8] c"grid %s : Only unit=%s currently handled for this mode\00", align 1
@.str.147 = private unnamed_addr constant [50 x i8] c"basic_string: construction from null is not valid\00", align 1
@.str.148 = private unnamed_addr constant [16 x i8] c"vector::reserve\00", align 1
@.str.149 = private unnamed_addr constant [26 x i8] c"vector::_M_realloc_append\00", align 1
@.str.150 = private unnamed_addr constant [29 x i8] c"type must be number, but is \00", align 1
@.str.151 = private unnamed_addr constant [1 x i8] zeroinitializer, align 1
@.str.154 = private unnamed_addr constant [45 x i8] c"invalid BOM; must be 0xEF 0xBB 0xBF if given\00", align 1
@.str.155 = private unnamed_addr constant [16 x i8] c"invalid literal\00", align 1
@.str.156 = private unnamed_addr constant [38 x i8] c"invalid comment; missing closing '*/'\00", align 1
@.str.157 = private unnamed_addr constant [48 x i8] c"invalid comment; expecting '/' or '*' after '/'\00", align 1
@.str.158 = private unnamed_addr constant [38 x i8] c"invalid string: missing closing quote\00", align 1
@.str.159 = private unnamed_addr constant [54 x i8] c"invalid string: '\\u' must be followed by 4 hex digits\00", align 1
@.str.160 = private unnamed_addr constant [76 x i8] c"invalid string: surrogate U+D800..U+DBFF must be followed by U+DC00..U+DFFF\00", align 1
@.str.161 = private unnamed_addr constant [68 x i8] c"invalid string: surrogate U+DC00..U+DFFF must follow U+D800..U+DBFF\00", align 1
@.str.162 = private unnamed_addr constant [52 x i8] c"invalid string: forbidden character after backslash\00", align 1
@.str.163 = private unnamed_addr constant [73 x i8] c"invalid string: control character U+0000 (NUL) must be escaped to \\u0000\00", align 1
@.str.164 = private unnamed_addr constant [73 x i8] c"invalid string: control character U+0001 (SOH) must be escaped to \\u0001\00", align 1
@.str.165 = private unnamed_addr constant [73 x i8] c"invalid string: control character U+0002 (STX) must be escaped to \\u0002\00", align 1
@.str.166 = private unnamed_addr constant [73 x i8] c"invalid string: control character U+0003 (ETX) must be escaped to \\u0003\00", align 1
@.str.167 = private unnamed_addr constant [73 x i8] c"invalid string: control character U+0004 (EOT) must be escaped to \\u0004\00", align 1
@.str.168 = private unnamed_addr constant [73 x i8] c"invalid string: control character U+0005 (ENQ) must be escaped to \\u0005\00", align 1
@.str.169 = private unnamed_addr constant [73 x i8] c"invalid string: control character U+0006 (ACK) must be escaped to \\u0006\00", align 1
@.str.170 = private unnamed_addr constant [73 x i8] c"invalid string: control character U+0007 (BEL) must be escaped to \\u0007\00", align 1
@.str.171 = private unnamed_addr constant [78 x i8] c"invalid string: control character U+0008 (BS) must be escaped to \\u0008 or \\b\00", align 1
@.str.172 = private unnamed_addr constant [78 x i8] c"invalid string: control character U+0009 (HT) must be escaped to \\u0009 or \\t\00", align 1
@.str.173 = private unnamed_addr constant [78 x i8] c"invalid string: control character U+000A (LF) must be escaped to \\u000A or \\n\00", align 1
@.str.174 = private unnamed_addr constant [72 x i8] c"invalid string: control character U+000B (VT) must be escaped to \\u000B\00", align 1
@.str.175 = private unnamed_addr constant [78 x i8] c"invalid string: control character U+000C (FF) must be escaped to \\u000C or \\f\00", align 1
@.str.176 = private unnamed_addr constant [78 x i8] c"invalid string: control character U+000D (CR) must be escaped to \\u000D or \\r\00", align 1
@.str.177 = private unnamed_addr constant [72 x i8] c"invalid string: control character U+000E (SO) must be escaped to \\u000E\00", align 1
@.str.178 = private unnamed_addr constant [72 x i8] c"invalid string: control character U+000F (SI) must be escaped to \\u000F\00", align 1
@.str.179 = private unnamed_addr constant [73 x i8] c"invalid string: control character U+0010 (DLE) must be escaped to \\u0010\00", align 1
@.str.180 = private unnamed_addr constant [73 x i8] c"invalid string: control character U+0011 (DC1) must be escaped to \\u0011\00", align 1
@.str.181 = private unnamed_addr constant [73 x i8] c"invalid string: control character U+0012 (DC2) must be escaped to \\u0012\00", align 1
@.str.182 = private unnamed_addr constant [73 x i8] c"invalid string: control character U+0013 (DC3) must be escaped to \\u0013\00", align 1
@.str.183 = private unnamed_addr constant [73 x i8] c"invalid string: control character U+0014 (DC4) must be escaped to \\u0014\00", align 1
@.str.184 = private unnamed_addr constant [73 x i8] c"invalid string: control character U+0015 (NAK) must be escaped to \\u0015\00", align 1
@.str.185 = private unnamed_addr constant [73 x i8] c"invalid string: control character U+0016 (SYN) must be escaped to \\u0016\00", align 1
@.str.186 = private unnamed_addr constant [73 x i8] c"invalid string: control character U+0017 (ETB) must be escaped to \\u0017\00", align 1
@.str.187 = private unnamed_addr constant [73 x i8] c"invalid string: control character U+0018 (CAN) must be escaped to \\u0018\00", align 1
@.str.188 = private unnamed_addr constant [72 x i8] c"invalid string: control character U+0019 (EM) must be escaped to \\u0019\00", align 1
@.str.189 = private unnamed_addr constant [73 x i8] c"invalid string: control character U+001A (SUB) must be escaped to \\u001A\00", align 1
@.str.190 = private unnamed_addr constant [73 x i8] c"invalid string: control character U+001B (ESC) must be escaped to \\u001B\00", align 1
@.str.191 = private unnamed_addr constant [72 x i8] c"invalid string: control character U+001C (FS) must be escaped to \\u001C\00", align 1
@.str.192 = private unnamed_addr constant [72 x i8] c"invalid string: control character U+001D (GS) must be escaped to \\u001D\00", align 1
@.str.193 = private unnamed_addr constant [72 x i8] c"invalid string: control character U+001E (RS) must be escaped to \\u001E\00", align 1
@.str.194 = private unnamed_addr constant [72 x i8] c"invalid string: control character U+001F (US) must be escaped to \\u001F\00", align 1
@constinit = private unnamed_addr constant [6 x i32] [i32 144, i32 191, i32 128, i32 191, i32 128, i32 191], align 4
@constinit.195 = private unnamed_addr constant [6 x i32] [i32 128, i32 191, i32 128, i32 191, i32 128, i32 191], align 4
@constinit.196 = private unnamed_addr constant [6 x i32] [i32 128, i32 143, i32 128, i32 191, i32 128, i32 191], align 4
@.str.197 = private unnamed_addr constant [38 x i8] c"invalid string: ill-formed UTF-8 byte\00", align 1
@.str.198 = private unnamed_addr constant [41 x i8] c"invalid number; expected digit after '-'\00", align 1
@.str.199 = private unnamed_addr constant [41 x i8] c"invalid number; expected digit after '.'\00", align 1
@.str.200 = private unnamed_addr constant [59 x i8] c"invalid number; expected '+', '-', or digit after exponent\00", align 1
@.str.201 = private unnamed_addr constant [51 x i8] c"invalid number; expected digit after exponent sign\00", align 1
@.str.202 = private unnamed_addr constant [6 x i8] c"value\00", align 1
@.str.203 = private unnamed_addr constant [28 x i8] c"vector<bool>::_M_insert_aux\00", align 1
@.str.204 = private unnamed_addr constant [11 x i8] c"object key\00", align 1
@.str.205 = private unnamed_addr constant [17 x i8] c"object separator\00", align 1
@.str.206 = private unnamed_addr constant [26 x i8] c"number overflow parsing '\00", align 1
@.str.207 = private unnamed_addr constant [2 x i8] c"'\00", align 1
@.str.208 = private unnamed_addr constant [24 x i8] c"excessive object size: \00", align 1
@_ZTIN13proj_nlohmann6detail12out_of_rangeE = linkonce_odr hidden constant { ptr, ptr, ptr } { ptr getelementptr inbounds (ptr, ptr @_ZTVN10__cxxabiv120__si_class_type_infoE, i64 2), ptr @_ZTSN13proj_nlohmann6detail12out_of_rangeE, ptr @_ZTIN13proj_nlohmann6detail9exceptionE }, comdat, align 8
@_ZTSN13proj_nlohmann6detail12out_of_rangeE = linkonce_odr hidden constant [39 x i8] c"N13proj_nlohmann6detail12out_of_rangeE\00", comdat, align 1
@__const._ZNSt8__detail18__to_chars_10_implImEEvPcjT_.__digits = private unnamed_addr constant [201 x i8] c"00010203040506070809101112131415161718192021222324252627282930313233343536373839404142434445464748495051525354555657585960616263646566676869707172737475767778798081828384858687888990919293949596979899\00", align 16
@.str.209 = private unnamed_addr constant [49 x i8] c"cannot compare iterators of different containers\00", align 1
@_ZTIN13proj_nlohmann6detail16invalid_iteratorE = linkonce_odr hidden constant { ptr, ptr, ptr } { ptr getelementptr inbounds (ptr, ptr @_ZTVN10__cxxabiv120__si_class_type_infoE, i64 2), ptr @_ZTSN13proj_nlohmann6detail16invalid_iteratorE, ptr @_ZTIN13proj_nlohmann6detail9exceptionE }, comdat, align 8
@_ZTSN13proj_nlohmann6detail16invalid_iteratorE = linkonce_odr hidden constant [43 x i8] c"N13proj_nlohmann6detail16invalid_iteratorE\00", comdat, align 1
@.str.210 = private unnamed_addr constant [17 x i8] c"invalid_iterator\00", align 1
@_ZTVN13proj_nlohmann6detail16invalid_iteratorE = linkonce_odr hidden unnamed_addr constant { [5 x ptr] } { [5 x ptr] [ptr null, ptr @_ZTIN13proj_nlohmann6detail16invalid_iteratorE, ptr @_ZN13proj_nlohmann6detail9exceptionD2Ev, ptr @_ZN13proj_nlohmann6detail16invalid_iteratorD0Ev, ptr @_ZNK13proj_nlohmann6detail9exception4whatEv] }, comdat, align 8
@.str.211 = private unnamed_addr constant [17 x i8] c"cannot get value\00", align 1
@.str.212 = private unnamed_addr constant [36 x i8] c"iterator does not fit current value\00", align 1
@.str.213 = private unnamed_addr constant [22 x i8] c"iterator out of range\00", align 1
@.str.214 = private unnamed_addr constant [25 x i8] c"cannot use erase() with \00", align 1
@_ZSt19piecewise_construct = linkonce_odr constant %"struct.std::piecewise_construct_t" zeroinitializer, comdat, align 1
@.str.215 = private unnamed_addr constant [23 x i8] c"excessive array size: \00", align 1
@_ZTVN13proj_nlohmann6detail12out_of_rangeE = linkonce_odr hidden unnamed_addr constant { [5 x ptr] } { [5 x ptr] [ptr null, ptr @_ZTIN13proj_nlohmann6detail12out_of_rangeE, ptr @_ZN13proj_nlohmann6detail9exceptionD2Ev, ptr @_ZN13proj_nlohmann6detail12out_of_rangeD0Ev, ptr @_ZNK13proj_nlohmann6detail9exception4whatEv] }, comdat, align 8
@.str.216 = private unnamed_addr constant [13 x i8] c"out_of_range\00", align 1
@_ZTIN13proj_nlohmann6detail11parse_errorE = linkonce_odr hidden constant { ptr, ptr, ptr } { ptr getelementptr inbounds (ptr, ptr @_ZTVN10__cxxabiv120__si_class_type_infoE, i64 2), ptr @_ZTSN13proj_nlohmann6detail11parse_errorE, ptr @_ZTIN13proj_nlohmann6detail9exceptionE }, comdat, align 8
@_ZTSN13proj_nlohmann6detail11parse_errorE = linkonce_odr hidden constant [38 x i8] c"N13proj_nlohmann6detail11parse_errorE\00", comdat, align 1
@_ZTVN13proj_nlohmann6detail11parse_errorE = linkonce_odr hidden unnamed_addr constant { [5 x ptr] } { [5 x ptr] [ptr null, ptr @_ZTIN13proj_nlohmann6detail11parse_errorE, ptr @_ZN13proj_nlohmann6detail9exceptionD2Ev, ptr @_ZN13proj_nlohmann6detail11parse_errorD0Ev, ptr @_ZNK13proj_nlohmann6detail9exception4whatEv] }, comdat, align 8
@.str.217 = private unnamed_addr constant [9 x i8] c"<U+%.4X>\00", align 1
@.str.218 = private unnamed_addr constant [12 x i8] c"parse_error\00", align 1
@.str.219 = private unnamed_addr constant [12 x i8] c"parse error\00", align 1
@.str.220 = private unnamed_addr constant [3 x i8] c": \00", align 1
@.str.221 = private unnamed_addr constant [10 x i8] c" at line \00", align 1
@.str.222 = private unnamed_addr constant [10 x i8] c", column \00", align 1
@.str.223 = private unnamed_addr constant [14 x i8] c"syntax error \00", align 1
@.str.224 = private unnamed_addr constant [15 x i8] c"while parsing \00", align 1
@.str.225 = private unnamed_addr constant [2 x i8] c" \00", align 1
@.str.226 = private unnamed_addr constant [3 x i8] c"- \00", align 1
@.str.227 = private unnamed_addr constant [15 x i8] c"; last read: '\00", align 1
@.str.228 = private unnamed_addr constant [12 x i8] c"unexpected \00", align 1
@.str.229 = private unnamed_addr constant [12 x i8] c"; expected \00", align 1
@.str.230 = private unnamed_addr constant [16 x i8] c"<uninitialized>\00", align 1
@.str.231 = private unnamed_addr constant [13 x i8] c"true literal\00", align 1
@.str.232 = private unnamed_addr constant [14 x i8] c"false literal\00", align 1
@.str.233 = private unnamed_addr constant [13 x i8] c"null literal\00", align 1
@.str.234 = private unnamed_addr constant [15 x i8] c"string literal\00", align 1
@.str.235 = private unnamed_addr constant [15 x i8] c"number literal\00", align 1
@.str.236 = private unnamed_addr constant [4 x i8] c"'['\00", align 1
@.str.237 = private unnamed_addr constant [4 x i8] c"'{'\00", align 1
@.str.238 = private unnamed_addr constant [4 x i8] c"']'\00", align 1
@.str.239 = private unnamed_addr constant [4 x i8] c"'}'\00", align 1
@.str.240 = private unnamed_addr constant [4 x i8] c"':'\00", align 1
@.str.241 = private unnamed_addr constant [4 x i8] c"','\00", align 1
@.str.242 = private unnamed_addr constant [14 x i8] c"<parse error>\00", align 1
@.str.243 = private unnamed_addr constant [13 x i8] c"end of input\00", align 1
@.str.244 = private unnamed_addr constant [23 x i8] c"'[', '{', or a literal\00", align 1
@.str.245 = private unnamed_addr constant [14 x i8] c"unknown token\00", align 1
@.str.246 = private unnamed_addr constant [52 x i8] c"cannot use operator[] with a numeric argument with \00", align 1
@.str.247 = private unnamed_addr constant [84 x i8] c"definition_crs = projected CRS and horizontal_offset_unit = degree are incompatible\00", align 1
@.str.248 = private unnamed_addr constant [90 x i8] c"definition_crs = projected CRS and horizontal_offset_method = geocentric are incompatible\00", align 1
@.str.249 = private unnamed_addr constant [95 x i8] c"definition_crs = projected CRS and interpolation_method = geocentric_bilinear are incompatible\00", align 1
@llvm.global_ctors = appending global [1 x { i32, ptr, ptr }] [{ i32, ptr, ptr } { i32 65535, ptr @_GLOBAL__sub_I_defmodel.cpp, ptr null }]
@switch.table._ZNK13proj_nlohmann10basic_jsonISt3mapSt6vectorNSt7__cxx1112basic_stringIcSt11char_traitsIcESaIcEEEblmdSaNS_14adl_serializerES2_IhSaIhEEE9type_nameEv.rel = private unnamed_addr constant [10 x i32] [i32 trunc (i64 sub (i64 ptrtoint (ptr @.str.127 to i64), i64 ptrtoint (ptr @switch.table._ZNK13proj_nlohmann10basic_jsonISt3mapSt6vectorNSt7__cxx1112basic_stringIcSt11char_traitsIcESaIcEEEblmdSaNS_14adl_serializerES2_IhSaIhEEE9type_nameEv.rel to i64)) to i32), i32 trunc (i64 sub (i64 ptrtoint (ptr @.str.128 to i64), i64 ptrtoint (ptr @switch.table._ZNK13proj_nlohmann10basic_jsonISt3mapSt6vectorNSt7__cxx1112basic_stringIcSt11char_traitsIcESaIcEEEblmdSaNS_14adl_serializerES2_IhSaIhEEE9type_nameEv.rel to i64)) to i32), i32 trunc (i64 sub (i64 ptrtoint (ptr @.str.129 to i64), i64 ptrtoint (ptr @switch.table._ZNK13proj_nlohmann10basic_jsonISt3mapSt6vectorNSt7__cxx1112basic_stringIcSt11char_traitsIcESaIcEEEblmdSaNS_14adl_serializerES2_IhSaIhEEE9type_nameEv.rel to i64)) to i32), i32 trunc (i64 sub (i64 ptrtoint (ptr @.str.130 to i64), i64 ptrtoint (ptr @switch.table._ZNK13proj_nlohmann10basic_jsonISt3mapSt6vectorNSt7__cxx1112basic_stringIcSt11char_traitsIcESaIcEEEblmdSaNS_14adl_serializerES2_IhSaIhEEE9type_nameEv.rel to i64)) to i32), i32 trunc (i64 sub (i64 ptrtoint (ptr @.str.131 to i64), i64 ptrtoint (ptr @switch.table._ZNK13proj_nlohmann10basic_jsonISt3mapSt6vectorNSt7__cxx1112basic_stringIcSt11char_traitsIcESaIcEEEblmdSaNS_14adl_serializerES2_IhSaIhEEE9type_nameEv.rel to i64)) to i32), i32 trunc (i64 sub (i64 ptrtoint (ptr @.str.134 to i64), i64 ptrtoint (ptr @switch.table._ZNK13proj_nlohmann10basic_jsonISt3mapSt6vectorNSt7__cxx1112basic_stringIcSt11char_traitsIcESaIcEEEblmdSaNS_14adl_serializerES2_IhSaIhEEE9type_nameEv.rel to i64)) to i32), i32 trunc (i64 sub (i64 ptrtoint (ptr @.str.134 to i64), i64 ptrtoint (ptr @switch.table._ZNK13proj_nlohmann10basic_jsonISt3mapSt6vectorNSt7__cxx1112basic_stringIcSt11char_traitsIcESaIcEEEblmdSaNS_14adl_serializerES2_IhSaIhEEE9type_nameEv.rel to i64)) to i32), i32 trunc (i64 sub (i64 ptrtoint (ptr @.str.134 to i64), i64 ptrtoint (ptr @switch.table._ZNK13proj_nlohmann10basic_jsonISt3mapSt6vectorNSt7__cxx1112basic_stringIcSt11char_traitsIcESaIcEEEblmdSaNS_14adl_serializerES2_IhSaIhEEE9type_nameEv.rel to i64)) to i32), i32 trunc (i64 sub (i64 ptrtoint (ptr @.str.132 to i64), i64 ptrtoint (ptr @switch.table._ZNK13proj_nlohmann10basic_jsonISt3mapSt6vectorNSt7__cxx1112basic_stringIcSt11char_traitsIcESaIcEEEblmdSaNS_14adl_serializerES2_IhSaIhEEE9type_nameEv.rel to i64)) to i32), i32 trunc (i64 sub (i64 ptrtoint (ptr @.str.133 to i64), i64 ptrtoint (ptr @switch.table._ZNK13proj_nlohmann10basic_jsonISt3mapSt6vectorNSt7__cxx1112basic_stringIcSt11char_traitsIcESaIcEEEblmdSaNS_14adl_serializerES2_IhSaIhEEE9type_nameEv.rel to i64)) to i32)], align 4
@switch.table._ZN13proj_nlohmann6detail6parserINS_10basic_jsonISt3mapSt6vectorNSt7__cxx1112basic_stringIcSt11char_traitsIcESaIcEEEblmdSaNS_14adl_serializerES4_IhSaIhEEEENS0_22iterator_input_adapterIN9__gnu_cxx17__normal_iteratorIPKcSA_EEEEE17exception_messageENS0_10lexer_baseISE_E10token_typeERKSA_.rel = private unnamed_addr constant [17 x i32] [i32 trunc (i64 sub (i64 ptrtoint (ptr @.str.230 to i64), i64 ptrtoint (ptr @switch.table._ZN13proj_nlohmann6detail6parserINS_10basic_jsonISt3mapSt6vectorNSt7__cxx1112basic_stringIcSt11char_traitsIcESaIcEEEblmdSaNS_14adl_serializerES4_IhSaIhEEEENS0_22iterator_input_adapterIN9__gnu_cxx17__normal_iteratorIPKcSA_EEEEE17exception_messageENS0_10lexer_baseISE_E10token_typeERKSA_.rel to i64)) to i32), i32 trunc (i64 sub (i64 ptrtoint (ptr @.str.231 to i64), i64 ptrtoint (ptr @switch.table._ZN13proj_nlohmann6detail6parserINS_10basic_jsonISt3mapSt6vectorNSt7__cxx1112basic_stringIcSt11char_traitsIcESaIcEEEblmdSaNS_14adl_serializerES4_IhSaIhEEEENS0_22iterator_input_adapterIN9__gnu_cxx17__normal_iteratorIPKcSA_EEEEE17exception_messageENS0_10lexer_baseISE_E10token_typeERKSA_.rel to i64)) to i32), i32 trunc (i64 sub (i64 ptrtoint (ptr @.str.232 to i64), i64 ptrtoint (ptr @switch.table._ZN13proj_nlohmann6detail6parserINS_10basic_jsonISt3mapSt6vectorNSt7__cxx1112basic_stringIcSt11char_traitsIcESaIcEEEblmdSaNS_14adl_serializerES4_IhSaIhEEEENS0_22iterator_input_adapterIN9__gnu_cxx17__normal_iteratorIPKcSA_EEEEE17exception_messageENS0_10lexer_baseISE_E10token_typeERKSA_.rel to i64)) to i32), i32 trunc (i64 sub (i64 ptrtoint (ptr @.str.233 to i64), i64 ptrtoint (ptr @switch.table._ZN13proj_nlohmann6detail6parserINS_10basic_jsonISt3mapSt6vectorNSt7__cxx1112basic_stringIcSt11char_traitsIcESaIcEEEblmdSaNS_14adl_serializerES4_IhSaIhEEEENS0_22iterator_input_adapterIN9__gnu_cxx17__normal_iteratorIPKcSA_EEEEE17exception_messageENS0_10lexer_baseISE_E10token_typeERKSA_.rel to i64)) to i32), i32 trunc (i64 sub (i64 ptrtoint (ptr @.str.234 to i64), i64 ptrtoint (ptr @switch.table._ZN13proj_nlohmann6detail6parserINS_10basic_jsonISt3mapSt6vectorNSt7__cxx1112basic_stringIcSt11char_traitsIcESaIcEEEblmdSaNS_14adl_serializerES4_IhSaIhEEEENS0_22iterator_input_adapterIN9__gnu_cxx17__normal_iteratorIPKcSA_EEEEE17exception_messageENS0_10lexer_baseISE_E10token_typeERKSA_.rel to i64)) to i32), i32 trunc (i64 sub (i64 ptrtoint (ptr @.str.235 to i64), i64 ptrtoint (ptr @switch.table._ZN13proj_nlohmann6detail6parserINS_10basic_jsonISt3mapSt6vectorNSt7__cxx1112basic_stringIcSt11char_traitsIcESaIcEEEblmdSaNS_14adl_serializerES4_IhSaIhEEEENS0_22iterator_input_adapterIN9__gnu_cxx17__normal_iteratorIPKcSA_EEEEE17exception_messageENS0_10lexer_baseISE_E10token_typeERKSA_.rel to i64)) to i32), i32 trunc (i64 sub (i64 ptrtoint (ptr @.str.235 to i64), i64 ptrtoint (ptr @switch.table._ZN13proj_nlohmann6detail6parserINS_10basic_jsonISt3mapSt6vectorNSt7__cxx1112basic_stringIcSt11char_traitsIcESaIcEEEblmdSaNS_14adl_serializerES4_IhSaIhEEEENS0_22iterator_input_adapterIN9__gnu_cxx17__normal_iteratorIPKcSA_EEEEE17exception_messageENS0_10lexer_baseISE_E10token_typeERKSA_.rel to i64)) to i32), i32 trunc (i64 sub (i64 ptrtoint (ptr @.str.235 to i64), i64 ptrtoint (ptr @switch.table._ZN13proj_nlohmann6detail6parserINS_10basic_jsonISt3mapSt6vectorNSt7__cxx1112basic_stringIcSt11char_traitsIcESaIcEEEblmdSaNS_14adl_serializerES4_IhSaIhEEEENS0_22iterator_input_adapterIN9__gnu_cxx17__normal_iteratorIPKcSA_EEEEE17exception_messageENS0_10lexer_baseISE_E10token_typeERKSA_.rel to i64)) to i32), i32 trunc (i64 sub (i64 ptrtoint (ptr @.str.236 to i64), i64 ptrtoint (ptr @switch.table._ZN13proj_nlohmann6detail6parserINS_10basic_jsonISt3mapSt6vectorNSt7__cxx1112basic_stringIcSt11char_traitsIcESaIcEEEblmdSaNS_14adl_serializerES4_IhSaIhEEEENS0_22iterator_input_adapterIN9__gnu_cxx17__normal_iteratorIPKcSA_EEEEE17exception_messageENS0_10lexer_baseISE_E10token_typeERKSA_.rel to i64)) to i32), i32 trunc (i64 sub (i64 ptrtoint (ptr @.str.237 to i64), i64 ptrtoint (ptr @switch.table._ZN13proj_nlohmann6detail6parserINS_10basic_jsonISt3mapSt6vectorNSt7__cxx1112basic_stringIcSt11char_traitsIcESaIcEEEblmdSaNS_14adl_serializerES4_IhSaIhEEEENS0_22iterator_input_adapterIN9__gnu_cxx17__normal_iteratorIPKcSA_EEEEE17exception_messageENS0_10lexer_baseISE_E10token_typeERKSA_.rel to i64)) to i32), i32 trunc (i64 sub (i64 ptrtoint (ptr @.str.238 to i64), i64 ptrtoint (ptr @switch.table._ZN13proj_nlohmann6detail6parserINS_10basic_jsonISt3mapSt6vectorNSt7__cxx1112basic_stringIcSt11char_traitsIcESaIcEEEblmdSaNS_14adl_serializerES4_IhSaIhEEEENS0_22iterator_input_adapterIN9__gnu_cxx17__normal_iteratorIPKcSA_EEEEE17exception_messageENS0_10lexer_baseISE_E10token_typeERKSA_.rel to i64)) to i32), i32 trunc (i64 sub (i64 ptrtoint (ptr @.str.239 to i64), i64 ptrtoint (ptr @switch.table._ZN13proj_nlohmann6detail6parserINS_10basic_jsonISt3mapSt6vectorNSt7__cxx1112basic_stringIcSt11char_traitsIcESaIcEEEblmdSaNS_14adl_serializerES4_IhSaIhEEEENS0_22iterator_input_adapterIN9__gnu_cxx17__normal_iteratorIPKcSA_EEEEE17exception_messageENS0_10lexer_baseISE_E10token_typeERKSA_.rel to i64)) to i32), i32 trunc (i64 sub (i64 ptrtoint (ptr @.str.240 to i64), i64 ptrtoint (ptr @switch.table._ZN13proj_nlohmann6detail6parserINS_10basic_jsonISt3mapSt6vectorNSt7__cxx1112basic_stringIcSt11char_traitsIcESaIcEEEblmdSaNS_14adl_serializerES4_IhSaIhEEEENS0_22iterator_input_adapterIN9__gnu_cxx17__normal_iteratorIPKcSA_EEEEE17exception_messageENS0_10lexer_baseISE_E10token_typeERKSA_.rel to i64)) to i32), i32 trunc (i64 sub (i64 ptrtoint (ptr @.str.241 to i64), i64 ptrtoint (ptr @switch.table._ZN13proj_nlohmann6detail6parserINS_10basic_jsonISt3mapSt6vectorNSt7__cxx1112basic_stringIcSt11char_traitsIcESaIcEEEblmdSaNS_14adl_serializerES4_IhSaIhEEEENS0_22iterator_input_adapterIN9__gnu_cxx17__normal_iteratorIPKcSA_EEEEE17exception_messageENS0_10lexer_baseISE_E10token_typeERKSA_.rel to i64)) to i32), i32 trunc (i64 sub (i64 ptrtoint (ptr @.str.245 to i64), i64 ptrtoint (ptr @switch.table._ZN13proj_nlohmann6detail6parserINS_10basic_jsonISt3mapSt6vectorNSt7__cxx1112basic_stringIcSt11char_traitsIcESaIcEEEblmdSaNS_14adl_serializerES4_IhSaIhEEEENS0_22iterator_input_adapterIN9__gnu_cxx17__normal_iteratorIPKcSA_EEEEE17exception_messageENS0_10lexer_baseISE_E10token_typeERKSA_.rel to i64)) to i32), i32 trunc (i64 sub (i64 ptrtoint (ptr @.str.243 to i64), i64 ptrtoint (ptr @switch.table._ZN13proj_nlohmann6detail6parserINS_10basic_jsonISt3mapSt6vectorNSt7__cxx1112basic_stringIcSt11char_traitsIcESaIcEEEblmdSaNS_14adl_serializerES4_IhSaIhEEEENS0_22iterator_input_adapterIN9__gnu_cxx17__normal_iteratorIPKcSA_EEEEE17exception_messageENS0_10lexer_baseISE_E10token_typeERKSA_.rel to i64)) to i32), i32 trunc (i64 sub (i64 ptrtoint (ptr @.str.244 to i64), i64 ptrtoint (ptr @switch.table._ZN13proj_nlohmann6detail6parserINS_10basic_jsonISt3mapSt6vectorNSt7__cxx1112basic_stringIcSt11char_traitsIcESaIcEEEblmdSaNS_14adl_serializerES4_IhSaIhEEEENS0_22iterator_input_adapterIN9__gnu_cxx17__normal_iteratorIPKcSA_EEEEE17exception_messageENS0_10lexer_baseISE_E10token_typeERKSA_.rel to i64)) to i32)], align 4
@switch.table._ZN13proj_nlohmann6detail6parserINS_10basic_jsonISt3mapSt6vectorNSt7__cxx1112basic_stringIcSt11char_traitsIcESaIcEEEblmdSaNS_14adl_serializerES4_IhSaIhEEEENS0_22iterator_input_adapterIN9__gnu_cxx17__normal_iteratorIPKcSA_EEEEE17exception_messageENS0_10lexer_baseISE_E10token_typeERKSA_.388.rel = private unnamed_addr constant [16 x i32] [i32 trunc (i64 sub (i64 ptrtoint (ptr @.str.231 to i64), i64 ptrtoint (ptr @switch.table._ZN13proj_nlohmann6detail6parserINS_10basic_jsonISt3mapSt6vectorNSt7__cxx1112basic_stringIcSt11char_traitsIcESaIcEEEblmdSaNS_14adl_serializerES4_IhSaIhEEEENS0_22iterator_input_adapterIN9__gnu_cxx17__normal_iteratorIPKcSA_EEEEE17exception_messageENS0_10lexer_baseISE_E10token_typeERKSA_.388.rel to i64)) to i32), i32 trunc (i64 sub (i64 ptrtoint (ptr @.str.232 to i64), i64 ptrtoint (ptr @switch.table._ZN13proj_nlohmann6detail6parserINS_10basic_jsonISt3mapSt6vectorNSt7__cxx1112basic_stringIcSt11char_traitsIcESaIcEEEblmdSaNS_14adl_serializerES4_IhSaIhEEEENS0_22iterator_input_adapterIN9__gnu_cxx17__normal_iteratorIPKcSA_EEEEE17exception_messageENS0_10lexer_baseISE_E10token_typeERKSA_.388.rel to i64)) to i32), i32 trunc (i64 sub (i64 ptrtoint (ptr @.str.233 to i64), i64 ptrtoint (ptr @switch.table._ZN13proj_nlohmann6detail6parserINS_10basic_jsonISt3mapSt6vectorNSt7__cxx1112basic_stringIcSt11char_traitsIcESaIcEEEblmdSaNS_14adl_serializerES4_IhSaIhEEEENS0_22iterator_input_adapterIN9__gnu_cxx17__normal_iteratorIPKcSA_EEEEE17exception_messageENS0_10lexer_baseISE_E10token_typeERKSA_.388.rel to i64)) to i32), i32 trunc (i64 sub (i64 ptrtoint (ptr @.str.234 to i64), i64 ptrtoint (ptr @switch.table._ZN13proj_nlohmann6detail6parserINS_10basic_jsonISt3mapSt6vectorNSt7__cxx1112basic_stringIcSt11char_traitsIcESaIcEEEblmdSaNS_14adl_serializerES4_IhSaIhEEEENS0_22iterator_input_adapterIN9__gnu_cxx17__normal_iteratorIPKcSA_EEEEE17exception_messageENS0_10lexer_baseISE_E10token_typeERKSA_.388.rel to i64)) to i32), i32 trunc (i64 sub (i64 ptrtoint (ptr @.str.235 to i64), i64 ptrtoint (ptr @switch.table._ZN13proj_nlohmann6detail6parserINS_10basic_jsonISt3mapSt6vectorNSt7__cxx1112basic_stringIcSt11char_traitsIcESaIcEEEblmdSaNS_14adl_serializerES4_IhSaIhEEEENS0_22iterator_input_adapterIN9__gnu_cxx17__normal_iteratorIPKcSA_EEEEE17exception_messageENS0_10lexer_baseISE_E10token_typeERKSA_.388.rel to i64)) to i32), i32 trunc (i64 sub (i64 ptrtoint (ptr @.str.235 to i64), i64 ptrtoint (ptr @switch.table._ZN13proj_nlohmann6detail6parserINS_10basic_jsonISt3mapSt6vectorNSt7__cxx1112basic_stringIcSt11char_traitsIcESaIcEEEblmdSaNS_14adl_serializerES4_IhSaIhEEEENS0_22iterator_input_adapterIN9__gnu_cxx17__normal_iteratorIPKcSA_EEEEE17exception_messageENS0_10lexer_baseISE_E10token_typeERKSA_.388.rel to i64)) to i32), i32 trunc (i64 sub (i64 ptrtoint (ptr @.str.235 to i64), i64 ptrtoint (ptr @switch.table._ZN13proj_nlohmann6detail6parserINS_10basic_jsonISt3mapSt6vectorNSt7__cxx1112basic_stringIcSt11char_traitsIcESaIcEEEblmdSaNS_14adl_serializerES4_IhSaIhEEEENS0_22iterator_input_adapterIN9__gnu_cxx17__normal_iteratorIPKcSA_EEEEE17exception_messageENS0_10lexer_baseISE_E10token_typeERKSA_.388.rel to i64)) to i32), i32 trunc (i64 sub (i64 ptrtoint (ptr @.str.236 to i64), i64 ptrtoint (ptr @switch.table._ZN13proj_nlohmann6detail6parserINS_10basic_jsonISt3mapSt6vectorNSt7__cxx1112basic_stringIcSt11char_traitsIcESaIcEEEblmdSaNS_14adl_serializerES4_IhSaIhEEEENS0_22iterator_input_adapterIN9__gnu_cxx17__normal_iteratorIPKcSA_EEEEE17exception_messageENS0_10lexer_baseISE_E10token_typeERKSA_.388.rel to i64)) to i32), i32 trunc (i64 sub (i64 ptrtoint (ptr @.str.237 to i64), i64 ptrtoint (ptr @switch.table._ZN13proj_nlohmann6detail6parserINS_10basic_jsonISt3mapSt6vectorNSt7__cxx1112basic_stringIcSt11char_traitsIcESaIcEEEblmdSaNS_14adl_serializerES4_IhSaIhEEEENS0_22iterator_input_adapterIN9__gnu_cxx17__normal_iteratorIPKcSA_EEEEE17exception_messageENS0_10lexer_baseISE_E10token_typeERKSA_.388.rel to i64)) to i32), i32 trunc (i64 sub (i64 ptrtoint (ptr @.str.238 to i64), i64 ptrtoint (ptr @switch.table._ZN13proj_nlohmann6detail6parserINS_10basic_jsonISt3mapSt6vectorNSt7__cxx1112basic_stringIcSt11char_traitsIcESaIcEEEblmdSaNS_14adl_serializerES4_IhSaIhEEEENS0_22iterator_input_adapterIN9__gnu_cxx17__normal_iteratorIPKcSA_EEEEE17exception_messageENS0_10lexer_baseISE_E10token_typeERKSA_.388.rel to i64)) to i32), i32 trunc (i64 sub (i64 ptrtoint (ptr @.str.239 to i64), i64 ptrtoint (ptr @switch.table._ZN13proj_nlohmann6detail6parserINS_10basic_jsonISt3mapSt6vectorNSt7__cxx1112basic_stringIcSt11char_traitsIcESaIcEEEblmdSaNS_14adl_serializerES4_IhSaIhEEEENS0_22iterator_input_adapterIN9__gnu_cxx17__normal_iteratorIPKcSA_EEEEE17exception_messageENS0_10lexer_baseISE_E10token_typeERKSA_.388.rel to i64)) to i32), i32 trunc (i64 sub (i64 ptrtoint (ptr @.str.240 to i64), i64 ptrtoint (ptr @switch.table._ZN13proj_nlohmann6detail6parserINS_10basic_jsonISt3mapSt6vectorNSt7__cxx1112basic_stringIcSt11char_traitsIcESaIcEEEblmdSaNS_14adl_serializerES4_IhSaIhEEEENS0_22iterator_input_adapterIN9__gnu_cxx17__normal_iteratorIPKcSA_EEEEE17exception_messageENS0_10lexer_baseISE_E10token_typeERKSA_.388.rel to i64)) to i32), i32 trunc (i64 sub (i64 ptrtoint (ptr @.str.241 to i64), i64 ptrtoint (ptr @switch.table._ZN13proj_nlohmann6detail6parserINS_10basic_jsonISt3mapSt6vectorNSt7__cxx1112basic_stringIcSt11char_traitsIcESaIcEEEblmdSaNS_14adl_serializerES4_IhSaIhEEEENS0_22iterator_input_adapterIN9__gnu_cxx17__normal_iteratorIPKcSA_EEEEE17exception_messageENS0_10lexer_baseISE_E10token_typeERKSA_.388.rel to i64)) to i32), i32 trunc (i64 sub (i64 ptrtoint (ptr @.str.242 to i64), i64 ptrtoint (ptr @switch.table._ZN13proj_nlohmann6detail6parserINS_10basic_jsonISt3mapSt6vectorNSt7__cxx1112basic_stringIcSt11char_traitsIcESaIcEEEblmdSaNS_14adl_serializerES4_IhSaIhEEEENS0_22iterator_input_adapterIN9__gnu_cxx17__normal_iteratorIPKcSA_EEEEE17exception_messageENS0_10lexer_baseISE_E10token_typeERKSA_.388.rel to i64)) to i32), i32 trunc (i64 sub (i64 ptrtoint (ptr @.str.243 to i64), i64 ptrtoint (ptr @switch.table._ZN13proj_nlohmann6detail6parserINS_10basic_jsonISt3mapSt6vectorNSt7__cxx1112basic_stringIcSt11char_traitsIcESaIcEEEblmdSaNS_14adl_serializerES4_IhSaIhEEEENS0_22iterator_input_adapterIN9__gnu_cxx17__normal_iteratorIPKcSA_EEEEE17exception_messageENS0_10lexer_baseISE_E10token_typeERKSA_.388.rel to i64)) to i32), i32 trunc (i64 sub (i64 ptrtoint (ptr @.str.244 to i64), i64 ptrtoint (ptr @switch.table._ZN13proj_nlohmann6detail6parserINS_10basic_jsonISt3mapSt6vectorNSt7__cxx1112basic_stringIcSt11char_traitsIcESaIcEEEblmdSaNS_14adl_serializerES4_IhSaIhEEEENS0_22iterator_input_adapterIN9__gnu_cxx17__normal_iteratorIPKcSA_EEEEE17exception_messageENS0_10lexer_baseISE_E10token_typeERKSA_.388.rel to i64)) to i32)], align 4
@switch.table._ZN13proj_nlohmann6detail19json_sax_dom_parserINS_10basic_jsonISt3mapSt6vectorNSt7__cxx1112basic_stringIcSt11char_traitsIcESaIcEEEblmdSaNS_14adl_serializerES4_IhSaIhEEEEE11start_arrayEm = private unnamed_addr constant [3 x i64] [i64 0, i64 115292150460684697, i64 576460752303423487], align 8

@_ZN16DeformationModel9Component12TimeFunctionD1Ev = hidden unnamed_addr alias void (ptr), ptr @_ZN16DeformationModel9Component12TimeFunctionD2Ev
@_ZN16DeformationModel5EpochC1ERKNSt7__cxx1112basic_stringIcSt11char_traitsIcESaIcEEE = hidden unnamed_addr alias void (ptr, ptr), ptr @_ZN16DeformationModel5EpochC2ERKNSt7__cxx1112basic_stringIcSt11char_traitsIcESaIcEEE

; Function Attrs: mustprogress nofree norecurse nosync nounwind sspstrong willreturn memory(argmem: read) uwtable
define hidden noundef ptr @_ZNK16DeformationModel16ParsingException4whatEv(ptr noundef nonnull readonly align 8 captures(none) dereferenceable(40) %0) unnamed_addr #0 align 2 {
  %2 = getelementptr inbounds nuw i8, ptr %0, i64 8
  %3 = load ptr, ptr %2, align 8, !tbaa !4
  ret ptr %3
}

; Function Attrs: mustprogress nofree norecurse nosync nounwind sspstrong willreturn memory(argmem: read) uwtable
define hidden noundef ptr @_ZNK16DeformationModel22UnimplementedException4whatEv(ptr noundef nonnull readonly align 8 captures(none) dereferenceable(40) %0) unnamed_addr #0 align 2 {
  %2 = getelementptr inbounds nuw i8, ptr %0, i64 8
  %3 = load ptr, ptr %2, align 8, !tbaa !4
  ret ptr %3
}

; Function Attrs: mustprogress nofree norecurse nosync nounwind sspstrong willreturn memory(argmem: read) uwtable
define hidden noundef ptr @_ZNK16DeformationModel18EvaluatorException4whatEv(ptr noundef nonnull readonly align 8 captures(none) dereferenceable(40) %0) unnamed_addr #0 align 2 {
  %2 = getelementptr inbounds nuw i8, ptr %0, i64 8
  %3 = load ptr, ptr %2, align 8, !tbaa !4
  ret ptr %3
}

; Function Attrs: mustprogress nounwind sspstrong uwtable
declare void @_ZNSt7__cxx1112basic_stringIcSt11char_traitsIcESaIcEED2Ev(ptr noundef nonnull align 8 dereferenceable(32)) unnamed_addr #1 align 2

; Function Attrs: cold mustprogress noreturn nounwind sspstrong memory(inaccessiblemem: write) uwtable
define hidden void @_ZN16DeformationModel9Component12TimeFunctionD0Ev(ptr nonnull readnone align 8 captures(none) %0) unnamed_addr #2 align 2 {
  tail call void @llvm.trap() #37
  unreachable
}

; Function Attrs: cold noreturn nounwind memory(inaccessiblemem: write)
declare void @llvm.trap() #3

; Function Attrs: mustprogress sspstrong uwtable
define linkonce_odr void @_ZNSt7__cxx1112basic_stringIcSt11char_traitsIcESaIcEEC2IS3_EEPKcRKS3_(ptr noundef nonnull align 8 dereferenceable(32) %0, ptr noundef %1, ptr noundef nonnull align 1 dereferenceable(1) %2) unnamed_addr #4 comdat align 2 personality ptr @__gxx_personality_v0 {
  %4 = alloca i64, align 8
  %5 = getelementptr inbounds nuw i8, ptr %0, i64 16
  store ptr %5, ptr %0, align 8, !tbaa !12
  %6 = icmp eq ptr %1, null
  br i1 %6, label %7, label %8

7:                                                ; preds = %3
  tail call void @_ZSt19__throw_logic_errorPKc(ptr noundef nonnull @.str.147) #11
  unreachable

8:                                                ; preds = %3
  %9 = tail call noundef i64 @strlen(ptr noundef nonnull dereferenceable(1) %1) #38
  call void @llvm.lifetime.start.p0(ptr %4)
  store i64 %9, ptr %4, align 8, !tbaa !13
  %10 = icmp ugt i64 %9, 15
  br i1 %10, label %11, label %14

11:                                               ; preds = %8
  %12 = call noundef ptr @_ZNSt7__cxx1112basic_stringIcSt11char_traitsIcESaIcEE9_M_createERmm(ptr noundef nonnull align 8 dereferenceable(32) %0, ptr noundef nonnull align 8 dereferenceable(8) %4, i64 noundef 0)
  store ptr %12, ptr %0, align 8, !tbaa !4
  %13 = load i64, ptr %4, align 8, !tbaa !13
  store i64 %13, ptr %5, align 8, !tbaa !14
  br label %14

14:                                               ; preds = %11, %8
  %15 = phi ptr [ %12, %11 ], [ %5, %8 ]
  switch i64 %9, label %18 [
    i64 1, label %16
    i64 0, label %19
  ]

16:                                               ; preds = %14
  %17 = load i8, ptr %1, align 1, !tbaa !14
  store i8 %17, ptr %15, align 1, !tbaa !14
  br label %19

18:                                               ; preds = %14
  call void @llvm.memcpy.p0.p0.i64(ptr align 1 %15, ptr nonnull align 1 %1, i64 %9, i1 false)
  br label %19

19:                                               ; preds = %18, %16, %14
  %20 = load i64, ptr %4, align 8, !tbaa !13
  %21 = getelementptr inbounds nuw i8, ptr %0, i64 8
  store i64 %20, ptr %21, align 8, !tbaa !15
  %22 = load ptr, ptr %0, align 8, !tbaa !4
  %23 = getelementptr inbounds nuw i8, ptr %22, i64 %20
  store i8 0, ptr %23, align 1, !tbaa !14
  call void @llvm.lifetime.end.p0(ptr %4)
  ret void
}

declare i32 @__gxx_personality_v0(...)

; Function Attrs: nofree nounwind
declare i32 @__cxa_atexit(ptr, ptr, ptr) local_unnamed_addr #5

; Function Attrs: mustprogress sspstrong uwtable
define hidden void @_ZN16DeformationModel5EpochC2ERKNSt7__cxx1112basic_stringIcSt11char_traitsIcESaIcEEE(ptr noundef nonnull align 8 dereferenceable(40) %0, ptr noundef nonnull align 8 dereferenceable(32) %1) unnamed_addr #4 align 2 personality ptr @__gxx_personality_v0 {
  %3 = alloca i32, align 4
  %4 = alloca i32, align 4
  %5 = alloca i32, align 4
  %6 = alloca i32, align 4
  %7 = alloca i32, align 4
  %8 = alloca i32, align 4
  %9 = alloca %"class.std::__cxx11::basic_string", align 8
  %10 = alloca %"class.std::__cxx11::basic_string", align 8
  %11 = alloca i64, align 8
  %12 = getelementptr inbounds nuw i8, ptr %0, i64 16
  store ptr %12, ptr %0, align 8, !tbaa !12
  %13 = load ptr, ptr %1, align 8, !tbaa !4
  %14 = getelementptr inbounds nuw i8, ptr %1, i64 8
  %15 = load i64, ptr %14, align 8, !tbaa !15
  %16 = icmp ult i64 %15, 9223372036854775807
  tail call void @llvm.assume(i1 %16)
  call void @llvm.lifetime.start.p0(ptr %11)
  store i64 %15, ptr %11, align 8, !tbaa !13
  %17 = icmp samesign ugt i64 %15, 15
  br i1 %17, label %18, label %21

18:                                               ; preds = %2
  %19 = call noundef ptr @_ZNSt7__cxx1112basic_stringIcSt11char_traitsIcESaIcEE9_M_createERmm(ptr noundef nonnull align 8 dereferenceable(32) %0, ptr noundef nonnull align 8 dereferenceable(8) %11, i64 noundef 0)
  store ptr %19, ptr %0, align 8, !tbaa !4
  %20 = load i64, ptr %11, align 8, !tbaa !13
  store i64 %20, ptr %12, align 8, !tbaa !14
  br label %21

21:                                               ; preds = %18, %2
  %22 = phi i64 [ %20, %18 ], [ %15, %2 ]
  %23 = phi ptr [ %19, %18 ], [ %12, %2 ]
  switch i64 %22, label %26 [
    i64 0, label %24
    i64 -1, label %28
  ]

24:                                               ; preds = %21
  %25 = load i8, ptr %13, align 1, !tbaa !14
  store i8 %25, ptr %23, align 1, !tbaa !14
  br label %28

26:                                               ; preds = %21
  %27 = add nuw i64 %22, 1
  call void @llvm.memcpy.p0.p0.i64(ptr noundef nonnull align 1 dereferenceable(1) %23, ptr noundef nonnull align 1 dereferenceable(1) %13, i64 %27, i1 false)
  br label %28

28:                                               ; preds = %26, %24, %21
  %29 = load i64, ptr %11, align 8, !tbaa !13
  %30 = getelementptr inbounds nuw i8, ptr %0, i64 8
  store i64 %29, ptr %30, align 8, !tbaa !15
  call void @llvm.lifetime.end.p0(ptr %11)
  %31 = getelementptr inbounds nuw i8, ptr %0, i64 32
  store double 0.000000e+00, ptr %31, align 8, !tbaa !16
  %32 = load i64, ptr %14, align 8, !tbaa !15
  %33 = icmp eq i64 %32, 0
  br i1 %33, label %190, label %34

34:                                               ; preds = %28
  call void @llvm.lifetime.start.p0(ptr %3)
  call void @llvm.lifetime.start.p0(ptr %4)
  call void @llvm.lifetime.start.p0(ptr %5)
  call void @llvm.lifetime.start.p0(ptr %6)
  call void @llvm.lifetime.start.p0(ptr %7)
  call void @llvm.lifetime.start.p0(ptr %8)
  %35 = load ptr, ptr %1, align 8, !tbaa !4
  %36 = call i32 (ptr, ptr, ...) @__isoc23_sscanf(ptr noundef %35, ptr noundef nonnull @.str.113, ptr noundef nonnull %3, ptr noundef nonnull %4, ptr noundef nonnull %5, ptr noundef nonnull %6, ptr noundef nonnull %7, ptr noundef nonnull %8) #38
  %37 = icmp ne i32 %36, 6
  %38 = load i32, ptr %3, align 4
  %39 = icmp slt i32 %38, 1582
  %40 = select i1 %37, i1 true, i1 %39
  %41 = load i32, ptr %4, align 4
  %42 = add i32 %41, -13
  %43 = icmp ult i32 %42, -12
  %44 = select i1 %40, i1 true, i1 %43
  %45 = load i32, ptr %5, align 4
  %46 = add i32 %45, -32
  %47 = icmp ult i32 %46, -31
  %48 = select i1 %44, i1 true, i1 %47
  %49 = load i32, ptr %6, align 4
  %50 = icmp ugt i32 %49, 23
  %51 = select i1 %48, i1 true, i1 %50
  %52 = load i32, ptr %7, align 4
  %53 = icmp ugt i32 %52, 59
  %54 = select i1 %51, i1 true, i1 %53
  %55 = load i32, ptr %8, align 4
  %56 = icmp ugt i32 %55, 60
  %57 = select i1 %54, i1 true, i1 %56
  br i1 %57, label %58, label %77

58:                                               ; preds = %34
  %59 = call ptr @__cxa_allocate_exception(i64 40) #38
  call void @llvm.lifetime.start.p0(ptr %9)
  invoke void @_ZStplIcSt11char_traitsIcESaIcEENSt7__cxx1112basic_stringIT_T0_T1_EEPKS5_RKS8_(ptr dead_on_unwind nonnull writable sret(%"class.std::__cxx11::basic_string") align 8 %9, ptr noundef nonnull @.str.114, ptr noundef nonnull align 8 dereferenceable(32) %1)
          to label %60 unwind label %62

60:                                               ; preds = %58
  invoke void @_ZN16DeformationModel16ParsingExceptionC2ERKNSt7__cxx1112basic_stringIcSt11char_traitsIcESaIcEEE(ptr noundef nonnull align 8 dereferenceable(40) %59, ptr noundef nonnull align 8 dereferenceable(32) %9)
          to label %61 unwind label %64

61:                                               ; preds = %60
  invoke void @__cxa_throw(ptr nonnull %59, ptr nonnull @_ZTIN16DeformationModel16ParsingExceptionE, ptr nonnull @_ZN16DeformationModel16ParsingExceptionD2Ev) #39
          to label %170 unwind label %64

62:                                               ; preds = %58
  %63 = landingpad { ptr, i32 }
          cleanup
  call void @llvm.lifetime.end.p0(ptr %9)
  br label %163

64:                                               ; preds = %61, %60
  %65 = phi i1 [ false, %61 ], [ true, %60 ]
  %66 = landingpad { ptr, i32 }
          cleanup
  %67 = load ptr, ptr %9, align 8, !tbaa !4
  %68 = getelementptr inbounds nuw i8, ptr %9, i64 16
  %69 = icmp eq ptr %67, %68
  br i1 %69, label %70, label %74

70:                                               ; preds = %64
  %71 = getelementptr inbounds nuw i8, ptr %9, i64 8
  %72 = load i64, ptr %71, align 8, !tbaa !15
  %73 = icmp ult i64 %72, 16
  call void @llvm.assume(i1 %73)
  call void @llvm.lifetime.end.p0(ptr %9)
  br i1 %65, label %163, label %166

74:                                               ; preds = %64
  %75 = load i64, ptr %68, align 8, !tbaa !14
  %76 = add i64 %75, 1
  call void @_ZdlPvm(ptr noundef %67, i64 noundef %76) #40
  call void @llvm.lifetime.end.p0(ptr %9)
  br i1 %65, label %163, label %166

77:                                               ; preds = %34
  %78 = and i32 %38, 3
  %79 = icmp ne i32 %78, 0
  %80 = urem i32 %38, 100
  %81 = icmp eq i32 %80, 0
  %82 = or i1 %79, %81
  br i1 %82, label %83, label %86

83:                                               ; preds = %77
  %84 = urem i32 %38, 400
  %85 = icmp eq i32 %84, 0
  br label %86

86:                                               ; preds = %83, %77
  %87 = phi i1 [ %85, %83 ], [ true, %77 ]
  %88 = add nsw i32 %45, -1
  %89 = icmp samesign ugt i32 %41, 1
  %90 = zext i1 %87 to i64
  br i1 %89, label %91, label %115

91:                                               ; preds = %86
  %92 = zext nneg i32 %41 to i64
  %93 = add nsw i64 %92, -1
  %94 = and i64 %93, 3
  %95 = add nsw i32 %41, -2
  %96 = icmp ult i32 %95, 3
  br i1 %96, label %99, label %97

97:                                               ; preds = %91
  %98 = and i64 %93, -4
  br label %122

99:                                               ; preds = %122, %91
  %100 = phi i32 [ poison, %91 ], [ %140, %122 ]
  %101 = phi i64 [ 1, %91 ], [ %141, %122 ]
  %102 = phi i32 [ %88, %91 ], [ %140, %122 ]
  %103 = icmp eq i64 %94, 0
  br i1 %103, label %115, label %104

104:                                              ; preds = %104, %99
  %105 = phi i64 [ %112, %104 ], [ %101, %99 ]
  %106 = phi i32 [ %111, %104 ], [ %102, %99 ]
  %107 = phi i64 [ %113, %104 ], [ 0, %99 ]
  %108 = add nsw i64 %105, -1
  %109 = getelementptr inbounds [2 x [12 x i32]], ptr @__const._ZN16DeformationModelL20ISO8601ToDecimalYearERKNSt7__cxx1112basic_stringIcSt11char_traitsIcESaIcEEE.month_table, i64 0, i64 %90, i64 %108
  %110 = load i32, ptr %109, align 4, !tbaa !19
  %111 = add nsw i32 %110, %106
  %112 = add nuw nsw i64 %105, 1
  %113 = add i64 %107, 1
  %114 = icmp eq i64 %113, %94
  br i1 %114, label %115, label %104, !llvm.loop !21

115:                                              ; preds = %104, %99, %86
  %116 = phi i32 [ %88, %86 ], [ %100, %99 ], [ %111, %104 ]
  %117 = add nsw i32 %41, -1
  %118 = zext nneg i32 %117 to i64
  %119 = getelementptr inbounds nuw [2 x [12 x i32]], ptr @__const._ZN16DeformationModelL20ISO8601ToDecimalYearERKNSt7__cxx1112basic_stringIcSt11char_traitsIcESaIcEEE.month_table, i64 0, i64 %90, i64 %118
  %120 = load i32, ptr %119, align 4, !tbaa !19
  %121 = icmp sgt i32 %45, %120
  br i1 %121, label %144, label %171

122:                                              ; preds = %122, %97
  %123 = phi i64 [ 1, %97 ], [ %141, %122 ]
  %124 = phi i32 [ %88, %97 ], [ %140, %122 ]
  %125 = phi i64 [ 0, %97 ], [ %142, %122 ]
  %126 = add nsw i64 %123, -1
  %127 = getelementptr inbounds [2 x [12 x i32]], ptr @__const._ZN16DeformationModelL20ISO8601ToDecimalYearERKNSt7__cxx1112basic_stringIcSt11char_traitsIcESaIcEEE.month_table, i64 0, i64 %90, i64 %126
  %128 = load i32, ptr %127, align 4, !tbaa !19
  %129 = add nsw i32 %128, %124
  %130 = getelementptr inbounds nuw [2 x [12 x i32]], ptr @__const._ZN16DeformationModelL20ISO8601ToDecimalYearERKNSt7__cxx1112basic_stringIcSt11char_traitsIcESaIcEEE.month_table, i64 0, i64 %90, i64 %123
  %131 = load i32, ptr %130, align 4, !tbaa !19
  %132 = add nsw i32 %131, %129
  %133 = add nuw nsw i64 %123, 1
  %134 = getelementptr inbounds nuw [2 x [12 x i32]], ptr @__const._ZN16DeformationModelL20ISO8601ToDecimalYearERKNSt7__cxx1112basic_stringIcSt11char_traitsIcESaIcEEE.month_table, i64 0, i64 %90, i64 %133
  %135 = load i32, ptr %134, align 4, !tbaa !19
  %136 = add nsw i32 %135, %132
  %137 = add nuw nsw i64 %123, 2
  %138 = getelementptr inbounds nuw [2 x [12 x i32]], ptr @__const._ZN16DeformationModelL20ISO8601ToDecimalYearERKNSt7__cxx1112basic_stringIcSt11char_traitsIcESaIcEEE.month_table, i64 0, i64 %90, i64 %137
  %139 = load i32, ptr %138, align 4, !tbaa !19
  %140 = add nsw i32 %139, %136
  %141 = add nuw nsw i64 %123, 4
  %142 = add nuw i64 %125, 4
  %143 = icmp eq i64 %142, %98
  br i1 %143, label %99, label %122, !llvm.loop !23

144:                                              ; preds = %115
  %145 = call ptr @__cxa_allocate_exception(i64 40) #38
  call void @llvm.lifetime.start.p0(ptr %10)
  invoke void @_ZStplIcSt11char_traitsIcESaIcEENSt7__cxx1112basic_stringIT_T0_T1_EEPKS5_RKS8_(ptr dead_on_unwind nonnull writable sret(%"class.std::__cxx11::basic_string") align 8 %10, ptr noundef nonnull @.str.114, ptr noundef nonnull align 8 dereferenceable(32) %1)
          to label %146 unwind label %148

146:                                              ; preds = %144
  invoke void @_ZN16DeformationModel16ParsingExceptionC2ERKNSt7__cxx1112basic_stringIcSt11char_traitsIcESaIcEEE(ptr noundef nonnull align 8 dereferenceable(40) %145, ptr noundef nonnull align 8 dereferenceable(32) %10)
          to label %147 unwind label %150

147:                                              ; preds = %146
  invoke void @__cxa_throw(ptr nonnull %145, ptr nonnull @_ZTIN16DeformationModel16ParsingExceptionE, ptr nonnull @_ZN16DeformationModel16ParsingExceptionD2Ev) #39
          to label %170 unwind label %150

148:                                              ; preds = %144
  %149 = landingpad { ptr, i32 }
          cleanup
  call void @llvm.lifetime.end.p0(ptr %10)
  br label %163

150:                                              ; preds = %147, %146
  %151 = phi i1 [ false, %147 ], [ true, %146 ]
  %152 = landingpad { ptr, i32 }
          cleanup
  %153 = load ptr, ptr %10, align 8, !tbaa !4
  %154 = getelementptr inbounds nuw i8, ptr %10, i64 16
  %155 = icmp eq ptr %153, %154
  br i1 %155, label %156, label %160

156:                                              ; preds = %150
  %157 = getelementptr inbounds nuw i8, ptr %10, i64 8
  %158 = load i64, ptr %157, align 8, !tbaa !15
  %159 = icmp ult i64 %158, 16
  call void @llvm.assume(i1 %159)
  call void @llvm.lifetime.end.p0(ptr %10)
  br i1 %151, label %163, label %166

160:                                              ; preds = %150
  %161 = load i64, ptr %154, align 8, !tbaa !14
  %162 = add i64 %161, 1
  call void @_ZdlPvm(ptr noundef %153, i64 noundef %162) #40
  call void @llvm.lifetime.end.p0(ptr %10)
  br i1 %151, label %163, label %166

163:                                              ; preds = %160, %156, %148, %74, %70, %62
  %164 = phi ptr [ %59, %70 ], [ %59, %62 ], [ %59, %74 ], [ %145, %156 ], [ %145, %148 ], [ %145, %160 ]
  %165 = phi { ptr, i32 } [ %66, %70 ], [ %63, %62 ], [ %66, %74 ], [ %152, %156 ], [ %149, %148 ], [ %152, %160 ]
  call void @__cxa_free_exception(ptr %164) #38
  br label %166

166:                                              ; preds = %163, %160, %156, %74, %70
  %167 = phi { ptr, i32 } [ %66, %74 ], [ %152, %160 ], [ %66, %70 ], [ %152, %156 ], [ %165, %163 ]
  call void @llvm.lifetime.end.p0(ptr %8)
  call void @llvm.lifetime.end.p0(ptr %7)
  call void @llvm.lifetime.end.p0(ptr %6)
  call void @llvm.lifetime.end.p0(ptr %5)
  call void @llvm.lifetime.end.p0(ptr %4)
  call void @llvm.lifetime.end.p0(ptr %3)
  %168 = load ptr, ptr %0, align 8, !tbaa !4
  %169 = icmp eq ptr %168, %12
  br i1 %169, label %183, label %186

170:                                              ; preds = %147, %61
  unreachable

171:                                              ; preds = %115
  %172 = sitofp i32 %38 to double
  %173 = mul nsw i32 %116, 86400
  %174 = mul nuw nsw i32 %49, 3600
  %175 = mul nuw nsw i32 %52, 60
  %176 = add nuw nsw i32 %175, %174
  %177 = add nuw nsw i32 %176, %55
  %178 = add i32 %177, %173
  %179 = sitofp i32 %178 to double
  %180 = select i1 %87, double 3.162240e+07, double 3.153600e+07
  %181 = fdiv double %179, %180
  %182 = fadd double %181, %172
  call void @llvm.lifetime.end.p0(ptr %8)
  call void @llvm.lifetime.end.p0(ptr %7)
  call void @llvm.lifetime.end.p0(ptr %6)
  call void @llvm.lifetime.end.p0(ptr %5)
  call void @llvm.lifetime.end.p0(ptr %4)
  call void @llvm.lifetime.end.p0(ptr %3)
  store double %182, ptr %31, align 8, !tbaa !16
  br label %190

183:                                              ; preds = %166
  %184 = load i64, ptr %30, align 8, !tbaa !15
  %185 = icmp ult i64 %184, 16
  call void @llvm.assume(i1 %185)
  br label %189

186:                                              ; preds = %166
  %187 = load i64, ptr %12, align 8, !tbaa !14
  %188 = add i64 %187, 1
  call void @_ZdlPvm(ptr noundef %168, i64 noundef %188) #40
  br label %189

189:                                              ; preds = %186, %183
  resume { ptr, i32 } %167

190:                                              ; preds = %171, %28
  ret void
}

; Function Attrs: mustprogress nofree norecurse nosync nounwind sspstrong willreturn memory(argmem: read) uwtable
define hidden noundef double @_ZNK16DeformationModel5Epoch13toDecimalYearEv(ptr noundef nonnull readonly align 8 captures(none) dereferenceable(40) %0) local_unnamed_addr #0 align 2 {
  %2 = getelementptr inbounds nuw i8, ptr %0, i64 32
  %3 = load double, ptr %2, align 8, !tbaa !16
  ret double %3
}

; Function Attrs: mustprogress sspstrong uwtable
define hidden void @_ZN16DeformationModel10MasterFile5parseERKNSt7__cxx1112basic_stringIcSt11char_traitsIcESaIcEEE(ptr dead_on_unwind noalias writable sret(%"class.std::unique_ptr") align 8 %0, ptr noundef nonnull align 8 dereferenceable(32) %1) local_unnamed_addr #4 align 2 personality ptr @__gxx_personality_v0 {
  %3 = alloca %"class.proj_nlohmann::basic_json", align 8
  %4 = alloca %"class.proj_nlohmann::basic_json", align 8
  %5 = alloca %"class.std::function", align 8
  %6 = alloca %"class.std::__cxx11::basic_string", align 8
  %7 = alloca %"class.std::allocator", align 1
  %8 = alloca %"class.std::__cxx11::basic_string", align 8
  %9 = alloca %"class.std::allocator", align 1
  %10 = alloca %"class.std::__cxx11::basic_string", align 8
  %11 = alloca %"class.std::__cxx11::basic_string", align 8
  %12 = alloca %"class.std::__cxx11::basic_string", align 8
  %13 = alloca %"class.std::__cxx11::basic_string", align 8
  %14 = alloca %"class.std::__cxx11::basic_string", align 8
  %15 = alloca %"class.std::__cxx11::basic_string", align 8
  %16 = alloca %"class.std::__cxx11::basic_string", align 8
  %17 = alloca %"class.proj_nlohmann::basic_json", align 8
  %18 = alloca %"class.std::__cxx11::basic_string", align 8
  %19 = alloca %"class.std::allocator", align 1
  %20 = alloca %"class.std::__cxx11::basic_string", align 8
  %21 = alloca %"class.std::__cxx11::basic_string", align 8
  %22 = alloca %"class.std::__cxx11::basic_string", align 8
  %23 = alloca %"class.std::__cxx11::basic_string", align 8
  %24 = alloca %"class.proj_nlohmann::basic_json", align 8
  %25 = alloca %"class.std::__cxx11::basic_string", align 8
  %26 = alloca %"class.std::allocator", align 1
  %27 = alloca %"class.proj_nlohmann::detail::iter_impl", align 8
  %28 = alloca %"class.proj_nlohmann::detail::iter_impl", align 8
  %29 = alloca %"class.std::__cxx11::basic_string", align 8
  %30 = alloca %"class.std::allocator", align 1
  %31 = alloca %"struct.DeformationModel::MasterFile::Link", align 8
  %32 = alloca %"class.std::__cxx11::basic_string", align 8
  %33 = alloca %"class.std::__cxx11::basic_string", align 8
  %34 = alloca %"class.std::__cxx11::basic_string", align 8
  %35 = alloca %"class.std::__cxx11::basic_string", align 8
  %36 = alloca %"class.std::__cxx11::basic_string", align 8
  %37 = alloca %"class.std::__cxx11::basic_string", align 8
  %38 = alloca %"class.std::__cxx11::basic_string", align 8
  %39 = alloca %"class.std::__cxx11::basic_string", align 8
  %40 = alloca %"class.std::allocator", align 1
  %41 = alloca %"class.std::__cxx11::basic_string", align 8
  %42 = alloca %"class.std::__cxx11::basic_string", align 8
  %43 = alloca %"class.std::__cxx11::basic_string", align 8
  %44 = alloca %"class.std::__cxx11::basic_string", align 8
  %45 = alloca %"class.std::allocator", align 1
  %46 = alloca %"class.std::__cxx11::basic_string", align 8
  %47 = alloca %"class.std::__cxx11::basic_string", align 8
  %48 = alloca %"class.std::allocator", align 1
  %49 = alloca %"class.std::__cxx11::basic_string", align 8
  %50 = alloca %"class.std::__cxx11::basic_string", align 8
  %51 = alloca %"class.std::__cxx11::basic_string", align 8
  %52 = alloca %"class.std::__cxx11::basic_string", align 8
  %53 = alloca %"class.std::__cxx11::basic_string", align 8
  %54 = alloca %"class.std::__cxx11::basic_string", align 8
  %55 = alloca %"class.std::allocator", align 1
  %56 = alloca %"class.DeformationModel::SpatialExtent", align 8
  %57 = alloca %"class.proj_nlohmann::basic_json", align 8
  %58 = alloca %"class.proj_nlohmann::basic_json", align 8
  %59 = alloca %"class.DeformationModel::Epoch", align 8
  %60 = alloca %"class.std::__cxx11::basic_string", align 8
  %61 = alloca %"class.DeformationModel::Epoch", align 8
  %62 = alloca %"class.std::__cxx11::basic_string", align 8
  %63 = alloca %"class.proj_nlohmann::basic_json", align 8
  %64 = alloca %"class.proj_nlohmann::detail::iter_impl", align 8
  %65 = alloca %"class.proj_nlohmann::detail::iter_impl", align 8
  %66 = alloca %"class.DeformationModel::Component", align 8
  %67 = alloca %"class.std::__cxx11::basic_string", align 8
  %68 = alloca %"class.std::allocator", align 1
  %69 = alloca %"class.std::__cxx11::basic_string", align 8
  %70 = alloca %"class.std::allocator", align 1
  %71 = alloca %"class.std::__cxx11::basic_string", align 8
  %72 = alloca %"class.std::allocator", align 1
  %73 = alloca %"class.std::__cxx11::basic_string", align 8
  %74 = alloca %"class.std::allocator", align 1
  %75 = alloca %"class.std::__cxx11::basic_string", align 8
  %76 = alloca %"class.std::allocator", align 1
  %77 = tail call noalias noundef nonnull dereferenceable(928) ptr @_Znwm(i64 noundef 928) #41
  tail call void @llvm.memset.p0.i64(ptr noundef nonnull align 16 dereferenceable(928) %77, i8 0, i64 928, i1 false)
  invoke void @_ZN16DeformationModel10MasterFileC2Ev(ptr noundef nonnull align 8 dereferenceable(928) %77)
          to label %78 unwind label %97

78:                                               ; preds = %2
  store ptr %77, ptr %0, align 8, !tbaa !25
  call void @llvm.lifetime.start.p0(ptr %3)
  store i8 0, ptr %3, align 8, !tbaa !27
  %79 = getelementptr inbounds nuw i8, ptr %3, i64 8
  store ptr null, ptr %79, align 8, !tbaa !14
  call void @llvm.memset.p0.i64(ptr noundef nonnull align 8 dereferenceable(32) %5, i8 0, i64 32, i1 false)
  invoke void @_ZN13proj_nlohmann10basic_jsonISt3mapSt6vectorNSt7__cxx1112basic_stringIcSt11char_traitsIcESaIcEEEblmdSaNS_14adl_serializerES2_IhSaIhEEE5parseIRKS8_EESC_OT_St8functionIFbiNS_6detail13parse_event_tERSC_EEbb(ptr dead_on_unwind nonnull writable sret(%"class.proj_nlohmann::basic_json") align 8 %4, ptr noundef nonnull align 8 dereferenceable(32) %1, ptr noundef nonnull %5, i1 noundef zeroext true, i1 noundef zeroext false)
          to label %80 unwind label %99

80:                                               ; preds = %78
  %81 = load i8, ptr %3, align 8, !tbaa !30
  %82 = load i8, ptr %4, align 8, !tbaa !30
  store i8 %82, ptr %3, align 8, !tbaa !30
  store i8 %81, ptr %4, align 8, !tbaa !30
  %83 = getelementptr inbounds nuw i8, ptr %4, i64 8
  %84 = load ptr, ptr %79, align 8, !tbaa !14
  %85 = load i64, ptr %83, align 8, !tbaa !14
  store i64 %85, ptr %79, align 8, !tbaa !14
  store ptr %84, ptr %83, align 8, !tbaa !14
  call void @_ZN13proj_nlohmann10basic_jsonISt3mapSt6vectorNSt7__cxx1112basic_stringIcSt11char_traitsIcESaIcEEEblmdSaNS_14adl_serializerES2_IhSaIhEEE10json_value7destroyENS_6detail7value_tE(ptr noundef nonnull align 8 dereferenceable(8) %83, i8 noundef zeroext %81) #38
  %86 = getelementptr inbounds nuw i8, ptr %5, i64 16
  %87 = load ptr, ptr %86, align 8, !tbaa !31
  %88 = icmp eq ptr %87, null
  br i1 %88, label %94, label %89

89:                                               ; preds = %80
  %90 = invoke noundef zeroext i1 %87(ptr noundef nonnull align 8 dereferenceable(32) %5, ptr noundef nonnull align 8 dereferenceable(32) %5, i32 noundef 3)
          to label %94 unwind label %91

91:                                               ; preds = %89
  %92 = landingpad { ptr, i32 }
          catch ptr null
  %93 = extractvalue { ptr, i32 } %92, 0
  call void @__clang_call_terminate(ptr %93) #37
  unreachable

94:                                               ; preds = %89, %80
  %95 = load i8, ptr %3, align 8, !tbaa !27
  %96 = icmp eq i8 %95, 1
  br i1 %96, label %163, label %142

97:                                               ; preds = %2
  %98 = landingpad { ptr, i32 }
          cleanup
  tail call void @_ZdlPvm(ptr noundef nonnull %77, i64 noundef 928) #40
  br label %2868

99:                                               ; preds = %78
  %100 = landingpad { ptr, i32 }
          cleanup
          catch ptr @_ZTISt9exception
  %101 = extractvalue { ptr, i32 } %100, 1
  %102 = getelementptr inbounds nuw i8, ptr %5, i64 16
  %103 = load ptr, ptr %102, align 8, !tbaa !31
  %104 = icmp eq ptr %103, null
  br i1 %104, label %110, label %105

105:                                              ; preds = %99
  %106 = invoke noundef zeroext i1 %103(ptr noundef nonnull align 8 dereferenceable(32) %5, ptr noundef nonnull align 8 dereferenceable(32) %5, i32 noundef 3)
          to label %110 unwind label %107

107:                                              ; preds = %105
  %108 = landingpad { ptr, i32 }
          catch ptr null
  %109 = extractvalue { ptr, i32 } %108, 0
  call void @__clang_call_terminate(ptr %109) #37
  unreachable

110:                                              ; preds = %105, %99
  %111 = call i32 @llvm.eh.typeid.for.p0(ptr nonnull @_ZTISt9exception) #38
  %112 = icmp eq i32 %101, %111
  br i1 %112, label %113, label %2865

113:                                              ; preds = %110
  %114 = extractvalue { ptr, i32 } %100, 0
  %115 = call ptr @__cxa_begin_catch(ptr %114) #38
  %116 = call ptr @__cxa_allocate_exception(i64 40) #38
  call void @llvm.lifetime.start.p0(ptr %6)
  %117 = load ptr, ptr %115, align 8, !tbaa !33
  %118 = getelementptr inbounds nuw i8, ptr %117, i64 16
  %119 = load ptr, ptr %118, align 8
  %120 = call noundef ptr %119(ptr noundef nonnull align 8 dereferenceable(8) %115) #38
  call void @llvm.lifetime.start.p0(ptr %7)
  invoke void @_ZNSt7__cxx1112basic_stringIcSt11char_traitsIcESaIcEEC2IS3_EEPKcRKS3_(ptr noundef nonnull align 8 dereferenceable(32) %6, ptr noundef %120, ptr noundef nonnull align 1 dereferenceable(1) %7)
          to label %121 unwind label %123

121:                                              ; preds = %113
  invoke void @_ZN16DeformationModel16ParsingExceptionC2ERKNSt7__cxx1112basic_stringIcSt11char_traitsIcESaIcEEE(ptr noundef nonnull align 8 dereferenceable(40) %116, ptr noundef nonnull align 8 dereferenceable(32) %6)
          to label %122 unwind label %125

122:                                              ; preds = %121
  invoke void @__cxa_throw(ptr nonnull %116, ptr nonnull @_ZTIN16DeformationModel16ParsingExceptionE, ptr nonnull @_ZN16DeformationModel16ParsingExceptionD2Ev) #39
          to label %2873 unwind label %125

123:                                              ; preds = %113
  %124 = landingpad { ptr, i32 }
          cleanup
  call void @llvm.lifetime.end.p0(ptr %7)
  call void @llvm.lifetime.end.p0(ptr %6)
  br label %138

125:                                              ; preds = %122, %121
  %126 = phi i1 [ false, %122 ], [ true, %121 ]
  %127 = landingpad { ptr, i32 }
          cleanup
  %128 = load ptr, ptr %6, align 8, !tbaa !4
  %129 = getelementptr inbounds nuw i8, ptr %6, i64 16
  %130 = icmp eq ptr %128, %129
  br i1 %130, label %131, label %135

131:                                              ; preds = %125
  %132 = getelementptr inbounds nuw i8, ptr %6, i64 8
  %133 = load i64, ptr %132, align 8, !tbaa !15
  %134 = icmp ult i64 %133, 16
  call void @llvm.assume(i1 %134)
  call void @llvm.lifetime.end.p0(ptr %7)
  call void @llvm.lifetime.end.p0(ptr %6)
  br i1 %126, label %138, label %140

135:                                              ; preds = %125
  %136 = load i64, ptr %129, align 8, !tbaa !14
  %137 = add i64 %136, 1
  call void @_ZdlPvm(ptr noundef %128, i64 noundef %137) #40
  call void @llvm.lifetime.end.p0(ptr %7)
  call void @llvm.lifetime.end.p0(ptr %6)
  br i1 %126, label %138, label %140

138:                                              ; preds = %135, %131, %123
  %139 = phi { ptr, i32 } [ %124, %123 ], [ %127, %135 ], [ %127, %131 ]
  call void @__cxa_free_exception(ptr %116) #38
  br label %140

140:                                              ; preds = %138, %135, %131
  %141 = phi { ptr, i32 } [ %139, %138 ], [ %127, %135 ], [ %127, %131 ]
  invoke void @__cxa_end_catch()
          to label %2865 unwind label %2870

142:                                              ; preds = %94
  %143 = call ptr @__cxa_allocate_exception(i64 40) #38
  call void @llvm.lifetime.start.p0(ptr %8)
  call void @llvm.lifetime.start.p0(ptr %9)
  invoke void @_ZNSt7__cxx1112basic_stringIcSt11char_traitsIcESaIcEEC2IS3_EEPKcRKS3_(ptr noundef nonnull align 8 dereferenceable(32) %8, ptr noundef nonnull @.str.19, ptr noundef nonnull align 1 dereferenceable(1) %9)
          to label %144 unwind label %146

144:                                              ; preds = %142
  invoke void @_ZN16DeformationModel16ParsingExceptionC2ERKNSt7__cxx1112basic_stringIcSt11char_traitsIcESaIcEEE(ptr noundef nonnull align 8 dereferenceable(40) %143, ptr noundef nonnull align 8 dereferenceable(32) %8)
          to label %145 unwind label %148

145:                                              ; preds = %144
  invoke void @__cxa_throw(ptr nonnull %143, ptr nonnull @_ZTIN16DeformationModel16ParsingExceptionE, ptr nonnull @_ZN16DeformationModel16ParsingExceptionD2Ev) #39
          to label %2873 unwind label %148

146:                                              ; preds = %142
  %147 = landingpad { ptr, i32 }
          cleanup
  call void @llvm.lifetime.end.p0(ptr %9)
  call void @llvm.lifetime.end.p0(ptr %8)
  br label %161

148:                                              ; preds = %145, %144
  %149 = phi i1 [ false, %145 ], [ true, %144 ]
  %150 = landingpad { ptr, i32 }
          cleanup
  %151 = load ptr, ptr %8, align 8, !tbaa !4
  %152 = getelementptr inbounds nuw i8, ptr %8, i64 16
  %153 = icmp eq ptr %151, %152
  br i1 %153, label %154, label %158

154:                                              ; preds = %148
  %155 = getelementptr inbounds nuw i8, ptr %8, i64 8
  %156 = load i64, ptr %155, align 8, !tbaa !15
  %157 = icmp ult i64 %156, 16
  call void @llvm.assume(i1 %157)
  call void @llvm.lifetime.end.p0(ptr %9)
  call void @llvm.lifetime.end.p0(ptr %8)
  br i1 %149, label %161, label %2865

158:                                              ; preds = %148
  %159 = load i64, ptr %152, align 8, !tbaa !14
  %160 = add i64 %159, 1
  call void @_ZdlPvm(ptr noundef %151, i64 noundef %160) #40
  call void @llvm.lifetime.end.p0(ptr %9)
  call void @llvm.lifetime.end.p0(ptr %8)
  br i1 %149, label %161, label %2865

161:                                              ; preds = %158, %154, %146
  %162 = phi { ptr, i32 } [ %147, %146 ], [ %150, %158 ], [ %150, %154 ]
  call void @__cxa_free_exception(ptr %143) #38
  br label %2865

163:                                              ; preds = %94
  call void @llvm.lifetime.start.p0(ptr %10)
  invoke fastcc void @_ZN16DeformationModelL9getStringERKN13proj_nlohmann10basic_jsonISt3mapSt6vectorNSt7__cxx1112basic_stringIcSt11char_traitsIcESaIcEEEblmdSaNS0_14adl_serializerES3_IhSaIhEEEEPKcb(ptr dead_on_unwind noalias nonnull writable align 8 %10, ptr noundef nonnull align 8 dereferenceable(16) %3, ptr noundef nonnull @.str.20, i1 noundef zeroext false)
          to label %164 unwind label %613

164:                                              ; preds = %163
  %165 = load ptr, ptr %77, align 8, !tbaa !4
  %166 = getelementptr inbounds nuw i8, ptr %77, i64 16
  %167 = icmp eq ptr %165, %166
  br i1 %167, label %168, label %175

168:                                              ; preds = %164
  %169 = getelementptr inbounds nuw i8, ptr %77, i64 8
  %170 = load i64, ptr %169, align 8, !tbaa !15
  %171 = icmp ult i64 %170, 16
  call void @llvm.assume(i1 %171)
  %172 = load ptr, ptr %10, align 8, !tbaa !4
  %173 = getelementptr inbounds nuw i8, ptr %10, i64 16
  %174 = icmp eq ptr %172, %173
  br i1 %174, label %179, label %196

175:                                              ; preds = %164
  %176 = load ptr, ptr %10, align 8, !tbaa !4
  %177 = getelementptr inbounds nuw i8, ptr %10, i64 16
  %178 = icmp eq ptr %176, %177
  br i1 %178, label %179, label %194

179:                                              ; preds = %175, %168
  %180 = phi ptr [ %176, %175 ], [ %172, %168 ]
  %181 = getelementptr inbounds nuw i8, ptr %10, i64 8
  %182 = load i64, ptr %181, align 8, !tbaa !15
  %183 = icmp ult i64 %182, 16
  call void @llvm.assume(i1 %183)
  switch i64 %182, label %186 [
    i64 0, label %187
    i64 1, label %184
  ]

184:                                              ; preds = %179
  %185 = load i8, ptr %180, align 1, !tbaa !14
  store i8 %185, ptr %165, align 1, !tbaa !14
  br label %187

186:                                              ; preds = %179
  call void @llvm.memcpy.p0.p0.i64(ptr align 1 %165, ptr align 1 %180, i64 %182, i1 false)
  br label %187

187:                                              ; preds = %186, %184, %179
  %188 = load i64, ptr %181, align 8, !tbaa !15
  %189 = icmp ult i64 %188, 9223372036854775807
  call void @llvm.assume(i1 %189)
  %190 = getelementptr inbounds nuw i8, ptr %77, i64 8
  store i64 %188, ptr %190, align 8, !tbaa !15
  %191 = load ptr, ptr %77, align 8, !tbaa !4
  %192 = getelementptr inbounds nuw i8, ptr %191, i64 %188
  store i8 0, ptr %192, align 1, !tbaa !14
  %193 = load ptr, ptr %10, align 8, !tbaa !4
  br label %209

194:                                              ; preds = %175
  %195 = load i64, ptr %166, align 8, !tbaa !14
  br label %196

196:                                              ; preds = %194, %168
  %197 = phi ptr [ %177, %194 ], [ %173, %168 ]
  %198 = phi ptr [ %176, %194 ], [ %172, %168 ]
  %199 = phi ptr [ %165, %194 ], [ null, %168 ]
  %200 = phi i64 [ %195, %194 ], [ undef, %168 ]
  store ptr %198, ptr %77, align 8, !tbaa !4
  %201 = getelementptr inbounds nuw i8, ptr %10, i64 8
  %202 = load i64, ptr %201, align 8, !tbaa !15
  %203 = icmp ult i64 %202, 9223372036854775807
  call void @llvm.assume(i1 %203)
  %204 = getelementptr inbounds nuw i8, ptr %77, i64 8
  store i64 %202, ptr %204, align 8, !tbaa !15
  %205 = load i64, ptr %197, align 8, !tbaa !14
  store i64 %205, ptr %166, align 8, !tbaa !14
  %206 = icmp eq ptr %199, null
  br i1 %206, label %208, label %207

207:                                              ; preds = %196
  store ptr %199, ptr %10, align 8, !tbaa !4
  store i64 %200, ptr %197, align 8, !tbaa !14
  br label %209

208:                                              ; preds = %196
  store ptr %197, ptr %10, align 8, !tbaa !4
  br label %209

209:                                              ; preds = %208, %207, %187
  %210 = phi ptr [ %199, %207 ], [ %197, %208 ], [ %193, %187 ]
  %211 = getelementptr inbounds nuw i8, ptr %10, i64 8
  store i64 0, ptr %211, align 8, !tbaa !15
  store i8 0, ptr %210, align 1, !tbaa !14
  %212 = load ptr, ptr %10, align 8, !tbaa !4
  %213 = getelementptr inbounds nuw i8, ptr %10, i64 16
  %214 = icmp eq ptr %212, %213
  br i1 %214, label %215, label %218

215:                                              ; preds = %209
  %216 = load i64, ptr %211, align 8, !tbaa !15
  %217 = icmp ult i64 %216, 16
  call void @llvm.assume(i1 %217)
  br label %221

218:                                              ; preds = %209
  %219 = load i64, ptr %213, align 8, !tbaa !14
  %220 = add i64 %219, 1
  call void @_ZdlPvm(ptr noundef %212, i64 noundef %220) #40
  br label %221

221:                                              ; preds = %218, %215
  call void @llvm.lifetime.end.p0(ptr %10)
  call void @llvm.lifetime.start.p0(ptr %11)
  invoke fastcc void @_ZN16DeformationModelL9getStringERKN13proj_nlohmann10basic_jsonISt3mapSt6vectorNSt7__cxx1112basic_stringIcSt11char_traitsIcESaIcEEEblmdSaNS0_14adl_serializerES3_IhSaIhEEEEPKcb(ptr dead_on_unwind noalias nonnull writable align 8 %11, ptr noundef nonnull align 8 dereferenceable(16) %3, ptr noundef nonnull @.str.21, i1 noundef zeroext false)
          to label %222 unwind label %615

222:                                              ; preds = %221
  %223 = load ptr, ptr %0, align 8, !tbaa !25
  %224 = getelementptr inbounds nuw i8, ptr %223, i64 32
  %225 = load ptr, ptr %224, align 8, !tbaa !4
  %226 = getelementptr inbounds nuw i8, ptr %223, i64 48
  %227 = icmp eq ptr %225, %226
  br i1 %227, label %228, label %235

228:                                              ; preds = %222
  %229 = getelementptr inbounds nuw i8, ptr %223, i64 40
  %230 = load i64, ptr %229, align 8, !tbaa !15
  %231 = icmp ult i64 %230, 16
  call void @llvm.assume(i1 %231)
  %232 = load ptr, ptr %11, align 8, !tbaa !4
  %233 = getelementptr inbounds nuw i8, ptr %11, i64 16
  %234 = icmp eq ptr %232, %233
  br i1 %234, label %239, label %258

235:                                              ; preds = %222
  %236 = load ptr, ptr %11, align 8, !tbaa !4
  %237 = getelementptr inbounds nuw i8, ptr %11, i64 16
  %238 = icmp eq ptr %236, %237
  br i1 %238, label %239, label %256

239:                                              ; preds = %235, %228
  %240 = phi ptr [ %236, %235 ], [ %232, %228 ]
  %241 = getelementptr inbounds nuw i8, ptr %11, i64 8
  %242 = load i64, ptr %241, align 8, !tbaa !15
  %243 = icmp ult i64 %242, 16
  call void @llvm.assume(i1 %243)
  %244 = icmp eq ptr %11, %224
  br i1 %244, label %271, label %245, !prof !35

245:                                              ; preds = %239
  switch i64 %242, label %248 [
    i64 0, label %249
    i64 1, label %246
  ]

246:                                              ; preds = %245
  %247 = load i8, ptr %240, align 1, !tbaa !14
  store i8 %247, ptr %225, align 1, !tbaa !14
  br label %249

248:                                              ; preds = %245
  call void @llvm.memcpy.p0.p0.i64(ptr align 1 %225, ptr align 1 %240, i64 %242, i1 false)
  br label %249

249:                                              ; preds = %248, %246, %245
  %250 = load i64, ptr %241, align 8, !tbaa !15
  %251 = icmp ult i64 %250, 9223372036854775807
  call void @llvm.assume(i1 %251)
  %252 = getelementptr inbounds nuw i8, ptr %223, i64 40
  store i64 %250, ptr %252, align 8, !tbaa !15
  %253 = load ptr, ptr %224, align 8, !tbaa !4
  %254 = getelementptr inbounds nuw i8, ptr %253, i64 %250
  store i8 0, ptr %254, align 1, !tbaa !14
  %255 = load ptr, ptr %11, align 8, !tbaa !4
  br label %271

256:                                              ; preds = %235
  %257 = load i64, ptr %226, align 8, !tbaa !14
  br label %258

258:                                              ; preds = %256, %228
  %259 = phi ptr [ %237, %256 ], [ %233, %228 ]
  %260 = phi ptr [ %236, %256 ], [ %232, %228 ]
  %261 = phi ptr [ %225, %256 ], [ null, %228 ]
  %262 = phi i64 [ %257, %256 ], [ undef, %228 ]
  store ptr %260, ptr %224, align 8, !tbaa !4
  %263 = getelementptr inbounds nuw i8, ptr %11, i64 8
  %264 = load i64, ptr %263, align 8, !tbaa !15
  %265 = icmp ult i64 %264, 9223372036854775807
  call void @llvm.assume(i1 %265)
  %266 = getelementptr inbounds nuw i8, ptr %223, i64 40
  store i64 %264, ptr %266, align 8, !tbaa !15
  %267 = load i64, ptr %259, align 8, !tbaa !14
  store i64 %267, ptr %226, align 8, !tbaa !14
  %268 = icmp eq ptr %261, null
  br i1 %268, label %270, label %269

269:                                              ; preds = %258
  store ptr %261, ptr %11, align 8, !tbaa !4
  store i64 %262, ptr %259, align 8, !tbaa !14
  br label %271

270:                                              ; preds = %258
  store ptr %259, ptr %11, align 8, !tbaa !4
  br label %271

271:                                              ; preds = %270, %269, %249, %239
  %272 = phi ptr [ %261, %269 ], [ %259, %270 ], [ %240, %239 ], [ %255, %249 ]
  %273 = getelementptr inbounds nuw i8, ptr %11, i64 8
  store i64 0, ptr %273, align 8, !tbaa !15
  store i8 0, ptr %272, align 1, !tbaa !14
  %274 = load ptr, ptr %11, align 8, !tbaa !4
  %275 = getelementptr inbounds nuw i8, ptr %11, i64 16
  %276 = icmp eq ptr %274, %275
  br i1 %276, label %277, label %280

277:                                              ; preds = %271
  %278 = load i64, ptr %273, align 8, !tbaa !15
  %279 = icmp ult i64 %278, 16
  call void @llvm.assume(i1 %279)
  br label %283

280:                                              ; preds = %271
  %281 = load i64, ptr %275, align 8, !tbaa !14
  %282 = add i64 %281, 1
  call void @_ZdlPvm(ptr noundef %274, i64 noundef %282) #40
  br label %283

283:                                              ; preds = %280, %277
  call void @llvm.lifetime.end.p0(ptr %11)
  call void @llvm.lifetime.start.p0(ptr %12)
  invoke fastcc void @_ZN16DeformationModelL9getStringERKN13proj_nlohmann10basic_jsonISt3mapSt6vectorNSt7__cxx1112basic_stringIcSt11char_traitsIcESaIcEEEblmdSaNS0_14adl_serializerES3_IhSaIhEEEEPKcb(ptr dead_on_unwind noalias nonnull writable align 8 %12, ptr noundef nonnull align 8 dereferenceable(16) %3, ptr noundef nonnull @.str.22, i1 noundef zeroext true)
          to label %284 unwind label %617

284:                                              ; preds = %283
  %285 = load ptr, ptr %0, align 8, !tbaa !25
  %286 = getelementptr inbounds nuw i8, ptr %285, i64 64
  %287 = load ptr, ptr %286, align 8, !tbaa !4
  %288 = getelementptr inbounds nuw i8, ptr %285, i64 80
  %289 = icmp eq ptr %287, %288
  br i1 %289, label %290, label %297

290:                                              ; preds = %284
  %291 = getelementptr inbounds nuw i8, ptr %285, i64 72
  %292 = load i64, ptr %291, align 8, !tbaa !15
  %293 = icmp ult i64 %292, 16
  call void @llvm.assume(i1 %293)
  %294 = load ptr, ptr %12, align 8, !tbaa !4
  %295 = getelementptr inbounds nuw i8, ptr %12, i64 16
  %296 = icmp eq ptr %294, %295
  br i1 %296, label %301, label %320

297:                                              ; preds = %284
  %298 = load ptr, ptr %12, align 8, !tbaa !4
  %299 = getelementptr inbounds nuw i8, ptr %12, i64 16
  %300 = icmp eq ptr %298, %299
  br i1 %300, label %301, label %318

301:                                              ; preds = %297, %290
  %302 = phi ptr [ %298, %297 ], [ %294, %290 ]
  %303 = getelementptr inbounds nuw i8, ptr %12, i64 8
  %304 = load i64, ptr %303, align 8, !tbaa !15
  %305 = icmp ult i64 %304, 16
  call void @llvm.assume(i1 %305)
  %306 = icmp eq ptr %12, %286
  br i1 %306, label %333, label %307, !prof !35

307:                                              ; preds = %301
  switch i64 %304, label %310 [
    i64 0, label %311
    i64 1, label %308
  ]

308:                                              ; preds = %307
  %309 = load i8, ptr %302, align 1, !tbaa !14
  store i8 %309, ptr %287, align 1, !tbaa !14
  br label %311

310:                                              ; preds = %307
  call void @llvm.memcpy.p0.p0.i64(ptr align 1 %287, ptr align 1 %302, i64 %304, i1 false)
  br label %311

311:                                              ; preds = %310, %308, %307
  %312 = load i64, ptr %303, align 8, !tbaa !15
  %313 = icmp ult i64 %312, 9223372036854775807
  call void @llvm.assume(i1 %313)
  %314 = getelementptr inbounds nuw i8, ptr %285, i64 72
  store i64 %312, ptr %314, align 8, !tbaa !15
  %315 = load ptr, ptr %286, align 8, !tbaa !4
  %316 = getelementptr inbounds nuw i8, ptr %315, i64 %312
  store i8 0, ptr %316, align 1, !tbaa !14
  %317 = load ptr, ptr %12, align 8, !tbaa !4
  br label %333

318:                                              ; preds = %297
  %319 = load i64, ptr %288, align 8, !tbaa !14
  br label %320

320:                                              ; preds = %318, %290
  %321 = phi ptr [ %299, %318 ], [ %295, %290 ]
  %322 = phi ptr [ %298, %318 ], [ %294, %290 ]
  %323 = phi ptr [ %287, %318 ], [ null, %290 ]
  %324 = phi i64 [ %319, %318 ], [ undef, %290 ]
  store ptr %322, ptr %286, align 8, !tbaa !4
  %325 = getelementptr inbounds nuw i8, ptr %12, i64 8
  %326 = load i64, ptr %325, align 8, !tbaa !15
  %327 = icmp ult i64 %326, 9223372036854775807
  call void @llvm.assume(i1 %327)
  %328 = getelementptr inbounds nuw i8, ptr %285, i64 72
  store i64 %326, ptr %328, align 8, !tbaa !15
  %329 = load i64, ptr %321, align 8, !tbaa !14
  store i64 %329, ptr %288, align 8, !tbaa !14
  %330 = icmp eq ptr %323, null
  br i1 %330, label %332, label %331

331:                                              ; preds = %320
  store ptr %323, ptr %12, align 8, !tbaa !4
  store i64 %324, ptr %321, align 8, !tbaa !14
  br label %333

332:                                              ; preds = %320
  store ptr %321, ptr %12, align 8, !tbaa !4
  br label %333

333:                                              ; preds = %332, %331, %311, %301
  %334 = phi ptr [ %323, %331 ], [ %321, %332 ], [ %302, %301 ], [ %317, %311 ]
  %335 = getelementptr inbounds nuw i8, ptr %12, i64 8
  store i64 0, ptr %335, align 8, !tbaa !15
  store i8 0, ptr %334, align 1, !tbaa !14
  %336 = load ptr, ptr %12, align 8, !tbaa !4
  %337 = getelementptr inbounds nuw i8, ptr %12, i64 16
  %338 = icmp eq ptr %336, %337
  br i1 %338, label %339, label %342

339:                                              ; preds = %333
  %340 = load i64, ptr %335, align 8, !tbaa !15
  %341 = icmp ult i64 %340, 16
  call void @llvm.assume(i1 %341)
  br label %345

342:                                              ; preds = %333
  %343 = load i64, ptr %337, align 8, !tbaa !14
  %344 = add i64 %343, 1
  call void @_ZdlPvm(ptr noundef %336, i64 noundef %344) #40
  br label %345

345:                                              ; preds = %342, %339
  call void @llvm.lifetime.end.p0(ptr %12)
  call void @llvm.lifetime.start.p0(ptr %13)
  invoke fastcc void @_ZN16DeformationModelL9getStringERKN13proj_nlohmann10basic_jsonISt3mapSt6vectorNSt7__cxx1112basic_stringIcSt11char_traitsIcESaIcEEEblmdSaNS0_14adl_serializerES3_IhSaIhEEEEPKcb(ptr dead_on_unwind noalias nonnull writable align 8 %13, ptr noundef nonnull align 8 dereferenceable(16) %3, ptr noundef nonnull @.str.23, i1 noundef zeroext true)
          to label %346 unwind label %619

346:                                              ; preds = %345
  %347 = load ptr, ptr %0, align 8, !tbaa !25
  %348 = getelementptr inbounds nuw i8, ptr %347, i64 96
  %349 = load ptr, ptr %348, align 8, !tbaa !4
  %350 = getelementptr inbounds nuw i8, ptr %347, i64 112
  %351 = icmp eq ptr %349, %350
  br i1 %351, label %352, label %359

352:                                              ; preds = %346
  %353 = getelementptr inbounds nuw i8, ptr %347, i64 104
  %354 = load i64, ptr %353, align 8, !tbaa !15
  %355 = icmp ult i64 %354, 16
  call void @llvm.assume(i1 %355)
  %356 = load ptr, ptr %13, align 8, !tbaa !4
  %357 = getelementptr inbounds nuw i8, ptr %13, i64 16
  %358 = icmp eq ptr %356, %357
  br i1 %358, label %363, label %382

359:                                              ; preds = %346
  %360 = load ptr, ptr %13, align 8, !tbaa !4
  %361 = getelementptr inbounds nuw i8, ptr %13, i64 16
  %362 = icmp eq ptr %360, %361
  br i1 %362, label %363, label %380

363:                                              ; preds = %359, %352
  %364 = phi ptr [ %360, %359 ], [ %356, %352 ]
  %365 = getelementptr inbounds nuw i8, ptr %13, i64 8
  %366 = load i64, ptr %365, align 8, !tbaa !15
  %367 = icmp ult i64 %366, 16
  call void @llvm.assume(i1 %367)
  %368 = icmp eq ptr %13, %348
  br i1 %368, label %395, label %369, !prof !35

369:                                              ; preds = %363
  switch i64 %366, label %372 [
    i64 0, label %373
    i64 1, label %370
  ]

370:                                              ; preds = %369
  %371 = load i8, ptr %364, align 1, !tbaa !14
  store i8 %371, ptr %349, align 1, !tbaa !14
  br label %373

372:                                              ; preds = %369
  call void @llvm.memcpy.p0.p0.i64(ptr align 1 %349, ptr align 1 %364, i64 %366, i1 false)
  br label %373

373:                                              ; preds = %372, %370, %369
  %374 = load i64, ptr %365, align 8, !tbaa !15
  %375 = icmp ult i64 %374, 9223372036854775807
  call void @llvm.assume(i1 %375)
  %376 = getelementptr inbounds nuw i8, ptr %347, i64 104
  store i64 %374, ptr %376, align 8, !tbaa !15
  %377 = load ptr, ptr %348, align 8, !tbaa !4
  %378 = getelementptr inbounds nuw i8, ptr %377, i64 %374
  store i8 0, ptr %378, align 1, !tbaa !14
  %379 = load ptr, ptr %13, align 8, !tbaa !4
  br label %395

380:                                              ; preds = %359
  %381 = load i64, ptr %350, align 8, !tbaa !14
  br label %382

382:                                              ; preds = %380, %352
  %383 = phi ptr [ %361, %380 ], [ %357, %352 ]
  %384 = phi ptr [ %360, %380 ], [ %356, %352 ]
  %385 = phi ptr [ %349, %380 ], [ null, %352 ]
  %386 = phi i64 [ %381, %380 ], [ undef, %352 ]
  store ptr %384, ptr %348, align 8, !tbaa !4
  %387 = getelementptr inbounds nuw i8, ptr %13, i64 8
  %388 = load i64, ptr %387, align 8, !tbaa !15
  %389 = icmp ult i64 %388, 9223372036854775807
  call void @llvm.assume(i1 %389)
  %390 = getelementptr inbounds nuw i8, ptr %347, i64 104
  store i64 %388, ptr %390, align 8, !tbaa !15
  %391 = load i64, ptr %383, align 8, !tbaa !14
  store i64 %391, ptr %350, align 8, !tbaa !14
  %392 = icmp eq ptr %385, null
  br i1 %392, label %394, label %393

393:                                              ; preds = %382
  store ptr %385, ptr %13, align 8, !tbaa !4
  store i64 %386, ptr %383, align 8, !tbaa !14
  br label %395

394:                                              ; preds = %382
  store ptr %383, ptr %13, align 8, !tbaa !4
  br label %395

395:                                              ; preds = %394, %393, %373, %363
  %396 = phi ptr [ %385, %393 ], [ %383, %394 ], [ %364, %363 ], [ %379, %373 ]
  %397 = getelementptr inbounds nuw i8, ptr %13, i64 8
  store i64 0, ptr %397, align 8, !tbaa !15
  store i8 0, ptr %396, align 1, !tbaa !14
  %398 = load ptr, ptr %13, align 8, !tbaa !4
  %399 = getelementptr inbounds nuw i8, ptr %13, i64 16
  %400 = icmp eq ptr %398, %399
  br i1 %400, label %401, label %404

401:                                              ; preds = %395
  %402 = load i64, ptr %397, align 8, !tbaa !15
  %403 = icmp ult i64 %402, 16
  call void @llvm.assume(i1 %403)
  br label %407

404:                                              ; preds = %395
  %405 = load i64, ptr %399, align 8, !tbaa !14
  %406 = add i64 %405, 1
  call void @_ZdlPvm(ptr noundef %398, i64 noundef %406) #40
  br label %407

407:                                              ; preds = %404, %401
  call void @llvm.lifetime.end.p0(ptr %13)
  call void @llvm.lifetime.start.p0(ptr %14)
  invoke fastcc void @_ZN16DeformationModelL9getStringERKN13proj_nlohmann10basic_jsonISt3mapSt6vectorNSt7__cxx1112basic_stringIcSt11char_traitsIcESaIcEEEblmdSaNS0_14adl_serializerES3_IhSaIhEEEEPKcb(ptr dead_on_unwind noalias nonnull writable align 8 %14, ptr noundef nonnull align 8 dereferenceable(16) %3, ptr noundef nonnull @.str.24, i1 noundef zeroext true)
          to label %408 unwind label %621

408:                                              ; preds = %407
  %409 = load ptr, ptr %0, align 8, !tbaa !25
  %410 = getelementptr inbounds nuw i8, ptr %409, i64 128
  %411 = load ptr, ptr %410, align 8, !tbaa !4
  %412 = getelementptr inbounds nuw i8, ptr %409, i64 144
  %413 = icmp eq ptr %411, %412
  br i1 %413, label %414, label %421

414:                                              ; preds = %408
  %415 = getelementptr inbounds nuw i8, ptr %409, i64 136
  %416 = load i64, ptr %415, align 8, !tbaa !15
  %417 = icmp ult i64 %416, 16
  call void @llvm.assume(i1 %417)
  %418 = load ptr, ptr %14, align 8, !tbaa !4
  %419 = getelementptr inbounds nuw i8, ptr %14, i64 16
  %420 = icmp eq ptr %418, %419
  br i1 %420, label %425, label %444

421:                                              ; preds = %408
  %422 = load ptr, ptr %14, align 8, !tbaa !4
  %423 = getelementptr inbounds nuw i8, ptr %14, i64 16
  %424 = icmp eq ptr %422, %423
  br i1 %424, label %425, label %442

425:                                              ; preds = %421, %414
  %426 = phi ptr [ %422, %421 ], [ %418, %414 ]
  %427 = getelementptr inbounds nuw i8, ptr %14, i64 8
  %428 = load i64, ptr %427, align 8, !tbaa !15
  %429 = icmp ult i64 %428, 16
  call void @llvm.assume(i1 %429)
  %430 = icmp eq ptr %14, %410
  br i1 %430, label %457, label %431, !prof !35

431:                                              ; preds = %425
  switch i64 %428, label %434 [
    i64 0, label %435
    i64 1, label %432
  ]

432:                                              ; preds = %431
  %433 = load i8, ptr %426, align 1, !tbaa !14
  store i8 %433, ptr %411, align 1, !tbaa !14
  br label %435

434:                                              ; preds = %431
  call void @llvm.memcpy.p0.p0.i64(ptr align 1 %411, ptr align 1 %426, i64 %428, i1 false)
  br label %435

435:                                              ; preds = %434, %432, %431
  %436 = load i64, ptr %427, align 8, !tbaa !15
  %437 = icmp ult i64 %436, 9223372036854775807
  call void @llvm.assume(i1 %437)
  %438 = getelementptr inbounds nuw i8, ptr %409, i64 136
  store i64 %436, ptr %438, align 8, !tbaa !15
  %439 = load ptr, ptr %410, align 8, !tbaa !4
  %440 = getelementptr inbounds nuw i8, ptr %439, i64 %436
  store i8 0, ptr %440, align 1, !tbaa !14
  %441 = load ptr, ptr %14, align 8, !tbaa !4
  br label %457

442:                                              ; preds = %421
  %443 = load i64, ptr %412, align 8, !tbaa !14
  br label %444

444:                                              ; preds = %442, %414
  %445 = phi ptr [ %423, %442 ], [ %419, %414 ]
  %446 = phi ptr [ %422, %442 ], [ %418, %414 ]
  %447 = phi ptr [ %411, %442 ], [ null, %414 ]
  %448 = phi i64 [ %443, %442 ], [ undef, %414 ]
  store ptr %446, ptr %410, align 8, !tbaa !4
  %449 = getelementptr inbounds nuw i8, ptr %14, i64 8
  %450 = load i64, ptr %449, align 8, !tbaa !15
  %451 = icmp ult i64 %450, 9223372036854775807
  call void @llvm.assume(i1 %451)
  %452 = getelementptr inbounds nuw i8, ptr %409, i64 136
  store i64 %450, ptr %452, align 8, !tbaa !15
  %453 = load i64, ptr %445, align 8, !tbaa !14
  store i64 %453, ptr %412, align 8, !tbaa !14
  %454 = icmp eq ptr %447, null
  br i1 %454, label %456, label %455

455:                                              ; preds = %444
  store ptr %447, ptr %14, align 8, !tbaa !4
  store i64 %448, ptr %445, align 8, !tbaa !14
  br label %457

456:                                              ; preds = %444
  store ptr %445, ptr %14, align 8, !tbaa !4
  br label %457

457:                                              ; preds = %456, %455, %435, %425
  %458 = phi ptr [ %447, %455 ], [ %445, %456 ], [ %426, %425 ], [ %441, %435 ]
  %459 = getelementptr inbounds nuw i8, ptr %14, i64 8
  store i64 0, ptr %459, align 8, !tbaa !15
  store i8 0, ptr %458, align 1, !tbaa !14
  %460 = load ptr, ptr %14, align 8, !tbaa !4
  %461 = getelementptr inbounds nuw i8, ptr %14, i64 16
  %462 = icmp eq ptr %460, %461
  br i1 %462, label %463, label %466

463:                                              ; preds = %457
  %464 = load i64, ptr %459, align 8, !tbaa !15
  %465 = icmp ult i64 %464, 16
  call void @llvm.assume(i1 %465)
  br label %469

466:                                              ; preds = %457
  %467 = load i64, ptr %461, align 8, !tbaa !14
  %468 = add i64 %467, 1
  call void @_ZdlPvm(ptr noundef %460, i64 noundef %468) #40
  br label %469

469:                                              ; preds = %466, %463
  call void @llvm.lifetime.end.p0(ptr %14)
  call void @llvm.lifetime.start.p0(ptr %15)
  invoke fastcc void @_ZN16DeformationModelL9getStringERKN13proj_nlohmann10basic_jsonISt3mapSt6vectorNSt7__cxx1112basic_stringIcSt11char_traitsIcESaIcEEEblmdSaNS0_14adl_serializerES3_IhSaIhEEEEPKcb(ptr dead_on_unwind noalias nonnull writable align 8 %15, ptr noundef nonnull align 8 dereferenceable(16) %3, ptr noundef nonnull @.str.25, i1 noundef zeroext true)
          to label %470 unwind label %623

470:                                              ; preds = %469
  %471 = load ptr, ptr %0, align 8, !tbaa !25
  %472 = getelementptr inbounds nuw i8, ptr %471, i64 160
  %473 = load ptr, ptr %472, align 8, !tbaa !4
  %474 = getelementptr inbounds nuw i8, ptr %471, i64 176
  %475 = icmp eq ptr %473, %474
  br i1 %475, label %476, label %483

476:                                              ; preds = %470
  %477 = getelementptr inbounds nuw i8, ptr %471, i64 168
  %478 = load i64, ptr %477, align 8, !tbaa !15
  %479 = icmp ult i64 %478, 16
  call void @llvm.assume(i1 %479)
  %480 = load ptr, ptr %15, align 8, !tbaa !4
  %481 = getelementptr inbounds nuw i8, ptr %15, i64 16
  %482 = icmp eq ptr %480, %481
  br i1 %482, label %487, label %506

483:                                              ; preds = %470
  %484 = load ptr, ptr %15, align 8, !tbaa !4
  %485 = getelementptr inbounds nuw i8, ptr %15, i64 16
  %486 = icmp eq ptr %484, %485
  br i1 %486, label %487, label %504

487:                                              ; preds = %483, %476
  %488 = phi ptr [ %484, %483 ], [ %480, %476 ]
  %489 = getelementptr inbounds nuw i8, ptr %15, i64 8
  %490 = load i64, ptr %489, align 8, !tbaa !15
  %491 = icmp ult i64 %490, 16
  call void @llvm.assume(i1 %491)
  %492 = icmp eq ptr %15, %472
  br i1 %492, label %519, label %493, !prof !35

493:                                              ; preds = %487
  switch i64 %490, label %496 [
    i64 0, label %497
    i64 1, label %494
  ]

494:                                              ; preds = %493
  %495 = load i8, ptr %488, align 1, !tbaa !14
  store i8 %495, ptr %473, align 1, !tbaa !14
  br label %497

496:                                              ; preds = %493
  call void @llvm.memcpy.p0.p0.i64(ptr align 1 %473, ptr align 1 %488, i64 %490, i1 false)
  br label %497

497:                                              ; preds = %496, %494, %493
  %498 = load i64, ptr %489, align 8, !tbaa !15
  %499 = icmp ult i64 %498, 9223372036854775807
  call void @llvm.assume(i1 %499)
  %500 = getelementptr inbounds nuw i8, ptr %471, i64 168
  store i64 %498, ptr %500, align 8, !tbaa !15
  %501 = load ptr, ptr %472, align 8, !tbaa !4
  %502 = getelementptr inbounds nuw i8, ptr %501, i64 %498
  store i8 0, ptr %502, align 1, !tbaa !14
  %503 = load ptr, ptr %15, align 8, !tbaa !4
  br label %519

504:                                              ; preds = %483
  %505 = load i64, ptr %474, align 8, !tbaa !14
  br label %506

506:                                              ; preds = %504, %476
  %507 = phi ptr [ %485, %504 ], [ %481, %476 ]
  %508 = phi ptr [ %484, %504 ], [ %480, %476 ]
  %509 = phi ptr [ %473, %504 ], [ null, %476 ]
  %510 = phi i64 [ %505, %504 ], [ undef, %476 ]
  store ptr %508, ptr %472, align 8, !tbaa !4
  %511 = getelementptr inbounds nuw i8, ptr %15, i64 8
  %512 = load i64, ptr %511, align 8, !tbaa !15
  %513 = icmp ult i64 %512, 9223372036854775807
  call void @llvm.assume(i1 %513)
  %514 = getelementptr inbounds nuw i8, ptr %471, i64 168
  store i64 %512, ptr %514, align 8, !tbaa !15
  %515 = load i64, ptr %507, align 8, !tbaa !14
  store i64 %515, ptr %474, align 8, !tbaa !14
  %516 = icmp eq ptr %509, null
  br i1 %516, label %518, label %517

517:                                              ; preds = %506
  store ptr %509, ptr %15, align 8, !tbaa !4
  store i64 %510, ptr %507, align 8, !tbaa !14
  br label %519

518:                                              ; preds = %506
  store ptr %507, ptr %15, align 8, !tbaa !4
  br label %519

519:                                              ; preds = %518, %517, %497, %487
  %520 = phi ptr [ %509, %517 ], [ %507, %518 ], [ %488, %487 ], [ %503, %497 ]
  %521 = getelementptr inbounds nuw i8, ptr %15, i64 8
  store i64 0, ptr %521, align 8, !tbaa !15
  store i8 0, ptr %520, align 1, !tbaa !14
  %522 = load ptr, ptr %15, align 8, !tbaa !4
  %523 = getelementptr inbounds nuw i8, ptr %15, i64 16
  %524 = icmp eq ptr %522, %523
  br i1 %524, label %525, label %528

525:                                              ; preds = %519
  %526 = load i64, ptr %521, align 8, !tbaa !15
  %527 = icmp ult i64 %526, 16
  call void @llvm.assume(i1 %527)
  br label %531

528:                                              ; preds = %519
  %529 = load i64, ptr %523, align 8, !tbaa !14
  %530 = add i64 %529, 1
  call void @_ZdlPvm(ptr noundef %522, i64 noundef %530) #40
  br label %531

531:                                              ; preds = %528, %525
  call void @llvm.lifetime.end.p0(ptr %15)
  call void @llvm.lifetime.start.p0(ptr %16)
  invoke fastcc void @_ZN16DeformationModelL9getStringERKN13proj_nlohmann10basic_jsonISt3mapSt6vectorNSt7__cxx1112basic_stringIcSt11char_traitsIcESaIcEEEblmdSaNS0_14adl_serializerES3_IhSaIhEEEEPKcb(ptr dead_on_unwind noalias nonnull writable align 8 %16, ptr noundef nonnull align 8 dereferenceable(16) %3, ptr noundef nonnull @.str.26, i1 noundef zeroext true)
          to label %532 unwind label %625

532:                                              ; preds = %531
  %533 = load ptr, ptr %0, align 8, !tbaa !25
  %534 = getelementptr inbounds nuw i8, ptr %533, i64 192
  %535 = load ptr, ptr %534, align 8, !tbaa !4
  %536 = getelementptr inbounds nuw i8, ptr %533, i64 208
  %537 = icmp eq ptr %535, %536
  br i1 %537, label %538, label %545

538:                                              ; preds = %532
  %539 = getelementptr inbounds nuw i8, ptr %533, i64 200
  %540 = load i64, ptr %539, align 8, !tbaa !15
  %541 = icmp ult i64 %540, 16
  call void @llvm.assume(i1 %541)
  %542 = load ptr, ptr %16, align 8, !tbaa !4
  %543 = getelementptr inbounds nuw i8, ptr %16, i64 16
  %544 = icmp eq ptr %542, %543
  br i1 %544, label %549, label %568

545:                                              ; preds = %532
  %546 = load ptr, ptr %16, align 8, !tbaa !4
  %547 = getelementptr inbounds nuw i8, ptr %16, i64 16
  %548 = icmp eq ptr %546, %547
  br i1 %548, label %549, label %566

549:                                              ; preds = %545, %538
  %550 = phi ptr [ %546, %545 ], [ %542, %538 ]
  %551 = getelementptr inbounds nuw i8, ptr %16, i64 8
  %552 = load i64, ptr %551, align 8, !tbaa !15
  %553 = icmp ult i64 %552, 16
  call void @llvm.assume(i1 %553)
  %554 = icmp eq ptr %16, %534
  br i1 %554, label %581, label %555, !prof !35

555:                                              ; preds = %549
  switch i64 %552, label %558 [
    i64 0, label %559
    i64 1, label %556
  ]

556:                                              ; preds = %555
  %557 = load i8, ptr %550, align 1, !tbaa !14
  store i8 %557, ptr %535, align 1, !tbaa !14
  br label %559

558:                                              ; preds = %555
  call void @llvm.memcpy.p0.p0.i64(ptr align 1 %535, ptr align 1 %550, i64 %552, i1 false)
  br label %559

559:                                              ; preds = %558, %556, %555
  %560 = load i64, ptr %551, align 8, !tbaa !15
  %561 = icmp ult i64 %560, 9223372036854775807
  call void @llvm.assume(i1 %561)
  %562 = getelementptr inbounds nuw i8, ptr %533, i64 200
  store i64 %560, ptr %562, align 8, !tbaa !15
  %563 = load ptr, ptr %534, align 8, !tbaa !4
  %564 = getelementptr inbounds nuw i8, ptr %563, i64 %560
  store i8 0, ptr %564, align 1, !tbaa !14
  %565 = load ptr, ptr %16, align 8, !tbaa !4
  br label %581

566:                                              ; preds = %545
  %567 = load i64, ptr %536, align 8, !tbaa !14
  br label %568

568:                                              ; preds = %566, %538
  %569 = phi ptr [ %547, %566 ], [ %543, %538 ]
  %570 = phi ptr [ %546, %566 ], [ %542, %538 ]
  %571 = phi ptr [ %535, %566 ], [ null, %538 ]
  %572 = phi i64 [ %567, %566 ], [ undef, %538 ]
  store ptr %570, ptr %534, align 8, !tbaa !4
  %573 = getelementptr inbounds nuw i8, ptr %16, i64 8
  %574 = load i64, ptr %573, align 8, !tbaa !15
  %575 = icmp ult i64 %574, 9223372036854775807
  call void @llvm.assume(i1 %575)
  %576 = getelementptr inbounds nuw i8, ptr %533, i64 200
  store i64 %574, ptr %576, align 8, !tbaa !15
  %577 = load i64, ptr %569, align 8, !tbaa !14
  store i64 %577, ptr %536, align 8, !tbaa !14
  %578 = icmp eq ptr %571, null
  br i1 %578, label %580, label %579

579:                                              ; preds = %568
  store ptr %571, ptr %16, align 8, !tbaa !4
  store i64 %572, ptr %569, align 8, !tbaa !14
  br label %581

580:                                              ; preds = %568
  store ptr %569, ptr %16, align 8, !tbaa !4
  br label %581

581:                                              ; preds = %580, %579, %559, %549
  %582 = phi ptr [ %571, %579 ], [ %569, %580 ], [ %550, %549 ], [ %565, %559 ]
  %583 = getelementptr inbounds nuw i8, ptr %16, i64 8
  store i64 0, ptr %583, align 8, !tbaa !15
  store i8 0, ptr %582, align 1, !tbaa !14
  %584 = load ptr, ptr %16, align 8, !tbaa !4
  %585 = getelementptr inbounds nuw i8, ptr %16, i64 16
  %586 = icmp eq ptr %584, %585
  br i1 %586, label %587, label %590

587:                                              ; preds = %581
  %588 = load i64, ptr %583, align 8, !tbaa !15
  %589 = icmp ult i64 %588, 16
  call void @llvm.assume(i1 %589)
  br label %593

590:                                              ; preds = %581
  %591 = load i64, ptr %585, align 8, !tbaa !14
  %592 = add i64 %591, 1
  call void @_ZdlPvm(ptr noundef %584, i64 noundef %592) #40
  br label %593

593:                                              ; preds = %590, %587
  call void @llvm.lifetime.end.p0(ptr %16)
  %594 = load i8, ptr %3, align 8, !tbaa !27
  %595 = icmp eq i8 %594, 1
  br i1 %595, label %596, label %1279

596:                                              ; preds = %593
  %597 = load ptr, ptr %79, align 8, !tbaa !14
  %598 = invoke ptr @_ZNKSt8_Rb_treeINSt7__cxx1112basic_stringIcSt11char_traitsIcESaIcEEESt4pairIKS5_N13proj_nlohmann10basic_jsonISt3mapSt6vectorS5_blmdSaNS8_14adl_serializerESB_IhSaIhEEEEESt10_Select1stISG_ESt4lessIvESaISG_EE10_M_find_trIA10_cvEESt23_Rb_tree_const_iteratorISG_ERKT_(ptr noundef nonnull align 8 dereferenceable(48) %597, ptr noundef nonnull align 1 dereferenceable(10) @.str.27)
          to label %599 unwind label %627

599:                                              ; preds = %596
  %600 = load ptr, ptr %79, align 8, !tbaa !14
  %601 = getelementptr inbounds nuw i8, ptr %600, i64 8
  %602 = icmp eq ptr %598, %601
  br i1 %602, label %913, label %603

603:                                              ; preds = %599
  call void @llvm.lifetime.start.p0(ptr %17)
  %604 = invoke noundef nonnull align 8 dereferenceable(16) ptr @_ZN13proj_nlohmann10basic_jsonISt3mapSt6vectorNSt7__cxx1112basic_stringIcSt11char_traitsIcESaIcEEEblmdSaNS_14adl_serializerES2_IhSaIhEEEixIKcEERSC_PT_(ptr noundef nonnull align 8 dereferenceable(16) %3, ptr noundef @.str.27)
          to label %605 unwind label %629

605:                                              ; preds = %603
  invoke void @_ZN13proj_nlohmann10basic_jsonISt3mapSt6vectorNSt7__cxx1112basic_stringIcSt11char_traitsIcESaIcEEEblmdSaNS_14adl_serializerES2_IhSaIhEEEC2ERKSC_(ptr noundef nonnull align 8 dereferenceable(16) %17, ptr noundef nonnull align 8 dereferenceable(16) %604)
          to label %606 unwind label %629

606:                                              ; preds = %605
  %607 = load i8, ptr %17, align 8, !tbaa !27
  %608 = icmp eq i8 %607, 1
  br i1 %608, label %648, label %609

609:                                              ; preds = %606
  %610 = call ptr @__cxa_allocate_exception(i64 40) #38
  call void @llvm.lifetime.start.p0(ptr %18)
  call void @llvm.lifetime.start.p0(ptr %19)
  invoke void @_ZNSt7__cxx1112basic_stringIcSt11char_traitsIcESaIcEEC2IS3_EEPKcRKS3_(ptr noundef nonnull align 8 dereferenceable(32) %18, ptr noundef nonnull @.str.28, ptr noundef nonnull align 1 dereferenceable(1) %19)
          to label %611 unwind label %631

611:                                              ; preds = %609
  invoke void @_ZN16DeformationModel16ParsingExceptionC2ERKNSt7__cxx1112basic_stringIcSt11char_traitsIcESaIcEEE(ptr noundef nonnull align 8 dereferenceable(40) %610, ptr noundef nonnull align 8 dereferenceable(32) %18)
          to label %612 unwind label %633

612:                                              ; preds = %611
  invoke void @__cxa_throw(ptr nonnull %610, ptr nonnull @_ZTIN16DeformationModel16ParsingExceptionE, ptr nonnull @_ZN16DeformationModel16ParsingExceptionD2Ev) #39
          to label %2873 unwind label %633

613:                                              ; preds = %163
  %614 = landingpad { ptr, i32 }
          cleanup
  call void @llvm.lifetime.end.p0(ptr %10)
  br label %2865

615:                                              ; preds = %221
  %616 = landingpad { ptr, i32 }
          cleanup
  call void @llvm.lifetime.end.p0(ptr %11)
  br label %2865

617:                                              ; preds = %283
  %618 = landingpad { ptr, i32 }
          cleanup
  call void @llvm.lifetime.end.p0(ptr %12)
  br label %2865

619:                                              ; preds = %345
  %620 = landingpad { ptr, i32 }
          cleanup
  call void @llvm.lifetime.end.p0(ptr %13)
  br label %2865

621:                                              ; preds = %407
  %622 = landingpad { ptr, i32 }
          cleanup
  call void @llvm.lifetime.end.p0(ptr %14)
  br label %2865

623:                                              ; preds = %469
  %624 = landingpad { ptr, i32 }
          cleanup
  call void @llvm.lifetime.end.p0(ptr %15)
  br label %2865

625:                                              ; preds = %531
  %626 = landingpad { ptr, i32 }
          cleanup
  call void @llvm.lifetime.end.p0(ptr %16)
  br label %2865

627:                                              ; preds = %916, %596
  %628 = landingpad { ptr, i32 }
          cleanup
  br label %2865

629:                                              ; preds = %605, %603
  %630 = landingpad { ptr, i32 }
          cleanup
  br label %911

631:                                              ; preds = %609
  %632 = landingpad { ptr, i32 }
          cleanup
  call void @llvm.lifetime.end.p0(ptr %19)
  call void @llvm.lifetime.end.p0(ptr %18)
  br label %646

633:                                              ; preds = %612, %611
  %634 = phi i1 [ false, %612 ], [ true, %611 ]
  %635 = landingpad { ptr, i32 }
          cleanup
  %636 = load ptr, ptr %18, align 8, !tbaa !4
  %637 = getelementptr inbounds nuw i8, ptr %18, i64 16
  %638 = icmp eq ptr %636, %637
  br i1 %638, label %639, label %643

639:                                              ; preds = %633
  %640 = getelementptr inbounds nuw i8, ptr %18, i64 8
  %641 = load i64, ptr %640, align 8, !tbaa !15
  %642 = icmp ult i64 %641, 16
  call void @llvm.assume(i1 %642)
  call void @llvm.lifetime.end.p0(ptr %19)
  call void @llvm.lifetime.end.p0(ptr %18)
  br i1 %634, label %646, label %907

643:                                              ; preds = %633
  %644 = load i64, ptr %637, align 8, !tbaa !14
  %645 = add i64 %644, 1
  call void @_ZdlPvm(ptr noundef %636, i64 noundef %645) #40
  call void @llvm.lifetime.end.p0(ptr %19)
  call void @llvm.lifetime.end.p0(ptr %18)
  br i1 %634, label %646, label %907

646:                                              ; preds = %643, %639, %631
  %647 = phi { ptr, i32 } [ %632, %631 ], [ %635, %643 ], [ %635, %639 ]
  call void @__cxa_free_exception(ptr %610) #38
  br label %907

648:                                              ; preds = %606
  call void @llvm.lifetime.start.p0(ptr %20)
  invoke fastcc void @_ZN16DeformationModelL9getStringERKN13proj_nlohmann10basic_jsonISt3mapSt6vectorNSt7__cxx1112basic_stringIcSt11char_traitsIcESaIcEEEblmdSaNS0_14adl_serializerES3_IhSaIhEEEEPKcb(ptr dead_on_unwind noalias nonnull writable align 8 %20, ptr noundef nonnull align 8 dereferenceable(16) %17, ptr noundef nonnull @.str.22, i1 noundef zeroext true)
          to label %649 unwind label %899

649:                                              ; preds = %648
  %650 = load ptr, ptr %0, align 8, !tbaa !25
  %651 = getelementptr inbounds nuw i8, ptr %650, i64 224
  %652 = load ptr, ptr %651, align 8, !tbaa !4
  %653 = getelementptr inbounds nuw i8, ptr %650, i64 240
  %654 = icmp eq ptr %652, %653
  br i1 %654, label %655, label %662

655:                                              ; preds = %649
  %656 = getelementptr inbounds nuw i8, ptr %650, i64 232
  %657 = load i64, ptr %656, align 8, !tbaa !15
  %658 = icmp ult i64 %657, 16
  call void @llvm.assume(i1 %658)
  %659 = load ptr, ptr %20, align 8, !tbaa !4
  %660 = getelementptr inbounds nuw i8, ptr %20, i64 16
  %661 = icmp eq ptr %659, %660
  br i1 %661, label %666, label %685

662:                                              ; preds = %649
  %663 = load ptr, ptr %20, align 8, !tbaa !4
  %664 = getelementptr inbounds nuw i8, ptr %20, i64 16
  %665 = icmp eq ptr %663, %664
  br i1 %665, label %666, label %683

666:                                              ; preds = %662, %655
  %667 = phi ptr [ %663, %662 ], [ %659, %655 ]
  %668 = getelementptr inbounds nuw i8, ptr %20, i64 8
  %669 = load i64, ptr %668, align 8, !tbaa !15
  %670 = icmp ult i64 %669, 16
  call void @llvm.assume(i1 %670)
  %671 = icmp eq ptr %20, %651
  br i1 %671, label %698, label %672, !prof !35

672:                                              ; preds = %666
  switch i64 %669, label %675 [
    i64 0, label %676
    i64 1, label %673
  ]

673:                                              ; preds = %672
  %674 = load i8, ptr %667, align 1, !tbaa !14
  store i8 %674, ptr %652, align 1, !tbaa !14
  br label %676

675:                                              ; preds = %672
  call void @llvm.memcpy.p0.p0.i64(ptr align 1 %652, ptr align 1 %667, i64 %669, i1 false)
  br label %676

676:                                              ; preds = %675, %673, %672
  %677 = load i64, ptr %668, align 8, !tbaa !15
  %678 = icmp ult i64 %677, 9223372036854775807
  call void @llvm.assume(i1 %678)
  %679 = getelementptr inbounds nuw i8, ptr %650, i64 232
  store i64 %677, ptr %679, align 8, !tbaa !15
  %680 = load ptr, ptr %651, align 8, !tbaa !4
  %681 = getelementptr inbounds nuw i8, ptr %680, i64 %677
  store i8 0, ptr %681, align 1, !tbaa !14
  %682 = load ptr, ptr %20, align 8, !tbaa !4
  br label %698

683:                                              ; preds = %662
  %684 = load i64, ptr %653, align 8, !tbaa !14
  br label %685

685:                                              ; preds = %683, %655
  %686 = phi ptr [ %664, %683 ], [ %660, %655 ]
  %687 = phi ptr [ %663, %683 ], [ %659, %655 ]
  %688 = phi ptr [ %652, %683 ], [ null, %655 ]
  %689 = phi i64 [ %684, %683 ], [ undef, %655 ]
  store ptr %687, ptr %651, align 8, !tbaa !4
  %690 = getelementptr inbounds nuw i8, ptr %20, i64 8
  %691 = load i64, ptr %690, align 8, !tbaa !15
  %692 = icmp ult i64 %691, 9223372036854775807
  call void @llvm.assume(i1 %692)
  %693 = getelementptr inbounds nuw i8, ptr %650, i64 232
  store i64 %691, ptr %693, align 8, !tbaa !15
  %694 = load i64, ptr %686, align 8, !tbaa !14
  store i64 %694, ptr %653, align 8, !tbaa !14
  %695 = icmp eq ptr %688, null
  br i1 %695, label %697, label %696

696:                                              ; preds = %685
  store ptr %688, ptr %20, align 8, !tbaa !4
  store i64 %689, ptr %686, align 8, !tbaa !14
  br label %698

697:                                              ; preds = %685
  store ptr %686, ptr %20, align 8, !tbaa !4
  br label %698

698:                                              ; preds = %697, %696, %676, %666
  %699 = phi ptr [ %688, %696 ], [ %686, %697 ], [ %667, %666 ], [ %682, %676 ]
  %700 = getelementptr inbounds nuw i8, ptr %20, i64 8
  store i64 0, ptr %700, align 8, !tbaa !15
  store i8 0, ptr %699, align 1, !tbaa !14
  %701 = load ptr, ptr %20, align 8, !tbaa !4
  %702 = getelementptr inbounds nuw i8, ptr %20, i64 16
  %703 = icmp eq ptr %701, %702
  br i1 %703, label %704, label %707

704:                                              ; preds = %698
  %705 = load i64, ptr %700, align 8, !tbaa !15
  %706 = icmp ult i64 %705, 16
  call void @llvm.assume(i1 %706)
  br label %710

707:                                              ; preds = %698
  %708 = load i64, ptr %702, align 8, !tbaa !14
  %709 = add i64 %708, 1
  call void @_ZdlPvm(ptr noundef %701, i64 noundef %709) #40
  br label %710

710:                                              ; preds = %707, %704
  call void @llvm.lifetime.end.p0(ptr %20)
  call void @llvm.lifetime.start.p0(ptr %21)
  invoke fastcc void @_ZN16DeformationModelL9getStringERKN13proj_nlohmann10basic_jsonISt3mapSt6vectorNSt7__cxx1112basic_stringIcSt11char_traitsIcESaIcEEEblmdSaNS0_14adl_serializerES3_IhSaIhEEEEPKcb(ptr dead_on_unwind noalias nonnull writable align 8 %21, ptr noundef nonnull align 8 dereferenceable(16) %17, ptr noundef nonnull @.str.29, i1 noundef zeroext true)
          to label %711 unwind label %901

711:                                              ; preds = %710
  %712 = load ptr, ptr %0, align 8, !tbaa !25
  %713 = getelementptr inbounds nuw i8, ptr %712, i64 256
  %714 = load ptr, ptr %713, align 8, !tbaa !4
  %715 = getelementptr inbounds nuw i8, ptr %712, i64 272
  %716 = icmp eq ptr %714, %715
  br i1 %716, label %717, label %724

717:                                              ; preds = %711
  %718 = getelementptr inbounds nuw i8, ptr %712, i64 264
  %719 = load i64, ptr %718, align 8, !tbaa !15
  %720 = icmp ult i64 %719, 16
  call void @llvm.assume(i1 %720)
  %721 = load ptr, ptr %21, align 8, !tbaa !4
  %722 = getelementptr inbounds nuw i8, ptr %21, i64 16
  %723 = icmp eq ptr %721, %722
  br i1 %723, label %728, label %747

724:                                              ; preds = %711
  %725 = load ptr, ptr %21, align 8, !tbaa !4
  %726 = getelementptr inbounds nuw i8, ptr %21, i64 16
  %727 = icmp eq ptr %725, %726
  br i1 %727, label %728, label %745

728:                                              ; preds = %724, %717
  %729 = phi ptr [ %725, %724 ], [ %721, %717 ]
  %730 = getelementptr inbounds nuw i8, ptr %21, i64 8
  %731 = load i64, ptr %730, align 8, !tbaa !15
  %732 = icmp ult i64 %731, 16
  call void @llvm.assume(i1 %732)
  %733 = icmp eq ptr %21, %713
  br i1 %733, label %760, label %734, !prof !35

734:                                              ; preds = %728
  switch i64 %731, label %737 [
    i64 0, label %738
    i64 1, label %735
  ]

735:                                              ; preds = %734
  %736 = load i8, ptr %729, align 1, !tbaa !14
  store i8 %736, ptr %714, align 1, !tbaa !14
  br label %738

737:                                              ; preds = %734
  call void @llvm.memcpy.p0.p0.i64(ptr align 1 %714, ptr align 1 %729, i64 %731, i1 false)
  br label %738

738:                                              ; preds = %737, %735, %734
  %739 = load i64, ptr %730, align 8, !tbaa !15
  %740 = icmp ult i64 %739, 9223372036854775807
  call void @llvm.assume(i1 %740)
  %741 = getelementptr inbounds nuw i8, ptr %712, i64 264
  store i64 %739, ptr %741, align 8, !tbaa !15
  %742 = load ptr, ptr %713, align 8, !tbaa !4
  %743 = getelementptr inbounds nuw i8, ptr %742, i64 %739
  store i8 0, ptr %743, align 1, !tbaa !14
  %744 = load ptr, ptr %21, align 8, !tbaa !4
  br label %760

745:                                              ; preds = %724
  %746 = load i64, ptr %715, align 8, !tbaa !14
  br label %747

747:                                              ; preds = %745, %717
  %748 = phi ptr [ %726, %745 ], [ %722, %717 ]
  %749 = phi ptr [ %725, %745 ], [ %721, %717 ]
  %750 = phi ptr [ %714, %745 ], [ null, %717 ]
  %751 = phi i64 [ %746, %745 ], [ undef, %717 ]
  store ptr %749, ptr %713, align 8, !tbaa !4
  %752 = getelementptr inbounds nuw i8, ptr %21, i64 8
  %753 = load i64, ptr %752, align 8, !tbaa !15
  %754 = icmp ult i64 %753, 9223372036854775807
  call void @llvm.assume(i1 %754)
  %755 = getelementptr inbounds nuw i8, ptr %712, i64 264
  store i64 %753, ptr %755, align 8, !tbaa !15
  %756 = load i64, ptr %748, align 8, !tbaa !14
  store i64 %756, ptr %715, align 8, !tbaa !14
  %757 = icmp eq ptr %750, null
  br i1 %757, label %759, label %758

758:                                              ; preds = %747
  store ptr %750, ptr %21, align 8, !tbaa !4
  store i64 %751, ptr %748, align 8, !tbaa !14
  br label %760

759:                                              ; preds = %747
  store ptr %748, ptr %21, align 8, !tbaa !4
  br label %760

760:                                              ; preds = %759, %758, %738, %728
  %761 = phi ptr [ %750, %758 ], [ %748, %759 ], [ %729, %728 ], [ %744, %738 ]
  %762 = getelementptr inbounds nuw i8, ptr %21, i64 8
  store i64 0, ptr %762, align 8, !tbaa !15
  store i8 0, ptr %761, align 1, !tbaa !14
  %763 = load ptr, ptr %21, align 8, !tbaa !4
  %764 = getelementptr inbounds nuw i8, ptr %21, i64 16
  %765 = icmp eq ptr %763, %764
  br i1 %765, label %766, label %769

766:                                              ; preds = %760
  %767 = load i64, ptr %762, align 8, !tbaa !15
  %768 = icmp ult i64 %767, 16
  call void @llvm.assume(i1 %768)
  br label %772

769:                                              ; preds = %760
  %770 = load i64, ptr %764, align 8, !tbaa !14
  %771 = add i64 %770, 1
  call void @_ZdlPvm(ptr noundef %763, i64 noundef %771) #40
  br label %772

772:                                              ; preds = %769, %766
  call void @llvm.lifetime.end.p0(ptr %21)
  call void @llvm.lifetime.start.p0(ptr %22)
  invoke fastcc void @_ZN16DeformationModelL9getStringERKN13proj_nlohmann10basic_jsonISt3mapSt6vectorNSt7__cxx1112basic_stringIcSt11char_traitsIcESaIcEEEblmdSaNS0_14adl_serializerES3_IhSaIhEEEEPKcb(ptr dead_on_unwind noalias nonnull writable align 8 %22, ptr noundef nonnull align 8 dereferenceable(16) %17, ptr noundef nonnull @.str.30, i1 noundef zeroext true)
          to label %773 unwind label %903

773:                                              ; preds = %772
  %774 = load ptr, ptr %0, align 8, !tbaa !25
  %775 = getelementptr inbounds nuw i8, ptr %774, i64 288
  %776 = load ptr, ptr %775, align 8, !tbaa !4
  %777 = getelementptr inbounds nuw i8, ptr %774, i64 304
  %778 = icmp eq ptr %776, %777
  br i1 %778, label %779, label %786

779:                                              ; preds = %773
  %780 = getelementptr inbounds nuw i8, ptr %774, i64 296
  %781 = load i64, ptr %780, align 8, !tbaa !15
  %782 = icmp ult i64 %781, 16
  call void @llvm.assume(i1 %782)
  %783 = load ptr, ptr %22, align 8, !tbaa !4
  %784 = getelementptr inbounds nuw i8, ptr %22, i64 16
  %785 = icmp eq ptr %783, %784
  br i1 %785, label %790, label %809

786:                                              ; preds = %773
  %787 = load ptr, ptr %22, align 8, !tbaa !4
  %788 = getelementptr inbounds nuw i8, ptr %22, i64 16
  %789 = icmp eq ptr %787, %788
  br i1 %789, label %790, label %807

790:                                              ; preds = %786, %779
  %791 = phi ptr [ %787, %786 ], [ %783, %779 ]
  %792 = getelementptr inbounds nuw i8, ptr %22, i64 8
  %793 = load i64, ptr %792, align 8, !tbaa !15
  %794 = icmp ult i64 %793, 16
  call void @llvm.assume(i1 %794)
  %795 = icmp eq ptr %22, %775
  br i1 %795, label %822, label %796, !prof !35

796:                                              ; preds = %790
  switch i64 %793, label %799 [
    i64 0, label %800
    i64 1, label %797
  ]

797:                                              ; preds = %796
  %798 = load i8, ptr %791, align 1, !tbaa !14
  store i8 %798, ptr %776, align 1, !tbaa !14
  br label %800

799:                                              ; preds = %796
  call void @llvm.memcpy.p0.p0.i64(ptr align 1 %776, ptr align 1 %791, i64 %793, i1 false)
  br label %800

800:                                              ; preds = %799, %797, %796
  %801 = load i64, ptr %792, align 8, !tbaa !15
  %802 = icmp ult i64 %801, 9223372036854775807
  call void @llvm.assume(i1 %802)
  %803 = getelementptr inbounds nuw i8, ptr %774, i64 296
  store i64 %801, ptr %803, align 8, !tbaa !15
  %804 = load ptr, ptr %775, align 8, !tbaa !4
  %805 = getelementptr inbounds nuw i8, ptr %804, i64 %801
  store i8 0, ptr %805, align 1, !tbaa !14
  %806 = load ptr, ptr %22, align 8, !tbaa !4
  br label %822

807:                                              ; preds = %786
  %808 = load i64, ptr %777, align 8, !tbaa !14
  br label %809

809:                                              ; preds = %807, %779
  %810 = phi ptr [ %788, %807 ], [ %784, %779 ]
  %811 = phi ptr [ %787, %807 ], [ %783, %779 ]
  %812 = phi ptr [ %776, %807 ], [ null, %779 ]
  %813 = phi i64 [ %808, %807 ], [ undef, %779 ]
  store ptr %811, ptr %775, align 8, !tbaa !4
  %814 = getelementptr inbounds nuw i8, ptr %22, i64 8
  %815 = load i64, ptr %814, align 8, !tbaa !15
  %816 = icmp ult i64 %815, 9223372036854775807
  call void @llvm.assume(i1 %816)
  %817 = getelementptr inbounds nuw i8, ptr %774, i64 296
  store i64 %815, ptr %817, align 8, !tbaa !15
  %818 = load i64, ptr %810, align 8, !tbaa !14
  store i64 %818, ptr %777, align 8, !tbaa !14
  %819 = icmp eq ptr %812, null
  br i1 %819, label %821, label %820

820:                                              ; preds = %809
  store ptr %812, ptr %22, align 8, !tbaa !4
  store i64 %813, ptr %810, align 8, !tbaa !14
  br label %822

821:                                              ; preds = %809
  store ptr %810, ptr %22, align 8, !tbaa !4
  br label %822

822:                                              ; preds = %821, %820, %800, %790
  %823 = phi ptr [ %812, %820 ], [ %810, %821 ], [ %791, %790 ], [ %806, %800 ]
  %824 = getelementptr inbounds nuw i8, ptr %22, i64 8
  store i64 0, ptr %824, align 8, !tbaa !15
  store i8 0, ptr %823, align 1, !tbaa !14
  %825 = load ptr, ptr %22, align 8, !tbaa !4
  %826 = getelementptr inbounds nuw i8, ptr %22, i64 16
  %827 = icmp eq ptr %825, %826
  br i1 %827, label %828, label %831

828:                                              ; preds = %822
  %829 = load i64, ptr %824, align 8, !tbaa !15
  %830 = icmp ult i64 %829, 16
  call void @llvm.assume(i1 %830)
  br label %834

831:                                              ; preds = %822
  %832 = load i64, ptr %826, align 8, !tbaa !14
  %833 = add i64 %832, 1
  call void @_ZdlPvm(ptr noundef %825, i64 noundef %833) #40
  br label %834

834:                                              ; preds = %831, %828
  call void @llvm.lifetime.end.p0(ptr %22)
  call void @llvm.lifetime.start.p0(ptr %23)
  invoke fastcc void @_ZN16DeformationModelL9getStringERKN13proj_nlohmann10basic_jsonISt3mapSt6vectorNSt7__cxx1112basic_stringIcSt11char_traitsIcESaIcEEEblmdSaNS0_14adl_serializerES3_IhSaIhEEEEPKcb(ptr dead_on_unwind noalias nonnull writable align 8 %23, ptr noundef nonnull align 8 dereferenceable(16) %17, ptr noundef nonnull @.str.31, i1 noundef zeroext true)
          to label %835 unwind label %905

835:                                              ; preds = %834
  %836 = load ptr, ptr %0, align 8, !tbaa !25
  %837 = getelementptr inbounds nuw i8, ptr %836, i64 320
  %838 = load ptr, ptr %837, align 8, !tbaa !4
  %839 = getelementptr inbounds nuw i8, ptr %836, i64 336
  %840 = icmp eq ptr %838, %839
  br i1 %840, label %841, label %848

841:                                              ; preds = %835
  %842 = getelementptr inbounds nuw i8, ptr %836, i64 328
  %843 = load i64, ptr %842, align 8, !tbaa !15
  %844 = icmp ult i64 %843, 16
  call void @llvm.assume(i1 %844)
  %845 = load ptr, ptr %23, align 8, !tbaa !4
  %846 = getelementptr inbounds nuw i8, ptr %23, i64 16
  %847 = icmp eq ptr %845, %846
  br i1 %847, label %852, label %871

848:                                              ; preds = %835
  %849 = load ptr, ptr %23, align 8, !tbaa !4
  %850 = getelementptr inbounds nuw i8, ptr %23, i64 16
  %851 = icmp eq ptr %849, %850
  br i1 %851, label %852, label %869

852:                                              ; preds = %848, %841
  %853 = phi ptr [ %849, %848 ], [ %845, %841 ]
  %854 = getelementptr inbounds nuw i8, ptr %23, i64 8
  %855 = load i64, ptr %854, align 8, !tbaa !15
  %856 = icmp ult i64 %855, 16
  call void @llvm.assume(i1 %856)
  %857 = icmp eq ptr %23, %837
  br i1 %857, label %884, label %858, !prof !35

858:                                              ; preds = %852
  switch i64 %855, label %861 [
    i64 0, label %862
    i64 1, label %859
  ]

859:                                              ; preds = %858
  %860 = load i8, ptr %853, align 1, !tbaa !14
  store i8 %860, ptr %838, align 1, !tbaa !14
  br label %862

861:                                              ; preds = %858
  call void @llvm.memcpy.p0.p0.i64(ptr align 1 %838, ptr align 1 %853, i64 %855, i1 false)
  br label %862

862:                                              ; preds = %861, %859, %858
  %863 = load i64, ptr %854, align 8, !tbaa !15
  %864 = icmp ult i64 %863, 9223372036854775807
  call void @llvm.assume(i1 %864)
  %865 = getelementptr inbounds nuw i8, ptr %836, i64 328
  store i64 %863, ptr %865, align 8, !tbaa !15
  %866 = load ptr, ptr %837, align 8, !tbaa !4
  %867 = getelementptr inbounds nuw i8, ptr %866, i64 %863
  store i8 0, ptr %867, align 1, !tbaa !14
  %868 = load ptr, ptr %23, align 8, !tbaa !4
  br label %884

869:                                              ; preds = %848
  %870 = load i64, ptr %839, align 8, !tbaa !14
  br label %871

871:                                              ; preds = %869, %841
  %872 = phi ptr [ %850, %869 ], [ %846, %841 ]
  %873 = phi ptr [ %849, %869 ], [ %845, %841 ]
  %874 = phi ptr [ %838, %869 ], [ null, %841 ]
  %875 = phi i64 [ %870, %869 ], [ undef, %841 ]
  store ptr %873, ptr %837, align 8, !tbaa !4
  %876 = getelementptr inbounds nuw i8, ptr %23, i64 8
  %877 = load i64, ptr %876, align 8, !tbaa !15
  %878 = icmp ult i64 %877, 9223372036854775807
  call void @llvm.assume(i1 %878)
  %879 = getelementptr inbounds nuw i8, ptr %836, i64 328
  store i64 %877, ptr %879, align 8, !tbaa !15
  %880 = load i64, ptr %872, align 8, !tbaa !14
  store i64 %880, ptr %839, align 8, !tbaa !14
  %881 = icmp eq ptr %874, null
  br i1 %881, label %883, label %882

882:                                              ; preds = %871
  store ptr %874, ptr %23, align 8, !tbaa !4
  store i64 %875, ptr %872, align 8, !tbaa !14
  br label %884

883:                                              ; preds = %871
  store ptr %872, ptr %23, align 8, !tbaa !4
  br label %884

884:                                              ; preds = %883, %882, %862, %852
  %885 = phi ptr [ %874, %882 ], [ %872, %883 ], [ %853, %852 ], [ %868, %862 ]
  %886 = getelementptr inbounds nuw i8, ptr %23, i64 8
  store i64 0, ptr %886, align 8, !tbaa !15
  store i8 0, ptr %885, align 1, !tbaa !14
  %887 = load ptr, ptr %23, align 8, !tbaa !4
  %888 = getelementptr inbounds nuw i8, ptr %23, i64 16
  %889 = icmp eq ptr %887, %888
  br i1 %889, label %890, label %893

890:                                              ; preds = %884
  %891 = load i64, ptr %886, align 8, !tbaa !15
  %892 = icmp ult i64 %891, 16
  call void @llvm.assume(i1 %892)
  br label %896

893:                                              ; preds = %884
  %894 = load i64, ptr %888, align 8, !tbaa !14
  %895 = add i64 %894, 1
  call void @_ZdlPvm(ptr noundef %887, i64 noundef %895) #40
  br label %896

896:                                              ; preds = %893, %890
  call void @llvm.lifetime.end.p0(ptr %23)
  %897 = getelementptr inbounds nuw i8, ptr %17, i64 8
  %898 = load i8, ptr %17, align 8, !tbaa !27
  call void @_ZN13proj_nlohmann10basic_jsonISt3mapSt6vectorNSt7__cxx1112basic_stringIcSt11char_traitsIcESaIcEEEblmdSaNS_14adl_serializerES2_IhSaIhEEE10json_value7destroyENS_6detail7value_tE(ptr noundef nonnull align 8 dereferenceable(8) %897, i8 noundef zeroext %898) #38
  call void @llvm.lifetime.end.p0(ptr %17)
  br label %913

899:                                              ; preds = %648
  %900 = landingpad { ptr, i32 }
          cleanup
  call void @llvm.lifetime.end.p0(ptr %20)
  br label %907

901:                                              ; preds = %710
  %902 = landingpad { ptr, i32 }
          cleanup
  call void @llvm.lifetime.end.p0(ptr %21)
  br label %907

903:                                              ; preds = %772
  %904 = landingpad { ptr, i32 }
          cleanup
  call void @llvm.lifetime.end.p0(ptr %22)
  br label %907

905:                                              ; preds = %834
  %906 = landingpad { ptr, i32 }
          cleanup
  call void @llvm.lifetime.end.p0(ptr %23)
  br label %907

907:                                              ; preds = %905, %903, %901, %899, %646, %643, %639
  %908 = phi { ptr, i32 } [ %906, %905 ], [ %904, %903 ], [ %902, %901 ], [ %900, %899 ], [ %647, %646 ], [ %635, %643 ], [ %635, %639 ]
  %909 = getelementptr inbounds nuw i8, ptr %17, i64 8
  %910 = load i8, ptr %17, align 8, !tbaa !27
  call void @_ZN13proj_nlohmann10basic_jsonISt3mapSt6vectorNSt7__cxx1112basic_stringIcSt11char_traitsIcESaIcEEEblmdSaNS_14adl_serializerES2_IhSaIhEEE10json_value7destroyENS_6detail7value_tE(ptr noundef nonnull align 8 dereferenceable(8) %909, i8 noundef zeroext %910) #38
  br label %911

911:                                              ; preds = %907, %629
  %912 = phi { ptr, i32 } [ %908, %907 ], [ %630, %629 ]
  call void @llvm.lifetime.end.p0(ptr %17)
  br label %2865

913:                                              ; preds = %896, %599
  %914 = load i8, ptr %3, align 8, !tbaa !27
  %915 = icmp eq i8 %914, 1
  br i1 %915, label %916, label %1279

916:                                              ; preds = %913
  %917 = load ptr, ptr %79, align 8, !tbaa !14
  %918 = invoke ptr @_ZNKSt8_Rb_treeINSt7__cxx1112basic_stringIcSt11char_traitsIcESaIcEEESt4pairIKS5_N13proj_nlohmann10basic_jsonISt3mapSt6vectorS5_blmdSaNS8_14adl_serializerESB_IhSaIhEEEEESt10_Select1stISG_ESt4lessIvESaISG_EE10_M_find_trIA6_cvEESt23_Rb_tree_const_iteratorISG_ERKT_(ptr noundef nonnull align 8 dereferenceable(48) %917, ptr noundef nonnull align 1 dereferenceable(6) @.str.32)
          to label %919 unwind label %627

919:                                              ; preds = %916
  %920 = load ptr, ptr %79, align 8, !tbaa !14
  %921 = getelementptr inbounds nuw i8, ptr %920, i64 8
  %922 = icmp eq ptr %918, %921
  br i1 %922, label %1279, label %923

923:                                              ; preds = %919
  call void @llvm.lifetime.start.p0(ptr %24)
  %924 = invoke noundef nonnull align 8 dereferenceable(16) ptr @_ZN13proj_nlohmann10basic_jsonISt3mapSt6vectorNSt7__cxx1112basic_stringIcSt11char_traitsIcESaIcEEEblmdSaNS_14adl_serializerES2_IhSaIhEEEixIKcEERSC_PT_(ptr noundef nonnull align 8 dereferenceable(16) %3, ptr noundef @.str.32)
          to label %925 unwind label %933

925:                                              ; preds = %923
  invoke void @_ZN13proj_nlohmann10basic_jsonISt3mapSt6vectorNSt7__cxx1112basic_stringIcSt11char_traitsIcESaIcEEEblmdSaNS_14adl_serializerES2_IhSaIhEEEC2ERKSC_(ptr noundef nonnull align 8 dereferenceable(16) %24, ptr noundef nonnull align 8 dereferenceable(16) %924)
          to label %926 unwind label %933

926:                                              ; preds = %925
  %927 = load i8, ptr %24, align 8, !tbaa !27
  %928 = icmp eq i8 %927, 2
  br i1 %928, label %952, label %929

929:                                              ; preds = %926
  %930 = call ptr @__cxa_allocate_exception(i64 40) #38
  call void @llvm.lifetime.start.p0(ptr %25)
  call void @llvm.lifetime.start.p0(ptr %26)
  invoke void @_ZNSt7__cxx1112basic_stringIcSt11char_traitsIcESaIcEEC2IS3_EEPKcRKS3_(ptr noundef nonnull align 8 dereferenceable(32) %25, ptr noundef nonnull @.str.33, ptr noundef nonnull align 1 dereferenceable(1) %26)
          to label %931 unwind label %935

931:                                              ; preds = %929
  invoke void @_ZN16DeformationModel16ParsingExceptionC2ERKNSt7__cxx1112basic_stringIcSt11char_traitsIcESaIcEEE(ptr noundef nonnull align 8 dereferenceable(40) %930, ptr noundef nonnull align 8 dereferenceable(32) %25)
          to label %932 unwind label %937

932:                                              ; preds = %931
  invoke void @__cxa_throw(ptr nonnull %930, ptr nonnull @_ZTIN16DeformationModel16ParsingExceptionE, ptr nonnull @_ZN16DeformationModel16ParsingExceptionD2Ev) #39
          to label %2873 unwind label %937

933:                                              ; preds = %925, %923
  %934 = landingpad { ptr, i32 }
          cleanup
  br label %1277

935:                                              ; preds = %929
  %936 = landingpad { ptr, i32 }
          cleanup
  call void @llvm.lifetime.end.p0(ptr %26)
  call void @llvm.lifetime.end.p0(ptr %25)
  br label %950

937:                                              ; preds = %932, %931
  %938 = phi i1 [ false, %932 ], [ true, %931 ]
  %939 = landingpad { ptr, i32 }
          cleanup
  %940 = load ptr, ptr %25, align 8, !tbaa !4
  %941 = getelementptr inbounds nuw i8, ptr %25, i64 16
  %942 = icmp eq ptr %940, %941
  br i1 %942, label %943, label %947

943:                                              ; preds = %937
  %944 = getelementptr inbounds nuw i8, ptr %25, i64 8
  %945 = load i64, ptr %944, align 8, !tbaa !15
  %946 = icmp ult i64 %945, 16
  call void @llvm.assume(i1 %946)
  call void @llvm.lifetime.end.p0(ptr %26)
  call void @llvm.lifetime.end.p0(ptr %25)
  br i1 %938, label %950, label %1273

947:                                              ; preds = %937
  %948 = load i64, ptr %941, align 8, !tbaa !14
  %949 = add i64 %948, 1
  call void @_ZdlPvm(ptr noundef %940, i64 noundef %949) #40
  call void @llvm.lifetime.end.p0(ptr %26)
  call void @llvm.lifetime.end.p0(ptr %25)
  br i1 %938, label %950, label %1273

950:                                              ; preds = %947, %943, %935
  %951 = phi { ptr, i32 } [ %936, %935 ], [ %939, %947 ], [ %939, %943 ]
  call void @__cxa_free_exception(ptr %930) #38
  br label %1273

952:                                              ; preds = %926
  call void @llvm.lifetime.start.p0(ptr %27)
  call void @llvm.experimental.noalias.scope.decl(metadata !36)
  call void @llvm.experimental.noalias.scope.decl(metadata !39)
  store ptr %24, ptr %27, align 8, !tbaa !42, !alias.scope !50
  %953 = getelementptr inbounds nuw i8, ptr %27, i64 8
  %954 = getelementptr inbounds nuw i8, ptr %27, i64 24
  store i64 0, ptr %953, align 8
  store i64 -9223372036854775808, ptr %954, align 8, !tbaa !51, !alias.scope !50
  %955 = getelementptr inbounds nuw i8, ptr %24, i64 8
  %956 = load ptr, ptr %955, align 8, !tbaa !14, !noalias !50
  %957 = load ptr, ptr %956, align 8, !tbaa !52, !noalias !50
  %958 = getelementptr inbounds nuw i8, ptr %27, i64 16
  store ptr %957, ptr %958, align 8, !tbaa !52, !alias.scope !50
  call void @llvm.lifetime.start.p0(ptr %28)
  call void @llvm.experimental.noalias.scope.decl(metadata !53)
  call void @llvm.experimental.noalias.scope.decl(metadata !56)
  store ptr %24, ptr %28, align 8, !tbaa !42, !alias.scope !59
  %959 = getelementptr inbounds nuw i8, ptr %28, i64 8
  %960 = getelementptr inbounds nuw i8, ptr %28, i64 24
  store i64 0, ptr %959, align 8
  store i64 -9223372036854775808, ptr %960, align 8, !tbaa !51, !alias.scope !59
  %961 = getelementptr inbounds nuw i8, ptr %956, i64 8
  %962 = load ptr, ptr %961, align 8, !tbaa !52, !noalias !59
  %963 = getelementptr inbounds nuw i8, ptr %28, i64 16
  store ptr %962, ptr %963, align 8, !tbaa !52, !alias.scope !59
  %964 = getelementptr inbounds nuw i8, ptr %31, i64 16
  %965 = getelementptr inbounds nuw i8, ptr %31, i64 8
  %966 = getelementptr inbounds nuw i8, ptr %31, i64 32
  %967 = getelementptr inbounds nuw i8, ptr %31, i64 48
  %968 = getelementptr inbounds nuw i8, ptr %31, i64 40
  %969 = getelementptr inbounds nuw i8, ptr %31, i64 64
  %970 = getelementptr inbounds nuw i8, ptr %31, i64 80
  %971 = getelementptr inbounds nuw i8, ptr %31, i64 72
  %972 = getelementptr inbounds nuw i8, ptr %31, i64 96
  %973 = getelementptr inbounds nuw i8, ptr %31, i64 112
  %974 = getelementptr inbounds nuw i8, ptr %31, i64 104
  %975 = getelementptr inbounds nuw i8, ptr %32, i64 16
  %976 = getelementptr inbounds nuw i8, ptr %32, i64 8
  %977 = getelementptr inbounds nuw i8, ptr %33, i64 16
  %978 = getelementptr inbounds nuw i8, ptr %33, i64 8
  %979 = getelementptr inbounds nuw i8, ptr %34, i64 16
  %980 = getelementptr inbounds nuw i8, ptr %34, i64 8
  %981 = getelementptr inbounds nuw i8, ptr %35, i64 16
  %982 = getelementptr inbounds nuw i8, ptr %35, i64 8
  br label %983

983:                                              ; preds = %1252, %952
  %984 = invoke noundef zeroext i1 @_ZNK13proj_nlohmann6detail9iter_implIKNS_10basic_jsonISt3mapSt6vectorNSt7__cxx1112basic_stringIcSt11char_traitsIcESaIcEEEblmdSaNS_14adl_serializerES4_IhSaIhEEEEEeqERKSG_(ptr noundef nonnull align 8 dereferenceable(32) %27, ptr noundef nonnull align 8 dereferenceable(32) %28)
          to label %985 unwind label %988

985:                                              ; preds = %983
  br i1 %984, label %986, label %990

986:                                              ; preds = %985
  call void @llvm.lifetime.end.p0(ptr %28)
  call void @llvm.lifetime.end.p0(ptr %27)
  %987 = load i8, ptr %24, align 8, !tbaa !27
  call void @_ZN13proj_nlohmann10basic_jsonISt3mapSt6vectorNSt7__cxx1112basic_stringIcSt11char_traitsIcESaIcEEEblmdSaNS_14adl_serializerES2_IhSaIhEEE10json_value7destroyENS_6detail7value_tE(ptr noundef nonnull align 8 dereferenceable(8) %955, i8 noundef zeroext %987) #38
  call void @llvm.lifetime.end.p0(ptr %24)
  br label %1279

988:                                              ; preds = %983
  %989 = landingpad { ptr, i32 }
          cleanup
  br label %1271

990:                                              ; preds = %985
  %991 = invoke noundef nonnull align 8 dereferenceable(16) ptr @_ZNK13proj_nlohmann6detail9iter_implIKNS_10basic_jsonISt3mapSt6vectorNSt7__cxx1112basic_stringIcSt11char_traitsIcESaIcEEEblmdSaNS_14adl_serializerES4_IhSaIhEEEEEdeEv(ptr noundef nonnull align 8 dereferenceable(32) %27)
          to label %992 unwind label %999

992:                                              ; preds = %990
  %993 = load i8, ptr %991, align 8, !tbaa !27
  %994 = icmp eq i8 %993, 1
  br i1 %994, label %1018, label %995

995:                                              ; preds = %992
  %996 = call ptr @__cxa_allocate_exception(i64 40) #38
  call void @llvm.lifetime.start.p0(ptr %29)
  call void @llvm.lifetime.start.p0(ptr %30)
  invoke void @_ZNSt7__cxx1112basic_stringIcSt11char_traitsIcESaIcEEC2IS3_EEPKcRKS3_(ptr noundef nonnull align 8 dereferenceable(32) %29, ptr noundef nonnull @.str.34, ptr noundef nonnull align 1 dereferenceable(1) %30)
          to label %997 unwind label %1001

997:                                              ; preds = %995
  invoke void @_ZN16DeformationModel16ParsingExceptionC2ERKNSt7__cxx1112basic_stringIcSt11char_traitsIcESaIcEEE(ptr noundef nonnull align 8 dereferenceable(40) %996, ptr noundef nonnull align 8 dereferenceable(32) %29)
          to label %998 unwind label %1003

998:                                              ; preds = %997
  invoke void @__cxa_throw(ptr nonnull %996, ptr nonnull @_ZTIN16DeformationModel16ParsingExceptionE, ptr nonnull @_ZN16DeformationModel16ParsingExceptionD2Ev) #39
          to label %2873 unwind label %1003

999:                                              ; preds = %990
  %1000 = landingpad { ptr, i32 }
          cleanup
  br label %1271

1001:                                             ; preds = %995
  %1002 = landingpad { ptr, i32 }
          cleanup
  call void @llvm.lifetime.end.p0(ptr %30)
  call void @llvm.lifetime.end.p0(ptr %29)
  br label %1016

1003:                                             ; preds = %998, %997
  %1004 = phi i1 [ false, %998 ], [ true, %997 ]
  %1005 = landingpad { ptr, i32 }
          cleanup
  %1006 = load ptr, ptr %29, align 8, !tbaa !4
  %1007 = getelementptr inbounds nuw i8, ptr %29, i64 16
  %1008 = icmp eq ptr %1006, %1007
  br i1 %1008, label %1009, label %1013

1009:                                             ; preds = %1003
  %1010 = getelementptr inbounds nuw i8, ptr %29, i64 8
  %1011 = load i64, ptr %1010, align 8, !tbaa !15
  %1012 = icmp ult i64 %1011, 16
  call void @llvm.assume(i1 %1012)
  call void @llvm.lifetime.end.p0(ptr %30)
  call void @llvm.lifetime.end.p0(ptr %29)
  br i1 %1004, label %1016, label %1271

1013:                                             ; preds = %1003
  %1014 = load i64, ptr %1007, align 8, !tbaa !14
  %1015 = add i64 %1014, 1
  call void @_ZdlPvm(ptr noundef %1006, i64 noundef %1015) #40
  call void @llvm.lifetime.end.p0(ptr %30)
  call void @llvm.lifetime.end.p0(ptr %29)
  br i1 %1004, label %1016, label %1271

1016:                                             ; preds = %1013, %1009, %1001
  %1017 = phi { ptr, i32 } [ %1002, %1001 ], [ %1005, %1013 ], [ %1005, %1009 ]
  call void @__cxa_free_exception(ptr %996) #38
  br label %1271

1018:                                             ; preds = %992
  call void @llvm.lifetime.start.p0(ptr %31)
  store ptr %964, ptr %31, align 8, !tbaa !12
  store i64 0, ptr %965, align 8, !tbaa !15
  store i8 0, ptr %964, align 8, !tbaa !14
  store ptr %967, ptr %966, align 8, !tbaa !12
  store i64 0, ptr %968, align 8, !tbaa !15
  store i8 0, ptr %967, align 8, !tbaa !14
  store ptr %970, ptr %969, align 8, !tbaa !12
  store i64 0, ptr %971, align 8, !tbaa !15
  store i8 0, ptr %970, align 8, !tbaa !14
  store ptr %973, ptr %972, align 8, !tbaa !12
  store i64 0, ptr %974, align 8, !tbaa !15
  store i8 0, ptr %973, align 8, !tbaa !14
  call void @llvm.lifetime.start.p0(ptr %32)
  invoke fastcc void @_ZN16DeformationModelL9getStringERKN13proj_nlohmann10basic_jsonISt3mapSt6vectorNSt7__cxx1112basic_stringIcSt11char_traitsIcESaIcEEEblmdSaNS0_14adl_serializerES3_IhSaIhEEEEPKcb(ptr dead_on_unwind noalias nonnull writable align 8 %32, ptr noundef nonnull align 8 dereferenceable(16) %991, ptr noundef nonnull @.str.35, i1 noundef zeroext true)
          to label %1019 unwind label %1259

1019:                                             ; preds = %1018
  %1020 = load ptr, ptr %31, align 8, !tbaa !4
  %1021 = icmp eq ptr %1020, %964
  br i1 %1021, label %1022, label %1027

1022:                                             ; preds = %1019
  %1023 = load i64, ptr %965, align 8, !tbaa !15
  %1024 = icmp ult i64 %1023, 16
  call void @llvm.assume(i1 %1024)
  %1025 = load ptr, ptr %32, align 8, !tbaa !4
  %1026 = icmp eq ptr %1025, %975
  br i1 %1026, label %1030, label %1045

1027:                                             ; preds = %1019
  %1028 = load ptr, ptr %32, align 8, !tbaa !4
  %1029 = icmp eq ptr %1028, %975
  br i1 %1029, label %1030, label %1043

1030:                                             ; preds = %1027, %1022
  %1031 = phi ptr [ %1028, %1027 ], [ %1025, %1022 ]
  %1032 = load i64, ptr %976, align 8, !tbaa !15
  %1033 = icmp ult i64 %1032, 16
  call void @llvm.assume(i1 %1033)
  switch i64 %1032, label %1036 [
    i64 0, label %1037
    i64 1, label %1034
  ]

1034:                                             ; preds = %1030
  %1035 = load i8, ptr %1031, align 1, !tbaa !14
  store i8 %1035, ptr %1020, align 1, !tbaa !14
  br label %1037

1036:                                             ; preds = %1030
  call void @llvm.memcpy.p0.p0.i64(ptr align 1 %1020, ptr align 1 %1031, i64 %1032, i1 false)
  br label %1037

1037:                                             ; preds = %1036, %1034, %1030
  %1038 = load i64, ptr %976, align 8, !tbaa !15
  %1039 = icmp ult i64 %1038, 9223372036854775807
  call void @llvm.assume(i1 %1039)
  store i64 %1038, ptr %965, align 8, !tbaa !15
  %1040 = load ptr, ptr %31, align 8, !tbaa !4
  %1041 = getelementptr inbounds nuw i8, ptr %1040, i64 %1038
  store i8 0, ptr %1041, align 1, !tbaa !14
  %1042 = load ptr, ptr %32, align 8, !tbaa !4
  br label %1055

1043:                                             ; preds = %1027
  %1044 = load i64, ptr %964, align 8, !tbaa !14
  br label %1045

1045:                                             ; preds = %1043, %1022
  %1046 = phi ptr [ %1028, %1043 ], [ %1025, %1022 ]
  %1047 = phi ptr [ %1020, %1043 ], [ null, %1022 ]
  %1048 = phi i64 [ %1044, %1043 ], [ undef, %1022 ]
  store ptr %1046, ptr %31, align 8, !tbaa !4
  %1049 = load i64, ptr %976, align 8, !tbaa !15
  %1050 = icmp ult i64 %1049, 9223372036854775807
  call void @llvm.assume(i1 %1050)
  store i64 %1049, ptr %965, align 8, !tbaa !15
  %1051 = load i64, ptr %975, align 8, !tbaa !14
  store i64 %1051, ptr %964, align 8, !tbaa !14
  %1052 = icmp eq ptr %1047, null
  br i1 %1052, label %1054, label %1053

1053:                                             ; preds = %1045
  store ptr %1047, ptr %32, align 8, !tbaa !4
  store i64 %1048, ptr %975, align 8, !tbaa !14
  br label %1055

1054:                                             ; preds = %1045
  store ptr %975, ptr %32, align 8, !tbaa !4
  br label %1055

1055:                                             ; preds = %1054, %1053, %1037
  %1056 = phi ptr [ %1047, %1053 ], [ %975, %1054 ], [ %1042, %1037 ]
  store i64 0, ptr %976, align 8, !tbaa !15
  store i8 0, ptr %1056, align 1, !tbaa !14
  %1057 = load ptr, ptr %32, align 8, !tbaa !4
  %1058 = icmp eq ptr %1057, %975
  br i1 %1058, label %1059, label %1062

1059:                                             ; preds = %1055
  %1060 = load i64, ptr %976, align 8, !tbaa !15
  %1061 = icmp ult i64 %1060, 16
  call void @llvm.assume(i1 %1061)
  br label %1065

1062:                                             ; preds = %1055
  %1063 = load i64, ptr %975, align 8, !tbaa !14
  %1064 = add i64 %1063, 1
  call void @_ZdlPvm(ptr noundef %1057, i64 noundef %1064) #40
  br label %1065

1065:                                             ; preds = %1062, %1059
  call void @llvm.lifetime.end.p0(ptr %32)
  call void @llvm.lifetime.start.p0(ptr %33)
  invoke fastcc void @_ZN16DeformationModelL9getStringERKN13proj_nlohmann10basic_jsonISt3mapSt6vectorNSt7__cxx1112basic_stringIcSt11char_traitsIcESaIcEEEblmdSaNS0_14adl_serializerES3_IhSaIhEEEEPKcb(ptr dead_on_unwind noalias nonnull writable align 8 %33, ptr noundef nonnull align 8 dereferenceable(16) %991, ptr noundef nonnull @.str.36, i1 noundef zeroext true)
          to label %1066 unwind label %1261

1066:                                             ; preds = %1065
  %1067 = load ptr, ptr %966, align 8, !tbaa !4
  %1068 = icmp eq ptr %1067, %967
  br i1 %1068, label %1069, label %1074

1069:                                             ; preds = %1066
  %1070 = load i64, ptr %968, align 8, !tbaa !15
  %1071 = icmp ult i64 %1070, 16
  call void @llvm.assume(i1 %1071)
  %1072 = load ptr, ptr %33, align 8, !tbaa !4
  %1073 = icmp eq ptr %1072, %977
  br i1 %1073, label %1077, label %1092

1074:                                             ; preds = %1066
  %1075 = load ptr, ptr %33, align 8, !tbaa !4
  %1076 = icmp eq ptr %1075, %977
  br i1 %1076, label %1077, label %1090

1077:                                             ; preds = %1074, %1069
  %1078 = phi ptr [ %1075, %1074 ], [ %1072, %1069 ]
  %1079 = load i64, ptr %978, align 8, !tbaa !15
  %1080 = icmp ult i64 %1079, 16
  call void @llvm.assume(i1 %1080)
  switch i64 %1079, label %1083 [
    i64 0, label %1084
    i64 1, label %1081
  ]

1081:                                             ; preds = %1077
  %1082 = load i8, ptr %1078, align 1, !tbaa !14
  store i8 %1082, ptr %1067, align 1, !tbaa !14
  br label %1084

1083:                                             ; preds = %1077
  call void @llvm.memcpy.p0.p0.i64(ptr align 1 %1067, ptr align 1 %1078, i64 %1079, i1 false)
  br label %1084

1084:                                             ; preds = %1083, %1081, %1077
  %1085 = load i64, ptr %978, align 8, !tbaa !15
  %1086 = icmp ult i64 %1085, 9223372036854775807
  call void @llvm.assume(i1 %1086)
  store i64 %1085, ptr %968, align 8, !tbaa !15
  %1087 = load ptr, ptr %966, align 8, !tbaa !4
  %1088 = getelementptr inbounds nuw i8, ptr %1087, i64 %1085
  store i8 0, ptr %1088, align 1, !tbaa !14
  %1089 = load ptr, ptr %33, align 8, !tbaa !4
  br label %1102

1090:                                             ; preds = %1074
  %1091 = load i64, ptr %967, align 8, !tbaa !14
  br label %1092

1092:                                             ; preds = %1090, %1069
  %1093 = phi ptr [ %1075, %1090 ], [ %1072, %1069 ]
  %1094 = phi ptr [ %1067, %1090 ], [ null, %1069 ]
  %1095 = phi i64 [ %1091, %1090 ], [ undef, %1069 ]
  store ptr %1093, ptr %966, align 8, !tbaa !4
  %1096 = load i64, ptr %978, align 8, !tbaa !15
  %1097 = icmp ult i64 %1096, 9223372036854775807
  call void @llvm.assume(i1 %1097)
  store i64 %1096, ptr %968, align 8, !tbaa !15
  %1098 = load i64, ptr %977, align 8, !tbaa !14
  store i64 %1098, ptr %967, align 8, !tbaa !14
  %1099 = icmp eq ptr %1094, null
  br i1 %1099, label %1101, label %1100

1100:                                             ; preds = %1092
  store ptr %1094, ptr %33, align 8, !tbaa !4
  store i64 %1095, ptr %977, align 8, !tbaa !14
  br label %1102

1101:                                             ; preds = %1092
  store ptr %977, ptr %33, align 8, !tbaa !4
  br label %1102

1102:                                             ; preds = %1101, %1100, %1084
  %1103 = phi ptr [ %1094, %1100 ], [ %977, %1101 ], [ %1089, %1084 ]
  store i64 0, ptr %978, align 8, !tbaa !15
  store i8 0, ptr %1103, align 1, !tbaa !14
  %1104 = load ptr, ptr %33, align 8, !tbaa !4
  %1105 = icmp eq ptr %1104, %977
  br i1 %1105, label %1106, label %1109

1106:                                             ; preds = %1102
  %1107 = load i64, ptr %978, align 8, !tbaa !15
  %1108 = icmp ult i64 %1107, 16
  call void @llvm.assume(i1 %1108)
  br label %1112

1109:                                             ; preds = %1102
  %1110 = load i64, ptr %977, align 8, !tbaa !14
  %1111 = add i64 %1110, 1
  call void @_ZdlPvm(ptr noundef %1104, i64 noundef %1111) #40
  br label %1112

1112:                                             ; preds = %1109, %1106
  call void @llvm.lifetime.end.p0(ptr %33)
  call void @llvm.lifetime.start.p0(ptr %34)
  invoke fastcc void @_ZN16DeformationModelL9getStringERKN13proj_nlohmann10basic_jsonISt3mapSt6vectorNSt7__cxx1112basic_stringIcSt11char_traitsIcESaIcEEEblmdSaNS0_14adl_serializerES3_IhSaIhEEEEPKcb(ptr dead_on_unwind noalias nonnull writable align 8 %34, ptr noundef nonnull align 8 dereferenceable(16) %991, ptr noundef nonnull @.str.37, i1 noundef zeroext true)
          to label %1113 unwind label %1263

1113:                                             ; preds = %1112
  %1114 = load ptr, ptr %969, align 8, !tbaa !4
  %1115 = icmp eq ptr %1114, %970
  br i1 %1115, label %1116, label %1121

1116:                                             ; preds = %1113
  %1117 = load i64, ptr %971, align 8, !tbaa !15
  %1118 = icmp ult i64 %1117, 16
  call void @llvm.assume(i1 %1118)
  %1119 = load ptr, ptr %34, align 8, !tbaa !4
  %1120 = icmp eq ptr %1119, %979
  br i1 %1120, label %1124, label %1139

1121:                                             ; preds = %1113
  %1122 = load ptr, ptr %34, align 8, !tbaa !4
  %1123 = icmp eq ptr %1122, %979
  br i1 %1123, label %1124, label %1137

1124:                                             ; preds = %1121, %1116
  %1125 = phi ptr [ %1122, %1121 ], [ %1119, %1116 ]
  %1126 = load i64, ptr %980, align 8, !tbaa !15
  %1127 = icmp ult i64 %1126, 16
  call void @llvm.assume(i1 %1127)
  switch i64 %1126, label %1130 [
    i64 0, label %1131
    i64 1, label %1128
  ]

1128:                                             ; preds = %1124
  %1129 = load i8, ptr %1125, align 1, !tbaa !14
  store i8 %1129, ptr %1114, align 1, !tbaa !14
  br label %1131

1130:                                             ; preds = %1124
  call void @llvm.memcpy.p0.p0.i64(ptr align 1 %1114, ptr align 1 %1125, i64 %1126, i1 false)
  br label %1131

1131:                                             ; preds = %1130, %1128, %1124
  %1132 = load i64, ptr %980, align 8, !tbaa !15
  %1133 = icmp ult i64 %1132, 9223372036854775807
  call void @llvm.assume(i1 %1133)
  store i64 %1132, ptr %971, align 8, !tbaa !15
  %1134 = load ptr, ptr %969, align 8, !tbaa !4
  %1135 = getelementptr inbounds nuw i8, ptr %1134, i64 %1132
  store i8 0, ptr %1135, align 1, !tbaa !14
  %1136 = load ptr, ptr %34, align 8, !tbaa !4
  br label %1149

1137:                                             ; preds = %1121
  %1138 = load i64, ptr %970, align 8, !tbaa !14
  br label %1139

1139:                                             ; preds = %1137, %1116
  %1140 = phi ptr [ %1122, %1137 ], [ %1119, %1116 ]
  %1141 = phi ptr [ %1114, %1137 ], [ null, %1116 ]
  %1142 = phi i64 [ %1138, %1137 ], [ undef, %1116 ]
  store ptr %1140, ptr %969, align 8, !tbaa !4
  %1143 = load i64, ptr %980, align 8, !tbaa !15
  %1144 = icmp ult i64 %1143, 9223372036854775807
  call void @llvm.assume(i1 %1144)
  store i64 %1143, ptr %971, align 8, !tbaa !15
  %1145 = load i64, ptr %979, align 8, !tbaa !14
  store i64 %1145, ptr %970, align 8, !tbaa !14
  %1146 = icmp eq ptr %1141, null
  br i1 %1146, label %1148, label %1147

1147:                                             ; preds = %1139
  store ptr %1141, ptr %34, align 8, !tbaa !4
  store i64 %1142, ptr %979, align 8, !tbaa !14
  br label %1149

1148:                                             ; preds = %1139
  store ptr %979, ptr %34, align 8, !tbaa !4
  br label %1149

1149:                                             ; preds = %1148, %1147, %1131
  %1150 = phi ptr [ %1141, %1147 ], [ %979, %1148 ], [ %1136, %1131 ]
  store i64 0, ptr %980, align 8, !tbaa !15
  store i8 0, ptr %1150, align 1, !tbaa !14
  %1151 = load ptr, ptr %34, align 8, !tbaa !4
  %1152 = icmp eq ptr %1151, %979
  br i1 %1152, label %1153, label %1156

1153:                                             ; preds = %1149
  %1154 = load i64, ptr %980, align 8, !tbaa !15
  %1155 = icmp ult i64 %1154, 16
  call void @llvm.assume(i1 %1155)
  br label %1159

1156:                                             ; preds = %1149
  %1157 = load i64, ptr %979, align 8, !tbaa !14
  %1158 = add i64 %1157, 1
  call void @_ZdlPvm(ptr noundef %1151, i64 noundef %1158) #40
  br label %1159

1159:                                             ; preds = %1156, %1153
  call void @llvm.lifetime.end.p0(ptr %34)
  call void @llvm.lifetime.start.p0(ptr %35)
  invoke fastcc void @_ZN16DeformationModelL9getStringERKN13proj_nlohmann10basic_jsonISt3mapSt6vectorNSt7__cxx1112basic_stringIcSt11char_traitsIcESaIcEEEblmdSaNS0_14adl_serializerES3_IhSaIhEEEEPKcb(ptr dead_on_unwind noalias nonnull writable align 8 %35, ptr noundef nonnull align 8 dereferenceable(16) %991, ptr noundef nonnull @.str.38, i1 noundef zeroext true)
          to label %1160 unwind label %1265

1160:                                             ; preds = %1159
  %1161 = load ptr, ptr %972, align 8, !tbaa !4
  %1162 = icmp eq ptr %1161, %973
  br i1 %1162, label %1163, label %1168

1163:                                             ; preds = %1160
  %1164 = load i64, ptr %974, align 8, !tbaa !15
  %1165 = icmp ult i64 %1164, 16
  call void @llvm.assume(i1 %1165)
  %1166 = load ptr, ptr %35, align 8, !tbaa !4
  %1167 = icmp eq ptr %1166, %981
  br i1 %1167, label %1171, label %1186

1168:                                             ; preds = %1160
  %1169 = load ptr, ptr %35, align 8, !tbaa !4
  %1170 = icmp eq ptr %1169, %981
  br i1 %1170, label %1171, label %1184

1171:                                             ; preds = %1168, %1163
  %1172 = phi ptr [ %1169, %1168 ], [ %1166, %1163 ]
  %1173 = load i64, ptr %982, align 8, !tbaa !15
  %1174 = icmp ult i64 %1173, 16
  call void @llvm.assume(i1 %1174)
  switch i64 %1173, label %1177 [
    i64 0, label %1178
    i64 1, label %1175
  ]

1175:                                             ; preds = %1171
  %1176 = load i8, ptr %1172, align 1, !tbaa !14
  store i8 %1176, ptr %1161, align 1, !tbaa !14
  br label %1178

1177:                                             ; preds = %1171
  call void @llvm.memcpy.p0.p0.i64(ptr align 1 %1161, ptr align 1 %1172, i64 %1173, i1 false)
  br label %1178

1178:                                             ; preds = %1177, %1175, %1171
  %1179 = load i64, ptr %982, align 8, !tbaa !15
  %1180 = icmp ult i64 %1179, 9223372036854775807
  call void @llvm.assume(i1 %1180)
  store i64 %1179, ptr %974, align 8, !tbaa !15
  %1181 = load ptr, ptr %972, align 8, !tbaa !4
  %1182 = getelementptr inbounds nuw i8, ptr %1181, i64 %1179
  store i8 0, ptr %1182, align 1, !tbaa !14
  %1183 = load ptr, ptr %35, align 8, !tbaa !4
  br label %1196

1184:                                             ; preds = %1168
  %1185 = load i64, ptr %973, align 8, !tbaa !14
  br label %1186

1186:                                             ; preds = %1184, %1163
  %1187 = phi ptr [ %1169, %1184 ], [ %1166, %1163 ]
  %1188 = phi ptr [ %1161, %1184 ], [ null, %1163 ]
  %1189 = phi i64 [ %1185, %1184 ], [ undef, %1163 ]
  store ptr %1187, ptr %972, align 8, !tbaa !4
  %1190 = load i64, ptr %982, align 8, !tbaa !15
  %1191 = icmp ult i64 %1190, 9223372036854775807
  call void @llvm.assume(i1 %1191)
  store i64 %1190, ptr %974, align 8, !tbaa !15
  %1192 = load i64, ptr %981, align 8, !tbaa !14
  store i64 %1192, ptr %973, align 8, !tbaa !14
  %1193 = icmp eq ptr %1188, null
  br i1 %1193, label %1195, label %1194

1194:                                             ; preds = %1186
  store ptr %1188, ptr %35, align 8, !tbaa !4
  store i64 %1189, ptr %981, align 8, !tbaa !14
  br label %1196

1195:                                             ; preds = %1186
  store ptr %981, ptr %35, align 8, !tbaa !4
  br label %1196

1196:                                             ; preds = %1195, %1194, %1178
  %1197 = phi ptr [ %1188, %1194 ], [ %981, %1195 ], [ %1183, %1178 ]
  store i64 0, ptr %982, align 8, !tbaa !15
  store i8 0, ptr %1197, align 1, !tbaa !14
  %1198 = load ptr, ptr %35, align 8, !tbaa !4
  %1199 = icmp eq ptr %1198, %981
  br i1 %1199, label %1200, label %1203

1200:                                             ; preds = %1196
  %1201 = load i64, ptr %982, align 8, !tbaa !15
  %1202 = icmp ult i64 %1201, 16
  call void @llvm.assume(i1 %1202)
  br label %1206

1203:                                             ; preds = %1196
  %1204 = load i64, ptr %981, align 8, !tbaa !14
  %1205 = add i64 %1204, 1
  call void @_ZdlPvm(ptr noundef %1198, i64 noundef %1205) #40
  br label %1206

1206:                                             ; preds = %1203, %1200
  call void @llvm.lifetime.end.p0(ptr %35)
  %1207 = load ptr, ptr %0, align 8, !tbaa !25
  %1208 = getelementptr inbounds nuw i8, ptr %1207, i64 352
  %1209 = invoke noundef nonnull align 8 dereferenceable(128) ptr @_ZNSt6vectorIN16DeformationModel10MasterFile4LinkESaIS2_EE12emplace_backIJS2_EEERS2_DpOT_(ptr noundef nonnull align 8 dereferenceable(24) %1208, ptr noundef nonnull align 8 dereferenceable(128) %31)
          to label %1210 unwind label %1267

1210:                                             ; preds = %1206
  %1211 = load ptr, ptr %972, align 8, !tbaa !4
  %1212 = icmp eq ptr %1211, %973
  br i1 %1212, label %1213, label %1216

1213:                                             ; preds = %1210
  %1214 = load i64, ptr %974, align 8, !tbaa !15
  %1215 = icmp ult i64 %1214, 16
  call void @llvm.assume(i1 %1215)
  br label %1219

1216:                                             ; preds = %1210
  %1217 = load i64, ptr %973, align 8, !tbaa !14
  %1218 = add i64 %1217, 1
  call void @_ZdlPvm(ptr noundef %1211, i64 noundef %1218) #40
  br label %1219

1219:                                             ; preds = %1216, %1213
  %1220 = load ptr, ptr %969, align 8, !tbaa !4
  %1221 = icmp eq ptr %1220, %970
  br i1 %1221, label %1222, label %1225

1222:                                             ; preds = %1219
  %1223 = load i64, ptr %971, align 8, !tbaa !15
  %1224 = icmp ult i64 %1223, 16
  call void @llvm.assume(i1 %1224)
  br label %1228

1225:                                             ; preds = %1219
  %1226 = load i64, ptr %970, align 8, !tbaa !14
  %1227 = add i64 %1226, 1
  call void @_ZdlPvm(ptr noundef %1220, i64 noundef %1227) #40
  br label %1228

1228:                                             ; preds = %1225, %1222
  %1229 = load ptr, ptr %966, align 8, !tbaa !4
  %1230 = icmp eq ptr %1229, %967
  br i1 %1230, label %1231, label %1234

1231:                                             ; preds = %1228
  %1232 = load i64, ptr %968, align 8, !tbaa !15
  %1233 = icmp ult i64 %1232, 16
  call void @llvm.assume(i1 %1233)
  br label %1237

1234:                                             ; preds = %1228
  %1235 = load i64, ptr %967, align 8, !tbaa !14
  %1236 = add i64 %1235, 1
  call void @_ZdlPvm(ptr noundef %1229, i64 noundef %1236) #40
  br label %1237

1237:                                             ; preds = %1234, %1231
  %1238 = load ptr, ptr %31, align 8, !tbaa !4
  %1239 = icmp eq ptr %1238, %964
  br i1 %1239, label %1240, label %1243

1240:                                             ; preds = %1237
  %1241 = load i64, ptr %965, align 8, !tbaa !15
  %1242 = icmp ult i64 %1241, 16
  call void @llvm.assume(i1 %1242)
  br label %1246

1243:                                             ; preds = %1237
  %1244 = load i64, ptr %964, align 8, !tbaa !14
  %1245 = add i64 %1244, 1
  call void @_ZdlPvm(ptr noundef %1238, i64 noundef %1245) #40
  br label %1246

1246:                                             ; preds = %1243, %1240
  call void @llvm.lifetime.end.p0(ptr %31)
  %1247 = load ptr, ptr %27, align 8, !tbaa !42
  %1248 = load i8, ptr %1247, align 8, !tbaa !27
  switch i8 %1248, label %1256 [
    i8 1, label %1249
    i8 2, label %1253
  ]

1249:                                             ; preds = %1246
  %1250 = load ptr, ptr %953, align 8, !tbaa !60
  %1251 = call noundef ptr @_ZSt18_Rb_tree_incrementPSt18_Rb_tree_node_base(ptr noundef %1250) #42
  store ptr %1251, ptr %953, align 8, !tbaa !60
  br label %1252

1252:                                             ; preds = %1256, %1253, %1249
  br label %983

1253:                                             ; preds = %1246
  %1254 = load ptr, ptr %958, align 8, !tbaa !61
  %1255 = getelementptr inbounds nuw i8, ptr %1254, i64 16
  store ptr %1255, ptr %958, align 8, !tbaa !61
  br label %1252

1256:                                             ; preds = %1246
  %1257 = load i64, ptr %954, align 8, !tbaa !51
  %1258 = add nsw i64 %1257, 1
  store i64 %1258, ptr %954, align 8, !tbaa !51
  br label %1252

1259:                                             ; preds = %1018
  %1260 = landingpad { ptr, i32 }
          cleanup
  call void @llvm.lifetime.end.p0(ptr %32)
  br label %1269

1261:                                             ; preds = %1065
  %1262 = landingpad { ptr, i32 }
          cleanup
  call void @llvm.lifetime.end.p0(ptr %33)
  br label %1269

1263:                                             ; preds = %1112
  %1264 = landingpad { ptr, i32 }
          cleanup
  call void @llvm.lifetime.end.p0(ptr %34)
  br label %1269

1265:                                             ; preds = %1159
  %1266 = landingpad { ptr, i32 }
          cleanup
  call void @llvm.lifetime.end.p0(ptr %35)
  br label %1269

1267:                                             ; preds = %1206
  %1268 = landingpad { ptr, i32 }
          cleanup
  br label %1269

1269:                                             ; preds = %1267, %1265, %1263, %1261, %1259
  %1270 = phi { ptr, i32 } [ %1268, %1267 ], [ %1266, %1265 ], [ %1264, %1263 ], [ %1262, %1261 ], [ %1260, %1259 ]
  call void @_ZN16DeformationModel10MasterFile4LinkD2Ev(ptr noundef nonnull align 8 dereferenceable(128) %31) #38
  call void @llvm.lifetime.end.p0(ptr %31)
  br label %1271

1271:                                             ; preds = %1269, %1016, %1013, %1009, %999, %988
  %1272 = phi { ptr, i32 } [ %989, %988 ], [ %1270, %1269 ], [ %1017, %1016 ], [ %1005, %1013 ], [ %1000, %999 ], [ %1005, %1009 ]
  call void @llvm.lifetime.end.p0(ptr %28)
  call void @llvm.lifetime.end.p0(ptr %27)
  br label %1273

1273:                                             ; preds = %1271, %950, %947, %943
  %1274 = phi { ptr, i32 } [ %1272, %1271 ], [ %951, %950 ], [ %939, %947 ], [ %939, %943 ]
  %1275 = getelementptr inbounds nuw i8, ptr %24, i64 8
  %1276 = load i8, ptr %24, align 8, !tbaa !27
  call void @_ZN13proj_nlohmann10basic_jsonISt3mapSt6vectorNSt7__cxx1112basic_stringIcSt11char_traitsIcESaIcEEEblmdSaNS_14adl_serializerES2_IhSaIhEEE10json_value7destroyENS_6detail7value_tE(ptr noundef nonnull align 8 dereferenceable(8) %1275, i8 noundef zeroext %1276) #38
  br label %1277

1277:                                             ; preds = %1273, %933
  %1278 = phi { ptr, i32 } [ %1274, %1273 ], [ %934, %933 ]
  call void @llvm.lifetime.end.p0(ptr %24)
  br label %2865

1279:                                             ; preds = %986, %919, %913, %593
  call void @llvm.lifetime.start.p0(ptr %36)
  invoke fastcc void @_ZN16DeformationModelL9getStringERKN13proj_nlohmann10basic_jsonISt3mapSt6vectorNSt7__cxx1112basic_stringIcSt11char_traitsIcESaIcEEEblmdSaNS0_14adl_serializerES3_IhSaIhEEEEPKcb(ptr dead_on_unwind noalias nonnull writable align 8 %36, ptr noundef nonnull align 8 dereferenceable(16) %3, ptr noundef nonnull @.str.39, i1 noundef zeroext false)
          to label %1280 unwind label %1487

1280:                                             ; preds = %1279
  %1281 = load ptr, ptr %0, align 8, !tbaa !25
  %1282 = getelementptr inbounds nuw i8, ptr %1281, i64 376
  %1283 = load ptr, ptr %1282, align 8, !tbaa !4
  %1284 = getelementptr inbounds nuw i8, ptr %1281, i64 392
  %1285 = icmp eq ptr %1283, %1284
  br i1 %1285, label %1286, label %1293

1286:                                             ; preds = %1280
  %1287 = getelementptr inbounds nuw i8, ptr %1281, i64 384
  %1288 = load i64, ptr %1287, align 8, !tbaa !15
  %1289 = icmp ult i64 %1288, 16
  call void @llvm.assume(i1 %1289)
  %1290 = load ptr, ptr %36, align 8, !tbaa !4
  %1291 = getelementptr inbounds nuw i8, ptr %36, i64 16
  %1292 = icmp eq ptr %1290, %1291
  br i1 %1292, label %1297, label %1316

1293:                                             ; preds = %1280
  %1294 = load ptr, ptr %36, align 8, !tbaa !4
  %1295 = getelementptr inbounds nuw i8, ptr %36, i64 16
  %1296 = icmp eq ptr %1294, %1295
  br i1 %1296, label %1297, label %1314

1297:                                             ; preds = %1293, %1286
  %1298 = phi ptr [ %1294, %1293 ], [ %1290, %1286 ]
  %1299 = getelementptr inbounds nuw i8, ptr %36, i64 8
  %1300 = load i64, ptr %1299, align 8, !tbaa !15
  %1301 = icmp ult i64 %1300, 16
  call void @llvm.assume(i1 %1301)
  %1302 = icmp eq ptr %36, %1282
  br i1 %1302, label %1329, label %1303, !prof !35

1303:                                             ; preds = %1297
  switch i64 %1300, label %1306 [
    i64 0, label %1307
    i64 1, label %1304
  ]

1304:                                             ; preds = %1303
  %1305 = load i8, ptr %1298, align 1, !tbaa !14
  store i8 %1305, ptr %1283, align 1, !tbaa !14
  br label %1307

1306:                                             ; preds = %1303
  call void @llvm.memcpy.p0.p0.i64(ptr align 1 %1283, ptr align 1 %1298, i64 %1300, i1 false)
  br label %1307

1307:                                             ; preds = %1306, %1304, %1303
  %1308 = load i64, ptr %1299, align 8, !tbaa !15
  %1309 = icmp ult i64 %1308, 9223372036854775807
  call void @llvm.assume(i1 %1309)
  %1310 = getelementptr inbounds nuw i8, ptr %1281, i64 384
  store i64 %1308, ptr %1310, align 8, !tbaa !15
  %1311 = load ptr, ptr %1282, align 8, !tbaa !4
  %1312 = getelementptr inbounds nuw i8, ptr %1311, i64 %1308
  store i8 0, ptr %1312, align 1, !tbaa !14
  %1313 = load ptr, ptr %36, align 8, !tbaa !4
  br label %1329

1314:                                             ; preds = %1293
  %1315 = load i64, ptr %1284, align 8, !tbaa !14
  br label %1316

1316:                                             ; preds = %1314, %1286
  %1317 = phi ptr [ %1295, %1314 ], [ %1291, %1286 ]
  %1318 = phi ptr [ %1294, %1314 ], [ %1290, %1286 ]
  %1319 = phi ptr [ %1283, %1314 ], [ null, %1286 ]
  %1320 = phi i64 [ %1315, %1314 ], [ undef, %1286 ]
  store ptr %1318, ptr %1282, align 8, !tbaa !4
  %1321 = getelementptr inbounds nuw i8, ptr %36, i64 8
  %1322 = load i64, ptr %1321, align 8, !tbaa !15
  %1323 = icmp ult i64 %1322, 9223372036854775807
  call void @llvm.assume(i1 %1323)
  %1324 = getelementptr inbounds nuw i8, ptr %1281, i64 384
  store i64 %1322, ptr %1324, align 8, !tbaa !15
  %1325 = load i64, ptr %1317, align 8, !tbaa !14
  store i64 %1325, ptr %1284, align 8, !tbaa !14
  %1326 = icmp eq ptr %1319, null
  br i1 %1326, label %1328, label %1327

1327:                                             ; preds = %1316
  store ptr %1319, ptr %36, align 8, !tbaa !4
  store i64 %1320, ptr %1317, align 8, !tbaa !14
  br label %1329

1328:                                             ; preds = %1316
  store ptr %1317, ptr %36, align 8, !tbaa !4
  br label %1329

1329:                                             ; preds = %1328, %1327, %1307, %1297
  %1330 = phi ptr [ %1319, %1327 ], [ %1317, %1328 ], [ %1298, %1297 ], [ %1313, %1307 ]
  %1331 = getelementptr inbounds nuw i8, ptr %36, i64 8
  store i64 0, ptr %1331, align 8, !tbaa !15
  store i8 0, ptr %1330, align 1, !tbaa !14
  %1332 = load ptr, ptr %36, align 8, !tbaa !4
  %1333 = getelementptr inbounds nuw i8, ptr %36, i64 16
  %1334 = icmp eq ptr %1332, %1333
  br i1 %1334, label %1335, label %1338

1335:                                             ; preds = %1329
  %1336 = load i64, ptr %1331, align 8, !tbaa !15
  %1337 = icmp ult i64 %1336, 16
  call void @llvm.assume(i1 %1337)
  br label %1341

1338:                                             ; preds = %1329
  %1339 = load i64, ptr %1333, align 8, !tbaa !14
  %1340 = add i64 %1339, 1
  call void @_ZdlPvm(ptr noundef %1332, i64 noundef %1340) #40
  br label %1341

1341:                                             ; preds = %1338, %1335
  call void @llvm.lifetime.end.p0(ptr %36)
  call void @llvm.lifetime.start.p0(ptr %37)
  invoke fastcc void @_ZN16DeformationModelL9getStringERKN13proj_nlohmann10basic_jsonISt3mapSt6vectorNSt7__cxx1112basic_stringIcSt11char_traitsIcESaIcEEEblmdSaNS0_14adl_serializerES3_IhSaIhEEEEPKcb(ptr dead_on_unwind noalias nonnull writable align 8 %37, ptr noundef nonnull align 8 dereferenceable(16) %3, ptr noundef nonnull @.str.40, i1 noundef zeroext false)
          to label %1342 unwind label %1489

1342:                                             ; preds = %1341
  %1343 = load ptr, ptr %0, align 8, !tbaa !25
  %1344 = getelementptr inbounds nuw i8, ptr %1343, i64 408
  %1345 = load ptr, ptr %1344, align 8, !tbaa !4
  %1346 = getelementptr inbounds nuw i8, ptr %1343, i64 424
  %1347 = icmp eq ptr %1345, %1346
  br i1 %1347, label %1348, label %1355

1348:                                             ; preds = %1342
  %1349 = getelementptr inbounds nuw i8, ptr %1343, i64 416
  %1350 = load i64, ptr %1349, align 8, !tbaa !15
  %1351 = icmp ult i64 %1350, 16
  call void @llvm.assume(i1 %1351)
  %1352 = load ptr, ptr %37, align 8, !tbaa !4
  %1353 = getelementptr inbounds nuw i8, ptr %37, i64 16
  %1354 = icmp eq ptr %1352, %1353
  br i1 %1354, label %1359, label %1378

1355:                                             ; preds = %1342
  %1356 = load ptr, ptr %37, align 8, !tbaa !4
  %1357 = getelementptr inbounds nuw i8, ptr %37, i64 16
  %1358 = icmp eq ptr %1356, %1357
  br i1 %1358, label %1359, label %1376

1359:                                             ; preds = %1355, %1348
  %1360 = phi ptr [ %1356, %1355 ], [ %1352, %1348 ]
  %1361 = getelementptr inbounds nuw i8, ptr %37, i64 8
  %1362 = load i64, ptr %1361, align 8, !tbaa !15
  %1363 = icmp ult i64 %1362, 16
  call void @llvm.assume(i1 %1363)
  %1364 = icmp eq ptr %37, %1344
  br i1 %1364, label %1391, label %1365, !prof !35

1365:                                             ; preds = %1359
  switch i64 %1362, label %1368 [
    i64 0, label %1369
    i64 1, label %1366
  ]

1366:                                             ; preds = %1365
  %1367 = load i8, ptr %1360, align 1, !tbaa !14
  store i8 %1367, ptr %1345, align 1, !tbaa !14
  br label %1369

1368:                                             ; preds = %1365
  call void @llvm.memcpy.p0.p0.i64(ptr align 1 %1345, ptr align 1 %1360, i64 %1362, i1 false)
  br label %1369

1369:                                             ; preds = %1368, %1366, %1365
  %1370 = load i64, ptr %1361, align 8, !tbaa !15
  %1371 = icmp ult i64 %1370, 9223372036854775807
  call void @llvm.assume(i1 %1371)
  %1372 = getelementptr inbounds nuw i8, ptr %1343, i64 416
  store i64 %1370, ptr %1372, align 8, !tbaa !15
  %1373 = load ptr, ptr %1344, align 8, !tbaa !4
  %1374 = getelementptr inbounds nuw i8, ptr %1373, i64 %1370
  store i8 0, ptr %1374, align 1, !tbaa !14
  %1375 = load ptr, ptr %37, align 8, !tbaa !4
  br label %1391

1376:                                             ; preds = %1355
  %1377 = load i64, ptr %1346, align 8, !tbaa !14
  br label %1378

1378:                                             ; preds = %1376, %1348
  %1379 = phi ptr [ %1357, %1376 ], [ %1353, %1348 ]
  %1380 = phi ptr [ %1356, %1376 ], [ %1352, %1348 ]
  %1381 = phi ptr [ %1345, %1376 ], [ null, %1348 ]
  %1382 = phi i64 [ %1377, %1376 ], [ undef, %1348 ]
  store ptr %1380, ptr %1344, align 8, !tbaa !4
  %1383 = getelementptr inbounds nuw i8, ptr %37, i64 8
  %1384 = load i64, ptr %1383, align 8, !tbaa !15
  %1385 = icmp ult i64 %1384, 9223372036854775807
  call void @llvm.assume(i1 %1385)
  %1386 = getelementptr inbounds nuw i8, ptr %1343, i64 416
  store i64 %1384, ptr %1386, align 8, !tbaa !15
  %1387 = load i64, ptr %1379, align 8, !tbaa !14
  store i64 %1387, ptr %1346, align 8, !tbaa !14
  %1388 = icmp eq ptr %1381, null
  br i1 %1388, label %1390, label %1389

1389:                                             ; preds = %1378
  store ptr %1381, ptr %37, align 8, !tbaa !4
  store i64 %1382, ptr %1379, align 8, !tbaa !14
  br label %1391

1390:                                             ; preds = %1378
  store ptr %1379, ptr %37, align 8, !tbaa !4
  br label %1391

1391:                                             ; preds = %1390, %1389, %1369, %1359
  %1392 = phi ptr [ %1381, %1389 ], [ %1379, %1390 ], [ %1360, %1359 ], [ %1375, %1369 ]
  %1393 = getelementptr inbounds nuw i8, ptr %37, i64 8
  store i64 0, ptr %1393, align 8, !tbaa !15
  store i8 0, ptr %1392, align 1, !tbaa !14
  %1394 = load ptr, ptr %37, align 8, !tbaa !4
  %1395 = getelementptr inbounds nuw i8, ptr %37, i64 16
  %1396 = icmp eq ptr %1394, %1395
  br i1 %1396, label %1397, label %1400

1397:                                             ; preds = %1391
  %1398 = load i64, ptr %1393, align 8, !tbaa !15
  %1399 = icmp ult i64 %1398, 16
  call void @llvm.assume(i1 %1399)
  br label %1403

1400:                                             ; preds = %1391
  %1401 = load i64, ptr %1395, align 8, !tbaa !14
  %1402 = add i64 %1401, 1
  call void @_ZdlPvm(ptr noundef %1394, i64 noundef %1402) #40
  br label %1403

1403:                                             ; preds = %1400, %1397
  call void @llvm.lifetime.end.p0(ptr %37)
  call void @llvm.lifetime.start.p0(ptr %38)
  invoke fastcc void @_ZN16DeformationModelL9getStringERKN13proj_nlohmann10basic_jsonISt3mapSt6vectorNSt7__cxx1112basic_stringIcSt11char_traitsIcESaIcEEEblmdSaNS0_14adl_serializerES3_IhSaIhEEEEPKcb(ptr dead_on_unwind noalias nonnull writable align 8 %38, ptr noundef nonnull align 8 dereferenceable(16) %3, ptr noundef nonnull @.str.41, i1 noundef zeroext false)
          to label %1404 unwind label %1491

1404:                                             ; preds = %1403
  %1405 = load ptr, ptr %0, align 8, !tbaa !25
  %1406 = getelementptr inbounds nuw i8, ptr %1405, i64 440
  %1407 = load ptr, ptr %1406, align 8, !tbaa !4
  %1408 = getelementptr inbounds nuw i8, ptr %1405, i64 456
  %1409 = icmp eq ptr %1407, %1408
  br i1 %1409, label %1410, label %1417

1410:                                             ; preds = %1404
  %1411 = getelementptr inbounds nuw i8, ptr %1405, i64 448
  %1412 = load i64, ptr %1411, align 8, !tbaa !15
  %1413 = icmp ult i64 %1412, 16
  call void @llvm.assume(i1 %1413)
  %1414 = load ptr, ptr %38, align 8, !tbaa !4
  %1415 = getelementptr inbounds nuw i8, ptr %38, i64 16
  %1416 = icmp eq ptr %1414, %1415
  br i1 %1416, label %1421, label %1440

1417:                                             ; preds = %1404
  %1418 = load ptr, ptr %38, align 8, !tbaa !4
  %1419 = getelementptr inbounds nuw i8, ptr %38, i64 16
  %1420 = icmp eq ptr %1418, %1419
  br i1 %1420, label %1421, label %1438

1421:                                             ; preds = %1417, %1410
  %1422 = phi ptr [ %1418, %1417 ], [ %1414, %1410 ]
  %1423 = getelementptr inbounds nuw i8, ptr %38, i64 8
  %1424 = load i64, ptr %1423, align 8, !tbaa !15
  %1425 = icmp ult i64 %1424, 16
  call void @llvm.assume(i1 %1425)
  %1426 = icmp eq ptr %38, %1406
  br i1 %1426, label %1453, label %1427, !prof !35

1427:                                             ; preds = %1421
  switch i64 %1424, label %1430 [
    i64 0, label %1431
    i64 1, label %1428
  ]

1428:                                             ; preds = %1427
  %1429 = load i8, ptr %1422, align 1, !tbaa !14
  store i8 %1429, ptr %1407, align 1, !tbaa !14
  br label %1431

1430:                                             ; preds = %1427
  call void @llvm.memcpy.p0.p0.i64(ptr align 1 %1407, ptr align 1 %1422, i64 %1424, i1 false)
  br label %1431

1431:                                             ; preds = %1430, %1428, %1427
  %1432 = load i64, ptr %1423, align 8, !tbaa !15
  %1433 = icmp ult i64 %1432, 9223372036854775807
  call void @llvm.assume(i1 %1433)
  %1434 = getelementptr inbounds nuw i8, ptr %1405, i64 448
  store i64 %1432, ptr %1434, align 8, !tbaa !15
  %1435 = load ptr, ptr %1406, align 8, !tbaa !4
  %1436 = getelementptr inbounds nuw i8, ptr %1435, i64 %1432
  store i8 0, ptr %1436, align 1, !tbaa !14
  %1437 = load ptr, ptr %38, align 8, !tbaa !4
  br label %1453

1438:                                             ; preds = %1417
  %1439 = load i64, ptr %1408, align 8, !tbaa !14
  br label %1440

1440:                                             ; preds = %1438, %1410
  %1441 = phi ptr [ %1419, %1438 ], [ %1415, %1410 ]
  %1442 = phi ptr [ %1418, %1438 ], [ %1414, %1410 ]
  %1443 = phi ptr [ %1407, %1438 ], [ null, %1410 ]
  %1444 = phi i64 [ %1439, %1438 ], [ undef, %1410 ]
  store ptr %1442, ptr %1406, align 8, !tbaa !4
  %1445 = getelementptr inbounds nuw i8, ptr %38, i64 8
  %1446 = load i64, ptr %1445, align 8, !tbaa !15
  %1447 = icmp ult i64 %1446, 9223372036854775807
  call void @llvm.assume(i1 %1447)
  %1448 = getelementptr inbounds nuw i8, ptr %1405, i64 448
  store i64 %1446, ptr %1448, align 8, !tbaa !15
  %1449 = load i64, ptr %1441, align 8, !tbaa !14
  store i64 %1449, ptr %1408, align 8, !tbaa !14
  %1450 = icmp eq ptr %1443, null
  br i1 %1450, label %1452, label %1451

1451:                                             ; preds = %1440
  store ptr %1443, ptr %38, align 8, !tbaa !4
  store i64 %1444, ptr %1441, align 8, !tbaa !14
  br label %1453

1452:                                             ; preds = %1440
  store ptr %1441, ptr %38, align 8, !tbaa !4
  br label %1453

1453:                                             ; preds = %1452, %1451, %1431, %1421
  %1454 = phi ptr [ %1443, %1451 ], [ %1441, %1452 ], [ %1422, %1421 ], [ %1437, %1431 ]
  %1455 = getelementptr inbounds nuw i8, ptr %38, i64 8
  store i64 0, ptr %1455, align 8, !tbaa !15
  store i8 0, ptr %1454, align 1, !tbaa !14
  %1456 = load ptr, ptr %38, align 8, !tbaa !4
  %1457 = getelementptr inbounds nuw i8, ptr %38, i64 16
  %1458 = icmp eq ptr %1456, %1457
  br i1 %1458, label %1459, label %1462

1459:                                             ; preds = %1453
  %1460 = load i64, ptr %1455, align 8, !tbaa !15
  %1461 = icmp ult i64 %1460, 16
  call void @llvm.assume(i1 %1461)
  br label %1465

1462:                                             ; preds = %1453
  %1463 = load i64, ptr %1457, align 8, !tbaa !14
  %1464 = add i64 %1463, 1
  call void @_ZdlPvm(ptr noundef %1456, i64 noundef %1464) #40
  br label %1465

1465:                                             ; preds = %1462, %1459
  call void @llvm.lifetime.end.p0(ptr %38)
  %1466 = load ptr, ptr %0, align 8, !tbaa !25
  %1467 = getelementptr inbounds nuw i8, ptr %1466, i64 376
  %1468 = getelementptr inbounds nuw i8, ptr %1466, i64 440
  %1469 = getelementptr inbounds nuw i8, ptr %1466, i64 384
  %1470 = load i64, ptr %1469, align 8, !tbaa !15
  %1471 = icmp ult i64 %1470, 9223372036854775807
  call void @llvm.assume(i1 %1471)
  %1472 = getelementptr inbounds nuw i8, ptr %1466, i64 448
  %1473 = load i64, ptr %1472, align 8, !tbaa !15
  %1474 = icmp ult i64 %1473, 9223372036854775807
  call void @llvm.assume(i1 %1474)
  %1475 = icmp eq i64 %1470, %1473
  br i1 %1475, label %1476, label %1483

1476:                                             ; preds = %1465
  %1477 = icmp eq i64 %1470, 0
  br i1 %1477, label %1510, label %1478

1478:                                             ; preds = %1476
  %1479 = load ptr, ptr %1468, align 8, !tbaa !4
  %1480 = load ptr, ptr %1467, align 8, !tbaa !4
  %1481 = call i32 @bcmp(ptr %1480, ptr %1479, i64 %1470)
  %1482 = icmp eq i32 %1481, 0
  br i1 %1482, label %1510, label %1483

1483:                                             ; preds = %1478, %1465
  %1484 = call ptr @__cxa_allocate_exception(i64 40) #38
  call void @llvm.lifetime.start.p0(ptr %39)
  call void @llvm.lifetime.start.p0(ptr %40)
  invoke void @_ZNSt7__cxx1112basic_stringIcSt11char_traitsIcESaIcEEC2IS3_EEPKcRKS3_(ptr noundef nonnull align 8 dereferenceable(32) %39, ptr noundef nonnull @.str.42, ptr noundef nonnull align 1 dereferenceable(1) %40)
          to label %1485 unwind label %1493

1485:                                             ; preds = %1483
  invoke void @_ZN16DeformationModel16ParsingExceptionC2ERKNSt7__cxx1112basic_stringIcSt11char_traitsIcESaIcEEE(ptr noundef nonnull align 8 dereferenceable(40) %1484, ptr noundef nonnull align 8 dereferenceable(32) %39)
          to label %1486 unwind label %1495

1486:                                             ; preds = %1485
  invoke void @__cxa_throw(ptr nonnull %1484, ptr nonnull @_ZTIN16DeformationModel16ParsingExceptionE, ptr nonnull @_ZN16DeformationModel16ParsingExceptionD2Ev) #39
          to label %2873 unwind label %1495

1487:                                             ; preds = %1279
  %1488 = landingpad { ptr, i32 }
          cleanup
  call void @llvm.lifetime.end.p0(ptr %36)
  br label %2865

1489:                                             ; preds = %1341
  %1490 = landingpad { ptr, i32 }
          cleanup
  call void @llvm.lifetime.end.p0(ptr %37)
  br label %2865

1491:                                             ; preds = %1403
  %1492 = landingpad { ptr, i32 }
          cleanup
  call void @llvm.lifetime.end.p0(ptr %38)
  br label %2865

1493:                                             ; preds = %1483
  %1494 = landingpad { ptr, i32 }
          cleanup
  call void @llvm.lifetime.end.p0(ptr %40)
  call void @llvm.lifetime.end.p0(ptr %39)
  br label %1508

1495:                                             ; preds = %1486, %1485
  %1496 = phi i1 [ false, %1486 ], [ true, %1485 ]
  %1497 = landingpad { ptr, i32 }
          cleanup
  %1498 = load ptr, ptr %39, align 8, !tbaa !4
  %1499 = getelementptr inbounds nuw i8, ptr %39, i64 16
  %1500 = icmp eq ptr %1498, %1499
  br i1 %1500, label %1501, label %1505

1501:                                             ; preds = %1495
  %1502 = getelementptr inbounds nuw i8, ptr %39, i64 8
  %1503 = load i64, ptr %1502, align 8, !tbaa !15
  %1504 = icmp ult i64 %1503, 16
  call void @llvm.assume(i1 %1504)
  call void @llvm.lifetime.end.p0(ptr %40)
  call void @llvm.lifetime.end.p0(ptr %39)
  br i1 %1496, label %1508, label %2865

1505:                                             ; preds = %1495
  %1506 = load i64, ptr %1499, align 8, !tbaa !14
  %1507 = add i64 %1506, 1
  call void @_ZdlPvm(ptr noundef %1498, i64 noundef %1507) #40
  call void @llvm.lifetime.end.p0(ptr %40)
  call void @llvm.lifetime.end.p0(ptr %39)
  br i1 %1496, label %1508, label %2865

1508:                                             ; preds = %1505, %1501, %1493
  %1509 = phi { ptr, i32 } [ %1494, %1493 ], [ %1497, %1505 ], [ %1497, %1501 ]
  call void @__cxa_free_exception(ptr %1484) #38
  br label %2865

1510:                                             ; preds = %1478, %1476
  call void @llvm.lifetime.start.p0(ptr %41)
  invoke fastcc void @_ZN16DeformationModelL9getStringERKN13proj_nlohmann10basic_jsonISt3mapSt6vectorNSt7__cxx1112basic_stringIcSt11char_traitsIcESaIcEEEblmdSaNS0_14adl_serializerES3_IhSaIhEEEEPKcb(ptr dead_on_unwind noalias nonnull writable align 8 %41, ptr noundef nonnull align 8 dereferenceable(16) %3, ptr noundef nonnull @.str.43, i1 noundef zeroext true)
          to label %1511 unwind label %1724

1511:                                             ; preds = %1510
  %1512 = getelementptr inbounds nuw i8, ptr %1466, i64 472
  %1513 = load ptr, ptr %1512, align 8, !tbaa !4
  %1514 = getelementptr inbounds nuw i8, ptr %1466, i64 488
  %1515 = icmp eq ptr %1513, %1514
  br i1 %1515, label %1516, label %1523

1516:                                             ; preds = %1511
  %1517 = getelementptr inbounds nuw i8, ptr %1466, i64 480
  %1518 = load i64, ptr %1517, align 8, !tbaa !15
  %1519 = icmp ult i64 %1518, 16
  call void @llvm.assume(i1 %1519)
  %1520 = load ptr, ptr %41, align 8, !tbaa !4
  %1521 = getelementptr inbounds nuw i8, ptr %41, i64 16
  %1522 = icmp eq ptr %1520, %1521
  br i1 %1522, label %1527, label %1546

1523:                                             ; preds = %1511
  %1524 = load ptr, ptr %41, align 8, !tbaa !4
  %1525 = getelementptr inbounds nuw i8, ptr %41, i64 16
  %1526 = icmp eq ptr %1524, %1525
  br i1 %1526, label %1527, label %1544

1527:                                             ; preds = %1523, %1516
  %1528 = phi ptr [ %1524, %1523 ], [ %1520, %1516 ]
  %1529 = getelementptr inbounds nuw i8, ptr %41, i64 8
  %1530 = load i64, ptr %1529, align 8, !tbaa !15
  %1531 = icmp ult i64 %1530, 16
  call void @llvm.assume(i1 %1531)
  %1532 = icmp eq ptr %41, %1512
  br i1 %1532, label %1559, label %1533, !prof !35

1533:                                             ; preds = %1527
  switch i64 %1530, label %1536 [
    i64 0, label %1537
    i64 1, label %1534
  ]

1534:                                             ; preds = %1533
  %1535 = load i8, ptr %1528, align 1, !tbaa !14
  store i8 %1535, ptr %1513, align 1, !tbaa !14
  br label %1537

1536:                                             ; preds = %1533
  call void @llvm.memcpy.p0.p0.i64(ptr align 1 %1513, ptr align 1 %1528, i64 %1530, i1 false)
  br label %1537

1537:                                             ; preds = %1536, %1534, %1533
  %1538 = load i64, ptr %1529, align 8, !tbaa !15
  %1539 = icmp ult i64 %1538, 9223372036854775807
  call void @llvm.assume(i1 %1539)
  %1540 = getelementptr inbounds nuw i8, ptr %1466, i64 480
  store i64 %1538, ptr %1540, align 8, !tbaa !15
  %1541 = load ptr, ptr %1512, align 8, !tbaa !4
  %1542 = getelementptr inbounds nuw i8, ptr %1541, i64 %1538
  store i8 0, ptr %1542, align 1, !tbaa !14
  %1543 = load ptr, ptr %41, align 8, !tbaa !4
  br label %1559

1544:                                             ; preds = %1523
  %1545 = load i64, ptr %1514, align 8, !tbaa !14
  br label %1546

1546:                                             ; preds = %1544, %1516
  %1547 = phi ptr [ %1525, %1544 ], [ %1521, %1516 ]
  %1548 = phi ptr [ %1524, %1544 ], [ %1520, %1516 ]
  %1549 = phi ptr [ %1513, %1544 ], [ null, %1516 ]
  %1550 = phi i64 [ %1545, %1544 ], [ undef, %1516 ]
  store ptr %1548, ptr %1512, align 8, !tbaa !4
  %1551 = getelementptr inbounds nuw i8, ptr %41, i64 8
  %1552 = load i64, ptr %1551, align 8, !tbaa !15
  %1553 = icmp ult i64 %1552, 9223372036854775807
  call void @llvm.assume(i1 %1553)
  %1554 = getelementptr inbounds nuw i8, ptr %1466, i64 480
  store i64 %1552, ptr %1554, align 8, !tbaa !15
  %1555 = load i64, ptr %1547, align 8, !tbaa !14
  store i64 %1555, ptr %1514, align 8, !tbaa !14
  %1556 = icmp eq ptr %1549, null
  br i1 %1556, label %1558, label %1557

1557:                                             ; preds = %1546
  store ptr %1549, ptr %41, align 8, !tbaa !4
  store i64 %1550, ptr %1547, align 8, !tbaa !14
  br label %1559

1558:                                             ; preds = %1546
  store ptr %1547, ptr %41, align 8, !tbaa !4
  br label %1559

1559:                                             ; preds = %1558, %1557, %1537, %1527
  %1560 = phi ptr [ %1549, %1557 ], [ %1547, %1558 ], [ %1528, %1527 ], [ %1543, %1537 ]
  %1561 = getelementptr inbounds nuw i8, ptr %41, i64 8
  store i64 0, ptr %1561, align 8, !tbaa !15
  store i8 0, ptr %1560, align 1, !tbaa !14
  %1562 = load ptr, ptr %41, align 8, !tbaa !4
  %1563 = getelementptr inbounds nuw i8, ptr %41, i64 16
  %1564 = icmp eq ptr %1562, %1563
  br i1 %1564, label %1565, label %1568

1565:                                             ; preds = %1559
  %1566 = load i64, ptr %1561, align 8, !tbaa !15
  %1567 = icmp ult i64 %1566, 16
  call void @llvm.assume(i1 %1567)
  br label %1571

1568:                                             ; preds = %1559
  %1569 = load i64, ptr %1563, align 8, !tbaa !14
  %1570 = add i64 %1569, 1
  call void @_ZdlPvm(ptr noundef %1562, i64 noundef %1570) #40
  br label %1571

1571:                                             ; preds = %1568, %1565
  call void @llvm.lifetime.end.p0(ptr %41)
  call void @llvm.lifetime.start.p0(ptr %42)
  invoke fastcc void @_ZN16DeformationModelL9getStringERKN13proj_nlohmann10basic_jsonISt3mapSt6vectorNSt7__cxx1112basic_stringIcSt11char_traitsIcESaIcEEEblmdSaNS0_14adl_serializerES3_IhSaIhEEEEPKcb(ptr dead_on_unwind noalias nonnull writable align 8 %42, ptr noundef nonnull align 8 dereferenceable(16) %3, ptr noundef nonnull @.str.44, i1 noundef zeroext true)
          to label %1572 unwind label %1726

1572:                                             ; preds = %1571
  %1573 = load ptr, ptr %0, align 8, !tbaa !25
  %1574 = getelementptr inbounds nuw i8, ptr %1573, i64 504
  %1575 = load ptr, ptr %1574, align 8, !tbaa !4
  %1576 = getelementptr inbounds nuw i8, ptr %1573, i64 520
  %1577 = icmp eq ptr %1575, %1576
  br i1 %1577, label %1578, label %1585

1578:                                             ; preds = %1572
  %1579 = getelementptr inbounds nuw i8, ptr %1573, i64 512
  %1580 = load i64, ptr %1579, align 8, !tbaa !15
  %1581 = icmp ult i64 %1580, 16
  call void @llvm.assume(i1 %1581)
  %1582 = load ptr, ptr %42, align 8, !tbaa !4
  %1583 = getelementptr inbounds nuw i8, ptr %42, i64 16
  %1584 = icmp eq ptr %1582, %1583
  br i1 %1584, label %1589, label %1608

1585:                                             ; preds = %1572
  %1586 = load ptr, ptr %42, align 8, !tbaa !4
  %1587 = getelementptr inbounds nuw i8, ptr %42, i64 16
  %1588 = icmp eq ptr %1586, %1587
  br i1 %1588, label %1589, label %1606

1589:                                             ; preds = %1585, %1578
  %1590 = phi ptr [ %1586, %1585 ], [ %1582, %1578 ]
  %1591 = getelementptr inbounds nuw i8, ptr %42, i64 8
  %1592 = load i64, ptr %1591, align 8, !tbaa !15
  %1593 = icmp ult i64 %1592, 16
  call void @llvm.assume(i1 %1593)
  %1594 = icmp eq ptr %42, %1574
  br i1 %1594, label %1621, label %1595, !prof !35

1595:                                             ; preds = %1589
  switch i64 %1592, label %1598 [
    i64 0, label %1599
    i64 1, label %1596
  ]

1596:                                             ; preds = %1595
  %1597 = load i8, ptr %1590, align 1, !tbaa !14
  store i8 %1597, ptr %1575, align 1, !tbaa !14
  br label %1599

1598:                                             ; preds = %1595
  call void @llvm.memcpy.p0.p0.i64(ptr align 1 %1575, ptr align 1 %1590, i64 %1592, i1 false)
  br label %1599

1599:                                             ; preds = %1598, %1596, %1595
