; ModuleID = 'temp/PROJ/filemanager.cpp.ll'
source_filename = "/home/mitch/Documents/PROJ/src/filemanager.cpp"
target datalayout = "e-m:e-p270:32:32-p271:32:32-p272:64:64-i64:64-i128:128-f80:128-n8:16:32:64-S128"
target triple = "x86_64-pc-linux-gnu"

%"class.std::__cxx11::basic_string" = type { %"struct.std::__cxx11::basic_string<char>::_Alloc_hider", i64, %union.anon }
%"struct.std::__cxx11::basic_string<char>::_Alloc_hider" = type { ptr }
%union.anon = type { i64, [8 x i8] }
%"struct.std::piecewise_construct_t" = type { i8 }
%"class.std::unique_ptr" = type { %"struct.std::__uniq_ptr_data" }
%"struct.std::__uniq_ptr_data" = type { %"class.std::__uniq_ptr_impl" }
%"class.std::__uniq_ptr_impl" = type { %"class.std::tuple" }
%"class.std::tuple" = type { %"struct.std::_Tuple_impl" }
%"struct.std::_Tuple_impl" = type { %"struct.std::_Head_base.1" }
%"struct.std::_Head_base.1" = type { ptr }
%struct.stat = type { i64, i64, i64, i32, i32, i32, i32, i64, i64, i64, i64, %struct.timespec, %struct.timespec, %struct.timespec, [3 x i64] }
%struct.timespec = type { i64, i64 }
%struct.Dl_info = type { ptr, ptr, ptr, ptr }
%"class.std::vector" = type { %"struct.std::_Vector_base" }
%"struct.std::_Vector_base" = type { %"struct.std::_Vector_base<std::__cxx11::basic_string<char>, std::allocator<std::__cxx11::basic_string<char>>>::_Vector_impl" }
%"struct.std::_Vector_base<std::__cxx11::basic_string<char>, std::allocator<std::__cxx11::basic_string<char>>>::_Vector_impl" = type { %"struct.std::_Vector_base<std::__cxx11::basic_string<char>, std::allocator<std::__cxx11::basic_string<char>>>::_Vector_impl_data" }
%"struct.std::_Vector_base<std::__cxx11::basic_string<char>, std::allocator<std::__cxx11::basic_string<char>>>::_Vector_impl_data" = type { ptr, ptr, ptr }
%"class.std::shared_ptr" = type { %"class.std::__shared_ptr" }
%"class.std::__shared_ptr" = type { ptr, %"class.std::__shared_count" }
%"class.std::__shared_count" = type { ptr }
%class.anon = type { ptr, ptr, ptr, ptr, ptr }
%"class.std::allocator" = type { i8 }
%"class.dropbox::oxygen::nn" = type { %"class.std::shared_ptr" }
%"class.std::tuple.19" = type { %"struct.std::_Tuple_impl.20" }
%"struct.std::_Tuple_impl.20" = type { %"struct.std::_Head_base.21" }
%"struct.std::_Head_base.21" = type { ptr }
%"class.std::tuple.22" = type { i8 }
%"struct.std::_Rb_tree<std::__cxx11::basic_string<char>, std::pair<const std::__cxx11::basic_string<char>, std::__cxx11::basic_string<char>>, std::_Select1st<std::pair<const std::__cxx11::basic_string<char>, std::__cxx11::basic_string<char>>>, std::less<std::__cxx11::basic_string<char>>>::_Auto_node" = type { ptr, ptr }

$__clang_call_terminate = comdat any

$_ZNSt7__cxx1112basic_stringIcSt11char_traitsIcESaIcEEC2IS3_EEPKcRKS3_ = comdat any

$_ZStplIcSt11char_traitsIcESaIcEENSt7__cxx1112basic_stringIT_T0_T1_EEOS8_PKS5_ = comdat any

$_ZNSt6vectorINSt7__cxx1112basic_stringIcSt11char_traitsIcESaIcEEESaIS5_EED2Ev = comdat any

$_ZNSt12__shared_ptrIN5osgeo4proj2io15DatabaseContextELN9__gnu_cxx12_Lock_policyE2EED2Ev = comdat any

$_ZNSt3mapINSt7__cxx1112basic_stringIcSt11char_traitsIcESaIcEEES5_St4lessIS5_ESaISt4pairIKS5_S5_EEEixEOS5_ = comdat any

$_ZSteqIcSt11char_traitsIcESaIcEEbRKNSt7__cxx1112basic_stringIT_T0_T1_EEPKS5_ = comdat any

$_ZNSt6vectorINSt7__cxx1112basic_stringIcSt11char_traitsIcESaIcEEESaIS5_EE12emplace_backIJRKPKcEEERS5_DpOT_ = comdat any

$_ZN5osgeo4proj9FileStdio16reassign_contextEP6pj_ctx = comdat any

$_ZNK5osgeo4proj9FileStdio10hasChangedEv = comdat any

$_ZN5osgeo4proj14FileApiAdapter16reassign_contextEP6pj_ctx = comdat any

$_ZNK5osgeo4proj14FileApiAdapter10hasChangedEv = comdat any

$_ZStplIcSt11char_traitsIcESaIcEENSt7__cxx1112basic_stringIT_T0_T1_EEOS8_S5_ = comdat any

$_ZNSt16_Sp_counted_baseILN9__gnu_cxx12_Lock_policyE2EE24_M_release_last_use_coldEv = comdat any

$_ZNSt6vectorINSt7__cxx1112basic_stringIcSt11char_traitsIcESaIcEEESaIS5_EE17_M_realloc_appendIJS5_EEEvDpOT_ = comdat any

$_ZNSt8_Rb_treeINSt7__cxx1112basic_stringIcSt11char_traitsIcESaIcEEESt4pairIKS5_S5_ESt10_Select1stIS8_ESt4lessIS5_ESaIS8_EE22_M_emplace_hint_uniqueIJRKSt21piecewise_construct_tSt5tupleIJOS5_EESJ_IJEEEEESt17_Rb_tree_iteratorIS8_ESt23_Rb_tree_const_iteratorIS8_EDpOT_ = comdat any

$_ZNSt8_Rb_treeINSt7__cxx1112basic_stringIcSt11char_traitsIcESaIcEEESt4pairIKS5_S5_ESt10_Select1stIS8_ESt4lessIS5_ESaIS8_EE29_M_get_insert_hint_unique_posESt23_Rb_tree_const_iteratorIS8_ERS7_ = comdat any

$_ZNSt8_Rb_treeINSt7__cxx1112basic_stringIcSt11char_traitsIcESaIcEEESt4pairIKS5_S5_ESt10_Select1stIS8_ESt4lessIS5_ESaIS8_EE10_Auto_nodeD2Ev = comdat any

$_ZNSt8_Rb_treeINSt7__cxx1112basic_stringIcSt11char_traitsIcESaIcEEESt4pairIKS5_S5_ESt10_Select1stIS8_ESt4lessIS5_ESaIS8_EE24_M_get_insert_unique_posERS7_ = comdat any

$_ZNSt6vectorINSt7__cxx1112basic_stringIcSt11char_traitsIcESaIcEEESaIS5_EE17_M_realloc_appendIJRKPKcEEEvDpOT_ = comdat any

$_ZSt19piecewise_construct = comdat any

@_ZTVN5osgeo4proj4FileE = hidden unnamed_addr constant { [10 x ptr] } { [10 x ptr] [ptr null, ptr @_ZTIN5osgeo4proj4FileE, ptr @_ZN5osgeo4proj4FileD1Ev, ptr @_ZN5osgeo4proj4FileD0Ev, ptr @__cxa_pure_virtual, ptr @__cxa_pure_virtual, ptr @__cxa_pure_virtual, ptr @__cxa_pure_virtual, ptr @__cxa_pure_virtual, ptr @__cxa_pure_virtual] }, align 8
@.str = private unnamed_addr constant [3 x i8] c"\0D\0A\00", align 1
@_ZTVN5osgeo4proj9FileStdioE = hidden unnamed_addr constant { [10 x ptr] } { [10 x ptr] [ptr null, ptr @_ZTIN5osgeo4proj9FileStdioE, ptr @_ZN5osgeo4proj9FileStdioD2Ev, ptr @_ZN5osgeo4proj9FileStdioD0Ev, ptr @_ZN5osgeo4proj9FileStdio4readEPvm, ptr @_ZN5osgeo4proj9FileStdio5writeEPKvm, ptr @_ZN5osgeo4proj9FileStdio4seekEyi, ptr @_ZN5osgeo4proj9FileStdio4tellEv, ptr @_ZN5osgeo4proj9FileStdio16reassign_contextEP6pj_ctx, ptr @_ZNK5osgeo4proj9FileStdio10hasChangedEv] }, align 8
@.str.2 = private unnamed_addr constant [3 x i8] c"rb\00", align 1
@.str.3 = private unnamed_addr constant [4 x i8] c"r+b\00", align 1
@.str.4 = private unnamed_addr constant [4 x i8] c"w+b\00", align 1
@_ZTVN5osgeo4proj14FileApiAdapterE = hidden unnamed_addr constant { [10 x ptr] } { [10 x ptr] [ptr null, ptr @_ZTIN5osgeo4proj14FileApiAdapterE, ptr @_ZN5osgeo4proj14FileApiAdapterD2Ev, ptr @_ZN5osgeo4proj14FileApiAdapterD0Ev, ptr @_ZN5osgeo4proj14FileApiAdapter4readEPvm, ptr @_ZN5osgeo4proj14FileApiAdapter5writeEPKvm, ptr @_ZN5osgeo4proj14FileApiAdapter4seekEyi, ptr @_ZN5osgeo4proj14FileApiAdapter4tellEv, ptr @_ZN5osgeo4proj14FileApiAdapter16reassign_contextEP6pj_ctx, ptr @_ZNK5osgeo4proj14FileApiAdapter10hasChangedEv] }, align 8
@.str.5 = private unnamed_addr constant [8 x i8] c"http://\00", align 1
@.str.6 = private unnamed_addr constant [9 x i8] c"https://\00", align 1
@.str.7 = private unnamed_addr constant [126 x i8] c"Attempt at accessing remote resource not authorized. Either set PROJ_NETWORK=ON or proj_context_set_enable_network(ctx, TRUE)\00", align 1
@.str.8 = private unnamed_addr constant [10 x i8] c"PROJ_DATA\00", align 1
@.str.9 = private unnamed_addr constant [9 x i8] c"PROJ_LIB\00", align 1
@.str.10 = private unnamed_addr constant [130 x i8] c"PROJ_LIB environment variable is deprecated, and will be removed in a future release. You are encouraged to set PROJ_DATA instead\00", align 1
@.str.11 = private unnamed_addr constant [29 x i8] c"PROJ_USER_WRITABLE_DIRECTORY\00", align 1
@.str.12 = private unnamed_addr constant [14 x i8] c"XDG_DATA_HOME\00", align 1
@.str.13 = private unnamed_addr constant [5 x i8] c"HOME\00", align 1
@.str.14 = private unnamed_addr constant [14 x i8] c"/.local/share\00", align 1
@.str.15 = private unnamed_addr constant [5 x i8] c"/tmp\00", align 1
@.str.16 = private unnamed_addr constant [6 x i8] c"/proj\00", align 1
@.str.17 = private unnamed_addr constant [1 x i8] zeroinitializer, align 1
@_ZZ26pj_get_relative_share_projB5cxx11P6pj_ctxE4pathB5cxx11 = internal global %"class.std::__cxx11::basic_string" zeroinitializer, align 8
@_ZGVZ26pj_get_relative_share_projB5cxx11P6pj_ctxE4pathB5cxx11 = internal global i64 0, align 8
@__dso_handle = external hidden global i8
@.str.18 = private unnamed_addr constant [39 x i8] c"PROJ_SKIP_READ_USER_WRITABLE_DIRECTORY\00", align 1
@.str.19 = private unnamed_addr constant [22 x i8] c"/usr/local/share/proj\00", align 1
@.str.20 = private unnamed_addr constant [8 x i8] c"proj.db\00", align 1
@.str.21 = private unnamed_addr constant [5 x i8] c".tif\00", align 1
@_ZTISt9exception = external constant ptr
@.str.22 = private unnamed_addr constant [3 x i8] c"%s\00", align 1
@.str.23 = private unnamed_addr constant [22 x i8] c"https://cdn.proj.org/\00", align 1
@.str.24 = private unnamed_addr constant [9 x i8] c"Using %s\00", align 1
@.str.25 = private unnamed_addr constant [13 x i8] c"PROJ_NETWORK\00", align 1
@.str.26 = private unnamed_addr constant [3 x i8] c"ON\00", align 1
@.str.27 = private unnamed_addr constant [4 x i8] c"YES\00", align 1
@.str.28 = private unnamed_addr constant [5 x i8] c"TRUE\00", align 1
@.str.29 = private unnamed_addr constant [22 x i8] c"PROJ_NETWORK_ENDPOINT\00", align 1
@.str.30 = private unnamed_addr constant [20 x i8] c"PROJ_CURL_CA_BUNDLE\00", align 1
@.str.31 = private unnamed_addr constant [15 x i8] c"CURL_CA_BUNDLE\00", align 1
@.str.32 = private unnamed_addr constant [14 x i8] c"SSL_CERT_FILE\00", align 1
@.str.33 = private unnamed_addr constant [23 x i8] c"PROJ_ONLY_BEST_DEFAULT\00", align 1
@.str.34 = private unnamed_addr constant [15 x i8] c"PROJ_NATIVE_CA\00", align 1
@.str.35 = private unnamed_addr constant [9 x i8] c"proj.ini\00", align 1
@.str.36 = private unnamed_addr constant [13 x i8] c"cdn_endpoint\00", align 1
@.str.37 = private unnamed_addr constant [8 x i8] c"network\00", align 1
@.str.38 = private unnamed_addr constant [14 x i8] c"cache_enabled\00", align 1
@.str.39 = private unnamed_addr constant [14 x i8] c"cache_size_MB\00", align 1
@.str.40 = private unnamed_addr constant [14 x i8] c"cache_ttl_sec\00", align 1
@.str.41 = private unnamed_addr constant [19 x i8] c"tmerc_default_algo\00", align 1
@.str.42 = private unnamed_addr constant [5 x i8] c"auto\00", align 1
@.str.43 = private unnamed_addr constant [15 x i8] c"evenden_snyder\00", align 1
@.str.44 = private unnamed_addr constant [15 x i8] c"poder_engsager\00", align 1
@.str.45 = private unnamed_addr constant [52 x i8] c"pj_load_ini(): Invalid value for tmerc_default_algo\00", align 1
@.str.46 = private unnamed_addr constant [15 x i8] c"ca_bundle_path\00", align 1
@.str.47 = private unnamed_addr constant [18 x i8] c"only_best_default\00", align 1
@.str.48 = private unnamed_addr constant [10 x i8] c"native_ca\00", align 1
@stderr = external local_unnamed_addr global ptr, align 8
@.str.49 = private unnamed_addr constant [152 x i8] c"DeprecationWarning: PROJ_LIB environment variable is deprecated, and will be removed in a future release. You are encouraged to set PROJ_DATA instead.\0A\00", align 1
@_ZTIN5osgeo4proj4FileE = hidden constant { ptr, ptr } { ptr getelementptr inbounds (ptr, ptr @_ZTVN10__cxxabiv117__class_type_infoE, i64 2), ptr @_ZTSN5osgeo4proj4FileE }, align 8
@_ZTVN10__cxxabiv117__class_type_infoE = external global [0 x ptr]
@_ZTSN5osgeo4proj4FileE = hidden constant [19 x i8] c"N5osgeo4proj4FileE\00", align 1
@_ZTIN5osgeo4proj9FileStdioE = hidden constant { ptr, ptr, ptr } { ptr getelementptr inbounds (ptr, ptr @_ZTVN10__cxxabiv120__si_class_type_infoE, i64 2), ptr @_ZTSN5osgeo4proj9FileStdioE, ptr @_ZTIN5osgeo4proj4FileE }, align 8
@_ZTVN10__cxxabiv120__si_class_type_infoE = external global [0 x ptr]
@_ZTSN5osgeo4proj9FileStdioE = hidden constant [24 x i8] c"N5osgeo4proj9FileStdioE\00", align 1
@_ZTIN5osgeo4proj14FileApiAdapterE = hidden constant { ptr, ptr, ptr } { ptr getelementptr inbounds (ptr, ptr @_ZTVN10__cxxabiv120__si_class_type_infoE, i64 2), ptr @_ZTSN5osgeo4proj14FileApiAdapterE, ptr @_ZTIN5osgeo4proj4FileE }, align 8
@_ZTSN5osgeo4proj14FileApiAdapterE = hidden constant [30 x i8] c"N5osgeo4proj14FileApiAdapterE\00", align 1
@.str.50 = private unnamed_addr constant [3 x i8] c"/\\\00", align 1
@.str.53 = private unnamed_addr constant [15 x i8] c"/proc/self/exe\00", align 1
@.str.54 = private unnamed_addr constant [3 x i8] c"./\00", align 1
@.str.55 = private unnamed_addr constant [14 x i8] c"../share/proj\00", align 1
@.str.56 = private unnamed_addr constant [11 x i8] c"share/proj\00", align 1
@.str.57 = private unnamed_addr constant [12 x i8] c"/share/proj\00", align 1
@.str.59 = private unnamed_addr constant [37 x i8] c"pj_open_lib(%s): call fopen(%s) - %s\00", align 1
@.str.60 = private unnamed_addr constant [7 x i8] c"failed\00", align 1
@.str.61 = private unnamed_addr constant [10 x i8] c"succeeded\00", align 1
@.str.62 = private unnamed_addr constant [31 x i8] c"pj_open_lib(%s): out of memory\00", align 1
@__libc_single_threaded = external local_unnamed_addr global i8, align 1
@.str.64 = private unnamed_addr constant [21 x i8] c"basic_string::substr\00", align 1
@.str.65 = private unnamed_addr constant [55 x i8] c"%s: __pos (which is %zu) > this->size() (which is %zu)\00", align 1
@.str.67 = private unnamed_addr constant [50 x i8] c"basic_string: construction from null is not valid\00", align 1
@.str.68 = private unnamed_addr constant [21 x i8] c"basic_string::append\00", align 1
@.str.69 = private unnamed_addr constant [26 x i8] c"vector::_M_realloc_append\00", align 1
@_ZSt19piecewise_construct = linkonce_odr constant %"struct.std::piecewise_construct_t" zeroinitializer, comdat, align 1

@_ZN5osgeo4proj4FileD1Ev = unnamed_addr alias void (ptr), ptr @_ZN5osgeo4proj4FileD2Ev
@_ZN5osgeo4proj9FileStdioD1Ev = hidden unnamed_addr alias void (ptr), ptr @_ZN5osgeo4proj9FileStdioD2Ev
@_ZN5osgeo4proj14FileApiAdapterD1Ev = hidden unnamed_addr alias void (ptr), ptr @_ZN5osgeo4proj14FileApiAdapterD2Ev

; Function Attrs: mustprogress sspstrong uwtable
define hidden void @_ZN5osgeo4proj4FileC2ERKNSt7__cxx1112basic_stringIcSt11char_traitsIcESaIcEEE(ptr noundef nonnull align 8 dereferenceable(73) initializes((0, 8)) %0, ptr noundef nonnull readonly align 8 captures(none) dereferenceable(32) %1) unnamed_addr #0 align 2 personality ptr @__gxx_personality_v0 {
  %3 = alloca i64, align 8
  store ptr getelementptr inbounds nuw inrange(-16, 64) (i8, ptr @_ZTVN5osgeo4proj4FileE, i64 16), ptr %0, align 8, !tbaa !4
  %4 = getelementptr inbounds nuw i8, ptr %0, i64 8
  %5 = getelementptr inbounds nuw i8, ptr %0, i64 24
  store ptr %5, ptr %4, align 8, !tbaa !7
  %6 = load ptr, ptr %1, align 8, !tbaa !12
  %7 = getelementptr inbounds nuw i8, ptr %1, i64 8
  %8 = load i64, ptr %7, align 8, !tbaa !15
  %9 = icmp ult i64 %8, 9223372036854775807
  tail call void @llvm.assume(i1 %9)
  call void @llvm.lifetime.start.p0(ptr %3)
  store i64 %8, ptr %3, align 8, !tbaa !16
  %10 = icmp samesign ugt i64 %8, 15
  br i1 %10, label %11, label %14

11:                                               ; preds = %2
  %12 = call noundef ptr @_ZNSt7__cxx1112basic_stringIcSt11char_traitsIcESaIcEE9_M_createERmm(ptr noundef nonnull align 8 dereferenceable(32) %4, ptr noundef nonnull align 8 dereferenceable(8) %3, i64 noundef 0)
  store ptr %12, ptr %4, align 8, !tbaa !12
  %13 = load i64, ptr %3, align 8, !tbaa !16
  store i64 %13, ptr %5, align 8, !tbaa !17
  br label %14

14:                                               ; preds = %11, %2
  %15 = phi i64 [ %13, %11 ], [ %8, %2 ]
  %16 = phi ptr [ %12, %11 ], [ %5, %2 ]
  switch i64 %15, label %19 [
    i64 0, label %17
    i64 -1, label %21
  ]

17:                                               ; preds = %14
  %18 = load i8, ptr %6, align 1, !tbaa !17
  store i8 %18, ptr %16, align 1, !tbaa !17
  br label %21

19:                                               ; preds = %14
  %20 = add nuw i64 %15, 1
  call void @llvm.memcpy.p0.p0.i64(ptr noundef nonnull align 1 dereferenceable(1) %16, ptr noundef nonnull align 1 dereferenceable(1) %6, i64 %20, i1 false)
  br label %21

21:                                               ; preds = %19, %17, %14
  %22 = load i64, ptr %3, align 8, !tbaa !16
  %23 = getelementptr inbounds nuw i8, ptr %0, i64 16
  store i64 %22, ptr %23, align 8, !tbaa !15
  call void @llvm.lifetime.end.p0(ptr %3)
  %24 = getelementptr inbounds nuw i8, ptr %0, i64 40
  %25 = getelementptr inbounds nuw i8, ptr %0, i64 56
  store ptr %25, ptr %24, align 8, !tbaa !7
  %26 = getelementptr inbounds nuw i8, ptr %0, i64 48
  store i64 0, ptr %26, align 8, !tbaa !15
  store i8 0, ptr %25, align 8, !tbaa !17
  %27 = getelementptr inbounds nuw i8, ptr %0, i64 72
  store i8 0, ptr %27, align 8, !tbaa !18
  ret void
}

; Function Attrs: mustprogress nounwind sspstrong uwtable
define void @_ZN5osgeo4proj4FileD2Ev(ptr noundef nonnull align 8 captures(address) dereferenceable(73) initializes((0, 8)) %0) unnamed_addr #1 align 2 personality ptr @__gxx_personality_v0 {
  store ptr getelementptr inbounds nuw inrange(-16, 64) (i8, ptr @_ZTVN5osgeo4proj4FileE, i64 16), ptr %0, align 8, !tbaa !4
  %2 = getelementptr inbounds nuw i8, ptr %0, i64 40
  %3 = load ptr, ptr %2, align 8, !tbaa !12
  %4 = getelementptr inbounds nuw i8, ptr %0, i64 56
  %5 = icmp eq ptr %3, %4
  br i1 %5, label %6, label %10

6:                                                ; preds = %1
  %7 = getelementptr inbounds nuw i8, ptr %0, i64 48
  %8 = load i64, ptr %7, align 8, !tbaa !15
  %9 = icmp ult i64 %8, 16
  tail call void @llvm.assume(i1 %9)
  br label %13

10:                                               ; preds = %1
  %11 = load i64, ptr %4, align 8, !tbaa !17
  %12 = add i64 %11, 1
  tail call void @_ZdlPvm(ptr noundef %3, i64 noundef %12) #30
  br label %13

13:                                               ; preds = %10, %6
  %14 = getelementptr inbounds nuw i8, ptr %0, i64 8
  %15 = load ptr, ptr %14, align 8, !tbaa !12
  %16 = getelementptr inbounds nuw i8, ptr %0, i64 24
  %17 = icmp eq ptr %15, %16
  br i1 %17, label %18, label %22

18:                                               ; preds = %13
  %19 = getelementptr inbounds nuw i8, ptr %0, i64 16
  %20 = load i64, ptr %19, align 8, !tbaa !15
  %21 = icmp ult i64 %20, 16
  tail call void @llvm.assume(i1 %21)
  br label %25

22:                                               ; preds = %13
  %23 = load i64, ptr %16, align 8, !tbaa !17
  %24 = add i64 %23, 1
  tail call void @_ZdlPvm(ptr noundef %15, i64 noundef %24) #30
  br label %25

25:                                               ; preds = %22, %18
  ret void
}

; Function Attrs: mustprogress nounwind sspstrong uwtable
declare void @_ZNSt7__cxx1112basic_stringIcSt11char_traitsIcESaIcEED2Ev(ptr noundef nonnull align 8 dereferenceable(32)) unnamed_addr #1 align 2

; Function Attrs: cold mustprogress noreturn nounwind sspstrong memory(inaccessiblemem: write) uwtable
define void @_ZN5osgeo4proj4FileD0Ev(ptr nonnull readnone align 8 captures(none) %0) unnamed_addr #2 align 2 {
  tail call void @llvm.trap() #31
  unreachable
}

; Function Attrs: cold noreturn nounwind memory(inaccessiblemem: write)
declare void @llvm.trap() #3

; Function Attrs: mustprogress sspstrong uwtable
define void @_ZN5osgeo4proj4File9read_lineB5cxx11EmRbS2_(ptr dead_on_unwind noalias writable sret(%"class.std::__cxx11::basic_string") align 8 %0, ptr noundef nonnull align 8 dereferenceable(73) %1, i64 noundef %2, ptr noundef nonnull writeonly align 1 captures(none) dereferenceable(1) %3, ptr noundef nonnull writeonly align 1 captures(none) dereferenceable(1) %4) local_unnamed_addr #0 align 2 personality ptr @__gxx_personality_v0 {
  %6 = alloca i64, align 8
  %7 = alloca i64, align 8
  %8 = alloca i64, align 8
  %9 = alloca i64, align 8
  %10 = alloca i64, align 8
  %11 = alloca i64, align 8
  %12 = alloca i64, align 8
  %13 = alloca %"class.std::__cxx11::basic_string", align 8
  %14 = alloca %"class.std::__cxx11::basic_string", align 8
  %15 = alloca %"class.std::__cxx11::basic_string", align 8
  %16 = tail call i64 @llvm.umin.i64(i64 %2, i64 1048576)
  %17 = getelementptr inbounds nuw i8, ptr %1, i64 40
  %18 = tail call noundef i64 @_ZNKSt7__cxx1112basic_stringIcSt11char_traitsIcESaIcEE13find_first_ofEPKcmm(ptr noundef nonnull align 8 dereferenceable(32) %17, ptr noundef nonnull @.str, i64 noundef 0, i64 noundef 2) #32
  %19 = icmp eq i64 %18, -1
  br i1 %19, label %20, label %23

20:                                               ; preds = %5
  %21 = getelementptr inbounds nuw i8, ptr %1, i64 48
  %22 = getelementptr inbounds nuw i8, ptr %1, i64 72
  br label %246

23:                                               ; preds = %385, %5
  %24 = phi i64 [ %18, %5 ], [ %387, %385 ]
  %25 = icmp ugt i64 %24, %16
  %26 = getelementptr inbounds nuw i8, ptr %1, i64 48
  %27 = getelementptr inbounds nuw i8, ptr %0, i64 16
  br i1 %25, label %28, label %131

28:                                               ; preds = %23
  tail call void @llvm.experimental.noalias.scope.decl(metadata !21)
  %29 = load i64, ptr %26, align 8, !tbaa !15, !noalias !21
  %30 = icmp ult i64 %29, 9223372036854775807
  tail call void @llvm.assume(i1 %30)
  store ptr %27, ptr %0, align 8, !tbaa !7, !alias.scope !21
  %31 = load ptr, ptr %17, align 8, !tbaa !12, !noalias !21
  %32 = tail call noundef i64 @llvm.umin.i64(i64 %16, i64 %29)
  call void @llvm.lifetime.start.p0(ptr %12)
  store i64 %32, ptr %12, align 8, !tbaa !16, !noalias !21
  %33 = icmp samesign ugt i64 %32, 15
  br i1 %33, label %34, label %37

34:                                               ; preds = %28
  %35 = call noundef ptr @_ZNSt7__cxx1112basic_stringIcSt11char_traitsIcESaIcEE9_M_createERmm(ptr noundef nonnull align 8 dereferenceable(32) %0, ptr noundef nonnull align 8 dereferenceable(8) %12, i64 noundef 0)
  store ptr %35, ptr %0, align 8, !tbaa !12, !alias.scope !21
  %36 = load i64, ptr %12, align 8, !tbaa !16, !noalias !21
  store i64 %36, ptr %27, align 8, !tbaa !17, !alias.scope !21
  br label %37

37:                                               ; preds = %34, %28
  %38 = phi ptr [ %35, %34 ], [ %27, %28 ]
  switch i64 %32, label %41 [
    i64 1, label %39
    i64 0, label %42
  ]

39:                                               ; preds = %37
  %40 = load i8, ptr %31, align 1, !tbaa !17
  store i8 %40, ptr %38, align 1, !tbaa !17
  br label %42

41:                                               ; preds = %37
  call void @llvm.memcpy.p0.p0.i64(ptr align 1 %38, ptr align 1 %31, i64 %32, i1 false)
  br label %42

42:                                               ; preds = %41, %39, %37
  %43 = load i64, ptr %12, align 8, !tbaa !16, !noalias !21
  %44 = getelementptr inbounds nuw i8, ptr %0, i64 8
  store i64 %43, ptr %44, align 8, !tbaa !15, !alias.scope !21
  %45 = load ptr, ptr %0, align 8, !tbaa !12, !alias.scope !21
  %46 = getelementptr inbounds nuw i8, ptr %45, i64 %43
  store i8 0, ptr %46, align 1, !tbaa !17
  call void @llvm.lifetime.end.p0(ptr %12)
  call void @llvm.lifetime.start.p0(ptr %13)
  call void @llvm.experimental.noalias.scope.decl(metadata !24)
  %47 = load i64, ptr %26, align 8, !tbaa !15, !noalias !24
  %48 = icmp ult i64 %47, 9223372036854775807
  call void @llvm.assume(i1 %48)
  %49 = icmp samesign ugt i64 %16, %47
  br i1 %49, label %50, label %52

50:                                               ; preds = %42
  invoke void (ptr, ...) @_ZSt24__throw_out_of_range_fmtPKcz(ptr noundef nonnull @.str.65, ptr noundef nonnull @.str.64, i64 noundef %16, i64 noundef %47) #33
          to label %51 unwind label %121

51:                                               ; preds = %50
  unreachable

52:                                               ; preds = %42
  %53 = getelementptr inbounds nuw i8, ptr %13, i64 16
  store ptr %53, ptr %13, align 8, !tbaa !7, !alias.scope !24
  %54 = load ptr, ptr %17, align 8, !tbaa !12, !noalias !24
  %55 = getelementptr inbounds nuw i8, ptr %54, i64 %16
  %56 = sub nuw nsw i64 %47, %16
  call void @llvm.lifetime.start.p0(ptr %11)
  store i64 %56, ptr %11, align 8, !tbaa !16, !noalias !24
  %57 = icmp samesign ugt i64 %56, 15
  br i1 %57, label %58, label %62

58:                                               ; preds = %52
  %59 = invoke noundef ptr @_ZNSt7__cxx1112basic_stringIcSt11char_traitsIcESaIcEE9_M_createERmm(ptr noundef nonnull align 8 dereferenceable(32) %13, ptr noundef nonnull align 8 dereferenceable(8) %11, i64 noundef 0)
          to label %60 unwind label %121

60:                                               ; preds = %58
  store ptr %59, ptr %13, align 8, !tbaa !12, !alias.scope !24
  %61 = load i64, ptr %11, align 8, !tbaa !16, !noalias !24
  store i64 %61, ptr %53, align 8, !tbaa !17, !alias.scope !24
  br label %62

62:                                               ; preds = %60, %52
  %63 = phi ptr [ %59, %60 ], [ %53, %52 ]
  switch i64 %56, label %66 [
    i64 1, label %64
    i64 0, label %67
  ]

64:                                               ; preds = %62
  %65 = load i8, ptr %55, align 1, !tbaa !17
  store i8 %65, ptr %63, align 1, !tbaa !17
  br label %67

66:                                               ; preds = %62
  call void @llvm.memcpy.p0.p0.i64(ptr align 1 %63, ptr align 1 %55, i64 %56, i1 false)
  br label %67

67:                                               ; preds = %66, %64, %62
  %68 = load i64, ptr %11, align 8, !tbaa !16, !noalias !24
  %69 = getelementptr inbounds nuw i8, ptr %13, i64 8
  store i64 %68, ptr %69, align 8, !tbaa !15, !alias.scope !24
  %70 = load ptr, ptr %13, align 8, !tbaa !12, !alias.scope !24
  %71 = getelementptr inbounds nuw i8, ptr %70, i64 %68
  store i8 0, ptr %71, align 1, !tbaa !17
  call void @llvm.lifetime.end.p0(ptr %11)
  %72 = load ptr, ptr %17, align 8, !tbaa !12
  %73 = getelementptr inbounds nuw i8, ptr %1, i64 56
  %74 = icmp eq ptr %72, %73
  br i1 %74, label %75, label %80

75:                                               ; preds = %67
  %76 = load i64, ptr %26, align 8, !tbaa !15
  %77 = icmp ult i64 %76, 16
  call void @llvm.assume(i1 %77)
  %78 = load ptr, ptr %13, align 8, !tbaa !12
  %79 = icmp eq ptr %78, %53
  br i1 %79, label %83, label %100

80:                                               ; preds = %67
  %81 = load ptr, ptr %13, align 8, !tbaa !12
  %82 = icmp eq ptr %81, %53
  br i1 %82, label %83, label %98

83:                                               ; preds = %80, %75
  %84 = phi ptr [ %81, %80 ], [ %78, %75 ]
  %85 = load i64, ptr %69, align 8, !tbaa !15
  %86 = icmp ult i64 %85, 16
  call void @llvm.assume(i1 %86)
  %87 = icmp eq ptr %13, %17
  br i1 %87, label %110, label %88, !prof !27

88:                                               ; preds = %83
  switch i64 %85, label %91 [
    i64 0, label %92
    i64 1, label %89
  ]

89:                                               ; preds = %88
  %90 = load i8, ptr %84, align 1, !tbaa !17
  store i8 %90, ptr %72, align 1, !tbaa !17
  br label %92

91:                                               ; preds = %88
  call void @llvm.memcpy.p0.p0.i64(ptr align 1 %72, ptr align 1 %84, i64 %85, i1 false)
  br label %92

92:                                               ; preds = %91, %89, %88
  %93 = load i64, ptr %69, align 8, !tbaa !15
  %94 = icmp ult i64 %93, 9223372036854775807
  call void @llvm.assume(i1 %94)
  store i64 %93, ptr %26, align 8, !tbaa !15
  %95 = load ptr, ptr %17, align 8, !tbaa !12
  %96 = getelementptr inbounds nuw i8, ptr %95, i64 %93
  store i8 0, ptr %96, align 1, !tbaa !17
  %97 = load ptr, ptr %13, align 8, !tbaa !12
  br label %110

98:                                               ; preds = %80
  %99 = load i64, ptr %73, align 8, !tbaa !17
  br label %100

100:                                              ; preds = %98, %75
  %101 = phi ptr [ %81, %98 ], [ %78, %75 ]
  %102 = phi ptr [ %72, %98 ], [ null, %75 ]
  %103 = phi i64 [ %99, %98 ], [ undef, %75 ]
  store ptr %101, ptr %17, align 8, !tbaa !12
  %104 = load i64, ptr %69, align 8, !tbaa !15
  %105 = icmp ult i64 %104, 9223372036854775807
  call void @llvm.assume(i1 %105)
  store i64 %104, ptr %26, align 8, !tbaa !15
  %106 = load i64, ptr %53, align 8, !tbaa !17
  store i64 %106, ptr %73, align 8, !tbaa !17
  %107 = icmp eq ptr %102, null
  br i1 %107, label %109, label %108

108:                                              ; preds = %100
  store ptr %102, ptr %13, align 8, !tbaa !12
  store i64 %103, ptr %53, align 8, !tbaa !17
  br label %110

109:                                              ; preds = %100
  store ptr %53, ptr %13, align 8, !tbaa !12
  br label %110

110:                                              ; preds = %109, %108, %92, %83
  %111 = phi ptr [ %102, %108 ], [ %53, %109 ], [ %84, %83 ], [ %97, %92 ]
  store i64 0, ptr %69, align 8, !tbaa !15
  store i8 0, ptr %111, align 1, !tbaa !17
  %112 = load ptr, ptr %13, align 8, !tbaa !12
  %113 = icmp eq ptr %112, %53
  br i1 %113, label %114, label %117

114:                                              ; preds = %110
  %115 = load i64, ptr %69, align 8, !tbaa !15
  %116 = icmp ult i64 %115, 16
  call void @llvm.assume(i1 %116)
  br label %120

117:                                              ; preds = %110
  %118 = load i64, ptr %53, align 8, !tbaa !17
  %119 = add i64 %118, 1
  call void @_ZdlPvm(ptr noundef %112, i64 noundef %119) #30
  br label %120

120:                                              ; preds = %117, %114
  call void @llvm.lifetime.end.p0(ptr %13)
  store i8 1, ptr %3, align 1, !tbaa !28
  br label %391

121:                                              ; preds = %58, %50
  %122 = landingpad { ptr, i32 }
          cleanup
  call void @llvm.lifetime.end.p0(ptr %13)
  %123 = load ptr, ptr %0, align 8, !tbaa !12
  %124 = icmp eq ptr %123, %27
  br i1 %124, label %125, label %128

125:                                              ; preds = %121
  %126 = load i64, ptr %44, align 8, !tbaa !15
  %127 = icmp ult i64 %126, 16
  call void @llvm.assume(i1 %127)
  br label %389

128:                                              ; preds = %121
  %129 = load i64, ptr %27, align 8, !tbaa !17
  %130 = add i64 %129, 1
  call void @_ZdlPvm(ptr noundef %123, i64 noundef %130) #30
  br label %389

131:                                              ; preds = %23
  tail call void @llvm.experimental.noalias.scope.decl(metadata !29)
  %132 = load i64, ptr %26, align 8, !tbaa !15, !noalias !29
  %133 = icmp ult i64 %132, 9223372036854775807
  tail call void @llvm.assume(i1 %133)
  store ptr %27, ptr %0, align 8, !tbaa !7, !alias.scope !29
  %134 = load ptr, ptr %17, align 8, !tbaa !12, !noalias !29
  %135 = tail call noundef i64 @llvm.umin.i64(i64 %24, i64 %132)
  call void @llvm.lifetime.start.p0(ptr %10)
  store i64 %135, ptr %10, align 8, !tbaa !16, !noalias !29
  %136 = icmp samesign ugt i64 %135, 15
  br i1 %136, label %137, label %140

137:                                              ; preds = %131
  %138 = call noundef ptr @_ZNSt7__cxx1112basic_stringIcSt11char_traitsIcESaIcEE9_M_createERmm(ptr noundef nonnull align 8 dereferenceable(32) %0, ptr noundef nonnull align 8 dereferenceable(8) %10, i64 noundef 0)
  store ptr %138, ptr %0, align 8, !tbaa !12, !alias.scope !29
  %139 = load i64, ptr %10, align 8, !tbaa !16, !noalias !29
  store i64 %139, ptr %27, align 8, !tbaa !17, !alias.scope !29
  br label %140

140:                                              ; preds = %137, %131
  %141 = phi ptr [ %138, %137 ], [ %27, %131 ]
  switch i64 %135, label %144 [
    i64 1, label %142
    i64 0, label %145
  ]

142:                                              ; preds = %140
  %143 = load i8, ptr %134, align 1, !tbaa !17
  store i8 %143, ptr %141, align 1, !tbaa !17
  br label %145

144:                                              ; preds = %140
  call void @llvm.memcpy.p0.p0.i64(ptr align 1 %141, ptr align 1 %134, i64 %135, i1 false)
  br label %145

145:                                              ; preds = %144, %142, %140
  %146 = load i64, ptr %10, align 8, !tbaa !16, !noalias !29
  %147 = getelementptr inbounds nuw i8, ptr %0, i64 8
  store i64 %146, ptr %147, align 8, !tbaa !15, !alias.scope !29
  %148 = load ptr, ptr %0, align 8, !tbaa !12, !alias.scope !29
  %149 = getelementptr inbounds nuw i8, ptr %148, i64 %146
  store i8 0, ptr %149, align 1, !tbaa !17
  call void @llvm.lifetime.end.p0(ptr %10)
  %150 = load ptr, ptr %17, align 8, !tbaa !12
  %151 = getelementptr inbounds nuw i8, ptr %150, i64 %24
  %152 = load i8, ptr %151, align 1, !tbaa !17
  %153 = icmp eq i8 %152, 13
  br i1 %153, label %154, label %160

154:                                              ; preds = %145
  %155 = add nuw i64 %24, 1
  %156 = getelementptr inbounds nuw i8, ptr %150, i64 %155
  %157 = load i8, ptr %156, align 1, !tbaa !17
  %158 = icmp eq i8 %157, 10
  %159 = select i1 %158, i64 %155, i64 %24
  br label %160

160:                                              ; preds = %154, %145
  %161 = phi i64 [ %24, %145 ], [ %159, %154 ]
  call void @llvm.lifetime.start.p0(ptr %14)
  %162 = add i64 %161, 1
  call void @llvm.experimental.noalias.scope.decl(metadata !32)
  %163 = load i64, ptr %26, align 8, !tbaa !15, !noalias !32
  %164 = icmp ult i64 %163, 9223372036854775807
  call void @llvm.assume(i1 %164)
  %165 = icmp ugt i64 %162, %163
  br i1 %165, label %166, label %168

166:                                              ; preds = %160
  invoke void (ptr, ...) @_ZSt24__throw_out_of_range_fmtPKcz(ptr noundef nonnull @.str.65, ptr noundef nonnull @.str.64, i64 noundef %162, i64 noundef %163) #33
          to label %167 unwind label %236

167:                                              ; preds = %166
  unreachable

168:                                              ; preds = %160
  %169 = getelementptr inbounds nuw i8, ptr %14, i64 16
  store ptr %169, ptr %14, align 8, !tbaa !7, !alias.scope !32
  %170 = getelementptr inbounds nuw i8, ptr %150, i64 %162
  %171 = sub nuw nsw i64 %163, %162
  call void @llvm.lifetime.start.p0(ptr %9)
  store i64 %171, ptr %9, align 8, !tbaa !16, !noalias !32
  %172 = icmp samesign ugt i64 %171, 15
  br i1 %172, label %173, label %177

173:                                              ; preds = %168
  %174 = invoke noundef ptr @_ZNSt7__cxx1112basic_stringIcSt11char_traitsIcESaIcEE9_M_createERmm(ptr noundef nonnull align 8 dereferenceable(32) %14, ptr noundef nonnull align 8 dereferenceable(8) %9, i64 noundef 0)
          to label %175 unwind label %236

175:                                              ; preds = %173
  store ptr %174, ptr %14, align 8, !tbaa !12, !alias.scope !32
  %176 = load i64, ptr %9, align 8, !tbaa !16, !noalias !32
  store i64 %176, ptr %169, align 8, !tbaa !17, !alias.scope !32
  br label %177

177:                                              ; preds = %175, %168
  %178 = phi ptr [ %174, %175 ], [ %169, %168 ]
  switch i64 %171, label %181 [
    i64 1, label %179
    i64 0, label %182
  ]

179:                                              ; preds = %177
  %180 = load i8, ptr %170, align 1, !tbaa !17
  store i8 %180, ptr %178, align 1, !tbaa !17
  br label %182

181:                                              ; preds = %177
  call void @llvm.memcpy.p0.p0.i64(ptr align 1 %178, ptr align 1 %170, i64 %171, i1 false)
  br label %182

182:                                              ; preds = %181, %179, %177
  %183 = load i64, ptr %9, align 8, !tbaa !16, !noalias !32
  %184 = getelementptr inbounds nuw i8, ptr %14, i64 8
  store i64 %183, ptr %184, align 8, !tbaa !15, !alias.scope !32
  %185 = load ptr, ptr %14, align 8, !tbaa !12, !alias.scope !32
  %186 = getelementptr inbounds nuw i8, ptr %185, i64 %183
  store i8 0, ptr %186, align 1, !tbaa !17
  call void @llvm.lifetime.end.p0(ptr %9)
  %187 = load ptr, ptr %17, align 8, !tbaa !12
  %188 = getelementptr inbounds nuw i8, ptr %1, i64 56
  %189 = icmp eq ptr %187, %188
  br i1 %189, label %190, label %195

190:                                              ; preds = %182
  %191 = load i64, ptr %26, align 8, !tbaa !15
  %192 = icmp ult i64 %191, 16
  call void @llvm.assume(i1 %192)
  %193 = load ptr, ptr %14, align 8, !tbaa !12
  %194 = icmp eq ptr %193, %169
  br i1 %194, label %198, label %215

195:                                              ; preds = %182
  %196 = load ptr, ptr %14, align 8, !tbaa !12
  %197 = icmp eq ptr %196, %169
  br i1 %197, label %198, label %213

198:                                              ; preds = %195, %190
  %199 = phi ptr [ %196, %195 ], [ %193, %190 ]
  %200 = load i64, ptr %184, align 8, !tbaa !15
  %201 = icmp ult i64 %200, 16
  call void @llvm.assume(i1 %201)
  %202 = icmp eq ptr %14, %17
  br i1 %202, label %225, label %203, !prof !27

203:                                              ; preds = %198
  switch i64 %200, label %206 [
    i64 0, label %207
    i64 1, label %204
  ]

204:                                              ; preds = %203
  %205 = load i8, ptr %199, align 1, !tbaa !17
  store i8 %205, ptr %187, align 1, !tbaa !17
  br label %207

206:                                              ; preds = %203
  call void @llvm.memcpy.p0.p0.i64(ptr align 1 %187, ptr align 1 %199, i64 %200, i1 false)
  br label %207

207:                                              ; preds = %206, %204, %203
  %208 = load i64, ptr %184, align 8, !tbaa !15
  %209 = icmp ult i64 %208, 9223372036854775807
  call void @llvm.assume(i1 %209)
  store i64 %208, ptr %26, align 8, !tbaa !15
  %210 = load ptr, ptr %17, align 8, !tbaa !12
  %211 = getelementptr inbounds nuw i8, ptr %210, i64 %208
  store i8 0, ptr %211, align 1, !tbaa !17
  %212 = load ptr, ptr %14, align 8, !tbaa !12
  br label %225

213:                                              ; preds = %195
  %214 = load i64, ptr %188, align 8, !tbaa !17
  br label %215

215:                                              ; preds = %213, %190
  %216 = phi ptr [ %196, %213 ], [ %193, %190 ]
  %217 = phi ptr [ %187, %213 ], [ null, %190 ]
  %218 = phi i64 [ %214, %213 ], [ undef, %190 ]
  store ptr %216, ptr %17, align 8, !tbaa !12
  %219 = load i64, ptr %184, align 8, !tbaa !15
  %220 = icmp ult i64 %219, 9223372036854775807
  call void @llvm.assume(i1 %220)
  store i64 %219, ptr %26, align 8, !tbaa !15
  %221 = load i64, ptr %169, align 8, !tbaa !17
  store i64 %221, ptr %188, align 8, !tbaa !17
  %222 = icmp eq ptr %217, null
  br i1 %222, label %224, label %223

223:                                              ; preds = %215
  store ptr %217, ptr %14, align 8, !tbaa !12
  store i64 %218, ptr %169, align 8, !tbaa !17
  br label %225

224:                                              ; preds = %215
  store ptr %169, ptr %14, align 8, !tbaa !12
  br label %225

225:                                              ; preds = %224, %223, %207, %198
  %226 = phi ptr [ %217, %223 ], [ %169, %224 ], [ %199, %198 ], [ %212, %207 ]
  store i64 0, ptr %184, align 8, !tbaa !15
  store i8 0, ptr %226, align 1, !tbaa !17
  %227 = load ptr, ptr %14, align 8, !tbaa !12
  %228 = icmp eq ptr %227, %169
  br i1 %228, label %229, label %232

229:                                              ; preds = %225
  %230 = load i64, ptr %184, align 8, !tbaa !15
  %231 = icmp ult i64 %230, 16
  call void @llvm.assume(i1 %231)
  br label %235

232:                                              ; preds = %225
  %233 = load i64, ptr %169, align 8, !tbaa !17
  %234 = add i64 %233, 1
  call void @_ZdlPvm(ptr noundef %227, i64 noundef %234) #30
  br label %235

235:                                              ; preds = %232, %229
  call void @llvm.lifetime.end.p0(ptr %14)
  store i8 0, ptr %3, align 1, !tbaa !28
  br label %391

236:                                              ; preds = %173, %166
  %237 = landingpad { ptr, i32 }
          cleanup
  call void @llvm.lifetime.end.p0(ptr %14)
  %238 = load ptr, ptr %0, align 8, !tbaa !12
  %239 = icmp eq ptr %238, %27
  br i1 %239, label %240, label %243

240:                                              ; preds = %236
  %241 = load i64, ptr %147, align 8, !tbaa !15
  %242 = icmp ult i64 %241, 16
  call void @llvm.assume(i1 %242)
  br label %389

243:                                              ; preds = %236
  %244 = load i64, ptr %27, align 8, !tbaa !17
  %245 = add i64 %244, 1
  call void @_ZdlPvm(ptr noundef %238, i64 noundef %245) #30
  br label %389

246:                                              ; preds = %385, %20
  %247 = load i64, ptr %21, align 8, !tbaa !15
  %248 = icmp ult i64 %247, 9223372036854775807
  tail call void @llvm.assume(i1 %248)
  %249 = icmp samesign ugt i64 %16, %247
  br i1 %249, label %351, label %250

250:                                              ; preds = %246
  tail call void @llvm.experimental.noalias.scope.decl(metadata !35)
  %251 = getelementptr inbounds nuw i8, ptr %0, i64 16
  store ptr %251, ptr %0, align 8, !tbaa !7, !alias.scope !35
  %252 = load ptr, ptr %17, align 8, !tbaa !12, !noalias !35
  call void @llvm.lifetime.start.p0(ptr %8)
  store i64 %16, ptr %8, align 8, !tbaa !16, !noalias !35
  %253 = icmp ugt i64 %2, 15
  br i1 %253, label %254, label %257

254:                                              ; preds = %250
  %255 = call noundef ptr @_ZNSt7__cxx1112basic_stringIcSt11char_traitsIcESaIcEE9_M_createERmm(ptr noundef nonnull align 8 dereferenceable(32) %0, ptr noundef nonnull align 8 dereferenceable(8) %8, i64 noundef 0)
  store ptr %255, ptr %0, align 8, !tbaa !12, !alias.scope !35
  %256 = load i64, ptr %8, align 8, !tbaa !16, !noalias !35
  store i64 %256, ptr %251, align 8, !tbaa !17, !alias.scope !35
  br label %257

257:                                              ; preds = %254, %250
  %258 = phi ptr [ %255, %254 ], [ %251, %250 ]
  switch i64 %16, label %261 [
    i64 1, label %259
    i64 0, label %262
  ]

259:                                              ; preds = %257
  %260 = load i8, ptr %252, align 1, !tbaa !17
  store i8 %260, ptr %258, align 1, !tbaa !17
  br label %262

261:                                              ; preds = %257
  call void @llvm.memcpy.p0.p0.i64(ptr align 1 %258, ptr align 1 %252, i64 %16, i1 false)
  br label %262

262:                                              ; preds = %261, %259, %257
  %263 = load i64, ptr %8, align 8, !tbaa !16, !noalias !35
  %264 = getelementptr inbounds nuw i8, ptr %0, i64 8
  store i64 %263, ptr %264, align 8, !tbaa !15, !alias.scope !35
  %265 = load ptr, ptr %0, align 8, !tbaa !12, !alias.scope !35
  %266 = getelementptr inbounds nuw i8, ptr %265, i64 %263
  store i8 0, ptr %266, align 1, !tbaa !17
  call void @llvm.lifetime.end.p0(ptr %8)
  call void @llvm.lifetime.start.p0(ptr %15)
  call void @llvm.experimental.noalias.scope.decl(metadata !38)
  %267 = load i64, ptr %21, align 8, !tbaa !15, !noalias !38
  %268 = icmp ult i64 %267, 9223372036854775807
  call void @llvm.assume(i1 %268)
  %269 = icmp samesign ugt i64 %16, %267
  br i1 %269, label %270, label %272

270:                                              ; preds = %262
  invoke void (ptr, ...) @_ZSt24__throw_out_of_range_fmtPKcz(ptr noundef nonnull @.str.65, ptr noundef nonnull @.str.64, i64 noundef %16, i64 noundef %267) #33
          to label %271 unwind label %341

271:                                              ; preds = %270
  unreachable

272:                                              ; preds = %262
  %273 = getelementptr inbounds nuw i8, ptr %15, i64 16
  store ptr %273, ptr %15, align 8, !tbaa !7, !alias.scope !38
  %274 = load ptr, ptr %17, align 8, !tbaa !12, !noalias !38
  %275 = getelementptr inbounds nuw i8, ptr %274, i64 %16
  %276 = sub nuw nsw i64 %267, %16
  call void @llvm.lifetime.start.p0(ptr %7)
  store i64 %276, ptr %7, align 8, !tbaa !16, !noalias !38
  %277 = icmp samesign ugt i64 %276, 15
  br i1 %277, label %278, label %282

278:                                              ; preds = %272
  %279 = invoke noundef ptr @_ZNSt7__cxx1112basic_stringIcSt11char_traitsIcESaIcEE9_M_createERmm(ptr noundef nonnull align 8 dereferenceable(32) %15, ptr noundef nonnull align 8 dereferenceable(8) %7, i64 noundef 0)
          to label %280 unwind label %341

280:                                              ; preds = %278
  store ptr %279, ptr %15, align 8, !tbaa !12, !alias.scope !38
  %281 = load i64, ptr %7, align 8, !tbaa !16, !noalias !38
  store i64 %281, ptr %273, align 8, !tbaa !17, !alias.scope !38
  br label %282

282:                                              ; preds = %280, %272
  %283 = phi ptr [ %279, %280 ], [ %273, %272 ]
  switch i64 %276, label %286 [
    i64 1, label %284
    i64 0, label %287
  ]

284:                                              ; preds = %282
  %285 = load i8, ptr %275, align 1, !tbaa !17
  store i8 %285, ptr %283, align 1, !tbaa !17
  br label %287

286:                                              ; preds = %282
  call void @llvm.memcpy.p0.p0.i64(ptr align 1 %283, ptr align 1 %275, i64 %276, i1 false)
  br label %287

287:                                              ; preds = %286, %284, %282
  %288 = load i64, ptr %7, align 8, !tbaa !16, !noalias !38
  %289 = getelementptr inbounds nuw i8, ptr %15, i64 8
  store i64 %288, ptr %289, align 8, !tbaa !15, !alias.scope !38
  %290 = load ptr, ptr %15, align 8, !tbaa !12, !alias.scope !38
  %291 = getelementptr inbounds nuw i8, ptr %290, i64 %288
  store i8 0, ptr %291, align 1, !tbaa !17
  call void @llvm.lifetime.end.p0(ptr %7)
  %292 = load ptr, ptr %17, align 8, !tbaa !12
  %293 = getelementptr inbounds nuw i8, ptr %1, i64 56
  %294 = icmp eq ptr %292, %293
  br i1 %294, label %295, label %300

295:                                              ; preds = %287
  %296 = load i64, ptr %21, align 8, !tbaa !15
  %297 = icmp ult i64 %296, 16
  call void @llvm.assume(i1 %297)
  %298 = load ptr, ptr %15, align 8, !tbaa !12
  %299 = icmp eq ptr %298, %273
  br i1 %299, label %303, label %320

300:                                              ; preds = %287
  %301 = load ptr, ptr %15, align 8, !tbaa !12
  %302 = icmp eq ptr %301, %273
  br i1 %302, label %303, label %318

303:                                              ; preds = %300, %295
  %304 = phi ptr [ %301, %300 ], [ %298, %295 ]
  %305 = load i64, ptr %289, align 8, !tbaa !15
  %306 = icmp ult i64 %305, 16
  call void @llvm.assume(i1 %306)
  %307 = icmp eq ptr %15, %17
  br i1 %307, label %330, label %308, !prof !27

308:                                              ; preds = %303
  switch i64 %305, label %311 [
    i64 0, label %312
    i64 1, label %309
  ]

309:                                              ; preds = %308
  %310 = load i8, ptr %304, align 1, !tbaa !17
  store i8 %310, ptr %292, align 1, !tbaa !17
  br label %312

311:                                              ; preds = %308
  call void @llvm.memcpy.p0.p0.i64(ptr align 1 %292, ptr align 1 %304, i64 %305, i1 false)
  br label %312

312:                                              ; preds = %311, %309, %308
  %313 = load i64, ptr %289, align 8, !tbaa !15
  %314 = icmp ult i64 %313, 9223372036854775807
  call void @llvm.assume(i1 %314)
  store i64 %313, ptr %21, align 8, !tbaa !15
  %315 = load ptr, ptr %17, align 8, !tbaa !12
  %316 = getelementptr inbounds nuw i8, ptr %315, i64 %313
  store i8 0, ptr %316, align 1, !tbaa !17
  %317 = load ptr, ptr %15, align 8, !tbaa !12
  br label %330

318:                                              ; preds = %300
  %319 = load i64, ptr %293, align 8, !tbaa !17
  br label %320

320:                                              ; preds = %318, %295
  %321 = phi ptr [ %301, %318 ], [ %298, %295 ]
  %322 = phi ptr [ %292, %318 ], [ null, %295 ]
  %323 = phi i64 [ %319, %318 ], [ undef, %295 ]
  store ptr %321, ptr %17, align 8, !tbaa !12
  %324 = load i64, ptr %289, align 8, !tbaa !15
  %325 = icmp ult i64 %324, 9223372036854775807
  call void @llvm.assume(i1 %325)
  store i64 %324, ptr %21, align 8, !tbaa !15
  %326 = load i64, ptr %273, align 8, !tbaa !17
  store i64 %326, ptr %293, align 8, !tbaa !17
  %327 = icmp eq ptr %322, null
  br i1 %327, label %329, label %328

328:                                              ; preds = %320
  store ptr %322, ptr %15, align 8, !tbaa !12
  store i64 %323, ptr %273, align 8, !tbaa !17
  br label %330

329:                                              ; preds = %320
  store ptr %273, ptr %15, align 8, !tbaa !12
  br label %330

330:                                              ; preds = %329, %328, %312, %303
  %331 = phi ptr [ %322, %328 ], [ %273, %329 ], [ %304, %303 ], [ %317, %312 ]
  store i64 0, ptr %289, align 8, !tbaa !15
  store i8 0, ptr %331, align 1, !tbaa !17
  %332 = load ptr, ptr %15, align 8, !tbaa !12
  %333 = icmp eq ptr %332, %273
  br i1 %333, label %334, label %337

334:                                              ; preds = %330
  %335 = load i64, ptr %289, align 8, !tbaa !15
  %336 = icmp ult i64 %335, 16
  call void @llvm.assume(i1 %336)
  br label %340

337:                                              ; preds = %330
  %338 = load i64, ptr %273, align 8, !tbaa !17
  %339 = add i64 %338, 1
  call void @_ZdlPvm(ptr noundef %332, i64 noundef %339) #30
  br label %340

340:                                              ; preds = %337, %334
  call void @llvm.lifetime.end.p0(ptr %15)
  store i8 1, ptr %3, align 1, !tbaa !28
  br label %391

341:                                              ; preds = %278, %270
  %342 = landingpad { ptr, i32 }
          cleanup
  call void @llvm.lifetime.end.p0(ptr %15)
  %343 = load ptr, ptr %0, align 8, !tbaa !12
  %344 = icmp eq ptr %343, %251
  br i1 %344, label %345, label %348

345:                                              ; preds = %341
  %346 = load i64, ptr %264, align 8, !tbaa !15
  %347 = icmp ult i64 %346, 16
  call void @llvm.assume(i1 %347)
  br label %389

348:                                              ; preds = %341
  %349 = load i64, ptr %251, align 8, !tbaa !17
  %350 = add i64 %349, 1
  call void @_ZdlPvm(ptr noundef %343, i64 noundef %350) #30
  br label %389

351:                                              ; preds = %246
  %352 = load i8, ptr %22, align 8, !tbaa !18, !range !41, !noundef !42
  %353 = trunc nuw i8 %352 to i1
  br i1 %353, label %354, label %375

354:                                              ; preds = %351
  %355 = getelementptr inbounds nuw i8, ptr %0, i64 16
  store ptr %355, ptr %0, align 8, !tbaa !7
  %356 = load ptr, ptr %17, align 8, !tbaa !12
  call void @llvm.lifetime.start.p0(ptr %6)
  store i64 %247, ptr %6, align 8, !tbaa !16
  %357 = icmp samesign ugt i64 %247, 15
  br i1 %357, label %358, label %361

358:                                              ; preds = %354
  %359 = call noundef ptr @_ZNSt7__cxx1112basic_stringIcSt11char_traitsIcESaIcEE9_M_createERmm(ptr noundef nonnull align 8 dereferenceable(32) %0, ptr noundef nonnull align 8 dereferenceable(8) %6, i64 noundef 0)
  store ptr %359, ptr %0, align 8, !tbaa !12
  %360 = load i64, ptr %6, align 8, !tbaa !16
  store i64 %360, ptr %355, align 8, !tbaa !17
  br label %361

361:                                              ; preds = %358, %354
  %362 = phi i64 [ %360, %358 ], [ %247, %354 ]
  %363 = phi ptr [ %359, %358 ], [ %355, %354 ]
  switch i64 %362, label %366 [
    i64 0, label %364
    i64 -1, label %368
  ]

364:                                              ; preds = %361
  %365 = load i8, ptr %356, align 1, !tbaa !17
  store i8 %365, ptr %363, align 1, !tbaa !17
  br label %368

366:                                              ; preds = %361
  %367 = add nuw i64 %362, 1
  call void @llvm.memcpy.p0.p0.i64(ptr noundef nonnull align 1 dereferenceable(1) %363, ptr noundef nonnull align 1 dereferenceable(1) %356, i64 %367, i1 false)
  br label %368

368:                                              ; preds = %366, %364, %361
  %369 = load i64, ptr %6, align 8, !tbaa !16
  %370 = getelementptr inbounds nuw i8, ptr %0, i64 8
  store i64 %369, ptr %370, align 8, !tbaa !15
  call void @llvm.lifetime.end.p0(ptr %6)
  store i64 0, ptr %21, align 8, !tbaa !15
  %371 = load ptr, ptr %17, align 8, !tbaa !12
  store i8 0, ptr %371, align 1, !tbaa !17
  store i8 0, ptr %3, align 1, !tbaa !28
  %372 = load i64, ptr %370, align 8, !tbaa !15
  %373 = icmp eq i64 %372, 0
  %374 = zext i1 %373 to i8
  br label %391

375:                                              ; preds = %351
  tail call void @_ZNSt7__cxx1112basic_stringIcSt11char_traitsIcESaIcEE6resizeEmc(ptr noundef nonnull align 8 dereferenceable(32) %17, i64 noundef %16, i8 noundef signext 0)
  %376 = load ptr, ptr %17, align 8, !tbaa !12
  %377 = getelementptr inbounds nuw i8, ptr %376, i64 %247
  %378 = sub nsw i64 %16, %247
  %379 = load ptr, ptr %1, align 8, !tbaa !4
  %380 = getelementptr inbounds nuw i8, ptr %379, i64 16
  %381 = load ptr, ptr %380, align 8
  %382 = tail call noundef i64 %381(ptr noundef nonnull align 8 dereferenceable(73) %1, ptr noundef nonnull %377, i64 noundef %378)
  %383 = icmp ult i64 %382, %378
  br i1 %383, label %384, label %385

384:                                              ; preds = %375
  store i8 1, ptr %22, align 8, !tbaa !18
  br label %385

385:                                              ; preds = %384, %375
  %386 = add i64 %382, %247
  tail call void @_ZNSt7__cxx1112basic_stringIcSt11char_traitsIcESaIcEE6resizeEmc(ptr noundef nonnull align 8 dereferenceable(32) %17, i64 noundef %386, i8 noundef signext 0)
  %387 = tail call noundef i64 @_ZNKSt7__cxx1112basic_stringIcSt11char_traitsIcESaIcEE13find_first_ofEPKcmm(ptr noundef nonnull align 8 dereferenceable(32) %17, ptr noundef nonnull @.str, i64 noundef 0, i64 noundef 2) #32
  %388 = icmp eq i64 %387, -1
  br i1 %388, label %246, label %23, !llvm.loop !43

389:                                              ; preds = %348, %345, %243, %240, %128, %125
  %390 = phi { ptr, i32 } [ %122, %125 ], [ %122, %128 ], [ %237, %240 ], [ %237, %243 ], [ %342, %345 ], [ %342, %348 ]
  resume { ptr, i32 } %390

391:                                              ; preds = %368, %340, %235, %120
  %392 = phi i8 [ 0, %120 ], [ 0, %235 ], [ 0, %340 ], [ %374, %368 ]
  store i8 %392, ptr %4, align 1, !tbaa !28
  ret void
}

declare i32 @__gxx_personality_v0(...)

; Function Attrs: mustprogress nounwind sspstrong uwtable
declare noundef nonnull align 8 dereferenceable(32) ptr @_ZNSt7__cxx1112basic_stringIcSt11char_traitsIcESaIcEEaSEOS4_(ptr noundef nonnull align 8 dereferenceable(32), ptr noundef nonnull align 8 dereferenceable(32)) local_unnamed_addr #1 align 2

; Function Attrs: mustprogress nounwind sspstrong uwtable
define hidden void @_ZN5osgeo4proj9FileStdioD2Ev(ptr noundef nonnull align 8 captures(address) dereferenceable(96) initializes((0, 8)) %0) unnamed_addr #1 align 2 personality ptr @__gxx_personality_v0 {
  store ptr getelementptr inbounds nuw inrange(-16, 64) (i8, ptr @_ZTVN5osgeo4proj9FileStdioE, i64 16), ptr %0, align 8, !tbaa !4
  %2 = getelementptr inbounds nuw i8, ptr %0, i64 88
  %3 = load ptr, ptr %2, align 8, !tbaa !45
  %4 = tail call i32 @fclose(ptr noundef %3)
  store ptr getelementptr inbounds nuw inrange(-16, 64) (i8, ptr @_ZTVN5osgeo4proj4FileE, i64 16), ptr %0, align 8, !tbaa !4
  %5 = getelementptr inbounds nuw i8, ptr %0, i64 40
  %6 = load ptr, ptr %5, align 8, !tbaa !12
  %7 = getelementptr inbounds nuw i8, ptr %0, i64 56
  %8 = icmp eq ptr %6, %7
  br i1 %8, label %9, label %13

9:                                                ; preds = %1
  %10 = getelementptr inbounds nuw i8, ptr %0, i64 48
  %11 = load i64, ptr %10, align 8, !tbaa !15
  %12 = icmp ult i64 %11, 16
  tail call void @llvm.assume(i1 %12)
  br label %16

13:                                               ; preds = %1
  %14 = load i64, ptr %7, align 8, !tbaa !17
  %15 = add i64 %14, 1
  tail call void @_ZdlPvm(ptr noundef %6, i64 noundef %15) #30
  br label %16

16:                                               ; preds = %13, %9
  %17 = getelementptr inbounds nuw i8, ptr %0, i64 8
  %18 = load ptr, ptr %17, align 8, !tbaa !12
  %19 = getelementptr inbounds nuw i8, ptr %0, i64 24
  %20 = icmp eq ptr %18, %19
  br i1 %20, label %21, label %25

21:                                               ; preds = %16
  %22 = getelementptr inbounds nuw i8, ptr %0, i64 16
  %23 = load i64, ptr %22, align 8, !tbaa !15
  %24 = icmp ult i64 %23, 16
  tail call void @llvm.assume(i1 %24)
  br label %28

25:                                               ; preds = %16
  %26 = load i64, ptr %19, align 8, !tbaa !17
  %27 = add i64 %26, 1
  tail call void @_ZdlPvm(ptr noundef %18, i64 noundef %27) #30
  br label %28

28:                                               ; preds = %25, %21
  ret void
}

; Function Attrs: nofree nounwind
declare noundef i32 @fclose(ptr noundef captures(none)) local_unnamed_addr #4

; Function Attrs: noinline noreturn nounwind sspstrong uwtable
define linkonce_odr hidden void @__clang_call_terminate(ptr noundef %0) local_unnamed_addr #5 comdat {
  %2 = tail call ptr @__cxa_begin_catch(ptr %0) #32
  tail call void @_ZSt9terminatev() #31
  unreachable
}

declare ptr @__cxa_begin_catch(ptr) local_unnamed_addr

; Function Attrs: cold nofree noreturn
declare void @_ZSt9terminatev() local_unnamed_addr #6

; Function Attrs: mustprogress nounwind sspstrong uwtable
define hidden void @_ZN5osgeo4proj9FileStdioD0Ev(ptr noundef nonnull align 8 dereferenceable(96) initializes((0, 8)) %0) unnamed_addr #1 align 2 personality ptr @__gxx_personality_v0 {
  store ptr getelementptr inbounds nuw inrange(-16, 64) (i8, ptr @_ZTVN5osgeo4proj9FileStdioE, i64 16), ptr %0, align 8, !tbaa !4
  %2 = getelementptr inbounds nuw i8, ptr %0, i64 88
  %3 = load ptr, ptr %2, align 8, !tbaa !45
  %4 = tail call i32 @fclose(ptr noundef %3)
  store ptr getelementptr inbounds nuw inrange(-16, 64) (i8, ptr @_ZTVN5osgeo4proj4FileE, i64 16), ptr %0, align 8, !tbaa !4
  %5 = getelementptr inbounds nuw i8, ptr %0, i64 40
  %6 = load ptr, ptr %5, align 8, !tbaa !12
  %7 = getelementptr inbounds nuw i8, ptr %0, i64 56
  %8 = icmp eq ptr %6, %7
  br i1 %8, label %9, label %13

9:                                                ; preds = %1
  %10 = getelementptr inbounds nuw i8, ptr %0, i64 48
  %11 = load i64, ptr %10, align 8, !tbaa !15
  %12 = icmp ult i64 %11, 16
  tail call void @llvm.assume(i1 %12)
  br label %16

13:                                               ; preds = %1
  %14 = load i64, ptr %7, align 8, !tbaa !17
  %15 = add i64 %14, 1
  tail call void @_ZdlPvm(ptr noundef %6, i64 noundef %15) #30
  br label %16

16:                                               ; preds = %13, %9
  %17 = getelementptr inbounds nuw i8, ptr %0, i64 8
  %18 = load ptr, ptr %17, align 8, !tbaa !12
  %19 = getelementptr inbounds nuw i8, ptr %0, i64 24
  %20 = icmp eq ptr %18, %19
  br i1 %20, label %21, label %25

21:                                               ; preds = %16
  %22 = getelementptr inbounds nuw i8, ptr %0, i64 16
  %23 = load i64, ptr %22, align 8, !tbaa !15
  %24 = icmp ult i64 %23, 16
  tail call void @llvm.assume(i1 %24)
  br label %28

25:                                               ; preds = %16
  %26 = load i64, ptr %19, align 8, !tbaa !17
  %27 = add i64 %26, 1
  tail call void @_ZdlPvm(ptr noundef %18, i64 noundef %27) #30
  br label %28

28:                                               ; preds = %25, %21
  tail call void @_ZdlPvm(ptr noundef nonnull %0, i64 noundef 96) #30
  ret void
}

; Function Attrs: nobuiltin nounwind
declare void @_ZdlPvm(ptr noundef, i64 noundef) local_unnamed_addr #7

; Function Attrs: mustprogress nofree nounwind sspstrong uwtable
define hidden noundef i64 @_ZN5osgeo4proj9FileStdio4readEPvm(ptr noundef nonnull readonly align 8 captures(none) dereferenceable(96) %0, ptr noundef writeonly captures(none) %1, i64 noundef %2) unnamed_addr #8 align 2 {
  %4 = getelementptr inbounds nuw i8, ptr %0, i64 88
  %5 = load ptr, ptr %4, align 8, !tbaa !45
  %6 = tail call i64 @fread(ptr noundef %1, i64 noundef 1, i64 noundef %2, ptr noundef %5)
  ret i64 %6
}

; Function Attrs: nofree nounwind
declare noundef i64 @fread(ptr noundef writeonly captures(none), i64 noundef, i64 noundef, ptr noundef captures(none)) local_unnamed_addr #4

; Function Attrs: mustprogress nofree nounwind sspstrong uwtable
define hidden noundef i64 @_ZN5osgeo4proj9FileStdio5writeEPKvm(ptr noundef nonnull readonly align 8 captures(none) dereferenceable(96) %0, ptr noundef readonly captures(none) %1, i64 noundef %2) unnamed_addr #8 align 2 {
  %4 = getelementptr inbounds nuw i8, ptr %0, i64 88
  %5 = load ptr, ptr %4, align 8, !tbaa !45
  %6 = tail call i64 @fwrite(ptr noundef %1, i64 noundef 1, i64 noundef %2, ptr noundef %5)
  ret i64 %6
}

; Function Attrs: nofree nounwind
declare noundef i64 @fwrite(ptr noundef readonly captures(none), i64 noundef, i64 noundef, ptr noundef captures(none)) local_unnamed_addr #4

; Function Attrs: mustprogress nofree nounwind sspstrong uwtable
define hidden noundef zeroext i1 @_ZN5osgeo4proj9FileStdio4seekEyi(ptr noundef nonnull readonly align 8 captures(none) dereferenceable(96) %0, i64 noundef %1, i32 noundef %2) unnamed_addr #8 align 2 {
  %4 = getelementptr inbounds nuw i8, ptr %0, i64 88
  %5 = load ptr, ptr %4, align 8, !tbaa !45
  %6 = tail call i32 @fseek(ptr noundef %5, i64 noundef %1, i32 noundef %2)
  %7 = icmp eq i32 %6, 0
  ret i1 %7
}

declare void @_Z6pj_logP6pj_ctxiPKcz(ptr noundef, i32 noundef, ptr noundef, ...) local_unnamed_addr #9

; Function Attrs: nofree nounwind
declare noundef i32 @fseek(ptr noundef captures(none), i64 noundef, i32 noundef) local_unnamed_addr #4

; Function Attrs: mustprogress nofree nounwind sspstrong uwtable
define hidden noundef i64 @_ZN5osgeo4proj9FileStdio4tellEv(ptr noundef nonnull readonly align 8 captures(none) dereferenceable(96) %0) unnamed_addr #8 align 2 {
  %2 = getelementptr inbounds nuw i8, ptr %0, i64 88
  %3 = load ptr, ptr %2, align 8, !tbaa !45
  %4 = tail call i64 @ftell(ptr noundef %3)
  ret i64 %4
}

; Function Attrs: nofree nounwind
declare noundef i64 @ftell(ptr noundef captures(none)) local_unnamed_addr #4

; Function Attrs: mustprogress sspstrong uwtable
define hidden void @_ZN5osgeo4proj9FileStdio4openEP6pj_ctxPKcNS0_10FileAccessE(ptr dead_on_unwind noalias writable writeonly sret(%"class.std::unique_ptr") align 8 captures(none) %0, ptr noundef %1, ptr noundef readonly captures(address_is_null) %2, i32 noundef %3) local_unnamed_addr #0 align 2 personality ptr @__gxx_personality_v0 {
  %5 = alloca i64, align 8
  %6 = alloca i64, align 8
  %7 = alloca %"class.std::__cxx11::basic_string", align 8
  %8 = icmp eq i32 %3, 0
  %9 = icmp eq i32 %3, 1
  %10 = select i1 %9, ptr @.str.3, ptr @.str.4
  %11 = select i1 %8, ptr @.str.2, ptr %10
  %12 = tail call noalias ptr @fopen(ptr noundef %2, ptr noundef nonnull %11)
  %13 = icmp eq ptr %12, null
  br i1 %13, label %71, label %14

14:                                               ; preds = %4
  %15 = tail call noalias noundef nonnull dereferenceable(96) ptr @_Znwm(i64 noundef 96) #34
  call void @llvm.lifetime.start.p0(ptr %7)
  %16 = getelementptr inbounds nuw i8, ptr %7, i64 16
  store ptr %16, ptr %7, align 8, !tbaa !7
  %17 = icmp eq ptr %2, null
  br i1 %17, label %18, label %20

18:                                               ; preds = %14
  invoke void @_ZSt19__throw_logic_errorPKc(ptr noundef nonnull @.str.67) #33
          to label %19 unwind label %74

19:                                               ; preds = %18
  unreachable

20:                                               ; preds = %14
  %21 = call noundef i64 @strlen(ptr noundef nonnull dereferenceable(1) %2) #32
  call void @llvm.lifetime.start.p0(ptr %6)
  store i64 %21, ptr %6, align 8, !tbaa !16
  %22 = icmp ugt i64 %21, 15
  br i1 %22, label %23, label %27

23:                                               ; preds = %20
  %24 = invoke noundef ptr @_ZNSt7__cxx1112basic_stringIcSt11char_traitsIcESaIcEE9_M_createERmm(ptr noundef nonnull align 8 dereferenceable(32) %7, ptr noundef nonnull align 8 dereferenceable(8) %6, i64 noundef 0)
          to label %25 unwind label %74

25:                                               ; preds = %23
  store ptr %24, ptr %7, align 8, !tbaa !12
  %26 = load i64, ptr %6, align 8, !tbaa !16
  store i64 %26, ptr %16, align 8, !tbaa !17
  br label %27

27:                                               ; preds = %25, %20
  %28 = phi ptr [ %24, %25 ], [ %16, %20 ]
  switch i64 %21, label %31 [
    i64 1, label %29
    i64 0, label %32
  ]

29:                                               ; preds = %27
  %30 = load i8, ptr %2, align 1, !tbaa !17
  store i8 %30, ptr %28, align 1, !tbaa !17
  br label %32

31:                                               ; preds = %27
  call void @llvm.memcpy.p0.p0.i64(ptr align 1 %28, ptr nonnull align 1 %2, i64 %21, i1 false)
  br label %32

32:                                               ; preds = %31, %29, %27
  %33 = load i64, ptr %6, align 8, !tbaa !16
  %34 = getelementptr inbounds nuw i8, ptr %7, i64 8
  store i64 %33, ptr %34, align 8, !tbaa !15
  %35 = load ptr, ptr %7, align 8, !tbaa !12
  %36 = getelementptr inbounds nuw i8, ptr %35, i64 %33
  store i8 0, ptr %36, align 1, !tbaa !17
  call void @llvm.lifetime.end.p0(ptr %6)
  store ptr getelementptr inbounds nuw inrange(-16, 64) (i8, ptr @_ZTVN5osgeo4proj4FileE, i64 16), ptr %15, align 8, !tbaa !4
  %37 = getelementptr inbounds nuw i8, ptr %15, i64 8
  %38 = getelementptr inbounds nuw i8, ptr %15, i64 24
  store ptr %38, ptr %37, align 8, !tbaa !7
  %39 = load ptr, ptr %7, align 8, !tbaa !12
  %40 = load i64, ptr %34, align 8, !tbaa !15
  %41 = icmp ult i64 %40, 9223372036854775807
  call void @llvm.assume(i1 %41)
  call void @llvm.lifetime.start.p0(ptr %5)
  store i64 %40, ptr %5, align 8, !tbaa !16
  %42 = icmp samesign ugt i64 %40, 15
  br i1 %42, label %43, label %47

43:                                               ; preds = %32
  %44 = invoke noundef ptr @_ZNSt7__cxx1112basic_stringIcSt11char_traitsIcESaIcEE9_M_createERmm(ptr noundef nonnull align 8 dereferenceable(32) %37, ptr noundef nonnull align 8 dereferenceable(8) %5, i64 noundef 0)
          to label %45 unwind label %76

45:                                               ; preds = %43
  store ptr %44, ptr %37, align 8, !tbaa !12
  %46 = load i64, ptr %5, align 8, !tbaa !16
  store i64 %46, ptr %38, align 8, !tbaa !17
  br label %47

47:                                               ; preds = %45, %32
  %48 = phi i64 [ %46, %45 ], [ %40, %32 ]
  %49 = phi ptr [ %44, %45 ], [ %38, %32 ]
  switch i64 %48, label %52 [
    i64 0, label %50
    i64 -1, label %54
  ]

50:                                               ; preds = %47
  %51 = load i8, ptr %39, align 1, !tbaa !17
  store i8 %51, ptr %49, align 1, !tbaa !17
  br label %54

52:                                               ; preds = %47
  %53 = add nuw i64 %48, 1
  call void @llvm.memcpy.p0.p0.i64(ptr noundef nonnull align 1 dereferenceable(1) %49, ptr noundef nonnull align 1 dereferenceable(1) %39, i64 %53, i1 false)
  br label %54

54:                                               ; preds = %52, %50, %47
  %55 = load i64, ptr %5, align 8, !tbaa !16
  %56 = getelementptr inbounds nuw i8, ptr %15, i64 16
  store i64 %55, ptr %56, align 8, !tbaa !15
  call void @llvm.lifetime.end.p0(ptr %5)
  %57 = getelementptr inbounds nuw i8, ptr %15, i64 40
  %58 = getelementptr inbounds nuw i8, ptr %15, i64 56
  store ptr %58, ptr %57, align 8, !tbaa !7
  %59 = getelementptr inbounds nuw i8, ptr %15, i64 48
  store i64 0, ptr %59, align 8, !tbaa !15
  store i8 0, ptr %58, align 1, !tbaa !17
  %60 = getelementptr inbounds nuw i8, ptr %15, i64 72
  store i8 0, ptr %60, align 8, !tbaa !18
  store ptr getelementptr inbounds nuw inrange(-16, 64) (i8, ptr @_ZTVN5osgeo4proj9FileStdioE, i64 16), ptr %15, align 8, !tbaa !4
  %61 = getelementptr inbounds nuw i8, ptr %15, i64 80
  store ptr %1, ptr %61, align 8, !tbaa !49
  %62 = getelementptr inbounds nuw i8, ptr %15, i64 88
  store ptr %12, ptr %62, align 8, !tbaa !45
  store ptr %15, ptr %0, align 8, !tbaa !50
  %63 = load ptr, ptr %7, align 8, !tbaa !12
  %64 = icmp eq ptr %63, %16
  br i1 %64, label %65, label %68

65:                                               ; preds = %54
  %66 = load i64, ptr %34, align 8, !tbaa !15
  %67 = icmp ult i64 %66, 16
  call void @llvm.assume(i1 %67)
  br label %72

68:                                               ; preds = %54
  %69 = load i64, ptr %16, align 8, !tbaa !17
  %70 = add i64 %69, 1
  call void @_ZdlPvm(ptr noundef %63, i64 noundef %70) #30
  br label %72

71:                                               ; preds = %4
  store ptr null, ptr %0, align 8, !tbaa !50
  br label %73

72:                                               ; preds = %68, %65
  call void @llvm.lifetime.end.p0(ptr %7)
  br label %73

73:                                               ; preds = %72, %71
  ret void

74:                                               ; preds = %23, %18
  %75 = landingpad { ptr, i32 }
          cleanup
  br label %86

76:                                               ; preds = %43
  %77 = landingpad { ptr, i32 }
          cleanup
  %78 = load ptr, ptr %7, align 8, !tbaa !12
  %79 = icmp eq ptr %78, %16
  br i1 %79, label %80, label %83

80:                                               ; preds = %76
  %81 = load i64, ptr %34, align 8, !tbaa !15
  %82 = icmp ult i64 %81, 16
  call void @llvm.assume(i1 %82)
  br label %86

83:                                               ; preds = %76
  %84 = load i64, ptr %16, align 8, !tbaa !17
  %85 = add i64 %84, 1
  call void @_ZdlPvm(ptr noundef %78, i64 noundef %85) #30
  br label %86

86:                                               ; preds = %83, %80, %74
  %87 = phi { ptr, i32 } [ %75, %74 ], [ %77, %80 ], [ %77, %83 ]
  call void @llvm.lifetime.end.p0(ptr %7)
  call void @_ZdlPvm(ptr noundef nonnull %15, i64 noundef 96) #30
  resume { ptr, i32 } %87
}

; Function Attrs: nofree nounwind
declare noalias noundef ptr @fopen(ptr noundef readonly captures(none), ptr noundef readonly captures(none)) local_unnamed_addr #4

; Function Attrs: nobuiltin allocsize(0)
declare noalias noundef nonnull ptr @_Znwm(i64 noundef) local_unnamed_addr #10

; Function Attrs: mustprogress sspstrong uwtable
define linkonce_odr void @_ZNSt7__cxx1112basic_stringIcSt11char_traitsIcESaIcEEC2IS3_EEPKcRKS3_(ptr noundef nonnull align 8 dereferenceable(32) %0, ptr noundef %1, ptr noundef nonnull align 1 dereferenceable(1) %2) unnamed_addr #0 comdat align 2 personality ptr @__gxx_personality_v0 {
  %4 = alloca i64, align 8
  %5 = getelementptr inbounds nuw i8, ptr %0, i64 16
  store ptr %5, ptr %0, align 8, !tbaa !7
  %6 = icmp eq ptr %1, null
  br i1 %6, label %7, label %8

7:                                                ; preds = %3
  tail call void @_ZSt19__throw_logic_errorPKc(ptr noundef nonnull @.str.67) #33
  unreachable

8:                                                ; preds = %3
  %9 = tail call noundef i64 @strlen(ptr noundef nonnull dereferenceable(1) %1) #32
  call void @llvm.lifetime.start.p0(ptr %4)
  store i64 %9, ptr %4, align 8, !tbaa !16
  %10 = icmp ugt i64 %9, 15
  br i1 %10, label %11, label %14

11:                                               ; preds = %8
  %12 = call noundef ptr @_ZNSt7__cxx1112basic_stringIcSt11char_traitsIcESaIcEE9_M_createERmm(ptr noundef nonnull align 8 dereferenceable(32) %0, ptr noundef nonnull align 8 dereferenceable(8) %4, i64 noundef 0)
  store ptr %12, ptr %0, align 8, !tbaa !12
  %13 = load i64, ptr %4, align 8, !tbaa !16
  store i64 %13, ptr %5, align 8, !tbaa !17
  br label %14

14:                                               ; preds = %11, %8
  %15 = phi ptr [ %12, %11 ], [ %5, %8 ]
  switch i64 %9, label %18 [
    i64 1, label %16
    i64 0, label %19
  ]

16:                                               ; preds = %14
  %17 = load i8, ptr %1, align 1, !tbaa !17
  store i8 %17, ptr %15, align 1, !tbaa !17
  br label %19

18:                                               ; preds = %14
  call void @llvm.memcpy.p0.p0.i64(ptr align 1 %15, ptr nonnull align 1 %1, i64 %9, i1 false)
  br label %19

19:                                               ; preds = %18, %16, %14
  %20 = load i64, ptr %4, align 8, !tbaa !16
  %21 = getelementptr inbounds nuw i8, ptr %0, i64 8
  store i64 %20, ptr %21, align 8, !tbaa !15
  %22 = load ptr, ptr %0, align 8, !tbaa !12
  %23 = getelementptr inbounds nuw i8, ptr %22, i64 %20
  store i8 0, ptr %23, align 1, !tbaa !17
  call void @llvm.lifetime.end.p0(ptr %4)
  ret void
}

; Function Attrs: mustprogress nounwind sspstrong uwtable
define hidden void @_ZN5osgeo4proj14FileApiAdapterD2Ev(ptr noundef nonnull align 8 captures(address) dereferenceable(96) initializes((0, 8)) %0) unnamed_addr #1 align 2 personality ptr @__gxx_personality_v0 {
  store ptr getelementptr inbounds nuw inrange(-16, 64) (i8, ptr @_ZTVN5osgeo4proj14FileApiAdapterE, i64 16), ptr %0, align 8, !tbaa !4
  %2 = getelementptr inbounds nuw i8, ptr %0, i64 80
  %3 = load ptr, ptr %2, align 8, !tbaa !52
  %4 = getelementptr inbounds nuw i8, ptr %3, i64 264
  %5 = load ptr, ptr %4, align 8, !tbaa !55
  %6 = getelementptr inbounds nuw i8, ptr %0, i64 88
  %7 = load ptr, ptr %6, align 8, !tbaa !80
  %8 = getelementptr inbounds nuw i8, ptr %3, i64 304
  %9 = load ptr, ptr %8, align 8, !tbaa !81
  invoke void %5(ptr noundef nonnull %3, ptr noundef %7, ptr noundef %9)
          to label %10 unwind label %35

10:                                               ; preds = %1
  store ptr getelementptr inbounds nuw inrange(-16, 64) (i8, ptr @_ZTVN5osgeo4proj4FileE, i64 16), ptr %0, align 8, !tbaa !4
  %11 = getelementptr inbounds nuw i8, ptr %0, i64 40
  %12 = load ptr, ptr %11, align 8, !tbaa !12
  %13 = getelementptr inbounds nuw i8, ptr %0, i64 56
  %14 = icmp eq ptr %12, %13
  br i1 %14, label %15, label %19

15:                                               ; preds = %10
  %16 = getelementptr inbounds nuw i8, ptr %0, i64 48
  %17 = load i64, ptr %16, align 8, !tbaa !15
  %18 = icmp ult i64 %17, 16
  tail call void @llvm.assume(i1 %18)
  br label %22

19:                                               ; preds = %10
  %20 = load i64, ptr %13, align 8, !tbaa !17
  %21 = add i64 %20, 1
  tail call void @_ZdlPvm(ptr noundef %12, i64 noundef %21) #30
  br label %22

22:                                               ; preds = %19, %15
  %23 = getelementptr inbounds nuw i8, ptr %0, i64 8
  %24 = load ptr, ptr %23, align 8, !tbaa !12
  %25 = getelementptr inbounds nuw i8, ptr %0, i64 24
  %26 = icmp eq ptr %24, %25
  br i1 %26, label %27, label %31

27:                                               ; preds = %22
  %28 = getelementptr inbounds nuw i8, ptr %0, i64 16
  %29 = load i64, ptr %28, align 8, !tbaa !15
  %30 = icmp ult i64 %29, 16
  tail call void @llvm.assume(i1 %30)
  br label %34

31:                                               ; preds = %22
  %32 = load i64, ptr %25, align 8, !tbaa !17
  %33 = add i64 %32, 1
  tail call void @_ZdlPvm(ptr noundef %24, i64 noundef %33) #30
  br label %34

34:                                               ; preds = %31, %27
  ret void

35:                                               ; preds = %1
  %36 = landingpad { ptr, i32 }
          catch ptr null
  %37 = extractvalue { ptr, i32 } %36, 0
  tail call void @__clang_call_terminate(ptr %37) #31
  unreachable
}

; Function Attrs: mustprogress nounwind sspstrong uwtable
define hidden void @_ZN5osgeo4proj14FileApiAdapterD0Ev(ptr noundef nonnull align 8 dereferenceable(96) initializes((0, 8)) %0) unnamed_addr #1 align 2 personality ptr @__gxx_personality_v0 {
  store ptr getelementptr inbounds nuw inrange(-16, 64) (i8, ptr @_ZTVN5osgeo4proj14FileApiAdapterE, i64 16), ptr %0, align 8, !tbaa !4
  %2 = getelementptr inbounds nuw i8, ptr %0, i64 80
  %3 = load ptr, ptr %2, align 8, !tbaa !52
  %4 = getelementptr inbounds nuw i8, ptr %3, i64 264
  %5 = load ptr, ptr %4, align 8, !tbaa !55
  %6 = getelementptr inbounds nuw i8, ptr %0, i64 88
  %7 = load ptr, ptr %6, align 8, !tbaa !80
  %8 = getelementptr inbounds nuw i8, ptr %3, i64 304
  %9 = load ptr, ptr %8, align 8, !tbaa !81
  invoke void %5(ptr noundef nonnull %3, ptr noundef %7, ptr noundef %9)
          to label %10 unwind label %34

10:                                               ; preds = %1
  store ptr getelementptr inbounds nuw inrange(-16, 64) (i8, ptr @_ZTVN5osgeo4proj4FileE, i64 16), ptr %0, align 8, !tbaa !4
  %11 = getelementptr inbounds nuw i8, ptr %0, i64 40
  %12 = load ptr, ptr %11, align 8, !tbaa !12
  %13 = getelementptr inbounds nuw i8, ptr %0, i64 56
  %14 = icmp eq ptr %12, %13
  br i1 %14, label %15, label %19

15:                                               ; preds = %10
  %16 = getelementptr inbounds nuw i8, ptr %0, i64 48
  %17 = load i64, ptr %16, align 8, !tbaa !15
  %18 = icmp ult i64 %17, 16
  tail call void @llvm.assume(i1 %18)
  br label %22

19:                                               ; preds = %10
  %20 = load i64, ptr %13, align 8, !tbaa !17
  %21 = add i64 %20, 1
  tail call void @_ZdlPvm(ptr noundef %12, i64 noundef %21) #30
  br label %22

22:                                               ; preds = %19, %15
  %23 = getelementptr inbounds nuw i8, ptr %0, i64 8
  %24 = load ptr, ptr %23, align 8, !tbaa !12
  %25 = getelementptr inbounds nuw i8, ptr %0, i64 24
  %26 = icmp eq ptr %24, %25
  br i1 %26, label %27, label %31

27:                                               ; preds = %22
  %28 = getelementptr inbounds nuw i8, ptr %0, i64 16
  %29 = load i64, ptr %28, align 8, !tbaa !15
  %30 = icmp ult i64 %29, 16
  tail call void @llvm.assume(i1 %30)
  br label %37

31:                                               ; preds = %22
  %32 = load i64, ptr %25, align 8, !tbaa !17
  %33 = add i64 %32, 1
  tail call void @_ZdlPvm(ptr noundef %24, i64 noundef %33) #30
  br label %37

34:                                               ; preds = %1
  %35 = landingpad { ptr, i32 }
          catch ptr null
  %36 = extractvalue { ptr, i32 } %35, 0
  tail call void @__clang_call_terminate(ptr %36) #31
  unreachable

37:                                               ; preds = %31, %27
  tail call void @_ZdlPvm(ptr noundef nonnull %0, i64 noundef 96) #30
  ret void
}

; Function Attrs: mustprogress sspstrong uwtable
define hidden noundef i64 @_ZN5osgeo4proj14FileApiAdapter4readEPvm(ptr noundef nonnull readonly align 8 captures(none) dereferenceable(96) %0, ptr noundef %1, i64 noundef %2) unnamed_addr #0 align 2 {
  %4 = getelementptr inbounds nuw i8, ptr %0, i64 80
  %5 = load ptr, ptr %4, align 8, !tbaa !52
  %6 = getelementptr inbounds nuw i8, ptr %5, i64 232
  %7 = load ptr, ptr %6, align 8, !tbaa !82
  %8 = getelementptr inbounds nuw i8, ptr %0, i64 88
  %9 = load ptr, ptr %8, align 8, !tbaa !80
  %10 = getelementptr inbounds nuw i8, ptr %5, i64 304
  %11 = load ptr, ptr %10, align 8, !tbaa !81
  %12 = tail call noundef i64 %7(ptr noundef %5, ptr noundef %9, ptr noundef %1, i64 noundef %2, ptr noundef %11)
  ret i64 %12
}

; Function Attrs: mustprogress sspstrong uwtable
define hidden noundef i64 @_ZN5osgeo4proj14FileApiAdapter5writeEPKvm(ptr noundef nonnull readonly align 8 captures(none) dereferenceable(96) %0, ptr noundef %1, i64 noundef %2) unnamed_addr #0 align 2 {
  %4 = getelementptr inbounds nuw i8, ptr %0, i64 80
  %5 = load ptr, ptr %4, align 8, !tbaa !52
  %6 = getelementptr inbounds nuw i8, ptr %5, i64 240
  %7 = load ptr, ptr %6, align 8, !tbaa !83
  %8 = getelementptr inbounds nuw i8, ptr %0, i64 88
  %9 = load ptr, ptr %8, align 8, !tbaa !80
  %10 = getelementptr inbounds nuw i8, ptr %5, i64 304
  %11 = load ptr, ptr %10, align 8, !tbaa !81
  %12 = tail call noundef i64 %7(ptr noundef %5, ptr noundef %9, ptr noundef %1, i64 noundef %2, ptr noundef %11)
  ret i64 %12
}

; Function Attrs: mustprogress sspstrong uwtable
define hidden noundef zeroext i1 @_ZN5osgeo4proj14FileApiAdapter4seekEyi(ptr noundef nonnull readonly align 8 captures(none) dereferenceable(96) %0, i64 noundef %1, i32 noundef %2) unnamed_addr #0 align 2 {
  %4 = getelementptr inbounds nuw i8, ptr %0, i64 80
  %5 = load ptr, ptr %4, align 8, !tbaa !52
  %6 = getelementptr inbounds nuw i8, ptr %5, i64 248
  %7 = load ptr, ptr %6, align 8, !tbaa !84
  %8 = getelementptr inbounds nuw i8, ptr %0, i64 88
  %9 = load ptr, ptr %8, align 8, !tbaa !80
  %10 = getelementptr inbounds nuw i8, ptr %5, i64 304
  %11 = load ptr, ptr %10, align 8, !tbaa !81
  %12 = tail call noundef i32 %7(ptr noundef %5, ptr noundef %9, i64 noundef %1, i32 noundef %2, ptr noundef %11)
  %13 = icmp ne i32 %12, 0
  ret i1 %13
}

; Function Attrs: mustprogress sspstrong uwtable
define hidden noundef i64 @_ZN5osgeo4proj14FileApiAdapter4tellEv(ptr noundef nonnull readonly align 8 captures(none) dereferenceable(96) %0) unnamed_addr #0 align 2 {
  %2 = getelementptr inbounds nuw i8, ptr %0, i64 80
  %3 = load ptr, ptr %2, align 8, !tbaa !52
  %4 = getelementptr inbounds nuw i8, ptr %3, i64 256
  %5 = load ptr, ptr %4, align 8, !tbaa !85
  %6 = getelementptr inbounds nuw i8, ptr %0, i64 88
  %7 = load ptr, ptr %6, align 8, !tbaa !80
  %8 = getelementptr inbounds nuw i8, ptr %3, i64 304
  %9 = load ptr, ptr %8, align 8, !tbaa !81
  %10 = tail call noundef i64 %5(ptr noundef %3, ptr noundef %7, ptr noundef %9)
  ret i64 %10
}

; Function Attrs: mustprogress sspstrong uwtable
define hidden void @_ZN5osgeo4proj14FileApiAdapter4openEP6pj_ctxPKcNS0_10FileAccessE(ptr dead_on_unwind noalias writable writeonly sret(%"class.std::unique_ptr") align 8 captures(none) %0, ptr noundef %1, ptr noundef %2, i32 noundef %3) local_unnamed_addr #0 align 2 personality ptr @__gxx_personality_v0 {
  %5 = alloca i64, align 8
  %6 = alloca i64, align 8
  %7 = alloca %"class.std::__cxx11::basic_string", align 8
  %8 = icmp eq i32 %3, 1
  %9 = zext i1 %8 to i32
  %10 = icmp eq i32 %3, 2
  %11 = select i1 %10, i32 2, i32 %9
  %12 = getelementptr inbounds nuw i8, ptr %1, i64 224
  %13 = load ptr, ptr %12, align 8, !tbaa !86
  %14 = getelementptr inbounds nuw i8, ptr %1, i64 304
  %15 = load ptr, ptr %14, align 8, !tbaa !81
  %16 = tail call noundef ptr %13(ptr noundef %1, ptr noundef %2, i32 noundef %11, ptr noundef %15)
  %17 = icmp eq ptr %16, null
  br i1 %17, label %75, label %18

18:                                               ; preds = %4
  %19 = tail call noalias noundef nonnull dereferenceable(96) ptr @_Znwm(i64 noundef 96) #34
  call void @llvm.lifetime.start.p0(ptr %7)
  %20 = getelementptr inbounds nuw i8, ptr %7, i64 16
  store ptr %20, ptr %7, align 8, !tbaa !7
  %21 = icmp eq ptr %2, null
  br i1 %21, label %22, label %24

22:                                               ; preds = %18
  invoke void @_ZSt19__throw_logic_errorPKc(ptr noundef nonnull @.str.67) #33
          to label %23 unwind label %78

23:                                               ; preds = %22
  unreachable

24:                                               ; preds = %18
  %25 = call noundef i64 @strlen(ptr noundef nonnull dereferenceable(1) %2) #32
  call void @llvm.lifetime.start.p0(ptr %6)
  store i64 %25, ptr %6, align 8, !tbaa !16
  %26 = icmp ugt i64 %25, 15
  br i1 %26, label %27, label %31

27:                                               ; preds = %24
  %28 = invoke noundef ptr @_ZNSt7__cxx1112basic_stringIcSt11char_traitsIcESaIcEE9_M_createERmm(ptr noundef nonnull align 8 dereferenceable(32) %7, ptr noundef nonnull align 8 dereferenceable(8) %6, i64 noundef 0)
          to label %29 unwind label %78

29:                                               ; preds = %27
  store ptr %28, ptr %7, align 8, !tbaa !12
  %30 = load i64, ptr %6, align 8, !tbaa !16
  store i64 %30, ptr %20, align 8, !tbaa !17
  br label %31

31:                                               ; preds = %29, %24
  %32 = phi ptr [ %28, %29 ], [ %20, %24 ]
  switch i64 %25, label %35 [
    i64 1, label %33
    i64 0, label %36
  ]

33:                                               ; preds = %31
  %34 = load i8, ptr %2, align 1, !tbaa !17
  store i8 %34, ptr %32, align 1, !tbaa !17
  br label %36

35:                                               ; preds = %31
  call void @llvm.memcpy.p0.p0.i64(ptr align 1 %32, ptr nonnull align 1 %2, i64 %25, i1 false)
  br label %36

36:                                               ; preds = %35, %33, %31
  %37 = load i64, ptr %6, align 8, !tbaa !16
  %38 = getelementptr inbounds nuw i8, ptr %7, i64 8
  store i64 %37, ptr %38, align 8, !tbaa !15
  %39 = load ptr, ptr %7, align 8, !tbaa !12
  %40 = getelementptr inbounds nuw i8, ptr %39, i64 %37
  store i8 0, ptr %40, align 1, !tbaa !17
  call void @llvm.lifetime.end.p0(ptr %6)
  store ptr getelementptr inbounds nuw inrange(-16, 64) (i8, ptr @_ZTVN5osgeo4proj4FileE, i64 16), ptr %19, align 8, !tbaa !4
  %41 = getelementptr inbounds nuw i8, ptr %19, i64 8
  %42 = getelementptr inbounds nuw i8, ptr %19, i64 24
  store ptr %42, ptr %41, align 8, !tbaa !7
  %43 = load ptr, ptr %7, align 8, !tbaa !12
  %44 = load i64, ptr %38, align 8, !tbaa !15
  %45 = icmp ult i64 %44, 9223372036854775807
  call void @llvm.assume(i1 %45)
  call void @llvm.lifetime.start.p0(ptr %5)
  store i64 %44, ptr %5, align 8, !tbaa !16
  %46 = icmp samesign ugt i64 %44, 15
  br i1 %46, label %47, label %51

47:                                               ; preds = %36
  %48 = invoke noundef ptr @_ZNSt7__cxx1112basic_stringIcSt11char_traitsIcESaIcEE9_M_createERmm(ptr noundef nonnull align 8 dereferenceable(32) %41, ptr noundef nonnull align 8 dereferenceable(8) %5, i64 noundef 0)
          to label %49 unwind label %80

49:                                               ; preds = %47
  store ptr %48, ptr %41, align 8, !tbaa !12
  %50 = load i64, ptr %5, align 8, !tbaa !16
  store i64 %50, ptr %42, align 8, !tbaa !17
  br label %51

51:                                               ; preds = %49, %36
  %52 = phi i64 [ %50, %49 ], [ %44, %36 ]
  %53 = phi ptr [ %48, %49 ], [ %42, %36 ]
  switch i64 %52, label %56 [
    i64 0, label %54
    i64 -1, label %58
  ]

54:                                               ; preds = %51
  %55 = load i8, ptr %43, align 1, !tbaa !17
  store i8 %55, ptr %53, align 1, !tbaa !17
  br label %58

56:                                               ; preds = %51
  %57 = add nuw i64 %52, 1
  call void @llvm.memcpy.p0.p0.i64(ptr noundef nonnull align 1 dereferenceable(1) %53, ptr noundef nonnull align 1 dereferenceable(1) %43, i64 %57, i1 false)
  br label %58

58:                                               ; preds = %56, %54, %51
  %59 = load i64, ptr %5, align 8, !tbaa !16
  %60 = getelementptr inbounds nuw i8, ptr %19, i64 16
  store i64 %59, ptr %60, align 8, !tbaa !15
  call void @llvm.lifetime.end.p0(ptr %5)
  %61 = getelementptr inbounds nuw i8, ptr %19, i64 40
  %62 = getelementptr inbounds nuw i8, ptr %19, i64 56
  store ptr %62, ptr %61, align 8, !tbaa !7
  %63 = getelementptr inbounds nuw i8, ptr %19, i64 48
  store i64 0, ptr %63, align 8, !tbaa !15
  store i8 0, ptr %62, align 1, !tbaa !17
  %64 = getelementptr inbounds nuw i8, ptr %19, i64 72
  store i8 0, ptr %64, align 8, !tbaa !18
  store ptr getelementptr inbounds nuw inrange(-16, 64) (i8, ptr @_ZTVN5osgeo4proj14FileApiAdapterE, i64 16), ptr %19, align 8, !tbaa !4
  %65 = getelementptr inbounds nuw i8, ptr %19, i64 80
  store ptr %1, ptr %65, align 8, !tbaa !52
  %66 = getelementptr inbounds nuw i8, ptr %19, i64 88
  store ptr %16, ptr %66, align 8, !tbaa !80
  store ptr %19, ptr %0, align 8, !tbaa !50
  %67 = load ptr, ptr %7, align 8, !tbaa !12
  %68 = icmp eq ptr %67, %20
  br i1 %68, label %69, label %72

69:                                               ; preds = %58
  %70 = load i64, ptr %38, align 8, !tbaa !15
  %71 = icmp ult i64 %70, 16
  call void @llvm.assume(i1 %71)
  br label %76

72:                                               ; preds = %58
  %73 = load i64, ptr %20, align 8, !tbaa !17
  %74 = add i64 %73, 1
  call void @_ZdlPvm(ptr noundef %67, i64 noundef %74) #30
  br label %76

75:                                               ; preds = %4
  store ptr null, ptr %0, align 8, !tbaa !50
  br label %77

76:                                               ; preds = %72, %69
  call void @llvm.lifetime.end.p0(ptr %7)
  br label %77

77:                                               ; preds = %76, %75
  ret void

78:                                               ; preds = %27, %22
  %79 = landingpad { ptr, i32 }
          cleanup
  br label %90

80:                                               ; preds = %47
  %81 = landingpad { ptr, i32 }
          cleanup
  %82 = load ptr, ptr %7, align 8, !tbaa !12
  %83 = icmp eq ptr %82, %20
  br i1 %83, label %84, label %87

84:                                               ; preds = %80
  %85 = load i64, ptr %38, align 8, !tbaa !15
  %86 = icmp ult i64 %85, 16
  call void @llvm.assume(i1 %86)
  br label %90

87:                                               ; preds = %80
  %88 = load i64, ptr %20, align 8, !tbaa !17
  %89 = add i64 %88, 1
  call void @_ZdlPvm(ptr noundef %82, i64 noundef %89) #30
  br label %90

90:                                               ; preds = %87, %84, %78
  %91 = phi { ptr, i32 } [ %79, %78 ], [ %81, %84 ], [ %81, %87 ]
  call void @llvm.lifetime.end.p0(ptr %7)
  call void @_ZdlPvm(ptr noundef nonnull %19, i64 noundef 96) #30
  resume { ptr, i32 } %91
}

; Function Attrs: mustprogress sspstrong uwtable
define void @_ZN5osgeo4proj11FileManager4openEP6pj_ctxPKcNS0_10FileAccessE(ptr dead_on_unwind noalias writable sret(%"class.std::unique_ptr") align 8 %0, ptr noundef %1, ptr noundef %2, i32 noundef %3) local_unnamed_addr #0 align 2 personality ptr @__gxx_personality_v0 {
  %5 = alloca i64, align 8
  %6 = alloca i64, align 8
  %7 = alloca %"class.std::__cxx11::basic_string", align 8
  %8 = alloca %"class.std::__cxx11::basic_string", align 8
  %9 = alloca %"class.std::unique_ptr", align 8
  call void @llvm.lifetime.start.p0(ptr %7)
  %10 = getelementptr inbounds nuw i8, ptr %7, i64 16
  store ptr %10, ptr %7, align 8, !tbaa !7
  %11 = icmp eq ptr %2, null
  br i1 %11, label %12, label %14

12:                                               ; preds = %4
  invoke void @_ZSt19__throw_logic_errorPKc(ptr noundef nonnull @.str.67) #33
          to label %13 unwind label %88

13:                                               ; preds = %12
  unreachable

14:                                               ; preds = %4
  %15 = call noundef i64 @strlen(ptr noundef nonnull dereferenceable(1) %2) #32
  call void @llvm.lifetime.start.p0(ptr %6)
  store i64 %15, ptr %6, align 8, !tbaa !16
  %16 = icmp ugt i64 %15, 15
  br i1 %16, label %17, label %21

17:                                               ; preds = %14
  %18 = invoke noundef ptr @_ZNSt7__cxx1112basic_stringIcSt11char_traitsIcESaIcEE9_M_createERmm(ptr noundef nonnull align 8 dereferenceable(32) %7, ptr noundef nonnull align 8 dereferenceable(8) %6, i64 noundef 0)
          to label %19 unwind label %88

19:                                               ; preds = %17
  store ptr %18, ptr %7, align 8, !tbaa !12
  %20 = load i64, ptr %6, align 8, !tbaa !16
  store i64 %20, ptr %10, align 8, !tbaa !17
  br label %21

21:                                               ; preds = %19, %14
  %22 = phi ptr [ %18, %19 ], [ %10, %14 ]
  switch i64 %15, label %25 [
    i64 1, label %23
    i64 0, label %26
  ]

23:                                               ; preds = %21
  %24 = load i8, ptr %2, align 1, !tbaa !17
  store i8 %24, ptr %22, align 1, !tbaa !17
  br label %26

25:                                               ; preds = %21
  call void @llvm.memcpy.p0.p0.i64(ptr align 1 %22, ptr nonnull align 1 %2, i64 %15, i1 false)
  br label %26

26:                                               ; preds = %25, %23, %21
  %27 = load i64, ptr %6, align 8, !tbaa !16
  %28 = getelementptr inbounds nuw i8, ptr %7, i64 8
  store i64 %27, ptr %28, align 8, !tbaa !15
  %29 = load ptr, ptr %7, align 8, !tbaa !12
  %30 = getelementptr inbounds nuw i8, ptr %29, i64 %27
  store i8 0, ptr %30, align 1, !tbaa !17
  call void @llvm.lifetime.end.p0(ptr %6)
  %31 = load i64, ptr %28, align 8, !tbaa !15
  %32 = icmp ult i64 %31, 9223372036854775807
  call void @llvm.assume(i1 %32)
  %33 = icmp samesign ult i64 %31, 7
  br i1 %33, label %38, label %34

34:                                               ; preds = %26
  %35 = load ptr, ptr %7, align 8, !tbaa !12
  %36 = call i32 @bcmp(ptr noundef nonnull dereferenceable(7) %35, ptr noundef nonnull dereferenceable(7) @.str.5, i64 7)
  %37 = icmp eq i32 %36, 0
  br i1 %37, label %73, label %38

38:                                               ; preds = %34, %26
  call void @llvm.lifetime.start.p0(ptr %8)
  %39 = getelementptr inbounds nuw i8, ptr %8, i64 16
  store ptr %39, ptr %8, align 8, !tbaa !7
  %40 = call noundef i64 @strlen(ptr noundef nonnull dereferenceable(1) %2) #32
  call void @llvm.lifetime.start.p0(ptr %5)
  store i64 %40, ptr %5, align 8, !tbaa !16
  %41 = icmp ugt i64 %40, 15
  br i1 %41, label %42, label %46

42:                                               ; preds = %38
  %43 = invoke noundef ptr @_ZNSt7__cxx1112basic_stringIcSt11char_traitsIcESaIcEE9_M_createERmm(ptr noundef nonnull align 8 dereferenceable(32) %8, ptr noundef nonnull align 8 dereferenceable(8) %5, i64 noundef 0)
          to label %44 unwind label %90

44:                                               ; preds = %42
  store ptr %43, ptr %8, align 8, !tbaa !12
  %45 = load i64, ptr %5, align 8, !tbaa !16
  store i64 %45, ptr %39, align 8, !tbaa !17
  br label %46

46:                                               ; preds = %44, %38
  %47 = phi ptr [ %43, %44 ], [ %39, %38 ]
  switch i64 %40, label %50 [
    i64 1, label %48
    i64 0, label %51
  ]

48:                                               ; preds = %46
  %49 = load i8, ptr %2, align 1, !tbaa !17
  store i8 %49, ptr %47, align 1, !tbaa !17
  br label %51

50:                                               ; preds = %46
  call void @llvm.memcpy.p0.p0.i64(ptr align 1 %47, ptr nonnull align 1 %2, i64 %40, i1 false)
  br label %51

51:                                               ; preds = %50, %48, %46
  %52 = load i64, ptr %5, align 8, !tbaa !16
  %53 = getelementptr inbounds nuw i8, ptr %8, i64 8
  store i64 %52, ptr %53, align 8, !tbaa !15
  %54 = load ptr, ptr %8, align 8, !tbaa !12
  %55 = getelementptr inbounds nuw i8, ptr %54, i64 %52
  store i8 0, ptr %55, align 1, !tbaa !17
  call void @llvm.lifetime.end.p0(ptr %5)
  %56 = load i64, ptr %53, align 8, !tbaa !15
  %57 = icmp ult i64 %56, 9223372036854775807
  call void @llvm.assume(i1 %57)
  %58 = icmp samesign ult i64 %56, 8
  %59 = load ptr, ptr %8, align 8, !tbaa !12
  br i1 %58, label %63, label %60

60:                                               ; preds = %51
  %61 = call i32 @bcmp(ptr noundef nonnull dereferenceable(8) %59, ptr noundef nonnull dereferenceable(8) @.str.6, i64 8)
  %62 = icmp eq i32 %61, 0
  br label %63

63:                                               ; preds = %60, %51
  %64 = phi i1 [ false, %51 ], [ %62, %60 ]
  %65 = icmp eq ptr %59, %39
  br i1 %65, label %66, label %68

66:                                               ; preds = %63
  %67 = icmp samesign ult i64 %56, 16
  call void @llvm.assume(i1 %67)
  br label %71

68:                                               ; preds = %63
  %69 = load i64, ptr %39, align 8, !tbaa !17
  %70 = add i64 %69, 1
  call void @_ZdlPvm(ptr noundef %59, i64 noundef %70) #30
  br label %71

71:                                               ; preds = %68, %66
  call void @llvm.lifetime.end.p0(ptr %8)
  %72 = load ptr, ptr %7, align 8, !tbaa !12
  br label %73

73:                                               ; preds = %71, %34
  %74 = phi ptr [ %72, %71 ], [ %35, %34 ]
  %75 = phi i1 [ %64, %71 ], [ true, %34 ]
  %76 = icmp eq ptr %74, %10
  br i1 %76, label %77, label %80

77:                                               ; preds = %73
  %78 = load i64, ptr %28, align 8, !tbaa !15
  %79 = icmp ult i64 %78, 16
  call void @llvm.assume(i1 %79)
  br label %83

80:                                               ; preds = %73
  %81 = load i64, ptr %10, align 8, !tbaa !17
  %82 = add i64 %81, 1
  call void @_ZdlPvm(ptr noundef %74, i64 noundef %82) #30
  br label %83

83:                                               ; preds = %80, %77
  call void @llvm.lifetime.end.p0(ptr %7)
  br i1 %75, label %84, label %103

84:                                               ; preds = %83
  %85 = call i32 @proj_context_is_network_enabled(ptr noundef %1)
  %86 = icmp eq i32 %85, 0
  br i1 %86, label %87, label %102

87:                                               ; preds = %84
  call void (ptr, i32, ptr, ...) @_Z6pj_logP6pj_ctxiPKcz(ptr noundef %1, i32 noundef 1, ptr noundef nonnull @.str.7)
  store ptr null, ptr %0, align 8, !tbaa !87
  br label %113

88:                                               ; preds = %17, %12
  %89 = landingpad { ptr, i32 }
          cleanup
  br label %100

90:                                               ; preds = %42
  %91 = landingpad { ptr, i32 }
          cleanup
  call void @llvm.lifetime.end.p0(ptr %8)
  %92 = load ptr, ptr %7, align 8, !tbaa !12
  %93 = icmp eq ptr %92, %10
  br i1 %93, label %94, label %97

94:                                               ; preds = %90
  %95 = load i64, ptr %28, align 8, !tbaa !15
  %96 = icmp ult i64 %95, 16
  call void @llvm.assume(i1 %96)
  br label %100

97:                                               ; preds = %90
  %98 = load i64, ptr %10, align 8, !tbaa !17
  %99 = add i64 %98, 1
  call void @_ZdlPvm(ptr noundef %92, i64 noundef %99) #30
  br label %100

100:                                              ; preds = %97, %94, %88
  %101 = phi { ptr, i32 } [ %89, %88 ], [ %91, %94 ], [ %91, %97 ]
  call void @llvm.lifetime.end.p0(ptr %7)
  br label %114

102:                                              ; preds = %84
  call void @_ZN5osgeo4proj20pj_network_file_openEP6pj_ctxPKc(ptr dead_on_unwind writable sret(%"class.std::unique_ptr") align 8 %0, ptr noundef %1, ptr noundef nonnull %2)
  br label %113

103:                                              ; preds = %83
  %104 = getelementptr inbounds nuw i8, ptr %1, i64 224
  %105 = load ptr, ptr %104, align 8, !tbaa !86
  %106 = icmp eq ptr %105, null
  br i1 %106, label %108, label %107

107:                                              ; preds = %103
  call void @_ZN5osgeo4proj14FileApiAdapter4openEP6pj_ctxPKcNS0_10FileAccessE(ptr dead_on_unwind writable sret(%"class.std::unique_ptr") align 8 %0, ptr noundef nonnull %1, ptr noundef nonnull %2, i32 noundef %3)
  br label %113

108:                                              ; preds = %103
  call void @llvm.lifetime.start.p0(ptr %9)
  invoke void @_ZN5osgeo4proj9FileStdio4openEP6pj_ctxPKcNS0_10FileAccessE(ptr dead_on_unwind nonnull writable sret(%"class.std::unique_ptr") align 8 %9, ptr noundef nonnull %1, ptr noundef nonnull %2, i32 noundef %3)
          to label %109 unwind label %111

109:                                              ; preds = %108
  %110 = load ptr, ptr %9, align 8, !tbaa !50
  store ptr %110, ptr %0, align 8, !tbaa !50
  call void @llvm.lifetime.end.p0(ptr %9)
  br label %113

111:                                              ; preds = %108
  %112 = landingpad { ptr, i32 }
          cleanup
  call void @llvm.lifetime.end.p0(ptr %9)
  store ptr null, ptr %0, align 8, !tbaa !50
  br label %114

113:                                              ; preds = %109, %107, %102, %87
  ret void

114:                                              ; preds = %111, %100
  %115 = phi { ptr, i32 } [ %112, %111 ], [ %101, %100 ]
  resume { ptr, i32 } %115
}

declare i32 @proj_context_is_network_enabled(ptr noundef) local_unnamed_addr #9

declare void @_ZN5osgeo4proj20pj_network_file_openEP6pj_ctxPKc(ptr dead_on_unwind writable sret(%"class.std::unique_ptr") align 8, ptr noundef, ptr noundef) local_unnamed_addr #9

; Function Attrs: mustprogress sspstrong uwtable
define noundef zeroext i1 @_ZN5osgeo4proj11FileManager6existsEP6pj_ctxPKc(ptr noundef %0, ptr noundef %1) local_unnamed_addr #0 align 2 {
  %3 = alloca %struct.stat, align 8
  %4 = getelementptr inbounds nuw i8, ptr %0, i64 272
  %5 = load ptr, ptr %4, align 8, !tbaa !89
  %6 = icmp eq ptr %5, null
  br i1 %6, label %12, label %7

7:                                                ; preds = %2
  %8 = getelementptr inbounds nuw i8, ptr %0, i64 304
  %9 = load ptr, ptr %8, align 8, !tbaa !81
  %10 = tail call noundef i32 %5(ptr noundef nonnull %0, ptr noundef %1, ptr noundef %9)
  %11 = icmp ne i32 %10, 0
  br label %15

12:                                               ; preds = %2
  call void @llvm.lifetime.start.p0(ptr %3)
  %13 = call i32 @stat(ptr noundef %1, ptr noundef nonnull %3) #32
  %14 = icmp eq i32 %13, 0
  call void @llvm.lifetime.end.p0(ptr %3)
  br label %15

15:                                               ; preds = %12, %7
  %16 = phi i1 [ %11, %7 ], [ %14, %12 ]
  ret i1 %16
}

; Function Attrs: nofree nounwind
declare noundef i32 @stat(ptr noundef readonly captures(none), ptr noundef captures(none)) local_unnamed_addr #4

; Function Attrs: mustprogress sspstrong uwtable
define hidden noundef zeroext i1 @_ZN5osgeo4proj11FileManager5mkdirEP6pj_ctxPKc(ptr noundef %0, ptr noundef %1) local_unnamed_addr #0 align 2 {
  %3 = getelementptr inbounds nuw i8, ptr %0, i64 280
  %4 = load ptr, ptr %3, align 8, !tbaa !90
  %5 = icmp eq ptr %4, null
  br i1 %5, label %11, label %6

6:                                                ; preds = %2
  %7 = getelementptr inbounds nuw i8, ptr %0, i64 304
  %8 = load ptr, ptr %7, align 8, !tbaa !81
  %9 = tail call noundef i32 %4(ptr noundef nonnull %0, ptr noundef %1, ptr noundef %8)
  %10 = icmp ne i32 %9, 0
  br label %14

11:                                               ; preds = %2
  %12 = tail call i32 @mkdir(ptr noundef %1, i32 noundef 493) #32
  %13 = icmp eq i32 %12, 0
  br label %14

14:                                               ; preds = %11, %6
  %15 = phi i1 [ %10, %6 ], [ %13, %11 ]
  ret i1 %15
}

; Function Attrs: nofree nounwind
declare noundef i32 @mkdir(ptr noundef readonly captures(none), i32 noundef) local_unnamed_addr #4

; Function Attrs: mustprogress sspstrong uwtable
define hidden noundef zeroext i1 @_ZN5osgeo4proj11FileManager6unlinkEP6pj_ctxPKc(ptr noundef %0, ptr noundef %1) local_unnamed_addr #0 align 2 {
  %3 = getelementptr inbounds nuw i8, ptr %0, i64 288
  %4 = load ptr, ptr %3, align 8, !tbaa !91
  %5 = icmp eq ptr %4, null
  br i1 %5, label %11, label %6

6:                                                ; preds = %2
  %7 = getelementptr inbounds nuw i8, ptr %0, i64 304
  %8 = load ptr, ptr %7, align 8, !tbaa !81
  %9 = tail call noundef i32 %4(ptr noundef nonnull %0, ptr noundef %1, ptr noundef %8)
  %10 = icmp ne i32 %9, 0
  br label %14

11:                                               ; preds = %2
  %12 = tail call i32 @unlink(ptr noundef %1) #32
  %13 = icmp eq i32 %12, 0
  br label %14

14:                                               ; preds = %11, %6
  %15 = phi i1 [ %10, %6 ], [ %13, %11 ]
  ret i1 %15
}

; Function Attrs: nofree nounwind
declare noundef i32 @unlink(ptr noundef readonly captures(none)) local_unnamed_addr #4

; Function Attrs: mustprogress sspstrong uwtable
define hidden noundef zeroext i1 @_ZN5osgeo4proj11FileManager6renameEP6pj_ctxPKcS5_(ptr noundef %0, ptr noundef %1, ptr noundef %2) local_unnamed_addr #0 align 2 {
  %4 = getelementptr inbounds nuw i8, ptr %0, i64 296
  %5 = load ptr, ptr %4, align 8, !tbaa !92
  %6 = icmp eq ptr %5, null
  br i1 %6, label %12, label %7

7:                                                ; preds = %3
  %8 = getelementptr inbounds nuw i8, ptr %0, i64 304
  %9 = load ptr, ptr %8, align 8, !tbaa !81
  %10 = tail call noundef i32 %5(ptr noundef nonnull %0, ptr noundef %1, ptr noundef %2, ptr noundef %9)
  %11 = icmp ne i32 %10, 0
  br label %15

12:                                               ; preds = %3
  %13 = tail call i32 @rename(ptr noundef %1, ptr noundef %2) #32
  %14 = icmp eq i32 %13, 0
  br label %15

15:                                               ; preds = %12, %7
  %16 = phi i1 [ %11, %7 ], [ %14, %12 ]
  ret i1 %16
}

; Function Attrs: nofree nounwind
declare noundef i32 @rename(ptr noundef readonly captures(none), ptr noundef readonly captures(none)) local_unnamed_addr #4

; Function Attrs: mustprogress sspstrong uwtable
define hidden void @_ZN5osgeo4proj11FileManager17getProjDataEnvVarB5cxx11EP6pj_ctx(ptr dead_on_unwind noalias writable sret(%"class.std::__cxx11::basic_string") align 8 %0, ptr noundef %1) local_unnamed_addr #0 align 2 personality ptr @__gxx_personality_v0 {
  %3 = alloca i64, align 8
  %4 = getelementptr inbounds nuw i8, ptr %1, i64 88
  %5 = getelementptr inbounds nuw i8, ptr %1, i64 96
  %6 = load i64, ptr %5, align 8, !tbaa !15
  %7 = icmp eq i64 %6, 0
  %8 = getelementptr inbounds nuw i8, ptr %0, i64 16
  store ptr %8, ptr %0, align 8, !tbaa !7
  br i1 %7, label %26, label %9

9:                                                ; preds = %2
  %10 = load ptr, ptr %4, align 8, !tbaa !12
  %11 = icmp ult i64 %6, 9223372036854775807
  tail call void @llvm.assume(i1 %11)
  call void @llvm.lifetime.start.p0(ptr %3)
  store i64 %6, ptr %3, align 8, !tbaa !16
  %12 = icmp samesign ugt i64 %6, 15
  br i1 %12, label %13, label %16

13:                                               ; preds = %9
  %14 = call noundef ptr @_ZNSt7__cxx1112basic_stringIcSt11char_traitsIcESaIcEE9_M_createERmm(ptr noundef nonnull align 8 dereferenceable(32) %0, ptr noundef nonnull align 8 dereferenceable(8) %3, i64 noundef 0)
  store ptr %14, ptr %0, align 8, !tbaa !12
  %15 = load i64, ptr %3, align 8, !tbaa !16
  store i64 %15, ptr %8, align 8, !tbaa !17
  br label %16

16:                                               ; preds = %13, %9
  %17 = phi i64 [ %15, %13 ], [ %6, %9 ]
  %18 = phi ptr [ %14, %13 ], [ %8, %9 ]
  switch i64 %17, label %21 [
    i64 0, label %19
    i64 -1, label %23
  ]

19:                                               ; preds = %16
  %20 = load i8, ptr %10, align 1, !tbaa !17
  store i8 %20, ptr %18, align 1, !tbaa !17
  br label %23

21:                                               ; preds = %16
  %22 = add nuw i64 %17, 1
  call void @llvm.memcpy.p0.p0.i64(ptr noundef nonnull align 1 dereferenceable(1) %18, ptr noundef nonnull align 1 dereferenceable(1) %10, i64 %22, i1 false)
  br label %23

23:                                               ; preds = %21, %19, %16
  %24 = load i64, ptr %3, align 8, !tbaa !16
  %25 = getelementptr inbounds nuw i8, ptr %0, i64 8
  store i64 %24, ptr %25, align 8, !tbaa !15
  call void @llvm.lifetime.end.p0(ptr %3)
  br label %54

26:                                               ; preds = %2
  %27 = getelementptr inbounds nuw i8, ptr %0, i64 8
  store i64 0, ptr %27, align 8, !tbaa !15
  store i8 0, ptr %8, align 8, !tbaa !17
  %28 = tail call ptr @getenv(ptr noundef nonnull @.str.8) #32
  %29 = icmp eq ptr %28, null
  br i1 %29, label %30, label %47

30:                                               ; preds = %26
  %31 = tail call ptr @getenv(ptr noundef nonnull @.str.9) #32
  %32 = icmp eq ptr %31, null
  br i1 %32, label %54, label %33

33:                                               ; preds = %30
  invoke void (ptr, i32, ptr, ...) @_Z6pj_logP6pj_ctxiPKcz(ptr noundef nonnull %1, i32 noundef 2, ptr noundef nonnull @.str.10)
          to label %34 unwind label %36

34:                                               ; preds = %33
  %35 = load i64, ptr %27, align 8, !tbaa !15
  br label %47

36:                                               ; preds = %53, %47, %33
  %37 = landingpad { ptr, i32 }
          cleanup
  %38 = load ptr, ptr %0, align 8, !tbaa !12
  %39 = icmp eq ptr %38, %8
  br i1 %39, label %40, label %43

40:                                               ; preds = %36
  %41 = load i64, ptr %27, align 8, !tbaa !15
  %42 = icmp ult i64 %41, 16
  tail call void @llvm.assume(i1 %42)
  br label %46

43:                                               ; preds = %36
  %44 = load i64, ptr %8, align 8, !tbaa !17
  %45 = add i64 %44, 1
  tail call void @_ZdlPvm(ptr noundef %38, i64 noundef %45) #30
  br label %46

46:                                               ; preds = %43, %40
  resume { ptr, i32 } %37

47:                                               ; preds = %34, %26
  %48 = phi i64 [ %35, %34 ], [ 0, %26 ]
  %49 = phi ptr [ %31, %34 ], [ %28, %26 ]
  %50 = icmp ult i64 %48, 9223372036854775807
  tail call void @llvm.assume(i1 %50)
  %51 = tail call noundef i64 @strlen(ptr noundef nonnull dereferenceable(1) %49) #32
  %52 = invoke noundef nonnull align 8 dereferenceable(32) ptr @_ZNSt7__cxx1112basic_stringIcSt11char_traitsIcESaIcEE10_M_replaceEmmPKcm(ptr noundef nonnull align 8 dereferenceable(32) %0, i64 noundef 0, i64 noundef %48, ptr noundef nonnull %49, i64 noundef %51)
          to label %53 unwind label %36

53:                                               ; preds = %47
  invoke void @_ZNSt7__cxx1112basic_stringIcSt11char_traitsIcESaIcEE9_M_assignERKS4_(ptr noundef nonnull align 8 dereferenceable(32) %4, ptr noundef nonnull align 8 dereferenceable(32) %0)
          to label %54 unwind label %36

54:                                               ; preds = %53, %30, %23
  ret void
}

; Function Attrs: nofree nounwind memory(read)
declare noundef ptr @getenv(ptr noundef captures(none)) local_unnamed_addr #11

; Function Attrs: mustprogress sspstrong uwtable
declare noundef nonnull align 8 dereferenceable(32) ptr @_ZNSt7__cxx1112basic_stringIcSt11char_traitsIcESaIcEEaSEPKc(ptr noundef nonnull align 8 dereferenceable(32), ptr noundef) local_unnamed_addr #0 align 2

; Function Attrs: mustprogress sspstrong uwtable
define range(i32 0, 2) i32 @proj_context_set_fileapi(ptr noundef writeonly captures(address_is_null) %0, ptr noundef readonly captures(address_is_null) %1, ptr noundef %2) local_unnamed_addr #0 {
  %4 = icmp eq ptr %0, null
  br i1 %4, label %5, label %7

5:                                                ; preds = %3
  %6 = tail call noundef ptr @_Z18pj_get_default_ctxv()
  br label %7

7:                                                ; preds = %5, %3
  %8 = phi ptr [ %6, %5 ], [ %0, %3 ]
  %9 = icmp eq ptr %1, null
  br i1 %9, label %65, label %10

10:                                               ; preds = %7
  %11 = load i32, ptr %1, align 8, !tbaa !93
  %12 = icmp eq i32 %11, 1
  br i1 %12, label %13, label %65

13:                                               ; preds = %10
  %14 = getelementptr inbounds nuw i8, ptr %1, i64 8
  %15 = load ptr, ptr %14, align 8, !tbaa !95
  %16 = icmp eq ptr %15, null
  br i1 %16, label %65, label %17

17:                                               ; preds = %13
  %18 = getelementptr inbounds nuw i8, ptr %1, i64 48
  %19 = load ptr, ptr %18, align 8, !tbaa !96
  %20 = icmp eq ptr %19, null
  br i1 %20, label %65, label %21

21:                                               ; preds = %17
  %22 = getelementptr inbounds nuw i8, ptr %1, i64 16
  %23 = load ptr, ptr %22, align 8, !tbaa !97
  %24 = icmp eq ptr %23, null
  br i1 %24, label %65, label %25

25:                                               ; preds = %21
  %26 = getelementptr inbounds nuw i8, ptr %1, i64 24
  %27 = load ptr, ptr %26, align 8, !tbaa !98
  %28 = icmp eq ptr %27, null
  br i1 %28, label %65, label %29

29:                                               ; preds = %25
  %30 = getelementptr inbounds nuw i8, ptr %1, i64 32
  %31 = load ptr, ptr %30, align 8, !tbaa !99
  %32 = icmp eq ptr %31, null
  br i1 %32, label %65, label %33

33:                                               ; preds = %29
  %34 = getelementptr inbounds nuw i8, ptr %1, i64 40
  %35 = load ptr, ptr %34, align 8, !tbaa !100
  %36 = icmp eq ptr %35, null
  br i1 %36, label %65, label %37

37:                                               ; preds = %33
  %38 = getelementptr inbounds nuw i8, ptr %1, i64 56
  %39 = load ptr, ptr %38, align 8, !tbaa !101
  %40 = icmp eq ptr %39, null
  br i1 %40, label %65, label %41

41:                                               ; preds = %37
  %42 = getelementptr inbounds nuw i8, ptr %1, i64 64
  %43 = load ptr, ptr %42, align 8, !tbaa !102
  %44 = icmp eq ptr %43, null
  br i1 %44, label %65, label %45

45:                                               ; preds = %41
  %46 = getelementptr inbounds nuw i8, ptr %1, i64 72
  %47 = load ptr, ptr %46, align 8, !tbaa !103
  %48 = icmp eq ptr %47, null
  br i1 %48, label %65, label %49

49:                                               ; preds = %45
  %50 = getelementptr inbounds nuw i8, ptr %1, i64 80
  %51 = load ptr, ptr %50, align 8, !tbaa !104
  %52 = icmp eq ptr %51, null
  br i1 %52, label %65, label %53

53:                                               ; preds = %49
  %54 = getelementptr inbounds nuw i8, ptr %8, i64 224
  store ptr %15, ptr %54, align 8, !tbaa !86
  %55 = getelementptr inbounds nuw i8, ptr %8, i64 264
  store ptr %19, ptr %55, align 8, !tbaa !55
  %56 = getelementptr inbounds nuw i8, ptr %8, i64 232
  store ptr %23, ptr %56, align 8, !tbaa !82
  %57 = getelementptr inbounds nuw i8, ptr %8, i64 240
  store ptr %27, ptr %57, align 8, !tbaa !83
  %58 = getelementptr inbounds nuw i8, ptr %8, i64 248
  store ptr %31, ptr %58, align 8, !tbaa !84
  %59 = getelementptr inbounds nuw i8, ptr %8, i64 256
  store ptr %35, ptr %59, align 8, !tbaa !85
  %60 = getelementptr inbounds nuw i8, ptr %8, i64 272
  store ptr %39, ptr %60, align 8, !tbaa !89
  %61 = getelementptr inbounds nuw i8, ptr %8, i64 280
  store ptr %43, ptr %61, align 8, !tbaa !90
  %62 = getelementptr inbounds nuw i8, ptr %8, i64 288
  store ptr %47, ptr %62, align 8, !tbaa !91
  %63 = getelementptr inbounds nuw i8, ptr %8, i64 296
  store ptr %51, ptr %63, align 8, !tbaa !92
  %64 = getelementptr inbounds nuw i8, ptr %8, i64 304
  store ptr %2, ptr %64, align 8, !tbaa !81
  br label %65

65:                                               ; preds = %53, %49, %45, %41, %37, %33, %29, %25, %21, %17, %13, %10, %7
  %66 = phi i32 [ 1, %53 ], [ 0, %7 ], [ 0, %10 ], [ 0, %49 ], [ 0, %45 ], [ 0, %41 ], [ 0, %37 ], [ 0, %33 ], [ 0, %29 ], [ 0, %25 ], [ 0, %21 ], [ 0, %17 ], [ 0, %13 ]
  ret i32 %66
}

declare noundef ptr @_Z18pj_get_default_ctxv() local_unnamed_addr #9

; Function Attrs: mustprogress sspstrong uwtable
define void @proj_context_set_sqlite3_vfs_name(ptr noundef captures(address) %0, ptr noundef readonly captures(address_is_null) %1) local_unnamed_addr #0 personality ptr @__gxx_personality_v0 {
  %3 = alloca i64, align 8
  %4 = alloca %"class.std::__cxx11::basic_string", align 8
  %5 = icmp eq ptr %0, null
  br i1 %5, label %6, label %8

6:                                                ; preds = %2
  %7 = tail call noundef ptr @_Z18pj_get_default_ctxv()
  br label %8

8:                                                ; preds = %6, %2
  %9 = phi ptr [ %7, %6 ], [ %0, %2 ]
  call void @llvm.lifetime.start.p0(ptr %4)
  %10 = icmp eq ptr %1, null
  %11 = getelementptr inbounds nuw i8, ptr %4, i64 16
  store ptr %11, ptr %4, align 8, !tbaa !7
  br i1 %10, label %28, label %12

12:                                               ; preds = %8
  %13 = call noundef i64 @strlen(ptr noundef nonnull dereferenceable(1) %1) #32
  call void @llvm.lifetime.start.p0(ptr %3)
  store i64 %13, ptr %3, align 8, !tbaa !16
  %14 = icmp ugt i64 %13, 15
  br i1 %14, label %15, label %18

15:                                               ; preds = %12
  %16 = call noundef ptr @_ZNSt7__cxx1112basic_stringIcSt11char_traitsIcESaIcEE9_M_createERmm(ptr noundef nonnull align 8 dereferenceable(32) %4, ptr noundef nonnull align 8 dereferenceable(8) %3, i64 noundef 0)
  store ptr %16, ptr %4, align 8, !tbaa !12
  %17 = load i64, ptr %3, align 8, !tbaa !16
  store i64 %17, ptr %11, align 8, !tbaa !17
  br label %18

18:                                               ; preds = %15, %12
  %19 = phi ptr [ %16, %15 ], [ %11, %12 ]
  switch i64 %13, label %22 [
    i64 1, label %20
    i64 0, label %23
  ]

20:                                               ; preds = %18
  %21 = load i8, ptr %1, align 1, !tbaa !17
  store i8 %21, ptr %19, align 1, !tbaa !17
  br label %23

22:                                               ; preds = %18
  call void @llvm.memcpy.p0.p0.i64(ptr align 1 %19, ptr nonnull align 1 %1, i64 %13, i1 false)
  br label %23

23:                                               ; preds = %22, %20, %18
  %24 = load i64, ptr %3, align 8, !tbaa !16
  %25 = getelementptr inbounds nuw i8, ptr %4, i64 8
  store i64 %24, ptr %25, align 8, !tbaa !15
  %26 = load ptr, ptr %4, align 8, !tbaa !12
  %27 = getelementptr inbounds nuw i8, ptr %26, i64 %24
  store i8 0, ptr %27, align 1, !tbaa !17
  call void @llvm.lifetime.end.p0(ptr %3)
  br label %30

28:                                               ; preds = %8
  %29 = getelementptr inbounds nuw i8, ptr %4, i64 8
  store i64 0, ptr %29, align 8, !tbaa !15
  store i8 0, ptr %11, align 8, !tbaa !17
  br label %30

30:                                               ; preds = %28, %23
  %31 = getelementptr inbounds nuw i8, ptr %9, i64 312
  %32 = load ptr, ptr %31, align 8, !tbaa !12
  %33 = getelementptr inbounds nuw i8, ptr %9, i64 328
  %34 = icmp eq ptr %32, %33
  br i1 %34, label %35, label %42

35:                                               ; preds = %30
  %36 = getelementptr inbounds nuw i8, ptr %9, i64 320
  %37 = load i64, ptr %36, align 8, !tbaa !15
  %38 = icmp ult i64 %37, 16
  call void @llvm.assume(i1 %38)
  %39 = load ptr, ptr %4, align 8, !tbaa !12
  %40 = getelementptr inbounds nuw i8, ptr %4, i64 16
  %41 = icmp eq ptr %39, %40
  br i1 %41, label %46, label %65

42:                                               ; preds = %30
  %43 = load ptr, ptr %4, align 8, !tbaa !12
  %44 = getelementptr inbounds nuw i8, ptr %4, i64 16
  %45 = icmp eq ptr %43, %44
  br i1 %45, label %46, label %63

46:                                               ; preds = %42, %35
  %47 = phi ptr [ %43, %42 ], [ %39, %35 ]
  %48 = getelementptr inbounds nuw i8, ptr %4, i64 8
  %49 = load i64, ptr %48, align 8, !tbaa !15
  %50 = icmp ult i64 %49, 16
  call void @llvm.assume(i1 %50)
  %51 = icmp eq ptr %4, %31
  br i1 %51, label %78, label %52, !prof !27

52:                                               ; preds = %46
  switch i64 %49, label %55 [
    i64 0, label %56
    i64 1, label %53
  ]

53:                                               ; preds = %52
  %54 = load i8, ptr %47, align 1, !tbaa !17
  store i8 %54, ptr %32, align 1, !tbaa !17
  br label %56

55:                                               ; preds = %52
  call void @llvm.memcpy.p0.p0.i64(ptr align 1 %32, ptr align 1 %47, i64 %49, i1 false)
  br label %56

56:                                               ; preds = %55, %53, %52
  %57 = load i64, ptr %48, align 8, !tbaa !15
  %58 = icmp ult i64 %57, 9223372036854775807
  call void @llvm.assume(i1 %58)
  %59 = getelementptr inbounds nuw i8, ptr %9, i64 320
  store i64 %57, ptr %59, align 8, !tbaa !15
  %60 = load ptr, ptr %31, align 8, !tbaa !12
  %61 = getelementptr inbounds nuw i8, ptr %60, i64 %57
  store i8 0, ptr %61, align 1, !tbaa !17
  %62 = load ptr, ptr %4, align 8, !tbaa !12
  br label %78

63:                                               ; preds = %42
  %64 = load i64, ptr %33, align 8, !tbaa !17
  br label %65

65:                                               ; preds = %63, %35
  %66 = phi ptr [ %44, %63 ], [ %40, %35 ]
  %67 = phi ptr [ %43, %63 ], [ %39, %35 ]
  %68 = phi ptr [ %32, %63 ], [ null, %35 ]
  %69 = phi i64 [ %64, %63 ], [ undef, %35 ]
  store ptr %67, ptr %31, align 8, !tbaa !12
  %70 = getelementptr inbounds nuw i8, ptr %4, i64 8
  %71 = load i64, ptr %70, align 8, !tbaa !15
  %72 = icmp ult i64 %71, 9223372036854775807
  call void @llvm.assume(i1 %72)
  %73 = getelementptr inbounds nuw i8, ptr %9, i64 320
  store i64 %71, ptr %73, align 8, !tbaa !15
  %74 = load i64, ptr %66, align 8, !tbaa !17
  store i64 %74, ptr %33, align 8, !tbaa !17
  %75 = icmp eq ptr %68, null
  br i1 %75, label %77, label %76

76:                                               ; preds = %65
  store ptr %68, ptr %4, align 8, !tbaa !12
  store i64 %69, ptr %66, align 8, !tbaa !17
  br label %78

77:                                               ; preds = %65
  store ptr %66, ptr %4, align 8, !tbaa !12
  br label %78

78:                                               ; preds = %77, %76, %56, %46
  %79 = phi ptr [ %68, %76 ], [ %66, %77 ], [ %47, %46 ], [ %62, %56 ]
  %80 = getelementptr inbounds nuw i8, ptr %4, i64 8
  store i64 0, ptr %80, align 8, !tbaa !15
  store i8 0, ptr %79, align 1, !tbaa !17
  %81 = load ptr, ptr %4, align 8, !tbaa !12
  %82 = getelementptr inbounds nuw i8, ptr %4, i64 16
  %83 = icmp eq ptr %81, %82
  br i1 %83, label %84, label %87

84:                                               ; preds = %78
  %85 = load i64, ptr %80, align 8, !tbaa !15
  %86 = icmp ult i64 %85, 16
  call void @llvm.assume(i1 %86)
  br label %90

87:                                               ; preds = %78
  %88 = load i64, ptr %82, align 8, !tbaa !17
  %89 = add i64 %88, 1
  call void @_ZdlPvm(ptr noundef %81, i64 noundef %89) #30
  br label %90

90:                                               ; preds = %87, %84
  call void @llvm.lifetime.end.p0(ptr %4)
  ret void
}

; Function Attrs: mustprogress sspstrong uwtable
define ptr @proj_context_get_user_writable_directory(ptr noundef %0, i32 noundef %1) local_unnamed_addr #0 personality ptr @__gxx_personality_v0 {
  %3 = alloca i64, align 8
  %4 = alloca %"class.std::__cxx11::basic_string", align 8
  %5 = alloca %"class.std::__cxx11::basic_string", align 8
  %6 = alloca %"class.std::__cxx11::basic_string", align 8
  %7 = icmp eq ptr %0, null
  br i1 %7, label %8, label %10

8:                                                ; preds = %2
  %9 = tail call noundef ptr @_Z18pj_get_default_ctxv()
  br label %10

10:                                               ; preds = %8, %2
  %11 = phi ptr [ %0, %2 ], [ %9, %8 ]
  %12 = getelementptr inbounds nuw i8, ptr %11, i64 344
  %13 = getelementptr inbounds nuw i8, ptr %11, i64 352
  %14 = load i64, ptr %13, align 8, !tbaa !15
  %15 = icmp eq i64 %14, 0
  br i1 %15, label %16, label %233

16:                                               ; preds = %10
  %17 = tail call ptr @getenv(ptr noundef nonnull @.str.11) #32
  %18 = icmp eq ptr %17, null
  br i1 %18, label %27, label %19

19:                                               ; preds = %16
  %20 = load i8, ptr %17, align 1, !tbaa !17
  %21 = icmp eq i8 %20, 0
  br i1 %21, label %27, label %22

22:                                               ; preds = %19
  %23 = tail call noundef i64 @strlen(ptr noundef nonnull dereferenceable(1) %17) #32
  %24 = tail call noundef nonnull align 8 dereferenceable(32) ptr @_ZNSt7__cxx1112basic_stringIcSt11char_traitsIcESaIcEE10_M_replaceEmmPKcm(ptr noundef nonnull align 8 dereferenceable(32) %12, i64 noundef 0, i64 noundef 0, ptr noundef nonnull %17, i64 noundef %23)
  %25 = load i64, ptr %13, align 8, !tbaa !15
  %26 = icmp eq i64 %25, 0
  br i1 %26, label %27, label %233

27:                                               ; preds = %22, %19, %16
  call void @llvm.lifetime.start.p0(ptr %4)
  %28 = getelementptr inbounds nuw i8, ptr %4, i64 16
  store ptr %28, ptr %4, align 8, !tbaa !7
  %29 = getelementptr inbounds nuw i8, ptr %4, i64 8
  store i64 0, ptr %29, align 8, !tbaa !15
  store i8 0, ptr %28, align 8, !tbaa !17
  %30 = call ptr @getenv(ptr noundef nonnull @.str.12) #32
  %31 = icmp eq ptr %30, null
  br i1 %31, label %37, label %32

32:                                               ; preds = %27
  %33 = call noundef i64 @strlen(ptr noundef nonnull dereferenceable(1) %30) #32
  %34 = invoke noundef nonnull align 8 dereferenceable(32) ptr @_ZNSt7__cxx1112basic_stringIcSt11char_traitsIcESaIcEE10_M_replaceEmmPKcm(ptr noundef nonnull align 8 dereferenceable(32) %4, i64 noundef 0, i64 noundef 0, ptr noundef nonnull %30, i64 noundef %33)
          to label %164 unwind label %35

35:                                               ; preds = %170, %168, %32
  %36 = landingpad { ptr, i32 }
          cleanup
  br label %222

37:                                               ; preds = %27
  %38 = call ptr @getenv(ptr noundef nonnull @.str.13) #32
  %39 = icmp eq ptr %38, null
  br i1 %39, label %158, label %40

40:                                               ; preds = %37
  %41 = call i32 @access(ptr noundef nonnull %38, i32 noundef 2) #32
  %42 = icmp eq i32 %41, 0
  br i1 %42, label %45, label %43

43:                                               ; preds = %40
  %44 = load i64, ptr %29, align 8, !tbaa !15
  br label %158

45:                                               ; preds = %40
  call void @llvm.lifetime.start.p0(ptr %5)
  call void @llvm.lifetime.start.p0(ptr %6)
  %46 = getelementptr inbounds nuw i8, ptr %6, i64 16
  store ptr %46, ptr %6, align 8, !tbaa !7
  %47 = call noundef i64 @strlen(ptr noundef nonnull dereferenceable(1) %38) #32
  call void @llvm.lifetime.start.p0(ptr %3)
  store i64 %47, ptr %3, align 8, !tbaa !16
  %48 = icmp ugt i64 %47, 15
  br i1 %48, label %49, label %53

49:                                               ; preds = %45
  %50 = invoke noundef ptr @_ZNSt7__cxx1112basic_stringIcSt11char_traitsIcESaIcEE9_M_createERmm(ptr noundef nonnull align 8 dereferenceable(32) %6, ptr noundef nonnull align 8 dereferenceable(8) %3, i64 noundef 0)
          to label %51 unwind label %144

51:                                               ; preds = %49
  store ptr %50, ptr %6, align 8, !tbaa !12
  %52 = load i64, ptr %3, align 8, !tbaa !16
  store i64 %52, ptr %46, align 8, !tbaa !17
  br label %53

53:                                               ; preds = %51, %45
  %54 = phi ptr [ %50, %51 ], [ %46, %45 ]
  switch i64 %47, label %57 [
    i64 1, label %55
    i64 0, label %58
  ]

55:                                               ; preds = %53
  %56 = load i8, ptr %38, align 1, !tbaa !17
  store i8 %56, ptr %54, align 1, !tbaa !17
  br label %58

57:                                               ; preds = %53
  call void @llvm.memcpy.p0.p0.i64(ptr align 1 %54, ptr nonnull align 1 %38, i64 %47, i1 false)
  br label %58

58:                                               ; preds = %57, %55, %53
  %59 = load i64, ptr %3, align 8, !tbaa !16
  %60 = getelementptr inbounds nuw i8, ptr %6, i64 8
  store i64 %59, ptr %60, align 8, !tbaa !15
  %61 = load ptr, ptr %6, align 8, !tbaa !12
  %62 = getelementptr inbounds nuw i8, ptr %61, i64 %59
  store i8 0, ptr %62, align 1, !tbaa !17
  call void @llvm.lifetime.end.p0(ptr %3)
  call void @llvm.experimental.noalias.scope.decl(metadata !105)
  %63 = load i64, ptr %60, align 8, !tbaa !15, !noalias !105
  %64 = icmp ult i64 %63, 9223372036854775807
  call void @llvm.assume(i1 %64)
  %65 = icmp samesign ugt i64 %63, 9223372036854775793
  br i1 %65, label %66, label %68

66:                                               ; preds = %58
  invoke void @_ZSt20__throw_length_errorPKc(ptr noundef nonnull @.str.68) #33
          to label %67 unwind label %146

67:                                               ; preds = %66
  unreachable

68:                                               ; preds = %58
  %69 = invoke noundef nonnull align 8 dereferenceable(32) ptr @_ZNSt7__cxx1112basic_stringIcSt11char_traitsIcESaIcEE9_M_appendEPKcm(ptr noundef nonnull align 8 dereferenceable(32) %6, ptr noundef nonnull @.str.14, i64 noundef 13)
          to label %70 unwind label %146

70:                                               ; preds = %68
  %71 = getelementptr inbounds nuw i8, ptr %5, i64 16
  store ptr %71, ptr %5, align 8, !tbaa !7, !alias.scope !105
  %72 = load ptr, ptr %69, align 8, !tbaa !12
  %73 = getelementptr inbounds nuw i8, ptr %69, i64 16
  %74 = icmp eq ptr %72, %73
  br i1 %74, label %75, label %80

75:                                               ; preds = %70
  %76 = getelementptr inbounds nuw i8, ptr %69, i64 8
  %77 = load i64, ptr %76, align 8, !tbaa !15
  %78 = icmp ult i64 %77, 16
  call void @llvm.assume(i1 %78)
  %79 = add nuw nsw i64 %77, 1
  call void @llvm.memcpy.p0.p0.i64(ptr noundef nonnull align 8 dereferenceable(1) %71, ptr noundef nonnull align 8 dereferenceable(1) %73, i64 %79, i1 false)
  br label %84

80:                                               ; preds = %70
  store ptr %72, ptr %5, align 8, !tbaa !12, !alias.scope !105
  %81 = load i64, ptr %73, align 8, !tbaa !17
  store i64 %81, ptr %71, align 8, !tbaa !17, !alias.scope !105
  %82 = getelementptr inbounds nuw i8, ptr %69, i64 8
  %83 = load i64, ptr %82, align 8, !tbaa !15
  br label %84

84:                                               ; preds = %80, %75
  %85 = phi i64 [ %77, %75 ], [ %83, %80 ]
  %86 = getelementptr inbounds nuw i8, ptr %69, i64 8
  %87 = icmp ult i64 %85, 9223372036854775807
  call void @llvm.assume(i1 %87)
  %88 = getelementptr inbounds nuw i8, ptr %5, i64 8
  store i64 %85, ptr %88, align 8, !tbaa !15, !alias.scope !105
  store ptr %73, ptr %69, align 8, !tbaa !12
  store i64 0, ptr %86, align 8, !tbaa !15
  store i8 0, ptr %73, align 8, !tbaa !17
  %89 = load ptr, ptr %4, align 8, !tbaa !12
  %90 = icmp eq ptr %89, %28
  br i1 %90, label %91, label %96

91:                                               ; preds = %84
  %92 = load i64, ptr %29, align 8, !tbaa !15
  %93 = icmp ult i64 %92, 16
  call void @llvm.assume(i1 %93)
  %94 = load ptr, ptr %5, align 8, !tbaa !12
  %95 = icmp eq ptr %94, %71
  br i1 %95, label %99, label %114

96:                                               ; preds = %84
  %97 = load ptr, ptr %5, align 8, !tbaa !12
  %98 = icmp eq ptr %97, %71
  br i1 %98, label %99, label %112

99:                                               ; preds = %96, %91
  %100 = phi ptr [ %97, %96 ], [ %94, %91 ]
  %101 = load i64, ptr %88, align 8, !tbaa !15
  %102 = icmp ult i64 %101, 16
  call void @llvm.assume(i1 %102)
  switch i64 %101, label %105 [
    i64 0, label %106
    i64 1, label %103
  ]

103:                                              ; preds = %99
  %104 = load i8, ptr %100, align 1, !tbaa !17
  store i8 %104, ptr %89, align 1, !tbaa !17
  br label %106

105:                                              ; preds = %99
  call void @llvm.memcpy.p0.p0.i64(ptr align 1 %89, ptr align 1 %100, i64 %101, i1 false)
  br label %106

106:                                              ; preds = %105, %103, %99
  %107 = load i64, ptr %88, align 8, !tbaa !15
  %108 = icmp ult i64 %107, 9223372036854775807
  call void @llvm.assume(i1 %108)
  store i64 %107, ptr %29, align 8, !tbaa !15
  %109 = load ptr, ptr %4, align 8, !tbaa !12
  %110 = getelementptr inbounds nuw i8, ptr %109, i64 %107
  store i8 0, ptr %110, align 1, !tbaa !17
  %111 = load ptr, ptr %5, align 8, !tbaa !12
  br label %124

112:                                              ; preds = %96
  %113 = load i64, ptr %28, align 8, !tbaa !17
  br label %114

114:                                              ; preds = %112, %91
  %115 = phi ptr [ %97, %112 ], [ %94, %91 ]
  %116 = phi ptr [ %89, %112 ], [ null, %91 ]
  %117 = phi i64 [ %113, %112 ], [ undef, %91 ]
  store ptr %115, ptr %4, align 8, !tbaa !12
  %118 = load i64, ptr %88, align 8, !tbaa !15
  %119 = icmp ult i64 %118, 9223372036854775807
  call void @llvm.assume(i1 %119)
  store i64 %118, ptr %29, align 8, !tbaa !15
  %120 = load i64, ptr %71, align 8, !tbaa !17
  store i64 %120, ptr %28, align 8, !tbaa !17
  %121 = icmp eq ptr %116, null
  br i1 %121, label %123, label %122

122:                                              ; preds = %114
  store ptr %116, ptr %5, align 8, !tbaa !12
  store i64 %117, ptr %71, align 8, !tbaa !17
  br label %124

123:                                              ; preds = %114
  store ptr %71, ptr %5, align 8, !tbaa !12
  br label %124

124:                                              ; preds = %123, %122, %106
  %125 = phi ptr [ %116, %122 ], [ %71, %123 ], [ %111, %106 ]
  store i64 0, ptr %88, align 8, !tbaa !15
  store i8 0, ptr %125, align 1, !tbaa !17
  %126 = load ptr, ptr %5, align 8, !tbaa !12
  %127 = icmp eq ptr %126, %71
  br i1 %127, label %128, label %131

128:                                              ; preds = %124
  %129 = load i64, ptr %88, align 8, !tbaa !15
  %130 = icmp ult i64 %129, 16
  call void @llvm.assume(i1 %130)
  br label %134

131:                                              ; preds = %124
  %132 = load i64, ptr %71, align 8, !tbaa !17
  %133 = add i64 %132, 1
  call void @_ZdlPvm(ptr noundef %126, i64 noundef %133) #30
  br label %134

134:                                              ; preds = %131, %128
  %135 = load ptr, ptr %6, align 8, !tbaa !12
  %136 = icmp eq ptr %135, %46
  br i1 %136, label %137, label %140

137:                                              ; preds = %134
  %138 = load i64, ptr %60, align 8, !tbaa !15
  %139 = icmp ult i64 %138, 16
  call void @llvm.assume(i1 %139)
  br label %143

140:                                              ; preds = %134
  %141 = load i64, ptr %46, align 8, !tbaa !17
  %142 = add i64 %141, 1
  call void @_ZdlPvm(ptr noundef %135, i64 noundef %142) #30
  br label %143

143:                                              ; preds = %140, %137
  call void @llvm.lifetime.end.p0(ptr %6)
  call void @llvm.lifetime.end.p0(ptr %5)
  br label %164

144:                                              ; preds = %49
  %145 = landingpad { ptr, i32 }
          cleanup
  br label %156

146:                                              ; preds = %68, %66
  %147 = landingpad { ptr, i32 }
          cleanup
  %148 = load ptr, ptr %6, align 8, !tbaa !12
  %149 = icmp eq ptr %148, %46
  br i1 %149, label %150, label %153

150:                                              ; preds = %146
  %151 = load i64, ptr %60, align 8, !tbaa !15
  %152 = icmp ult i64 %151, 16
  call void @llvm.assume(i1 %152)
  br label %156

153:                                              ; preds = %146
  %154 = load i64, ptr %46, align 8, !tbaa !17
  %155 = add i64 %154, 1
  call void @_ZdlPvm(ptr noundef %148, i64 noundef %155) #30
  br label %156

156:                                              ; preds = %153, %150, %144
  %157 = phi { ptr, i32 } [ %145, %144 ], [ %147, %150 ], [ %147, %153 ]
  call void @llvm.lifetime.end.p0(ptr %6)
  call void @llvm.lifetime.end.p0(ptr %5)
  br label %222

158:                                              ; preds = %43, %37
  %159 = phi i64 [ %44, %43 ], [ 0, %37 ]
  %160 = icmp ult i64 %159, 9223372036854775807
  call void @llvm.assume(i1 %160)
  %161 = invoke noundef nonnull align 8 dereferenceable(32) ptr @_ZNSt7__cxx1112basic_stringIcSt11char_traitsIcESaIcEE10_M_replaceEmmPKcm(ptr noundef nonnull align 8 dereferenceable(32) %4, i64 noundef 0, i64 noundef %159, ptr noundef nonnull @.str.15, i64 noundef 4)
          to label %164 unwind label %162

162:                                              ; preds = %158
  %163 = landingpad { ptr, i32 }
          cleanup
  br label %222

164:                                              ; preds = %158, %143, %32
  %165 = load i64, ptr %29, align 8, !tbaa !15
  %166 = icmp ult i64 %165, 9223372036854775807
  call void @llvm.assume(i1 %166)
  %167 = icmp samesign ugt i64 %165, 9223372036854775801
  br i1 %167, label %168, label %170

168:                                              ; preds = %164
  invoke void @_ZSt20__throw_length_errorPKc(ptr noundef nonnull @.str.68) #33
          to label %169 unwind label %35

169:                                              ; preds = %168
  unreachable

170:                                              ; preds = %164
  %171 = invoke noundef nonnull align 8 dereferenceable(32) ptr @_ZNSt7__cxx1112basic_stringIcSt11char_traitsIcESaIcEE9_M_appendEPKcm(ptr noundef nonnull align 8 dereferenceable(32) %4, ptr noundef nonnull @.str.16, i64 noundef 5)
          to label %172 unwind label %35

172:                                              ; preds = %170
  %173 = load ptr, ptr %12, align 8, !tbaa !12
  %174 = getelementptr inbounds nuw i8, ptr %11, i64 360
  %175 = icmp eq ptr %173, %174
  br i1 %175, label %176, label %181

176:                                              ; preds = %172
  %177 = load i64, ptr %13, align 8, !tbaa !15
  %178 = icmp ult i64 %177, 16
  call void @llvm.assume(i1 %178)
  %179 = load ptr, ptr %4, align 8, !tbaa !12
  %180 = icmp eq ptr %179, %28
  br i1 %180, label %184, label %201

181:                                              ; preds = %172
  %182 = load ptr, ptr %4, align 8, !tbaa !12
  %183 = icmp eq ptr %182, %28
  br i1 %183, label %184, label %199

184:                                              ; preds = %181, %176
  %185 = phi ptr [ %182, %181 ], [ %179, %176 ]
  %186 = load i64, ptr %29, align 8, !tbaa !15
  %187 = icmp ult i64 %186, 16
  call void @llvm.assume(i1 %187)
  %188 = icmp eq ptr %4, %12
  br i1 %188, label %211, label %189, !prof !27

189:                                              ; preds = %184
  switch i64 %186, label %192 [
    i64 0, label %193
    i64 1, label %190
  ]

190:                                              ; preds = %189
  %191 = load i8, ptr %185, align 1, !tbaa !17
  store i8 %191, ptr %173, align 1, !tbaa !17
  br label %193

192:                                              ; preds = %189
  call void @llvm.memcpy.p0.p0.i64(ptr align 1 %173, ptr align 1 %185, i64 %186, i1 false)
  br label %193

193:                                              ; preds = %192, %190, %189
  %194 = load i64, ptr %29, align 8, !tbaa !15
  %195 = icmp ult i64 %194, 9223372036854775807
  call void @llvm.assume(i1 %195)
  store i64 %194, ptr %13, align 8, !tbaa !15
  %196 = load ptr, ptr %12, align 8, !tbaa !12
  %197 = getelementptr inbounds nuw i8, ptr %196, i64 %194
  store i8 0, ptr %197, align 1, !tbaa !17
  %198 = load ptr, ptr %4, align 8, !tbaa !12
  br label %211

199:                                              ; preds = %181
  %200 = load i64, ptr %174, align 8, !tbaa !17
  br label %201

201:                                              ; preds = %199, %176
  %202 = phi ptr [ %182, %199 ], [ %179, %176 ]
  %203 = phi ptr [ %173, %199 ], [ null, %176 ]
  %204 = phi i64 [ %200, %199 ], [ undef, %176 ]
  store ptr %202, ptr %12, align 8, !tbaa !12
  %205 = load i64, ptr %29, align 8, !tbaa !15
  %206 = icmp ult i64 %205, 9223372036854775807
  call void @llvm.assume(i1 %206)
  store i64 %205, ptr %13, align 8, !tbaa !15
  %207 = load i64, ptr %28, align 8, !tbaa !17
  store i64 %207, ptr %174, align 8, !tbaa !17
  %208 = icmp eq ptr %203, null
  br i1 %208, label %210, label %209

209:                                              ; preds = %201
  store ptr %203, ptr %4, align 8, !tbaa !12
  store i64 %204, ptr %28, align 8, !tbaa !17
  br label %211

210:                                              ; preds = %201
  store ptr %28, ptr %4, align 8, !tbaa !12
  br label %211

211:                                              ; preds = %210, %209, %193, %184
  %212 = phi ptr [ %203, %209 ], [ %28, %210 ], [ %185, %184 ], [ %198, %193 ]
  store i64 0, ptr %29, align 8, !tbaa !15
  store i8 0, ptr %212, align 1, !tbaa !17
  %213 = load ptr, ptr %4, align 8, !tbaa !12
  %214 = icmp eq ptr %213, %28
  br i1 %214, label %215, label %218

215:                                              ; preds = %211
  %216 = load i64, ptr %29, align 8, !tbaa !15
  %217 = icmp ult i64 %216, 16
  call void @llvm.assume(i1 %217)
  br label %221

218:                                              ; preds = %211
  %219 = load i64, ptr %28, align 8, !tbaa !17
  %220 = add i64 %219, 1
  call void @_ZdlPvm(ptr noundef %213, i64 noundef %220) #30
  br label %221

221:                                              ; preds = %218, %215
  call void @llvm.lifetime.end.p0(ptr %4)
  br label %233

222:                                              ; preds = %162, %156, %35
  %223 = phi { ptr, i32 } [ %36, %35 ], [ %157, %156 ], [ %163, %162 ]
  %224 = load ptr, ptr %4, align 8, !tbaa !12
  %225 = icmp eq ptr %224, %28
  br i1 %225, label %226, label %229

226:                                              ; preds = %222
  %227 = load i64, ptr %29, align 8, !tbaa !15
  %228 = icmp ult i64 %227, 16
  call void @llvm.assume(i1 %228)
  br label %232

229:                                              ; preds = %222
  %230 = load i64, ptr %28, align 8, !tbaa !17
  %231 = add i64 %230, 1
  call void @_ZdlPvm(ptr noundef %224, i64 noundef %231) #30
  br label %232

232:                                              ; preds = %229, %226
  call void @llvm.lifetime.end.p0(ptr %4)
  resume { ptr, i32 } %223

233:                                              ; preds = %221, %22, %10
  %234 = icmp eq i32 %1, 0
  br i1 %234, label %236, label %235

235:                                              ; preds = %233
  call fastcc void @_ZL26CreateDirectoryRecursivelyP6pj_ctxRKNSt7__cxx1112basic_stringIcSt11char_traitsIcESaIcEEE(ptr noundef nonnull %11, ptr noundef nonnull align 8 dereferenceable(32) %12)
  br label %236

236:                                              ; preds = %235, %233
  %237 = load ptr, ptr %12, align 8, !tbaa !12
  ret ptr %237
}

; Function Attrs: nofree nounwind
declare noundef i32 @access(ptr noundef readonly captures(none), i32 noundef) local_unnamed_addr #4

; Function Attrs: inlinehint mustprogress sspstrong uwtable
define linkonce_odr void @_ZStplIcSt11char_traitsIcESaIcEENSt7__cxx1112basic_stringIT_T0_T1_EEOS8_PKS5_(ptr dead_on_unwind noalias writable sret(%"class.std::__cxx11::basic_string") align 8 %0, ptr noundef nonnull align 8 dereferenceable(32) %1, ptr noundef %2) local_unnamed_addr #12 comdat personality ptr @__gxx_personality_v0 {
  %4 = tail call noundef i64 @strlen(ptr noundef nonnull dereferenceable(1) %2) #32
  %5 = getelementptr inbounds nuw i8, ptr %1, i64 8
  %6 = load i64, ptr %5, align 8, !tbaa !15
  %7 = icmp ult i64 %6, 9223372036854775807
  tail call void @llvm.assume(i1 %7)
  %8 = sub nuw nsw i64 9223372036854775806, %6
  %9 = icmp ult i64 %8, %4
  br i1 %9, label %10, label %11

10:                                               ; preds = %3
  tail call void @_ZSt20__throw_length_errorPKc(ptr noundef nonnull @.str.68) #33
  unreachable

11:                                               ; preds = %3
  %12 = tail call noundef nonnull align 8 dereferenceable(32) ptr @_ZNSt7__cxx1112basic_stringIcSt11char_traitsIcESaIcEE9_M_appendEPKcm(ptr noundef nonnull align 8 dereferenceable(32) %1, ptr noundef nonnull %2, i64 noundef %4)
  %13 = getelementptr inbounds nuw i8, ptr %0, i64 16
  store ptr %13, ptr %0, align 8, !tbaa !7
  %14 = load ptr, ptr %12, align 8, !tbaa !12
  %15 = getelementptr inbounds nuw i8, ptr %12, i64 16
  %16 = icmp eq ptr %14, %15
  br i1 %16, label %17, label %22

17:                                               ; preds = %11
  %18 = getelementptr inbounds nuw i8, ptr %12, i64 8
  %19 = load i64, ptr %18, align 8, !tbaa !15
  %20 = icmp ult i64 %19, 16
  tail call void @llvm.assume(i1 %20)
  %21 = add nuw nsw i64 %19, 1
  tail call void @llvm.memcpy.p0.p0.i64(ptr noundef nonnull align 8 dereferenceable(1) %13, ptr noundef nonnull align 8 dereferenceable(1) %15, i64 %21, i1 false)
  br label %26

22:                                               ; preds = %11
  store ptr %14, ptr %0, align 8, !tbaa !12
  %23 = load i64, ptr %15, align 8, !tbaa !17
  store i64 %23, ptr %13, align 8, !tbaa !17
  %24 = getelementptr inbounds nuw i8, ptr %12, i64 8
  %25 = load i64, ptr %24, align 8, !tbaa !15
  br label %26

26:                                               ; preds = %22, %17
  %27 = phi i64 [ %19, %17 ], [ %25, %22 ]
  %28 = getelementptr inbounds nuw i8, ptr %12, i64 8
  %29 = icmp ult i64 %27, 9223372036854775807
  tail call void @llvm.assume(i1 %29)
  %30 = getelementptr inbounds nuw i8, ptr %0, i64 8
  store i64 %27, ptr %30, align 8, !tbaa !15
  store ptr %15, ptr %12, align 8, !tbaa !12
  store i64 0, ptr %28, align 8, !tbaa !15
  store i8 0, ptr %15, align 8, !tbaa !17
  ret void
}

; Function Attrs: mustprogress sspstrong uwtable
declare noundef nonnull align 8 dereferenceable(32) ptr @_ZNSt7__cxx1112basic_stringIcSt11char_traitsIcESaIcEEpLEPKc(ptr noundef nonnull align 8 dereferenceable(32), ptr noundef) local_unnamed_addr #0 align 2

; Function Attrs: mustprogress sspstrong uwtable
define internal fastcc void @_ZL26CreateDirectoryRecursivelyP6pj_ctxRKNSt7__cxx1112basic_stringIcSt11char_traitsIcESaIcEEE(ptr noundef %0, ptr noundef nonnull align 8 dereferenceable(32) %1) unnamed_addr #0 personality ptr @__gxx_personality_v0 {
  %3 = alloca i64, align 8
  %4 = alloca %struct.stat, align 8
  %5 = alloca %"class.std::__cxx11::basic_string", align 8
  %6 = load ptr, ptr %1, align 8, !tbaa !12
  %7 = getelementptr inbounds nuw i8, ptr %0, i64 272
  %8 = load ptr, ptr %7, align 8, !tbaa !89
  %9 = icmp eq ptr %8, null
  br i1 %9, label %15, label %10

10:                                               ; preds = %2
  %11 = getelementptr inbounds nuw i8, ptr %0, i64 304
  %12 = load ptr, ptr %11, align 8, !tbaa !81
  %13 = tail call noundef i32 %8(ptr noundef nonnull %0, ptr noundef %6, ptr noundef %12)
  %14 = icmp eq i32 %13, 0
  br i1 %14, label %18, label %63

15:                                               ; preds = %2
  call void @llvm.lifetime.start.p0(ptr %4)
  %16 = call i32 @stat(ptr noundef %6, ptr noundef nonnull %4) #32
  %17 = icmp eq i32 %16, 0
  call void @llvm.lifetime.end.p0(ptr %4)
  br i1 %17, label %63, label %18

18:                                               ; preds = %15, %10
  %19 = tail call noundef i64 @_ZNKSt7__cxx1112basic_stringIcSt11char_traitsIcESaIcEE12find_last_ofEPKcmm(ptr noundef nonnull align 8 dereferenceable(32) %1, ptr noundef nonnull @.str.50, i64 noundef -1, i64 noundef 2) #32
  %20 = add i64 %19, 1
  %21 = icmp ult i64 %20, 2
  br i1 %21, label %63, label %22

22:                                               ; preds = %18
  call void @llvm.lifetime.start.p0(ptr %5)
  tail call void @llvm.experimental.noalias.scope.decl(metadata !108)
  %23 = getelementptr inbounds nuw i8, ptr %1, i64 8
  %24 = load i64, ptr %23, align 8, !tbaa !15, !noalias !108
  %25 = icmp ult i64 %24, 9223372036854775807
  tail call void @llvm.assume(i1 %25)
  %26 = getelementptr inbounds nuw i8, ptr %5, i64 16
  store ptr %26, ptr %5, align 8, !tbaa !7, !alias.scope !108
  %27 = load ptr, ptr %1, align 8, !tbaa !12, !noalias !108
  %28 = call noundef i64 @llvm.umin.i64(i64 %19, i64 %24)
  call void @llvm.lifetime.start.p0(ptr %3)
  store i64 %28, ptr %3, align 8, !tbaa !16, !noalias !108
  %29 = icmp samesign ugt i64 %28, 15
  br i1 %29, label %30, label %33

30:                                               ; preds = %22
  %31 = call noundef ptr @_ZNSt7__cxx1112basic_stringIcSt11char_traitsIcESaIcEE9_M_createERmm(ptr noundef nonnull align 8 dereferenceable(32) %5, ptr noundef nonnull align 8 dereferenceable(8) %3, i64 noundef 0)
  store ptr %31, ptr %5, align 8, !tbaa !12, !alias.scope !108
  %32 = load i64, ptr %3, align 8, !tbaa !16, !noalias !108
  store i64 %32, ptr %26, align 8, !tbaa !17, !alias.scope !108
  br label %33

33:                                               ; preds = %30, %22
  %34 = phi ptr [ %31, %30 ], [ %26, %22 ]
  switch i64 %28, label %37 [
    i64 1, label %35
    i64 0, label %38
  ]

35:                                               ; preds = %33
  %36 = load i8, ptr %27, align 1, !tbaa !17
  store i8 %36, ptr %34, align 1, !tbaa !17
  br label %38

37:                                               ; preds = %33
  call void @llvm.memcpy.p0.p0.i64(ptr align 1 %34, ptr align 1 %27, i64 %28, i1 false)
  br label %38

38:                                               ; preds = %37, %35, %33
  %39 = load i64, ptr %3, align 8, !tbaa !16, !noalias !108
  %40 = getelementptr inbounds nuw i8, ptr %5, i64 8
  store i64 %39, ptr %40, align 8, !tbaa !15, !alias.scope !108
  %41 = load ptr, ptr %5, align 8, !tbaa !12, !alias.scope !108
  %42 = getelementptr inbounds nuw i8, ptr %41, i64 %39
  store i8 0, ptr %42, align 1, !tbaa !17
  call void @llvm.lifetime.end.p0(ptr %3)
  invoke fastcc void @_ZL26CreateDirectoryRecursivelyP6pj_ctxRKNSt7__cxx1112basic_stringIcSt11char_traitsIcESaIcEEE(ptr noundef nonnull %0, ptr noundef nonnull align 8 dereferenceable(32) %5)
          to label %43 unwind label %64

43:                                               ; preds = %38
  %44 = load ptr, ptr %5, align 8, !tbaa !12
  %45 = icmp eq ptr %44, %26
  br i1 %45, label %46, label %49

46:                                               ; preds = %43
  %47 = load i64, ptr %40, align 8, !tbaa !15
  %48 = icmp ult i64 %47, 16
  call void @llvm.assume(i1 %48)
  br label %52

49:                                               ; preds = %43
  %50 = load i64, ptr %26, align 8, !tbaa !17
  %51 = add i64 %50, 1
  call void @_ZdlPvm(ptr noundef %44, i64 noundef %51) #30
  br label %52

52:                                               ; preds = %49, %46
  call void @llvm.lifetime.end.p0(ptr %5)
  %53 = load ptr, ptr %1, align 8, !tbaa !12
  %54 = getelementptr inbounds nuw i8, ptr %0, i64 280
  %55 = load ptr, ptr %54, align 8, !tbaa !90
  %56 = icmp eq ptr %55, null
  br i1 %56, label %61, label %57

57:                                               ; preds = %52
  %58 = getelementptr inbounds nuw i8, ptr %0, i64 304
  %59 = load ptr, ptr %58, align 8, !tbaa !81
  %60 = call noundef i32 %55(ptr noundef nonnull %0, ptr noundef %53, ptr noundef %59)
  br label %63

61:                                               ; preds = %52
  %62 = call i32 @mkdir(ptr noundef %53, i32 noundef 493) #32
  br label %63

63:                                               ; preds = %61, %57, %18, %15, %10
  ret void

64:                                               ; preds = %38
  %65 = landingpad { ptr, i32 }
          cleanup
  %66 = load ptr, ptr %5, align 8, !tbaa !12
  %67 = icmp eq ptr %66, %26
  br i1 %67, label %68, label %71

68:                                               ; preds = %64
  %69 = load i64, ptr %40, align 8, !tbaa !15
  %70 = icmp ult i64 %69, 16
  call void @llvm.assume(i1 %70)
  br label %74

71:                                               ; preds = %64
  %72 = load i64, ptr %26, align 8, !tbaa !17
  %73 = add i64 %72, 1
  call void @_ZdlPvm(ptr noundef %66, i64 noundef %73) #30
  br label %74

74:                                               ; preds = %71, %68
  call void @llvm.lifetime.end.p0(ptr %5)
  resume { ptr, i32 } %65
}

; Function Attrs: mustprogress sspstrong uwtable
define void @proj_context_set_user_writable_directory(ptr noundef %0, ptr noundef %1, i32 noundef %2) local_unnamed_addr #0 personality ptr @__gxx_personality_v0 {
  %4 = icmp eq ptr %0, null
  br i1 %4, label %5, label %7

5:                                                ; preds = %3
  %6 = tail call noundef ptr @_Z18pj_get_default_ctxv()
  br label %7

7:                                                ; preds = %5, %3
  %8 = phi ptr [ %0, %3 ], [ %6, %5 ]
  %9 = icmp eq ptr %1, null
  %10 = select i1 %9, ptr @.str.17, ptr %1
  %11 = getelementptr inbounds nuw i8, ptr %8, i64 344
  %12 = getelementptr inbounds nuw i8, ptr %8, i64 352
  %13 = load i64, ptr %12, align 8, !tbaa !15
  %14 = icmp ult i64 %13, 9223372036854775807
  tail call void @llvm.assume(i1 %14)
  %15 = tail call noundef i64 @strlen(ptr noundef nonnull dereferenceable(1) %10) #32
  %16 = tail call noundef nonnull align 8 dereferenceable(32) ptr @_ZNSt7__cxx1112basic_stringIcSt11char_traitsIcESaIcEE10_M_replaceEmmPKcm(ptr noundef nonnull align 8 dereferenceable(32) %11, i64 noundef 0, i64 noundef %13, ptr noundef nonnull %10, i64 noundef %15)
  %17 = icmp ne i32 %2, 0
  %18 = or i1 %9, %17
  br i1 %18, label %19, label %21

19:                                               ; preds = %7
  %20 = tail call ptr @proj_context_get_user_writable_directory(ptr noundef nonnull %8, i32 noundef %2)
  br label %21

21:                                               ; preds = %19, %7
  ret void
}

; Function Attrs: mustprogress sspstrong uwtable
define ptr @proj_context_get_url_endpoint(ptr noundef %0) local_unnamed_addr #0 {
  %2 = icmp eq ptr %0, null
  br i1 %2, label %3, label %5

3:                                                ; preds = %1
  %4 = tail call noundef ptr @_Z18pj_get_default_ctxv()
  br label %5

5:                                                ; preds = %3, %1
  %6 = phi ptr [ %4, %3 ], [ %0, %1 ]
  %7 = getelementptr inbounds nuw i8, ptr %6, i64 392
  %8 = load i64, ptr %7, align 8, !tbaa !15
  %9 = icmp eq i64 %8, 0
  br i1 %9, label %10, label %11

10:                                               ; preds = %5
  tail call void @_Z11pj_load_iniP6pj_ctx(ptr noundef nonnull %6)
  br label %11

11:                                               ; preds = %10, %5
  %12 = getelementptr inbounds nuw i8, ptr %6, i64 384
  %13 = load ptr, ptr %12, align 8, !tbaa !12
  ret ptr %13
}

; Function Attrs: mustprogress sspstrong uwtable
define hidden void @_Z11pj_load_iniP6pj_ctx(ptr noundef %0) local_unnamed_addr #0 personality ptr @__gxx_personality_v0 {
  %2 = alloca i64, align 8
  %3 = alloca i64, align 8
  %4 = alloca %"class.std::__cxx11::basic_string", align 8
  %5 = alloca %"class.std::__cxx11::basic_string", align 8
  %6 = alloca %"class.std::__cxx11::basic_string", align 8
  %7 = alloca %"class.std::__cxx11::basic_string", align 8
  %8 = alloca %"class.std::__cxx11::basic_string", align 8
  %9 = getelementptr inbounds nuw i8, ptr %0, i64 376
  %10 = load i8, ptr %9, align 8, !tbaa !111, !range !41, !noundef !42
  %11 = trunc nuw i8 %10 to i1
  br i1 %11, label %501, label %12

12:                                               ; preds = %1
  %13 = tail call ptr @getenv(ptr noundef nonnull @.str.25) #32
  %14 = icmp eq ptr %13, null
  br i1 %14, label %28, label %15

15:                                               ; preds = %12
  %16 = load i8, ptr %13, align 1, !tbaa !17
  %17 = icmp eq i8 %16, 0
  br i1 %17, label %28, label %18

18:                                               ; preds = %15
  %19 = tail call noundef zeroext i1 @_ZN5osgeo4proj8internal8ci_equalEPKcS3_(ptr noundef nonnull %13, ptr noundef nonnull @.str.26) #32
  br i1 %19, label %25, label %20

20:                                               ; preds = %18
  %21 = tail call noundef zeroext i1 @_ZN5osgeo4proj8internal8ci_equalEPKcS3_(ptr noundef nonnull %13, ptr noundef nonnull @.str.27) #32
  br i1 %21, label %25, label %22

22:                                               ; preds = %20
  %23 = tail call noundef zeroext i1 @_ZN5osgeo4proj8internal8ci_equalEPKcS3_(ptr noundef nonnull %13, ptr noundef nonnull @.str.28) #32
  %24 = zext i1 %23 to i8
  br label %25

25:                                               ; preds = %22, %20, %18
  %26 = phi i8 [ 1, %20 ], [ 1, %18 ], [ %24, %22 ]
  %27 = getelementptr inbounds nuw i8, ptr %0, i64 416
  store i8 %26, ptr %27, align 8, !tbaa !112
  br label %28

28:                                               ; preds = %25, %15, %12
  %29 = phi i1 [ false, %25 ], [ true, %15 ], [ true, %12 ]
  %30 = tail call ptr @getenv(ptr noundef nonnull @.str.29) #32
  %31 = icmp eq ptr %30, null
  br i1 %31, label %42, label %32

32:                                               ; preds = %28
  %33 = load i8, ptr %30, align 1, !tbaa !17
  %34 = icmp eq i8 %33, 0
  br i1 %34, label %42, label %35

35:                                               ; preds = %32
  %36 = getelementptr inbounds nuw i8, ptr %0, i64 384
  %37 = getelementptr inbounds nuw i8, ptr %0, i64 392
  %38 = load i64, ptr %37, align 8, !tbaa !15
  %39 = icmp ult i64 %38, 9223372036854775807
  tail call void @llvm.assume(i1 %39)
  %40 = tail call noundef i64 @strlen(ptr noundef nonnull dereferenceable(1) %30) #32
  %41 = tail call noundef nonnull align 8 dereferenceable(32) ptr @_ZNSt7__cxx1112basic_stringIcSt11char_traitsIcESaIcEE10_M_replaceEmmPKcm(ptr noundef nonnull align 8 dereferenceable(32) %36, i64 noundef 0, i64 noundef %38, ptr noundef nonnull %30, i64 noundef %40)
  br label %42

42:                                               ; preds = %35, %32, %28
  %43 = tail call ptr @getenv(ptr noundef nonnull @.str.30) #32
  %44 = icmp eq ptr %43, null
  br i1 %44, label %45, label %51

45:                                               ; preds = %42
  %46 = tail call ptr @getenv(ptr noundef nonnull @.str.31) #32
  %47 = icmp eq ptr %46, null
  br i1 %47, label %48, label %51

48:                                               ; preds = %45
  %49 = tail call ptr @getenv(ptr noundef nonnull @.str.32) #32
  %50 = icmp eq ptr %49, null
  br i1 %50, label %59, label %51

51:                                               ; preds = %48, %45, %42
  %52 = phi ptr [ %49, %48 ], [ %46, %45 ], [ %43, %42 ]
  %53 = getelementptr inbounds nuw i8, ptr %0, i64 464
  %54 = getelementptr inbounds nuw i8, ptr %0, i64 472
  %55 = load i64, ptr %54, align 8, !tbaa !15
  %56 = icmp ult i64 %55, 9223372036854775807
  tail call void @llvm.assume(i1 %56)
  %57 = tail call noundef i64 @strlen(ptr noundef nonnull dereferenceable(1) %52) #32
  %58 = tail call noundef nonnull align 8 dereferenceable(32) ptr @_ZNSt7__cxx1112basic_stringIcSt11char_traitsIcESaIcEE10_M_replaceEmmPKcm(ptr noundef nonnull align 8 dereferenceable(32) %53, i64 noundef 0, i64 noundef %55, ptr noundef nonnull %52, i64 noundef %57)
  br label %59

59:                                               ; preds = %51, %48
  %60 = phi i1 [ false, %51 ], [ true, %48 ]
  %61 = tail call ptr @getenv(ptr noundef nonnull @.str.33) #32
  %62 = icmp eq ptr %61, null
  br i1 %62, label %77, label %63

63:                                               ; preds = %59
  %64 = load i8, ptr %61, align 1, !tbaa !17
  %65 = icmp eq i8 %64, 0
  br i1 %65, label %77, label %66

66:                                               ; preds = %63
  %67 = getelementptr inbounds nuw i8, ptr %0, i64 41
  store i8 0, ptr %67, align 1, !tbaa !113
  %68 = tail call noundef zeroext i1 @_ZN5osgeo4proj8internal8ci_equalEPKcS3_(ptr noundef nonnull %61, ptr noundef nonnull @.str.26) #32
  br i1 %68, label %74, label %69

69:                                               ; preds = %66
  %70 = tail call noundef zeroext i1 @_ZN5osgeo4proj8internal8ci_equalEPKcS3_(ptr noundef nonnull %61, ptr noundef nonnull @.str.27) #32
  br i1 %70, label %74, label %71

71:                                               ; preds = %69
  %72 = tail call noundef zeroext i1 @_ZN5osgeo4proj8internal8ci_equalEPKcS3_(ptr noundef nonnull %61, ptr noundef nonnull @.str.28) #32
  %73 = zext i1 %72 to i8
  br label %74

74:                                               ; preds = %71, %69, %66
  %75 = phi i8 [ 1, %69 ], [ 1, %66 ], [ %73, %71 ]
  %76 = getelementptr inbounds nuw i8, ptr %0, i64 40
  store i8 %75, ptr %76, align 8, !tbaa !114
  br label %77

77:                                               ; preds = %74, %63, %59
  %78 = tail call ptr @getenv(ptr noundef nonnull @.str.34) #32
  %79 = icmp eq ptr %78, null
  br i1 %79, label %93, label %80

80:                                               ; preds = %77
  %81 = load i8, ptr %78, align 1, !tbaa !17
  %82 = icmp eq i8 %81, 0
  br i1 %82, label %93, label %83

83:                                               ; preds = %80
  %84 = tail call noundef zeroext i1 @_ZN5osgeo4proj8internal8ci_equalEPKcS3_(ptr noundef nonnull %78, ptr noundef nonnull @.str.26) #32
  br i1 %84, label %90, label %85

85:                                               ; preds = %83
  %86 = tail call noundef zeroext i1 @_ZN5osgeo4proj8internal8ci_equalEPKcS3_(ptr noundef nonnull %78, ptr noundef nonnull @.str.27) #32
  br i1 %86, label %90, label %87

87:                                               ; preds = %85
  %88 = tail call noundef zeroext i1 @_ZN5osgeo4proj8internal8ci_equalEPKcS3_(ptr noundef nonnull %78, ptr noundef nonnull @.str.28) #32
  %89 = zext i1 %88 to i8
  br label %90

90:                                               ; preds = %87, %85, %83
  %91 = phi i8 [ 1, %85 ], [ 1, %83 ], [ %89, %87 ]
  %92 = getelementptr inbounds nuw i8, ptr %0, i64 496
  store i8 %91, ptr %92, align 8, !tbaa !115
  br label %93

93:                                               ; preds = %90, %80, %77
  %94 = phi i1 [ false, %90 ], [ true, %80 ], [ true, %77 ]
  store i8 1, ptr %9, align 8, !tbaa !111
  call void @llvm.lifetime.start.p0(ptr %4)
  %95 = getelementptr inbounds nuw i8, ptr %4, i64 16
  store ptr %95, ptr %4, align 8, !tbaa !7
  %96 = getelementptr inbounds nuw i8, ptr %4, i64 8
  store i64 0, ptr %96, align 8, !tbaa !15
  store i8 0, ptr %95, align 8, !tbaa !17
  %97 = invoke fastcc noundef ptr @_ZL20pj_open_lib_internalP6pj_ctxPKcS2_PFPvS0_S2_S2_EPcm(ptr noundef nonnull %0, ptr noundef nonnull @.str.35, ptr noundef null, i64 noundef 0)
          to label %98 unwind label %115

98:                                               ; preds = %93
  %99 = icmp eq ptr %97, null
  br i1 %99, label %100, label %102

100:                                              ; preds = %98
  %101 = load i64, ptr %96, align 8, !tbaa !15
  br label %141

102:                                              ; preds = %98
  %103 = load ptr, ptr %97, align 8, !tbaa !4
  %104 = getelementptr inbounds nuw i8, ptr %103, i64 32
  %105 = load ptr, ptr %104, align 8
  %106 = invoke noundef zeroext i1 %105(ptr noundef nonnull align 8 dereferenceable(73) %97, i64 noundef 0, i32 noundef 2)
          to label %107 unwind label %117

107:                                              ; preds = %102
  %108 = load ptr, ptr %97, align 8, !tbaa !4
  %109 = getelementptr inbounds nuw i8, ptr %108, i64 40
  %110 = load ptr, ptr %109, align 8
  %111 = invoke noundef i64 %110(ptr noundef nonnull align 8 dereferenceable(73) %97)
          to label %112 unwind label %119

112:                                              ; preds = %107
  %113 = add i64 %111, -102401
  %114 = icmp ult i64 %113, -102400
  br i1 %114, label %487, label %121

115:                                              ; preds = %93
  %116 = landingpad { ptr, i32 }
          cleanup
  br label %509

117:                                              ; preds = %154, %102
  %118 = landingpad { ptr, i32 }
          cleanup
  br label %502

119:                                              ; preds = %126, %121, %107
  %120 = landingpad { ptr, i32 }
          cleanup
  br label %504

121:                                              ; preds = %112
  %122 = load ptr, ptr %97, align 8, !tbaa !4
  %123 = getelementptr inbounds nuw i8, ptr %122, i64 32
  %124 = load ptr, ptr %123, align 8
  %125 = invoke noundef zeroext i1 %124(ptr noundef nonnull align 8 dereferenceable(73) %97, i64 noundef 0, i32 noundef 0)
          to label %126 unwind label %119

126:                                              ; preds = %121
  invoke void @_ZNSt7__cxx1112basic_stringIcSt11char_traitsIcESaIcEE6resizeEmc(ptr noundef nonnull align 8 dereferenceable(32) %4, i64 noundef %111, i8 noundef signext 0)
          to label %127 unwind label %119

127:                                              ; preds = %126
  %128 = load ptr, ptr %4, align 8, !tbaa !12
  %129 = load i64, ptr %96, align 8, !tbaa !15
  %130 = icmp ult i64 %129, 9223372036854775807
  call void @llvm.assume(i1 %130)
  %131 = load ptr, ptr %97, align 8, !tbaa !4
  %132 = getelementptr inbounds nuw i8, ptr %131, i64 16
  %133 = load ptr, ptr %132, align 8
  %134 = invoke noundef i64 %133(ptr noundef nonnull align 8 dereferenceable(73) %97, ptr noundef nonnull %128, i64 noundef %129)
          to label %135 unwind label %139

135:                                              ; preds = %127
  %136 = load i64, ptr %96, align 8, !tbaa !15
  %137 = icmp ult i64 %136, 9223372036854775807
  call void @llvm.assume(i1 %137)
  %138 = icmp eq i64 %134, %136
  br i1 %138, label %141, label %487

139:                                              ; preds = %127
  %140 = landingpad { ptr, i32 }
          cleanup
  br label %504

141:                                              ; preds = %135, %100
  %142 = phi i64 [ %101, %100 ], [ %134, %135 ]
  %143 = icmp ult i64 %142, 9223372036854775807
  call void @llvm.assume(i1 %143)
  %144 = load ptr, ptr %4, align 8, !tbaa !12
  %145 = icmp eq ptr %144, %95
  br i1 %145, label %146, label %148

146:                                              ; preds = %141
  %147 = icmp samesign ult i64 %142, 16
  call void @llvm.assume(i1 %147)
  br label %148

148:                                              ; preds = %146, %141
  %149 = load i64, ptr %95, align 8
  %150 = select i1 %145, i64 15, i64 %149
  %151 = icmp samesign ugt i64 %150, 14
  call void @llvm.assume(i1 %151)
  %152 = icmp ult i64 %150, 9223372036854775807
  call void @llvm.assume(i1 %152)
  %153 = icmp samesign ult i64 %142, %150
  br i1 %153, label %157, label %154

154:                                              ; preds = %148
  invoke void @_ZNSt7__cxx1112basic_stringIcSt11char_traitsIcESaIcEE9_M_mutateEmmPKcm(ptr noundef nonnull align 8 dereferenceable(32) %4, i64 noundef %142, i64 noundef 0, ptr noundef null, i64 noundef 1)
          to label %155 unwind label %117

155:                                              ; preds = %154
  %156 = load ptr, ptr %4, align 8, !tbaa !12
  br label %157

157:                                              ; preds = %155, %148
  %158 = phi ptr [ %156, %155 ], [ %144, %148 ]
  %159 = add nuw nsw i64 %142, 1
  %160 = getelementptr inbounds nuw i8, ptr %158, i64 %142
  store i8 10, ptr %160, align 1, !tbaa !17
  store i64 %159, ptr %96, align 8, !tbaa !15
  %161 = load ptr, ptr %4, align 8, !tbaa !12
  %162 = getelementptr inbounds nuw i8, ptr %161, i64 %159
  store i8 0, ptr %162, align 1, !tbaa !17
  %163 = getelementptr inbounds nuw i8, ptr %6, i64 16
  %164 = getelementptr inbounds nuw i8, ptr %6, i64 8
  %165 = getelementptr inbounds nuw i8, ptr %8, i64 16
  %166 = getelementptr inbounds nuw i8, ptr %8, i64 8
  %167 = getelementptr inbounds nuw i8, ptr %0, i64 384
  %168 = getelementptr inbounds nuw i8, ptr %0, i64 392
  %169 = getelementptr inbounds nuw i8, ptr %5, i64 8
  %170 = getelementptr inbounds nuw i8, ptr %7, i64 8
  %171 = getelementptr inbounds nuw i8, ptr %0, i64 560
  %172 = getelementptr inbounds nuw i8, ptr %0, i64 552
  %173 = getelementptr inbounds nuw i8, ptr %0, i64 544
  %174 = getelementptr inbounds nuw i8, ptr %0, i64 504
  %175 = getelementptr inbounds nuw i8, ptr %0, i64 496
  %176 = getelementptr inbounds nuw i8, ptr %0, i64 41
  %177 = getelementptr inbounds nuw i8, ptr %0, i64 40
  %178 = getelementptr inbounds nuw i8, ptr %0, i64 464
  %179 = getelementptr inbounds nuw i8, ptr %0, i64 416
  %180 = getelementptr inbounds nuw i8, ptr %0, i64 400
  %181 = getelementptr inbounds nuw i8, ptr %7, i64 16
  %182 = icmp eq ptr %7, %167
  %183 = getelementptr inbounds nuw i8, ptr %5, i64 16
  br label %184

184:                                              ; preds = %483, %157
  %185 = phi i64 [ 0, %157 ], [ %484, %483 ]
  %186 = call noundef i64 @_ZNKSt7__cxx1112basic_stringIcSt11char_traitsIcESaIcEE13find_first_ofEPKcmm(ptr noundef nonnull align 8 dereferenceable(32) %4, ptr noundef nonnull @.str, i64 noundef %185, i64 noundef 2) #32
  %187 = icmp eq i64 %186, -1
  br i1 %187, label %486, label %188

188:                                              ; preds = %184
  %189 = call noundef i64 @_ZNKSt7__cxx1112basic_stringIcSt11char_traitsIcESaIcEE4findEcm(ptr noundef nonnull align 8 dereferenceable(32) %4, i8 noundef signext 61, i64 noundef %185) #32
  %190 = icmp ult i64 %189, %186
  br i1 %190, label %191, label %483

191:                                              ; preds = %188
  call void @llvm.lifetime.start.p0(ptr %5)
  call void @llvm.lifetime.start.p0(ptr %6)
  call void @llvm.experimental.noalias.scope.decl(metadata !116)
  %192 = load i64, ptr %96, align 8, !tbaa !15, !noalias !116
  %193 = icmp ult i64 %192, 9223372036854775807
  call void @llvm.assume(i1 %193)
  %194 = icmp ugt i64 %185, %192
  br i1 %194, label %195, label %197

195:                                              ; preds = %191
  invoke void (ptr, ...) @_ZSt24__throw_out_of_range_fmtPKcz(ptr noundef nonnull @.str.65, ptr noundef nonnull @.str.64, i64 noundef %185, i64 noundef %192) #33
          to label %196 unwind label %308

196:                                              ; preds = %195
  unreachable

197:                                              ; preds = %191
  %198 = sub i64 %189, %185
  store ptr %163, ptr %6, align 8, !tbaa !7, !alias.scope !116
  %199 = load ptr, ptr %4, align 8, !tbaa !12, !noalias !116
  %200 = getelementptr inbounds nuw i8, ptr %199, i64 %185
  %201 = sub nuw nsw i64 %192, %185
  %202 = call noundef i64 @llvm.umin.i64(i64 %198, i64 %201)
  call void @llvm.lifetime.start.p0(ptr %3)
  store i64 %202, ptr %3, align 8, !tbaa !16, !noalias !116
  %203 = icmp samesign ugt i64 %202, 15
  br i1 %203, label %204, label %208

204:                                              ; preds = %197
  %205 = invoke noundef ptr @_ZNSt7__cxx1112basic_stringIcSt11char_traitsIcESaIcEE9_M_createERmm(ptr noundef nonnull align 8 dereferenceable(32) %6, ptr noundef nonnull align 8 dereferenceable(8) %3, i64 noundef 0)
          to label %206 unwind label %306

206:                                              ; preds = %204
  store ptr %205, ptr %6, align 8, !tbaa !12, !alias.scope !116
  %207 = load i64, ptr %3, align 8, !tbaa !16, !noalias !116
  store i64 %207, ptr %163, align 8, !tbaa !17, !alias.scope !116
  br label %208

208:                                              ; preds = %206, %197
  %209 = phi ptr [ %205, %206 ], [ %163, %197 ]
  switch i64 %202, label %212 [
    i64 1, label %210
    i64 0, label %213
  ]

210:                                              ; preds = %208
  %211 = load i8, ptr %200, align 1, !tbaa !17
  store i8 %211, ptr %209, align 1, !tbaa !17
  br label %213

212:                                              ; preds = %208
  call void @llvm.memcpy.p0.p0.i64(ptr align 1 %209, ptr align 1 %200, i64 %202, i1 false)
  br label %213

213:                                              ; preds = %212, %210, %208
  %214 = load i64, ptr %3, align 8, !tbaa !16, !noalias !116
  store i64 %214, ptr %164, align 8, !tbaa !15, !alias.scope !116
  %215 = load ptr, ptr %6, align 8, !tbaa !12, !alias.scope !116
  %216 = getelementptr inbounds nuw i8, ptr %215, i64 %214
  store i8 0, ptr %216, align 1, !tbaa !17
  call void @llvm.lifetime.end.p0(ptr %3)
  invoke fastcc void @_ZL4trimRKNSt7__cxx1112basic_stringIcSt11char_traitsIcESaIcEEE(ptr dead_on_unwind noalias writable align 8 %5, ptr noundef nonnull align 8 dereferenceable(32) %6)
          to label %217 unwind label %310

217:                                              ; preds = %213
  %218 = load ptr, ptr %6, align 8, !tbaa !12
  %219 = icmp eq ptr %218, %163
  br i1 %219, label %220, label %223

220:                                              ; preds = %217
  %221 = load i64, ptr %164, align 8, !tbaa !15
  %222 = icmp ult i64 %221, 16
  call void @llvm.assume(i1 %222)
  br label %226

223:                                              ; preds = %217
  %224 = load i64, ptr %163, align 8, !tbaa !17
  %225 = add i64 %224, 1
  call void @_ZdlPvm(ptr noundef %218, i64 noundef %225) #30
  br label %226

226:                                              ; preds = %223, %220
  call void @llvm.lifetime.end.p0(ptr %6)
  call void @llvm.lifetime.start.p0(ptr %7)
  call void @llvm.lifetime.start.p0(ptr %8)
  %227 = add nuw i64 %189, 1
  call void @llvm.experimental.noalias.scope.decl(metadata !119)
  %228 = load i64, ptr %96, align 8, !tbaa !15, !noalias !119
  %229 = icmp ult i64 %228, 9223372036854775807
  call void @llvm.assume(i1 %229)
  %230 = icmp ult i64 %189, %228
  br i1 %230, label %233, label %231

231:                                              ; preds = %226
  invoke void (ptr, ...) @_ZSt24__throw_out_of_range_fmtPKcz(ptr noundef nonnull @.str.65, ptr noundef nonnull @.str.64, i64 noundef %227, i64 noundef %228) #33
          to label %232 unwind label %324

232:                                              ; preds = %231
  unreachable

233:                                              ; preds = %226
  %234 = sub i64 %186, %227
  store ptr %165, ptr %8, align 8, !tbaa !7, !alias.scope !119
  %235 = load ptr, ptr %4, align 8, !tbaa !12, !noalias !119
  %236 = getelementptr inbounds nuw i8, ptr %235, i64 %227
  %237 = sub nuw nsw i64 %228, %227
  %238 = call noundef i64 @llvm.umin.i64(i64 %234, i64 %237)
  call void @llvm.lifetime.start.p0(ptr %2)
  store i64 %238, ptr %2, align 8, !tbaa !16, !noalias !119
  %239 = icmp samesign ugt i64 %238, 15
  br i1 %239, label %240, label %244

240:                                              ; preds = %233
  %241 = invoke noundef ptr @_ZNSt7__cxx1112basic_stringIcSt11char_traitsIcESaIcEE9_M_createERmm(ptr noundef nonnull align 8 dereferenceable(32) %8, ptr noundef nonnull align 8 dereferenceable(8) %2, i64 noundef 0)
          to label %242 unwind label %322

242:                                              ; preds = %240
  store ptr %241, ptr %8, align 8, !tbaa !12, !alias.scope !119
  %243 = load i64, ptr %2, align 8, !tbaa !16, !noalias !119
  store i64 %243, ptr %165, align 8, !tbaa !17, !alias.scope !119
  br label %244

244:                                              ; preds = %242, %233
  %245 = phi ptr [ %241, %242 ], [ %165, %233 ]
  switch i64 %238, label %248 [
    i64 1, label %246
    i64 0, label %249
  ]

246:                                              ; preds = %244
  %247 = load i8, ptr %236, align 1, !tbaa !17
  store i8 %247, ptr %245, align 1, !tbaa !17
  br label %249

248:                                              ; preds = %244
  call void @llvm.memcpy.p0.p0.i64(ptr align 1 %245, ptr nonnull align 1 %236, i64 %238, i1 false)
  br label %249

249:                                              ; preds = %248, %246, %244
  %250 = load i64, ptr %2, align 8, !tbaa !16, !noalias !119
  store i64 %250, ptr %166, align 8, !tbaa !15, !alias.scope !119
  %251 = load ptr, ptr %8, align 8, !tbaa !12, !alias.scope !119
  %252 = getelementptr inbounds nuw i8, ptr %251, i64 %250
  store i8 0, ptr %252, align 1, !tbaa !17
  call void @llvm.lifetime.end.p0(ptr %2)
  invoke fastcc void @_ZL4trimRKNSt7__cxx1112basic_stringIcSt11char_traitsIcESaIcEEE(ptr dead_on_unwind noalias writable align 8 %7, ptr noundef nonnull align 8 dereferenceable(32) %8)
          to label %253 unwind label %326

253:                                              ; preds = %249
  %254 = load ptr, ptr %8, align 8, !tbaa !12
  %255 = icmp eq ptr %254, %165
  br i1 %255, label %256, label %259

256:                                              ; preds = %253
  %257 = load i64, ptr %166, align 8, !tbaa !15
  %258 = icmp ult i64 %257, 16
  call void @llvm.assume(i1 %258)
  br label %262

259:                                              ; preds = %253
  %260 = load i64, ptr %165, align 8, !tbaa !17
  %261 = add i64 %260, 1
  call void @_ZdlPvm(ptr noundef %254, i64 noundef %261) #30
  br label %262

262:                                              ; preds = %259, %256
  call void @llvm.lifetime.end.p0(ptr %8)
  %263 = load i64, ptr %168, align 8, !tbaa !15
  %264 = icmp eq i64 %263, 0
  %265 = load i64, ptr %169, align 8, !tbaa !15
  br i1 %264, label %266, label %348

266:                                              ; preds = %262
  %267 = icmp ult i64 %265, 9223372036854775807
  call void @llvm.assume(i1 %267)
  %268 = icmp eq i64 %265, 12
  br i1 %268, label %269, label %348

269:                                              ; preds = %266
  %270 = load ptr, ptr %5, align 8, !tbaa !12
  %271 = call i32 @bcmp(ptr noundef nonnull dereferenceable(12) %270, ptr noundef nonnull dereferenceable(12) @.str.36, i64 12)
  %272 = icmp eq i32 %271, 0
  br i1 %272, label %273, label %428

273:                                              ; preds = %269
  %274 = load ptr, ptr %167, align 8, !tbaa !12
  %275 = icmp eq ptr %274, %180
  %276 = load ptr, ptr %7, align 8, !tbaa !12
  %277 = icmp eq ptr %276, %181
  br i1 %275, label %278, label %279

278:                                              ; preds = %273
  br i1 %277, label %280, label %295

279:                                              ; preds = %273
  br i1 %277, label %280, label %293

280:                                              ; preds = %279, %278
  %281 = load i64, ptr %170, align 8, !tbaa !15
  %282 = icmp ult i64 %281, 16
  call void @llvm.assume(i1 %282)
  br i1 %182, label %304, label %283, !prof !27

283:                                              ; preds = %280
  switch i64 %281, label %286 [
    i64 0, label %287
    i64 1, label %284
  ]

284:                                              ; preds = %283
  %285 = load i8, ptr %276, align 1, !tbaa !17
  store i8 %285, ptr %274, align 1, !tbaa !17
  br label %287

286:                                              ; preds = %283
  call void @llvm.memcpy.p0.p0.i64(ptr align 1 %274, ptr align 1 %276, i64 %281, i1 false)
  br label %287

287:                                              ; preds = %286, %284, %283
  %288 = load i64, ptr %170, align 8, !tbaa !15
  %289 = icmp ult i64 %288, 9223372036854775807
  call void @llvm.assume(i1 %289)
  store i64 %288, ptr %168, align 8, !tbaa !15
  %290 = load ptr, ptr %167, align 8, !tbaa !12
  %291 = getelementptr inbounds nuw i8, ptr %290, i64 %288
  store i8 0, ptr %291, align 1, !tbaa !17
  %292 = load ptr, ptr %7, align 8, !tbaa !12
  br label %304

293:                                              ; preds = %279
  %294 = load i64, ptr %180, align 8, !tbaa !17
  br label %295

295:                                              ; preds = %293, %278
  %296 = phi ptr [ %274, %293 ], [ null, %278 ]
  %297 = phi i64 [ %294, %293 ], [ undef, %278 ]
  store ptr %276, ptr %167, align 8, !tbaa !12
  %298 = load i64, ptr %170, align 8, !tbaa !15
  %299 = icmp ult i64 %298, 9223372036854775807
  call void @llvm.assume(i1 %299)
  store i64 %298, ptr %168, align 8, !tbaa !15
  %300 = load i64, ptr %181, align 8, !tbaa !17
  store i64 %300, ptr %180, align 8, !tbaa !17
  %301 = icmp eq ptr %296, null
  br i1 %301, label %303, label %302

302:                                              ; preds = %295
  store ptr %296, ptr %7, align 8, !tbaa !12
  store i64 %297, ptr %181, align 8, !tbaa !17
  br label %304

303:                                              ; preds = %295
  store ptr %181, ptr %7, align 8, !tbaa !12
  br label %304

304:                                              ; preds = %303, %302, %287, %280
  %305 = phi ptr [ %296, %302 ], [ %181, %303 ], [ %276, %280 ], [ %292, %287 ]
  store i64 0, ptr %170, align 8, !tbaa !15
  store i8 0, ptr %305, align 1, !tbaa !17
  br label %452

306:                                              ; preds = %204
  %307 = landingpad { ptr, i32 }
          cleanup
  br label %320

308:                                              ; preds = %195
  %309 = landingpad { ptr, i32 }
          cleanup
  br label %320

310:                                              ; preds = %213
  %311 = landingpad { ptr, i32 }
          cleanup
  %312 = load ptr, ptr %6, align 8, !tbaa !12
  %313 = icmp eq ptr %312, %163
  br i1 %313, label %314, label %317

314:                                              ; preds = %310
  %315 = load i64, ptr %164, align 8, !tbaa !15
  %316 = icmp ult i64 %315, 16
  call void @llvm.assume(i1 %316)
  br label %320

317:                                              ; preds = %310
  %318 = load i64, ptr %163, align 8, !tbaa !17
  %319 = add i64 %318, 1
  call void @_ZdlPvm(ptr noundef %312, i64 noundef %319) #30
  br label %320

320:                                              ; preds = %317, %314, %308, %306
  %321 = phi { ptr, i32 } [ %311, %314 ], [ %311, %317 ], [ %307, %306 ], [ %309, %308 ]
  call void @llvm.lifetime.end.p0(ptr %6)
  br label %481

322:                                              ; preds = %240
  %323 = landingpad { ptr, i32 }
          cleanup
  br label %336

324:                                              ; preds = %231
  %325 = landingpad { ptr, i32 }
          cleanup
  br label %336

326:                                              ; preds = %249
  %327 = landingpad { ptr, i32 }
          cleanup
  %328 = load ptr, ptr %8, align 8, !tbaa !12
  %329 = icmp eq ptr %328, %165
  br i1 %329, label %330, label %333

330:                                              ; preds = %326
  %331 = load i64, ptr %166, align 8, !tbaa !15
  %332 = icmp ult i64 %331, 16
  call void @llvm.assume(i1 %332)
  br label %336

333:                                              ; preds = %326
  %334 = load i64, ptr %165, align 8, !tbaa !17
  %335 = add i64 %334, 1
  call void @_ZdlPvm(ptr noundef %328, i64 noundef %335) #30
  br label %336

336:                                              ; preds = %333, %330, %324, %322
  %337 = phi { ptr, i32 } [ %327, %330 ], [ %327, %333 ], [ %323, %322 ], [ %325, %324 ]
  call void @llvm.lifetime.end.p0(ptr %8)
  br label %471

338:                                              ; preds = %418
  %339 = landingpad { ptr, i32 }
          cleanup
  %340 = load ptr, ptr %7, align 8, !tbaa !12
  %341 = icmp eq ptr %340, %181
  br i1 %341, label %342, label %345

342:                                              ; preds = %338
  %343 = load i64, ptr %170, align 8, !tbaa !15
  %344 = icmp ult i64 %343, 16
  call void @llvm.assume(i1 %344)
  br label %471

345:                                              ; preds = %338
  %346 = load i64, ptr %181, align 8, !tbaa !17
  %347 = add i64 %346, 1
  call void @_ZdlPvm(ptr noundef %340, i64 noundef %347) #30
  br label %471

348:                                              ; preds = %266, %262
  br i1 %29, label %349, label %365

349:                                              ; preds = %348
  %350 = icmp ult i64 %265, 9223372036854775807
  call void @llvm.assume(i1 %350)
  %351 = icmp eq i64 %265, 7
  br i1 %351, label %352, label %365

352:                                              ; preds = %349
  %353 = load ptr, ptr %5, align 8, !tbaa !12
  %354 = call i32 @bcmp(ptr noundef nonnull dereferenceable(7) %353, ptr noundef nonnull dereferenceable(7) @.str.37, i64 7)
  %355 = icmp eq i32 %354, 0
  br i1 %355, label %356, label %428

356:                                              ; preds = %352
  %357 = call noundef zeroext i1 @_ZN5osgeo4proj8internal8ci_equalERKNSt7__cxx1112basic_stringIcSt11char_traitsIcESaIcEEEPKc(ptr noundef nonnull align 8 dereferenceable(32) %7, ptr noundef nonnull @.str.26) #32
  br i1 %357, label %363, label %358

358:                                              ; preds = %356
  %359 = call noundef zeroext i1 @_ZN5osgeo4proj8internal8ci_equalERKNSt7__cxx1112basic_stringIcSt11char_traitsIcESaIcEEEPKc(ptr noundef nonnull align 8 dereferenceable(32) %7, ptr noundef nonnull @.str.27) #32
  br i1 %359, label %363, label %360

360:                                              ; preds = %358
  %361 = call noundef zeroext i1 @_ZN5osgeo4proj8internal8ci_equalERKNSt7__cxx1112basic_stringIcSt11char_traitsIcESaIcEEEPKc(ptr noundef nonnull align 8 dereferenceable(32) %7, ptr noundef nonnull @.str.28) #32
  %362 = zext i1 %361 to i8
  br label %363

363:                                              ; preds = %360, %358, %356
  %364 = phi i8 [ 1, %358 ], [ 1, %356 ], [ %362, %360 ]
  store i8 %364, ptr %179, align 8, !tbaa !112
  br label %452

365:                                              ; preds = %349, %348
  %366 = icmp ult i64 %265, 9223372036854775807
  call void @llvm.assume(i1 %366)
  switch i64 %265, label %419 [
    i64 13, label %367
    i64 18, label %398
  ]

367:                                              ; preds = %365
  %368 = load ptr, ptr %5, align 8, !tbaa !12
  %369 = call i32 @bcmp(ptr noundef nonnull dereferenceable(13) %368, ptr noundef nonnull dereferenceable(13) @.str.38, i64 13)
  %370 = icmp eq i32 %369, 0
  br i1 %370, label %371, label %380

371:                                              ; preds = %367
  %372 = call noundef zeroext i1 @_ZN5osgeo4proj8internal8ci_equalERKNSt7__cxx1112basic_stringIcSt11char_traitsIcESaIcEEEPKc(ptr noundef nonnull align 8 dereferenceable(32) %7, ptr noundef nonnull @.str.26) #32
  br i1 %372, label %378, label %373

373:                                              ; preds = %371
  %374 = call noundef zeroext i1 @_ZN5osgeo4proj8internal8ci_equalERKNSt7__cxx1112basic_stringIcSt11char_traitsIcESaIcEEEPKc(ptr noundef nonnull align 8 dereferenceable(32) %7, ptr noundef nonnull @.str.27) #32
  br i1 %374, label %378, label %375

375:                                              ; preds = %373
  %376 = call noundef zeroext i1 @_ZN5osgeo4proj8internal8ci_equalERKNSt7__cxx1112basic_stringIcSt11char_traitsIcESaIcEEEPKc(ptr noundef nonnull align 8 dereferenceable(32) %7, ptr noundef nonnull @.str.28) #32
  %377 = zext i1 %376 to i8
  br label %378

378:                                              ; preds = %375, %373, %371
  %379 = phi i8 [ 1, %373 ], [ 1, %371 ], [ %377, %375 ]
  store i8 %379, ptr %174, align 8, !tbaa !122
  br label %452

380:                                              ; preds = %367
  %381 = call i32 @bcmp(ptr noundef nonnull dereferenceable(13) %368, ptr noundef nonnull dereferenceable(13) @.str.39, i64 13)
  %382 = icmp eq i32 %381, 0
  br i1 %382, label %383, label %391

383:                                              ; preds = %380
  %384 = load ptr, ptr %7, align 8, !tbaa !12
  %385 = call i64 @__isoc23_strtol(ptr noundef nonnull %384, ptr noundef null, i32 noundef 10) #32
  %386 = trunc i64 %385 to i32
  %387 = icmp sgt i32 %386, 0
  %388 = shl i64 %385, 32
  %389 = ashr exact i64 %388, 12
  %390 = select i1 %387, i64 %389, i64 -1
  store i64 %390, ptr %173, align 8, !tbaa !123
  br label %452

391:                                              ; preds = %380
  %392 = call i32 @bcmp(ptr noundef nonnull dereferenceable(13) %368, ptr noundef nonnull dereferenceable(13) @.str.40, i64 13)
  %393 = icmp eq i32 %392, 0
  br i1 %393, label %394, label %428

394:                                              ; preds = %391
  %395 = load ptr, ptr %7, align 8, !tbaa !12
  %396 = call i64 @__isoc23_strtol(ptr noundef nonnull %395, ptr noundef null, i32 noundef 10) #32
  %397 = trunc i64 %396 to i32
  store i32 %397, ptr %172, align 8, !tbaa !124
  br label %452

398:                                              ; preds = %365
  %399 = load ptr, ptr %5, align 8, !tbaa !12
  %400 = call i32 @bcmp(ptr %399, ptr nonnull @.str.41, i64 %265)
  %401 = icmp eq i32 %400, 0
  br i1 %401, label %402, label %428

402:                                              ; preds = %398
  %403 = load i64, ptr %170, align 8, !tbaa !15
  %404 = icmp ult i64 %403, 9223372036854775807
  call void @llvm.assume(i1 %404)
  switch i64 %403, label %415 [
    i64 4, label %405
    i64 14, label %410
  ]

405:                                              ; preds = %402
  %406 = load ptr, ptr %7, align 8, !tbaa !12
  %407 = call i32 @bcmp(ptr noundef nonnull dereferenceable(4) %406, ptr noundef nonnull dereferenceable(4) @.str.42, i64 4)
  %408 = icmp eq i32 %407, 0
  br i1 %408, label %409, label %415

409:                                              ; preds = %405
  store i32 0, ptr %171, align 8, !tbaa !125
  br label %452

410:                                              ; preds = %402
  %411 = load ptr, ptr %7, align 8, !tbaa !12
  %412 = call i32 @bcmp(ptr noundef nonnull dereferenceable(14) %411, ptr noundef nonnull dereferenceable(14) @.str.43, i64 14)
  %413 = icmp eq i32 %412, 0
  br i1 %413, label %414, label %415

414:                                              ; preds = %410
  store i32 1, ptr %171, align 8, !tbaa !125
  br label %452

415:                                              ; preds = %410, %405, %402
  %416 = call noundef zeroext i1 @_ZSteqIcSt11char_traitsIcESaIcEEbRKNSt7__cxx1112basic_stringIT_T0_T1_EEPKS5_(ptr noundef nonnull align 8 dereferenceable(32) %7, ptr noundef nonnull @.str.44)
  br i1 %416, label %417, label %418

417:                                              ; preds = %415
  store i32 2, ptr %171, align 8, !tbaa !125
  br label %452

418:                                              ; preds = %415
  invoke void (ptr, i32, ptr, ...) @_Z6pj_logP6pj_ctxiPKcz(ptr noundef nonnull %0, i32 noundef 1, ptr noundef nonnull @.str.45)
          to label %452 unwind label %338

419:                                              ; preds = %365
  %420 = icmp eq i64 %265, 14
  %421 = and i1 %60, %420
  br i1 %421, label %422, label %428

422:                                              ; preds = %419
  %423 = load ptr, ptr %5, align 8, !tbaa !12
  %424 = call i32 @bcmp(ptr noundef nonnull dereferenceable(14) %423, ptr noundef nonnull dereferenceable(14) @.str.46, i64 14)
  %425 = icmp eq i32 %424, 0
  br i1 %425, label %426, label %428

426:                                              ; preds = %422
  %427 = call noundef nonnull align 8 dereferenceable(32) ptr @_ZNSt7__cxx1112basic_stringIcSt11char_traitsIcESaIcEEaSEOS4_(ptr noundef nonnull align 8 dereferenceable(32) %178, ptr noundef nonnull align 8 dereferenceable(32) %7) #32
  br label %452

428:                                              ; preds = %422, %419, %398, %391, %352, %269
  br i1 %62, label %429, label %440

429:                                              ; preds = %428
  %430 = call noundef zeroext i1 @_ZSteqIcSt11char_traitsIcESaIcEEbRKNSt7__cxx1112basic_stringIT_T0_T1_EEPKS5_(ptr noundef nonnull align 8 dereferenceable(32) %5, ptr noundef nonnull @.str.47)
  br i1 %430, label %431, label %440

431:                                              ; preds = %429
  store i8 0, ptr %176, align 1, !tbaa !113
  %432 = call noundef zeroext i1 @_ZN5osgeo4proj8internal8ci_equalERKNSt7__cxx1112basic_stringIcSt11char_traitsIcESaIcEEEPKc(ptr noundef nonnull align 8 dereferenceable(32) %7, ptr noundef nonnull @.str.26) #32
  br i1 %432, label %438, label %433

433:                                              ; preds = %431
  %434 = call noundef zeroext i1 @_ZN5osgeo4proj8internal8ci_equalERKNSt7__cxx1112basic_stringIcSt11char_traitsIcESaIcEEEPKc(ptr noundef nonnull align 8 dereferenceable(32) %7, ptr noundef nonnull @.str.27) #32
  br i1 %434, label %438, label %435

435:                                              ; preds = %433
  %436 = call noundef zeroext i1 @_ZN5osgeo4proj8internal8ci_equalERKNSt7__cxx1112basic_stringIcSt11char_traitsIcESaIcEEEPKc(ptr noundef nonnull align 8 dereferenceable(32) %7, ptr noundef nonnull @.str.28) #32
  %437 = zext i1 %436 to i8
  br label %438

438:                                              ; preds = %435, %433, %431
  %439 = phi i8 [ 1, %433 ], [ 1, %431 ], [ %437, %435 ]
  store i8 %439, ptr %177, align 8, !tbaa !114
  br label %452

440:                                              ; preds = %429, %428
  br i1 %94, label %441, label %452

441:                                              ; preds = %440
  %442 = call noundef zeroext i1 @_ZSteqIcSt11char_traitsIcESaIcEEbRKNSt7__cxx1112basic_stringIT_T0_T1_EEPKS5_(ptr noundef nonnull align 8 dereferenceable(32) %5, ptr noundef nonnull @.str.48)
  br i1 %442, label %443, label %452

443:                                              ; preds = %441
  %444 = call noundef zeroext i1 @_ZN5osgeo4proj8internal8ci_equalERKNSt7__cxx1112basic_stringIcSt11char_traitsIcESaIcEEEPKc(ptr noundef nonnull align 8 dereferenceable(32) %7, ptr noundef nonnull @.str.26) #32
  br i1 %444, label %450, label %445

445:                                              ; preds = %443
  %446 = call noundef zeroext i1 @_ZN5osgeo4proj8internal8ci_equalERKNSt7__cxx1112basic_stringIcSt11char_traitsIcESaIcEEEPKc(ptr noundef nonnull align 8 dereferenceable(32) %7, ptr noundef nonnull @.str.27) #32
  br i1 %446, label %450, label %447

447:                                              ; preds = %445
  %448 = call noundef zeroext i1 @_ZN5osgeo4proj8internal8ci_equalERKNSt7__cxx1112basic_stringIcSt11char_traitsIcESaIcEEEPKc(ptr noundef nonnull align 8 dereferenceable(32) %7, ptr noundef nonnull @.str.28) #32
  %449 = zext i1 %448 to i8
  br label %450

450:                                              ; preds = %447, %445, %443
  %451 = phi i8 [ 1, %445 ], [ 1, %443 ], [ %449, %447 ]
  store i8 %451, ptr %175, align 8, !tbaa !115
  br label %452

452:                                              ; preds = %450, %441, %440, %438, %426, %418, %417, %414, %409, %394, %383, %378, %363, %304
  %453 = load ptr, ptr %7, align 8, !tbaa !12
  %454 = icmp eq ptr %453, %181
  br i1 %454, label %455, label %458

455:                                              ; preds = %452
  %456 = load i64, ptr %170, align 8, !tbaa !15
  %457 = icmp ult i64 %456, 16
  call void @llvm.assume(i1 %457)
  br label %461

458:                                              ; preds = %452
  %459 = load i64, ptr %181, align 8, !tbaa !17
  %460 = add i64 %459, 1
  call void @_ZdlPvm(ptr noundef %453, i64 noundef %460) #30
  br label %461

461:                                              ; preds = %458, %455
  call void @llvm.lifetime.end.p0(ptr %7)
  %462 = load ptr, ptr %5, align 8, !tbaa !12
  %463 = icmp eq ptr %462, %183
  br i1 %463, label %464, label %467

464:                                              ; preds = %461
  %465 = load i64, ptr %169, align 8, !tbaa !15
  %466 = icmp ult i64 %465, 16
  call void @llvm.assume(i1 %466)
  br label %470

467:                                              ; preds = %461
  %468 = load i64, ptr %183, align 8, !tbaa !17
  %469 = add i64 %468, 1
  call void @_ZdlPvm(ptr noundef %462, i64 noundef %469) #30
  br label %470

470:                                              ; preds = %467, %464
  call void @llvm.lifetime.end.p0(ptr %5)
  br label %483

471:                                              ; preds = %345, %342, %336
  %472 = phi { ptr, i32 } [ %337, %336 ], [ %339, %342 ], [ %339, %345 ]
  call void @llvm.lifetime.end.p0(ptr %7)
  %473 = load ptr, ptr %5, align 8, !tbaa !12
  %474 = icmp eq ptr %473, %183
  br i1 %474, label %475, label %478

475:                                              ; preds = %471
  %476 = load i64, ptr %169, align 8, !tbaa !15
  %477 = icmp ult i64 %476, 16
  call void @llvm.assume(i1 %477)
  br label %481

478:                                              ; preds = %471
  %479 = load i64, ptr %183, align 8, !tbaa !17
  %480 = add i64 %479, 1
  call void @_ZdlPvm(ptr noundef %473, i64 noundef %480) #30
  br label %481

481:                                              ; preds = %478, %475, %320
  %482 = phi { ptr, i32 } [ %321, %320 ], [ %472, %475 ], [ %472, %478 ]
  call void @llvm.lifetime.end.p0(ptr %5)
  br label %502

483:                                              ; preds = %470, %188
  %484 = call noundef i64 @_ZNKSt7__cxx1112basic_stringIcSt11char_traitsIcESaIcEE17find_first_not_ofEPKcmm(ptr noundef nonnull align 8 dereferenceable(32) %4, ptr noundef nonnull @.str, i64 noundef %186, i64 noundef 2) #32
  %485 = icmp eq i64 %484, -1
  br i1 %485, label %486, label %184

486:                                              ; preds = %483, %184
  br i1 %99, label %491, label %487

487:                                              ; preds = %486, %135, %112
  %488 = load ptr, ptr %97, align 8, !tbaa !4
  %489 = getelementptr inbounds nuw i8, ptr %488, i64 8
  %490 = load ptr, ptr %489, align 8
  call void %490(ptr noundef nonnull align 8 dereferenceable(73) %97) #32
  br label %491

491:                                              ; preds = %487, %486
  %492 = load ptr, ptr %4, align 8, !tbaa !12
  %493 = icmp eq ptr %492, %95
  br i1 %493, label %494, label %497

494:                                              ; preds = %491
  %495 = load i64, ptr %96, align 8, !tbaa !15
  %496 = icmp ult i64 %495, 16
  call void @llvm.assume(i1 %496)
  br label %500

497:                                              ; preds = %491
  %498 = load i64, ptr %95, align 8, !tbaa !17
  %499 = add i64 %498, 1
  call void @_ZdlPvm(ptr noundef %492, i64 noundef %499) #30
  br label %500

500:                                              ; preds = %497, %494
  call void @llvm.lifetime.end.p0(ptr %4)
  br label %501

501:                                              ; preds = %500, %1
  ret void

502:                                              ; preds = %481, %117
  %503 = phi { ptr, i32 } [ %482, %481 ], [ %118, %117 ]
  br i1 %99, label %509, label %504

504:                                              ; preds = %502, %139, %119
  %505 = phi { ptr, i32 } [ %503, %502 ], [ %120, %119 ], [ %140, %139 ]
  %506 = load ptr, ptr %97, align 8, !tbaa !4
  %507 = getelementptr inbounds nuw i8, ptr %506, i64 8
  %508 = load ptr, ptr %507, align 8
  call void %508(ptr noundef nonnull align 8 dereferenceable(73) %97) #32
  br label %509

509:                                              ; preds = %504, %502, %115
  %510 = phi { ptr, i32 } [ %116, %115 ], [ %503, %502 ], [ %505, %504 ]
  %511 = load ptr, ptr %4, align 8, !tbaa !12
  %512 = icmp eq ptr %511, %95
  br i1 %512, label %513, label %516

513:                                              ; preds = %509
  %514 = load i64, ptr %96, align 8, !tbaa !15
  %515 = icmp ult i64 %514, 16
  call void @llvm.assume(i1 %515)
  br label %519

516:                                              ; preds = %509
  %517 = load i64, ptr %95, align 8, !tbaa !17
  %518 = add i64 %517, 1
  call void @_ZdlPvm(ptr noundef %511, i64 noundef %518) #30
  br label %519

519:                                              ; preds = %516, %513
  call void @llvm.lifetime.end.p0(ptr %4)
  resume { ptr, i32 } %510
}

; Function Attrs: mustprogress sspstrong uwtable
define void @_Z26pj_get_relative_share_projB5cxx11P6pj_ctx(ptr dead_on_unwind noalias writable sret(%"class.std::__cxx11::basic_string") align 8 %0, ptr noundef %1) #0 personality ptr @__gxx_personality_v0 {
  %3 = alloca i64, align 8
  %4 = load atomic i8, ptr @_ZGVZ26pj_get_relative_share_projB5cxx11P6pj_ctxE4pathB5cxx11 acquire, align 8
  %5 = icmp eq i8 %4, 0
  br i1 %5, label %6, label %12, !prof !126

6:                                                ; preds = %2
  %7 = tail call i32 @__cxa_guard_acquire(ptr nonnull @_ZGVZ26pj_get_relative_share_projB5cxx11P6pj_ctxE4pathB5cxx11) #32
  %8 = icmp eq i32 %7, 0
  br i1 %8, label %12, label %9

9:                                                ; preds = %6
  invoke fastcc void @_ZL48pj_get_relative_share_proj_internal_check_existsB5cxx11P6pj_ctx(ptr noundef %1)
          to label %10 unwind label %31

10:                                               ; preds = %9
  %11 = tail call i32 @__cxa_atexit(ptr nonnull @_ZNSt7__cxx1112basic_stringIcSt11char_traitsIcESaIcEED2Ev, ptr nonnull @_ZZ26pj_get_relative_share_projB5cxx11P6pj_ctxE4pathB5cxx11, ptr nonnull @__dso_handle) #32
  tail call void @__cxa_guard_release(ptr nonnull @_ZGVZ26pj_get_relative_share_projB5cxx11P6pj_ctxE4pathB5cxx11) #32
  br label %12

12:                                               ; preds = %10, %6, %2
  %13 = getelementptr inbounds nuw i8, ptr %0, i64 16
  store ptr %13, ptr %0, align 8, !tbaa !7
  %14 = load ptr, ptr @_ZZ26pj_get_relative_share_projB5cxx11P6pj_ctxE4pathB5cxx11, align 8, !tbaa !12
  %15 = load i64, ptr getelementptr inbounds nuw (i8, ptr @_ZZ26pj_get_relative_share_projB5cxx11P6pj_ctxE4pathB5cxx11, i64 8), align 8, !tbaa !15
  %16 = icmp ult i64 %15, 9223372036854775807
  tail call void @llvm.assume(i1 %16)
  call void @llvm.lifetime.start.p0(ptr %3)
  store i64 %15, ptr %3, align 8, !tbaa !16
  %17 = icmp samesign ugt i64 %15, 15
  br i1 %17, label %18, label %21

18:                                               ; preds = %12
  %19 = call noundef ptr @_ZNSt7__cxx1112basic_stringIcSt11char_traitsIcESaIcEE9_M_createERmm(ptr noundef nonnull align 8 dereferenceable(32) %0, ptr noundef nonnull align 8 dereferenceable(8) %3, i64 noundef 0)
  store ptr %19, ptr %0, align 8, !tbaa !12
  %20 = load i64, ptr %3, align 8, !tbaa !16
  store i64 %20, ptr %13, align 8, !tbaa !17
  br label %21

21:                                               ; preds = %18, %12
  %22 = phi i64 [ %20, %18 ], [ %15, %12 ]
  %23 = phi ptr [ %19, %18 ], [ %13, %12 ]
  switch i64 %22, label %26 [
    i64 0, label %24
    i64 -1, label %28
  ]

24:                                               ; preds = %21
  %25 = load i8, ptr %14, align 1, !tbaa !17
  store i8 %25, ptr %23, align 1, !tbaa !17
  br label %28

26:                                               ; preds = %21
  %27 = add nuw i64 %22, 1
  call void @llvm.memcpy.p0.p0.i64(ptr noundef nonnull align 1 dereferenceable(1) %23, ptr noundef nonnull align 1 dereferenceable(1) %14, i64 %27, i1 false)
  br label %28

28:                                               ; preds = %26, %24, %21
  %29 = load i64, ptr %3, align 8, !tbaa !16
  %30 = getelementptr inbounds nuw i8, ptr %0, i64 8
  store i64 %29, ptr %30, align 8, !tbaa !15
  call void @llvm.lifetime.end.p0(ptr %3)
  ret void

31:                                               ; preds = %9
  %32 = landingpad { ptr, i32 }
          cleanup
  tail call void @__cxa_guard_abort(ptr nonnull @_ZGVZ26pj_get_relative_share_projB5cxx11P6pj_ctxE4pathB5cxx11) #32
  resume { ptr, i32 } %32
}

; Function Attrs: nofree nounwind
declare i32 @__cxa_guard_acquire(ptr) local_unnamed_addr #13

; Function Attrs: mustprogress sspstrong uwtable
define internal fastcc void @_ZL48pj_get_relative_share_proj_internal_check_existsB5cxx11P6pj_ctx(ptr noundef %0) unnamed_addr #0 personality ptr @__gxx_personality_v0 {
  %2 = alloca %struct.stat, align 8
  %3 = alloca i64, align 8
  %4 = alloca i64, align 8
  %5 = alloca %struct.Dl_info, align 8
  %6 = alloca %"class.std::__cxx11::basic_string", align 8
  %7 = alloca %"class.std::__cxx11::basic_string", align 8
  %8 = alloca %"class.std::__cxx11::basic_string", align 8
  %9 = alloca %"class.std::__cxx11::basic_string", align 8
  %10 = alloca %"class.std::__cxx11::basic_string", align 8
  %11 = icmp eq ptr %0, null
  br i1 %11, label %12, label %14

12:                                               ; preds = %1
  %13 = tail call noundef ptr @_Z18pj_get_default_ctxv()
  br label %14

14:                                               ; preds = %12, %1
  %15 = phi ptr [ %13, %12 ], [ %0, %1 ]
  call void @llvm.lifetime.start.p0(ptr %10)
  tail call void @llvm.experimental.noalias.scope.decl(metadata !127)
  call void @llvm.lifetime.start.p0(ptr %5)
  %16 = call i32 @dladdr(ptr noundef nonnull @_Z26pj_get_relative_share_projB5cxx11P6pj_ctx, ptr noundef nonnull %5) #32, !noalias !127
  %17 = icmp eq i32 %16, 0
  br i1 %17, label %18, label %21

18:                                               ; preds = %14
  %19 = getelementptr inbounds nuw i8, ptr %10, i64 16
  store ptr %19, ptr %10, align 8, !tbaa !7, !alias.scope !127
  %20 = getelementptr inbounds nuw i8, ptr %10, i64 8
  store i64 0, ptr %20, align 8, !tbaa !15, !alias.scope !127
  store i8 0, ptr %19, align 8, !tbaa !17, !alias.scope !127
  br label %268

21:                                               ; preds = %14
  %22 = load ptr, ptr %5, align 8, !tbaa !130, !noalias !127
  %23 = getelementptr inbounds nuw i8, ptr %10, i64 16
  store ptr %23, ptr %10, align 8, !tbaa !7, !alias.scope !127
  %24 = icmp eq ptr %22, null
  br i1 %24, label %25, label %26

25:                                               ; preds = %21
  call void @_ZSt19__throw_logic_errorPKc(ptr noundef nonnull @.str.67) #33
  unreachable

26:                                               ; preds = %21
  %27 = call noundef i64 @strlen(ptr noundef nonnull dereferenceable(1) %22) #32
  call void @llvm.lifetime.start.p0(ptr %4)
  store i64 %27, ptr %4, align 8, !tbaa !16, !noalias !127
  %28 = icmp ugt i64 %27, 15
  br i1 %28, label %29, label %32

29:                                               ; preds = %26
  %30 = call noundef ptr @_ZNSt7__cxx1112basic_stringIcSt11char_traitsIcESaIcEE9_M_createERmm(ptr noundef nonnull align 8 dereferenceable(32) %10, ptr noundef nonnull align 8 dereferenceable(8) %4, i64 noundef 0)
  store ptr %30, ptr %10, align 8, !tbaa !12, !alias.scope !127
  %31 = load i64, ptr %4, align 8, !tbaa !16, !noalias !127
  store i64 %31, ptr %23, align 8, !tbaa !17, !alias.scope !127
  br label %32

32:                                               ; preds = %29, %26
  %33 = phi ptr [ %30, %29 ], [ %23, %26 ]
  switch i64 %27, label %36 [
    i64 1, label %34
    i64 0, label %37
  ]

34:                                               ; preds = %32
  %35 = load i8, ptr %22, align 1, !tbaa !17
  store i8 %35, ptr %33, align 1, !tbaa !17
  br label %37

36:                                               ; preds = %32
  call void @llvm.memcpy.p0.p0.i64(ptr align 1 %33, ptr nonnull align 1 %22, i64 %27, i1 false)
  br label %37

37:                                               ; preds = %36, %34, %32
  %38 = load i64, ptr %4, align 8, !tbaa !16, !noalias !127
  %39 = getelementptr inbounds nuw i8, ptr %10, i64 8
  store i64 %38, ptr %39, align 8, !tbaa !15, !alias.scope !127
  %40 = load ptr, ptr %10, align 8, !tbaa !12, !alias.scope !127
  %41 = getelementptr inbounds nuw i8, ptr %40, i64 %38
  store i8 0, ptr %41, align 1, !tbaa !17
  call void @llvm.lifetime.end.p0(ptr %4)
  call void @llvm.lifetime.start.p0(ptr %6)
  call void @llvm.lifetime.start.p0(ptr %7)
  %42 = getelementptr inbounds nuw i8, ptr %7, i64 16
  store ptr %42, ptr %7, align 8, !tbaa !7, !noalias !127
  store i64 3399705549962043951, ptr %42, align 8, !noalias !127
  %43 = getelementptr inbounds nuw i8, ptr %7, i64 8
  store i64 8, ptr %43, align 8, !tbaa !15, !noalias !127
  %44 = getelementptr inbounds nuw i8, ptr %7, i64 24
  store i8 0, ptr %44, align 8, !tbaa !17, !noalias !127
  call void @llvm.lifetime.start.p0(ptr %8)
  %45 = getelementptr inbounds nuw i8, ptr %8, i64 16
  store ptr %45, ptr %8, align 8, !tbaa !7, !noalias !127
  store i8 47, ptr %45, align 8, !tbaa !17, !noalias !127
  %46 = getelementptr inbounds nuw i8, ptr %8, i64 8
  store i64 1, ptr %46, align 8, !tbaa !15, !noalias !127
  %47 = getelementptr inbounds nuw i8, ptr %8, i64 17
  store i8 0, ptr %47, align 1, !tbaa !17, !noalias !127
  invoke void @_ZN5osgeo4proj8internal10replaceAllERKNSt7__cxx1112basic_stringIcSt11char_traitsIcESaIcEEES9_S9_(ptr dead_on_unwind nonnull writable sret(%"class.std::__cxx11::basic_string") align 8 %6, ptr noundef nonnull align 8 dereferenceable(32) %10, ptr noundef nonnull align 8 dereferenceable(32) %7, ptr noundef nonnull align 8 dereferenceable(32) %8)
          to label %48 unwind label %131

48:                                               ; preds = %37
  %49 = load ptr, ptr %10, align 8, !tbaa !12, !alias.scope !127
  %50 = icmp eq ptr %49, %23
  br i1 %50, label %51, label %57

51:                                               ; preds = %48
  %52 = load i64, ptr %39, align 8, !tbaa !15, !alias.scope !127
  %53 = icmp ult i64 %52, 16
  call void @llvm.assume(i1 %53)
  %54 = load ptr, ptr %6, align 8, !tbaa !12, !noalias !127
  %55 = getelementptr inbounds nuw i8, ptr %6, i64 16
  %56 = icmp eq ptr %54, %55
  br i1 %56, label %61, label %77

57:                                               ; preds = %48
  %58 = load ptr, ptr %6, align 8, !tbaa !12, !noalias !127
  %59 = getelementptr inbounds nuw i8, ptr %6, i64 16
  %60 = icmp eq ptr %58, %59
  br i1 %60, label %61, label %75

61:                                               ; preds = %57, %51
  %62 = phi ptr [ %58, %57 ], [ %54, %51 ]
  %63 = getelementptr inbounds nuw i8, ptr %6, i64 8
  %64 = load i64, ptr %63, align 8, !tbaa !15, !noalias !127
  %65 = icmp ult i64 %64, 16
  call void @llvm.assume(i1 %65)
  switch i64 %64, label %68 [
    i64 0, label %69
    i64 1, label %66
  ]

66:                                               ; preds = %61
  %67 = load i8, ptr %62, align 1, !tbaa !17
  store i8 %67, ptr %49, align 1, !tbaa !17
  br label %69

68:                                               ; preds = %61
  call void @llvm.memcpy.p0.p0.i64(ptr align 1 %49, ptr align 1 %62, i64 %64, i1 false)
  br label %69

69:                                               ; preds = %68, %66, %61
  %70 = load i64, ptr %63, align 8, !tbaa !15, !noalias !127
  %71 = icmp ult i64 %70, 9223372036854775807
  call void @llvm.assume(i1 %71)
  store i64 %70, ptr %39, align 8, !tbaa !15, !alias.scope !127
  %72 = load ptr, ptr %10, align 8, !tbaa !12, !alias.scope !127
  %73 = getelementptr inbounds nuw i8, ptr %72, i64 %70
  store i8 0, ptr %73, align 1, !tbaa !17
  %74 = load ptr, ptr %6, align 8, !tbaa !12, !noalias !127
  br label %89

75:                                               ; preds = %57
  %76 = load i64, ptr %23, align 8, !tbaa !17, !alias.scope !127
  br label %77

77:                                               ; preds = %75, %51
  %78 = phi ptr [ %59, %75 ], [ %55, %51 ]
  %79 = phi ptr [ %58, %75 ], [ %54, %51 ]
  %80 = phi ptr [ %49, %75 ], [ null, %51 ]
  %81 = phi i64 [ %76, %75 ], [ undef, %51 ]
  store ptr %79, ptr %10, align 8, !tbaa !12, !alias.scope !127
  %82 = getelementptr inbounds nuw i8, ptr %6, i64 8
  %83 = load i64, ptr %82, align 8, !tbaa !15, !noalias !127
  %84 = icmp ult i64 %83, 9223372036854775807
  call void @llvm.assume(i1 %84)
  store i64 %83, ptr %39, align 8, !tbaa !15, !alias.scope !127
  %85 = load i64, ptr %78, align 8, !tbaa !17, !noalias !127
  store i64 %85, ptr %23, align 8, !tbaa !17, !alias.scope !127
  %86 = icmp eq ptr %80, null
  br i1 %86, label %88, label %87

87:                                               ; preds = %77
  store ptr %80, ptr %6, align 8, !tbaa !12, !noalias !127
  store i64 %81, ptr %78, align 8, !tbaa !17, !noalias !127
  br label %89

88:                                               ; preds = %77
  store ptr %78, ptr %6, align 8, !tbaa !12, !noalias !127
  br label %89

89:                                               ; preds = %88, %87, %69
  %90 = phi ptr [ %80, %87 ], [ %78, %88 ], [ %74, %69 ]
  %91 = getelementptr inbounds nuw i8, ptr %6, i64 8
  store i64 0, ptr %91, align 8, !tbaa !15, !noalias !127
  store i8 0, ptr %90, align 1, !tbaa !17
  %92 = load ptr, ptr %6, align 8, !tbaa !12, !noalias !127
  %93 = getelementptr inbounds nuw i8, ptr %6, i64 16
  %94 = icmp eq ptr %92, %93
  br i1 %94, label %95, label %98

95:                                               ; preds = %89
  %96 = load i64, ptr %91, align 8, !tbaa !15, !noalias !127
  %97 = icmp ult i64 %96, 16
  call void @llvm.assume(i1 %97)
  br label %101

98:                                               ; preds = %89
  %99 = load i64, ptr %93, align 8, !tbaa !17, !noalias !127
  %100 = add i64 %99, 1
  call void @_ZdlPvm(ptr noundef %92, i64 noundef %100) #30
  br label %101

101:                                              ; preds = %98, %95
  %102 = load ptr, ptr %8, align 8, !tbaa !12, !noalias !127
  %103 = icmp eq ptr %102, %45
  br i1 %103, label %104, label %107

104:                                              ; preds = %101
  %105 = load i64, ptr %46, align 8, !tbaa !15, !noalias !127
  %106 = icmp ult i64 %105, 16
  call void @llvm.assume(i1 %106)
  br label %110

107:                                              ; preds = %101
  %108 = load i64, ptr %45, align 8, !tbaa !17, !noalias !127
  %109 = add i64 %108, 1
  call void @_ZdlPvm(ptr noundef %102, i64 noundef %109) #30
  br label %110

110:                                              ; preds = %107, %104
  call void @llvm.lifetime.end.p0(ptr %8)
  %111 = load ptr, ptr %7, align 8, !tbaa !12, !noalias !127
  %112 = icmp eq ptr %111, %42
  br i1 %112, label %113, label %116

113:                                              ; preds = %110
  %114 = load i64, ptr %43, align 8, !tbaa !15, !noalias !127
  %115 = icmp ult i64 %114, 16
  call void @llvm.assume(i1 %115)
  br label %119

116:                                              ; preds = %110
  %117 = load i64, ptr %42, align 8, !tbaa !17, !noalias !127
  %118 = add i64 %117, 1
  call void @_ZdlPvm(ptr noundef %111, i64 noundef %118) #30
  br label %119

119:                                              ; preds = %116, %113
  call void @llvm.lifetime.end.p0(ptr %7)
  call void @llvm.lifetime.end.p0(ptr %6)
  %120 = call noundef i64 @_ZNKSt7__cxx1112basic_stringIcSt11char_traitsIcESaIcEE4findEcm(ptr noundef nonnull align 8 dereferenceable(32) %10, i8 noundef signext 47, i64 noundef 0) #32
  %121 = icmp eq i64 %120, -1
  br i1 %121, label %122, label %156

122:                                              ; preds = %119
  %123 = invoke noalias noundef nonnull dereferenceable(1025) ptr @_Znwm(i64 noundef 1025) #34
          to label %124 unwind label %151

124:                                              ; preds = %122
  call void @llvm.memset.p0.i64(ptr noundef nonnull align 1 dereferenceable(1025) %123, i8 0, i64 1025, i1 false)
  %125 = call i64 @readlink(ptr noundef nonnull @.str.53, ptr noundef nonnull %123, i64 noundef 1024) #32
  %126 = icmp ult i64 %125, 1024
  br i1 %126, label %127, label %155

127:                                              ; preds = %124
  %128 = load i64, ptr %39, align 8, !tbaa !15, !alias.scope !127
  %129 = icmp ult i64 %128, 9223372036854775807
  call void @llvm.assume(i1 %129)
  %130 = invoke noundef nonnull align 8 dereferenceable(32) ptr @_ZNSt7__cxx1112basic_stringIcSt11char_traitsIcESaIcEE10_M_replaceEmmPKcm(ptr noundef nonnull align 8 dereferenceable(32) %10, i64 noundef 0, i64 noundef %128, ptr noundef nonnull %123, i64 noundef %125)
          to label %155 unwind label %153

131:                                              ; preds = %37
  %132 = landingpad { ptr, i32 }
          cleanup
  %133 = load ptr, ptr %8, align 8, !tbaa !12, !noalias !127
  %134 = icmp eq ptr %133, %45
  br i1 %134, label %135, label %138

135:                                              ; preds = %131
  %136 = load i64, ptr %46, align 8, !tbaa !15, !noalias !127
  %137 = icmp ult i64 %136, 16
  call void @llvm.assume(i1 %137)
  br label %141

138:                                              ; preds = %131
  %139 = load i64, ptr %45, align 8, !tbaa !17, !noalias !127
  %140 = add i64 %139, 1
  call void @_ZdlPvm(ptr noundef %133, i64 noundef %140) #30
  br label %141

141:                                              ; preds = %138, %135
  call void @llvm.lifetime.end.p0(ptr %8)
  %142 = load ptr, ptr %7, align 8, !tbaa !12, !noalias !127
  %143 = icmp eq ptr %142, %42
  br i1 %143, label %144, label %147

144:                                              ; preds = %141
  %145 = load i64, ptr %43, align 8, !tbaa !15, !noalias !127
  %146 = icmp ult i64 %145, 16
  call void @llvm.assume(i1 %146)
  br label %150

147:                                              ; preds = %141
  %148 = load i64, ptr %42, align 8, !tbaa !17, !noalias !127
  %149 = add i64 %148, 1
  call void @_ZdlPvm(ptr noundef %142, i64 noundef %149) #30
  br label %150

150:                                              ; preds = %147, %144
  call void @llvm.lifetime.end.p0(ptr %7)
  call void @llvm.lifetime.end.p0(ptr %6)
  br label %255

151:                                              ; preds = %122
  %152 = landingpad { ptr, i32 }
          cleanup
  br label %255

153:                                              ; preds = %127
  %154 = landingpad { ptr, i32 }
          cleanup
  call void @_ZdlPvm(ptr noundef nonnull %123, i64 noundef 1025) #30
  br label %255

155:                                              ; preds = %127, %124
  call void @_ZdlPvm(ptr noundef nonnull %123, i64 noundef 1025) #30
  br label %156

156:                                              ; preds = %155, %119
  %157 = load i64, ptr %39, align 8, !tbaa !15, !alias.scope !127
  %158 = icmp ult i64 %157, 9223372036854775807
  call void @llvm.assume(i1 %158)
  %159 = icmp samesign ult i64 %157, 2
  br i1 %159, label %231, label %160

160:                                              ; preds = %156
  %161 = load ptr, ptr %10, align 8, !tbaa !12, !alias.scope !127
  %162 = call i32 @bcmp(ptr noundef nonnull dereferenceable(2) %161, ptr noundef nonnull dereferenceable(2) @.str.54, i64 2)
  %163 = icmp eq i32 %162, 0
  br i1 %163, label %164, label %231

164:                                              ; preds = %160
  call void @llvm.lifetime.start.p0(ptr %9)
  call void @llvm.experimental.noalias.scope.decl(metadata !132)
  %165 = getelementptr inbounds nuw i8, ptr %9, i64 16
  store ptr %165, ptr %9, align 8, !tbaa !7, !alias.scope !132, !noalias !127
  %166 = getelementptr inbounds nuw i8, ptr %161, i64 2
  %167 = add nsw i64 %157, -2
  call void @llvm.lifetime.start.p0(ptr %3)
  store i64 %167, ptr %3, align 8, !tbaa !16, !noalias !135
  %168 = icmp samesign ugt i64 %167, 15
  br i1 %168, label %169, label %173

169:                                              ; preds = %164
  %170 = invoke noundef ptr @_ZNSt7__cxx1112basic_stringIcSt11char_traitsIcESaIcEE9_M_createERmm(ptr noundef nonnull align 8 dereferenceable(32) %9, ptr noundef nonnull align 8 dereferenceable(8) %3, i64 noundef 0)
          to label %171 unwind label %229

171:                                              ; preds = %169
  store ptr %170, ptr %9, align 8, !tbaa !12, !alias.scope !132, !noalias !127
  %172 = load i64, ptr %3, align 8, !tbaa !16, !noalias !135
  store i64 %172, ptr %165, align 8, !tbaa !17, !alias.scope !132, !noalias !127
  br label %173

173:                                              ; preds = %171, %164
  %174 = phi ptr [ %170, %171 ], [ %165, %164 ]
  switch i64 %157, label %177 [
    i64 3, label %175
    i64 2, label %178
  ]

175:                                              ; preds = %173
  %176 = load i8, ptr %166, align 1, !tbaa !17
  store i8 %176, ptr %174, align 1, !tbaa !17
  br label %178

177:                                              ; preds = %173
  call void @llvm.memcpy.p0.p0.i64(ptr align 1 %174, ptr nonnull align 1 %166, i64 %167, i1 false)
  br label %178

178:                                              ; preds = %177, %175, %173
  %179 = load i64, ptr %3, align 8, !tbaa !16, !noalias !135
  %180 = getelementptr inbounds nuw i8, ptr %9, i64 8
  store i64 %179, ptr %180, align 8, !tbaa !15, !alias.scope !132, !noalias !127
  %181 = load ptr, ptr %9, align 8, !tbaa !12, !alias.scope !132, !noalias !127
  %182 = getelementptr inbounds nuw i8, ptr %181, i64 %179
  store i8 0, ptr %182, align 1, !tbaa !17
  call void @llvm.lifetime.end.p0(ptr %3)
  %183 = load ptr, ptr %10, align 8, !tbaa !12, !alias.scope !127
  %184 = icmp eq ptr %183, %23
  br i1 %184, label %185, label %190

185:                                              ; preds = %178
  %186 = load i64, ptr %39, align 8, !tbaa !15, !alias.scope !127
  %187 = icmp ult i64 %186, 16
  call void @llvm.assume(i1 %187)
  %188 = load ptr, ptr %9, align 8, !tbaa !12, !noalias !127
  %189 = icmp eq ptr %188, %165
  br i1 %189, label %193, label %208

190:                                              ; preds = %178
  %191 = load ptr, ptr %9, align 8, !tbaa !12, !noalias !127
  %192 = icmp eq ptr %191, %165
  br i1 %192, label %193, label %206

193:                                              ; preds = %190, %185
  %194 = phi ptr [ %191, %190 ], [ %188, %185 ]
  %195 = load i64, ptr %180, align 8, !tbaa !15, !noalias !127
  %196 = icmp ult i64 %195, 16
  call void @llvm.assume(i1 %196)
  switch i64 %195, label %199 [
    i64 0, label %200
    i64 1, label %197
  ]

197:                                              ; preds = %193
  %198 = load i8, ptr %194, align 1, !tbaa !17
  store i8 %198, ptr %183, align 1, !tbaa !17
  br label %200

199:                                              ; preds = %193
  call void @llvm.memcpy.p0.p0.i64(ptr align 1 %183, ptr align 1 %194, i64 %195, i1 false)
  br label %200

200:                                              ; preds = %199, %197, %193
  %201 = load i64, ptr %180, align 8, !tbaa !15, !noalias !127
  %202 = icmp ult i64 %201, 9223372036854775807
  call void @llvm.assume(i1 %202)
  store i64 %201, ptr %39, align 8, !tbaa !15, !alias.scope !127
  %203 = load ptr, ptr %10, align 8, !tbaa !12, !alias.scope !127
  %204 = getelementptr inbounds nuw i8, ptr %203, i64 %201
  store i8 0, ptr %204, align 1, !tbaa !17
  %205 = load ptr, ptr %9, align 8, !tbaa !12, !noalias !127
  br label %218

206:                                              ; preds = %190
  %207 = load i64, ptr %23, align 8, !tbaa !17, !alias.scope !127
  br label %208

208:                                              ; preds = %206, %185
  %209 = phi ptr [ %191, %206 ], [ %188, %185 ]
  %210 = phi ptr [ %183, %206 ], [ null, %185 ]
  %211 = phi i64 [ %207, %206 ], [ undef, %185 ]
  store ptr %209, ptr %10, align 8, !tbaa !12, !alias.scope !127
  %212 = load i64, ptr %180, align 8, !tbaa !15, !noalias !127
  %213 = icmp ult i64 %212, 9223372036854775807
  call void @llvm.assume(i1 %213)
  store i64 %212, ptr %39, align 8, !tbaa !15, !alias.scope !127
  %214 = load i64, ptr %165, align 8, !tbaa !17, !noalias !127
  store i64 %214, ptr %23, align 8, !tbaa !17, !alias.scope !127
  %215 = icmp eq ptr %210, null
  br i1 %215, label %217, label %216

216:                                              ; preds = %208
  store ptr %210, ptr %9, align 8, !tbaa !12, !noalias !127
  store i64 %211, ptr %165, align 8, !tbaa !17, !noalias !127
  br label %218

217:                                              ; preds = %208
  store ptr %165, ptr %9, align 8, !tbaa !12, !noalias !127
  br label %218

218:                                              ; preds = %217, %216, %200
  %219 = phi ptr [ %210, %216 ], [ %165, %217 ], [ %205, %200 ]
  store i64 0, ptr %180, align 8, !tbaa !15, !noalias !127
  store i8 0, ptr %219, align 1, !tbaa !17
  %220 = load ptr, ptr %9, align 8, !tbaa !12, !noalias !127
  %221 = icmp eq ptr %220, %165
  br i1 %221, label %222, label %225

222:                                              ; preds = %218
  %223 = load i64, ptr %180, align 8, !tbaa !15, !noalias !127
  %224 = icmp ult i64 %223, 16
  call void @llvm.assume(i1 %224)
  br label %228

225:                                              ; preds = %218
  %226 = load i64, ptr %165, align 8, !tbaa !17, !noalias !127
  %227 = add i64 %226, 1
  call void @_ZdlPvm(ptr noundef %220, i64 noundef %227) #30
  br label %228

228:                                              ; preds = %225, %222
  call void @llvm.lifetime.end.p0(ptr %9)
  br label %231

229:                                              ; preds = %169
  %230 = landingpad { ptr, i32 }
          cleanup
  call void @llvm.lifetime.end.p0(ptr %9)
  br label %255

231:                                              ; preds = %228, %160, %156
  %232 = call noundef i64 @_ZNKSt7__cxx1112basic_stringIcSt11char_traitsIcESaIcEE5rfindEcm(ptr noundef nonnull align 8 dereferenceable(32) %10, i8 noundef signext 47, i64 noundef -1) #32
  %233 = icmp eq i64 %232, -1
  br i1 %233, label %240, label %236

234:                                              ; preds = %253, %251, %246, %240, %236
  %235 = landingpad { ptr, i32 }
          cleanup
  br label %255

236:                                              ; preds = %231
  invoke void @_ZNSt7__cxx1112basic_stringIcSt11char_traitsIcESaIcEE6resizeEmc(ptr noundef nonnull align 8 dereferenceable(32) %10, i64 noundef %232, i8 noundef signext 0)
          to label %237 unwind label %234

237:                                              ; preds = %236
  %238 = call noundef i64 @_ZNKSt7__cxx1112basic_stringIcSt11char_traitsIcESaIcEE5rfindEcm(ptr noundef nonnull align 8 dereferenceable(32) %10, i8 noundef signext 47, i64 noundef -1) #32
  %239 = icmp eq i64 %238, -1
  br i1 %239, label %240, label %246

240:                                              ; preds = %237, %231
  %241 = phi ptr [ @.str.55, %231 ], [ @.str.56, %237 ]
  %242 = phi i64 [ 13, %231 ], [ 10, %237 ]
  %243 = load i64, ptr %39, align 8, !tbaa !15, !alias.scope !127
  %244 = icmp ult i64 %243, 9223372036854775807
  call void @llvm.assume(i1 %244)
  %245 = invoke noundef nonnull align 8 dereferenceable(32) ptr @_ZNSt7__cxx1112basic_stringIcSt11char_traitsIcESaIcEE10_M_replaceEmmPKcm(ptr noundef nonnull align 8 dereferenceable(32) %10, i64 noundef 0, i64 noundef %243, ptr noundef nonnull %241, i64 noundef %242)
          to label %268 unwind label %234

246:                                              ; preds = %237
  invoke void @_ZNSt7__cxx1112basic_stringIcSt11char_traitsIcESaIcEE6resizeEmc(ptr noundef nonnull align 8 dereferenceable(32) %10, i64 noundef %238, i8 noundef signext 0)
          to label %247 unwind label %234

247:                                              ; preds = %246
  %248 = load i64, ptr %39, align 8, !tbaa !15, !alias.scope !127
  %249 = icmp ult i64 %248, 9223372036854775807
  call void @llvm.assume(i1 %249)
  %250 = icmp samesign ugt i64 %248, 9223372036854775795
  br i1 %250, label %251, label %253

251:                                              ; preds = %247
  invoke void @_ZSt20__throw_length_errorPKc(ptr noundef nonnull @.str.68) #33
          to label %252 unwind label %234

252:                                              ; preds = %251
  unreachable

253:                                              ; preds = %247
  %254 = invoke noundef nonnull align 8 dereferenceable(32) ptr @_ZNSt7__cxx1112basic_stringIcSt11char_traitsIcESaIcEE9_M_appendEPKcm(ptr noundef nonnull align 8 dereferenceable(32) %10, ptr noundef nonnull @.str.57, i64 noundef 11)
          to label %268 unwind label %234

255:                                              ; preds = %234, %229, %153, %151, %150
  %256 = phi { ptr, i32 } [ %235, %234 ], [ %230, %229 ], [ %132, %150 ], [ %154, %153 ], [ %152, %151 ]
  %257 = load ptr, ptr %10, align 8, !tbaa !12, !alias.scope !127
  %258 = icmp eq ptr %257, %23
  br i1 %258, label %259, label %262

259:                                              ; preds = %255
  %260 = load i64, ptr %39, align 8, !tbaa !15, !alias.scope !127
  %261 = icmp ult i64 %260, 16
  call void @llvm.assume(i1 %261)
  br label %267

262:                                              ; preds = %255
  %263 = load i64, ptr %23, align 8, !tbaa !17, !alias.scope !127
  %264 = add i64 %263, 1
  call void @_ZdlPvm(ptr noundef %257, i64 noundef %264) #30
  br label %267

265:                                              ; preds = %311, %267
  %266 = phi { ptr, i32 } [ %256, %267 ], [ %301, %311 ]
  resume { ptr, i32 } %266

267:                                              ; preds = %262, %259
  call void @llvm.lifetime.end.p0(ptr %5)
  br label %265

268:                                              ; preds = %253, %240, %18
  call void @llvm.lifetime.end.p0(ptr %5)
  %269 = getelementptr inbounds nuw i8, ptr %10, i64 8
  %270 = load i64, ptr %269, align 8, !tbaa !15
  %271 = icmp eq i64 %270, 0
  br i1 %271, label %312, label %272

272:                                              ; preds = %268
  %273 = load ptr, ptr %10, align 8, !tbaa !12
  %274 = getelementptr inbounds nuw i8, ptr %15, i64 272
  %275 = load ptr, ptr %274, align 8, !tbaa !89
  %276 = icmp eq ptr %275, null
  br i1 %276, label %283, label %277

277:                                              ; preds = %272
  %278 = getelementptr inbounds nuw i8, ptr %15, i64 304
  %279 = load ptr, ptr %278, align 8, !tbaa !81
  %280 = invoke noundef i32 %275(ptr noundef nonnull %15, ptr noundef %273, ptr noundef %279)
          to label %281 unwind label %300

281:                                              ; preds = %277
  %282 = icmp eq i32 %280, 0
  br i1 %282, label %312, label %286

283:                                              ; preds = %272
  call void @llvm.lifetime.start.p0(ptr %2)
  %284 = call i32 @stat(ptr noundef %273, ptr noundef nonnull %2) #32
  %285 = icmp eq i32 %284, 0
  call void @llvm.lifetime.end.p0(ptr %2)
  br i1 %285, label %286, label %312

286:                                              ; preds = %283, %281
  store ptr getelementptr inbounds nuw (i8, ptr @_ZZ26pj_get_relative_share_projB5cxx11P6pj_ctxE4pathB5cxx11, i64 16), ptr @_ZZ26pj_get_relative_share_projB5cxx11P6pj_ctxE4pathB5cxx11, align 8, !tbaa !7
  %287 = load ptr, ptr %10, align 8, !tbaa !12
  %288 = getelementptr inbounds nuw i8, ptr %10, i64 16
  %289 = icmp eq ptr %287, %288
  br i1 %289, label %290, label %294

290:                                              ; preds = %286
  %291 = load i64, ptr %269, align 8, !tbaa !15
  %292 = icmp ult i64 %291, 16
  call void @llvm.assume(i1 %292)
  %293 = add nuw nsw i64 %291, 1
  call void @llvm.memcpy.p0.p0.i64(ptr noundef nonnull align 8 dereferenceable(1) getelementptr inbounds nuw (i8, ptr @_ZZ26pj_get_relative_share_projB5cxx11P6pj_ctxE4pathB5cxx11, i64 16), ptr noundef nonnull align 8 dereferenceable(1) %288, i64 %293, i1 false)
  br label %297

294:                                              ; preds = %286
  store ptr %287, ptr @_ZZ26pj_get_relative_share_projB5cxx11P6pj_ctxE4pathB5cxx11, align 8, !tbaa !12
  %295 = load i64, ptr %288, align 8, !tbaa !17
  store i64 %295, ptr getelementptr inbounds nuw (i8, ptr @_ZZ26pj_get_relative_share_projB5cxx11P6pj_ctxE4pathB5cxx11, i64 16), align 8, !tbaa !17
  %296 = load i64, ptr %269, align 8, !tbaa !15
  br label %297

297:                                              ; preds = %294, %290
  %298 = phi i64 [ %291, %290 ], [ %296, %294 ]
  %299 = icmp ult i64 %298, 9223372036854775807
  call void @llvm.assume(i1 %299)
  store i64 %298, ptr getelementptr inbounds nuw (i8, ptr @_ZZ26pj_get_relative_share_projB5cxx11P6pj_ctxE4pathB5cxx11, i64 8), align 8, !tbaa !15
  store i64 0, ptr %269, align 8, !tbaa !15
  br label %316

300:                                              ; preds = %277
  %301 = landingpad { ptr, i32 }
          cleanup
  %302 = load ptr, ptr %10, align 8, !tbaa !12
  %303 = getelementptr inbounds nuw i8, ptr %10, i64 16
  %304 = icmp eq ptr %302, %303
  br i1 %304, label %305, label %308

305:                                              ; preds = %300
  %306 = load i64, ptr %269, align 8, !tbaa !15
  %307 = icmp ult i64 %306, 16
  call void @llvm.assume(i1 %307)
  br label %311

308:                                              ; preds = %300
  %309 = load i64, ptr %303, align 8, !tbaa !17
  %310 = add i64 %309, 1
  call void @_ZdlPvm(ptr noundef %302, i64 noundef %310) #30
  br label %311

311:                                              ; preds = %308, %305
  call void @llvm.lifetime.end.p0(ptr %10)
  br label %265

312:                                              ; preds = %283, %281, %268
  store ptr getelementptr inbounds nuw (i8, ptr @_ZZ26pj_get_relative_share_projB5cxx11P6pj_ctxE4pathB5cxx11, i64 16), ptr @_ZZ26pj_get_relative_share_projB5cxx11P6pj_ctxE4pathB5cxx11, align 8, !tbaa !7
  store i64 0, ptr getelementptr inbounds nuw (i8, ptr @_ZZ26pj_get_relative_share_projB5cxx11P6pj_ctxE4pathB5cxx11, i64 8), align 8, !tbaa !15
  store i8 0, ptr getelementptr inbounds nuw (i8, ptr @_ZZ26pj_get_relative_share_projB5cxx11P6pj_ctxE4pathB5cxx11, i64 16), align 8, !tbaa !17
  %313 = load ptr, ptr %10, align 8, !tbaa !12
  %314 = getelementptr inbounds nuw i8, ptr %10, i64 16
  %315 = icmp eq ptr %313, %314
  br i1 %315, label %316, label %319

316:                                              ; preds = %312, %297
  %317 = load i64, ptr %269, align 8, !tbaa !15
  %318 = icmp ult i64 %317, 16
  call void @llvm.assume(i1 %318)
  br label %322

319:                                              ; preds = %312
  %320 = load i64, ptr %314, align 8, !tbaa !17
  %321 = add i64 %320, 1
  call void @_ZdlPvm(ptr noundef %313, i64 noundef %321) #30
  br label %322

322:                                              ; preds = %319, %316
  call void @llvm.lifetime.end.p0(ptr %10)
  ret void
}

; Function Attrs: nofree nounwind
declare i32 @__cxa_atexit(ptr, ptr, ptr) local_unnamed_addr #13

; Function Attrs: nofree nounwind
declare void @__cxa_guard_abort(ptr) local_unnamed_addr #13

; Function Attrs: nofree nounwind
declare void @__cxa_guard_release(ptr) local_unnamed_addr #13

; Function Attrs: mustprogress sspstrong uwtable
define void @_Z26pj_get_default_searchpathsB5cxx11P6pj_ctx(ptr dead_on_unwind noalias writable sret(%"class.std::vector") align 8 initializes((0, 24)) %0, ptr noundef %1) local_unnamed_addr #0 personality ptr @__gxx_personality_v0 {
  %3 = alloca i64, align 8
  %4 = alloca i64, align 8
  %5 = alloca %"class.std::__cxx11::basic_string", align 8
  %6 = alloca %"class.std::__cxx11::basic_string", align 8
  %7 = alloca %"class.std::__cxx11::basic_string", align 8
  %8 = alloca %"class.std::__cxx11::basic_string", align 8
  tail call void @llvm.memset.p0.i64(ptr noundef nonnull align 8 dereferenceable(24) %0, i8 0, i64 24, i1 false)
  %9 = tail call ptr @getenv(ptr noundef nonnull @.str.18) #32
  %10 = icmp eq ptr %9, null
  br i1 %10, label %14, label %11

11:                                               ; preds = %2
  %12 = load i8, ptr %9, align 1, !tbaa !17
  %13 = icmp eq i8 %12, 0
  br i1 %13, label %14, label %87

14:                                               ; preds = %11, %2
  call void @llvm.lifetime.start.p0(ptr %5)
  %15 = invoke ptr @proj_context_get_user_writable_directory(ptr noundef %1, i32 noundef 0)
          to label %16 unwind label %71

16:                                               ; preds = %14
  %17 = getelementptr inbounds nuw i8, ptr %5, i64 16
  store ptr %17, ptr %5, align 8, !tbaa !7
  %18 = icmp eq ptr %15, null
  br i1 %18, label %19, label %21

19:                                               ; preds = %16
  invoke void @_ZSt19__throw_logic_errorPKc(ptr noundef nonnull @.str.67) #33
          to label %20 unwind label %73

20:                                               ; preds = %19
  unreachable

21:                                               ; preds = %16
  %22 = call noundef i64 @strlen(ptr noundef nonnull dereferenceable(1) %15) #32
  call void @llvm.lifetime.start.p0(ptr %4)
  store i64 %22, ptr %4, align 8, !tbaa !16
  %23 = icmp ugt i64 %22, 15
  br i1 %23, label %24, label %28

24:                                               ; preds = %21
  %25 = invoke noundef ptr @_ZNSt7__cxx1112basic_stringIcSt11char_traitsIcESaIcEE9_M_createERmm(ptr noundef nonnull align 8 dereferenceable(32) %5, ptr noundef nonnull align 8 dereferenceable(8) %4, i64 noundef 0)
          to label %26 unwind label %73

26:                                               ; preds = %24
  store ptr %25, ptr %5, align 8, !tbaa !12
  %27 = load i64, ptr %4, align 8, !tbaa !16
  store i64 %27, ptr %17, align 8, !tbaa !17
  br label %28

28:                                               ; preds = %26, %21
  %29 = phi ptr [ %25, %26 ], [ %17, %21 ]
  switch i64 %22, label %32 [
    i64 1, label %30
    i64 0, label %33
  ]

30:                                               ; preds = %28
  %31 = load i8, ptr %15, align 1, !tbaa !17
  store i8 %31, ptr %29, align 1, !tbaa !17
  br label %33

32:                                               ; preds = %28
  call void @llvm.memcpy.p0.p0.i64(ptr align 1 %29, ptr nonnull align 1 %15, i64 %22, i1 false)
  br label %33

33:                                               ; preds = %32, %30, %28
  %34 = load i64, ptr %4, align 8, !tbaa !16
  %35 = getelementptr inbounds nuw i8, ptr %5, i64 8
  store i64 %34, ptr %35, align 8, !tbaa !15
  %36 = load ptr, ptr %5, align 8, !tbaa !12
  %37 = getelementptr inbounds nuw i8, ptr %36, i64 %34
  store i8 0, ptr %37, align 1, !tbaa !17
  call void @llvm.lifetime.end.p0(ptr %4)
  %38 = getelementptr inbounds nuw i8, ptr %0, i64 8
  %39 = load ptr, ptr %38, align 8, !tbaa !136
  %40 = getelementptr inbounds nuw i8, ptr %0, i64 16
  %41 = load ptr, ptr %40, align 8, !tbaa !137
  %42 = icmp eq ptr %39, %41
  br i1 %42, label %60, label %43

43:                                               ; preds = %33
  %44 = getelementptr inbounds nuw i8, ptr %39, i64 16
  store ptr %44, ptr %39, align 8, !tbaa !7
  %45 = load ptr, ptr %5, align 8, !tbaa !12
  %46 = icmp eq ptr %45, %17
  br i1 %46, label %47, label %51

47:                                               ; preds = %43
  %48 = load i64, ptr %35, align 8, !tbaa !15
  %49 = icmp ult i64 %48, 16
  call void @llvm.assume(i1 %49)
  %50 = add nuw nsw i64 %48, 1
  call void @llvm.memcpy.p0.p0.i64(ptr noundef nonnull align 8 dereferenceable(1) %44, ptr noundef nonnull align 8 dereferenceable(1) %17, i64 %50, i1 false)
  br label %54

51:                                               ; preds = %43
  store ptr %45, ptr %39, align 8, !tbaa !12
  %52 = load i64, ptr %17, align 8, !tbaa !17
  store i64 %52, ptr %44, align 8, !tbaa !17
  %53 = load i64, ptr %35, align 8, !tbaa !15
  br label %54

54:                                               ; preds = %51, %47
  %55 = phi i64 [ %53, %51 ], [ %48, %47 ]
  %56 = icmp ult i64 %55, 9223372036854775807
  call void @llvm.assume(i1 %56)
  %57 = getelementptr inbounds nuw i8, ptr %39, i64 8
  store i64 %55, ptr %57, align 8, !tbaa !15
  store ptr %17, ptr %5, align 8, !tbaa !12
  store i64 0, ptr %35, align 8, !tbaa !15
  %58 = load ptr, ptr %38, align 8, !tbaa !136
  %59 = getelementptr inbounds nuw i8, ptr %58, i64 32
  store ptr %59, ptr %38, align 8, !tbaa !136
  br label %64

60:                                               ; preds = %33
  invoke void @_ZNSt6vectorINSt7__cxx1112basic_stringIcSt11char_traitsIcESaIcEEESaIS5_EE17_M_realloc_appendIJS5_EEEvDpOT_(ptr noundef nonnull align 8 dereferenceable(24) %0, ptr noundef nonnull align 8 dereferenceable(32) %5)
          to label %61 unwind label %75

61:                                               ; preds = %60
  %62 = load ptr, ptr %5, align 8, !tbaa !12
  %63 = icmp eq ptr %62, %17
  br i1 %63, label %64, label %67

64:                                               ; preds = %61, %54
  %65 = load i64, ptr %35, align 8, !tbaa !15
  %66 = icmp ult i64 %65, 16
  call void @llvm.assume(i1 %66)
  br label %70

67:                                               ; preds = %61
  %68 = load i64, ptr %17, align 8, !tbaa !17
  %69 = add i64 %68, 1
  call void @_ZdlPvm(ptr noundef %62, i64 noundef %69) #30
  br label %70

70:                                               ; preds = %67, %64
  call void @llvm.lifetime.end.p0(ptr %5)
  br label %87

71:                                               ; preds = %14
  %72 = landingpad { ptr, i32 }
          cleanup
  br label %85

73:                                               ; preds = %24, %19
  %74 = landingpad { ptr, i32 }
          cleanup
  br label %85

75:                                               ; preds = %60
  %76 = landingpad { ptr, i32 }
          cleanup
  %77 = load ptr, ptr %5, align 8, !tbaa !12
  %78 = icmp eq ptr %77, %17
  br i1 %78, label %79, label %82

79:                                               ; preds = %75
  %80 = load i64, ptr %35, align 8, !tbaa !15
  %81 = icmp ult i64 %80, 16
  call void @llvm.assume(i1 %81)
  br label %85

82:                                               ; preds = %75
  %83 = load i64, ptr %17, align 8, !tbaa !17
  %84 = add i64 %83, 1
  call void @_ZdlPvm(ptr noundef %77, i64 noundef %84) #30
  br label %85

85:                                               ; preds = %82, %79, %73, %71
  %86 = phi { ptr, i32 } [ %72, %71 ], [ %74, %73 ], [ %76, %79 ], [ %76, %82 ]
  call void @llvm.lifetime.end.p0(ptr %5)
  br label %250

87:                                               ; preds = %70, %11
  call void @llvm.lifetime.start.p0(ptr %6)
  invoke void @_ZN5osgeo4proj11FileManager17getProjDataEnvVarB5cxx11EP6pj_ctx(ptr dead_on_unwind nonnull writable sret(%"class.std::__cxx11::basic_string") align 8 %6, ptr noundef %1)
          to label %88 unwind label %89

88:                                               ; preds = %87
  call void @llvm.lifetime.start.p0(ptr %7)
  invoke void @_Z26pj_get_relative_share_projB5cxx11P6pj_ctx(ptr dead_on_unwind nonnull writable sret(%"class.std::__cxx11::basic_string") align 8 %7, ptr noundef %1)
          to label %95 unwind label %91

89:                                               ; preds = %87
  %90 = landingpad { ptr, i32 }
          cleanup
  br label %248

91:                                               ; preds = %88
  %92 = landingpad { ptr, i32 }
          cleanup
  br label %236

93:                                               ; preds = %146, %120
  %94 = landingpad { ptr, i32 }
          cleanup
  br label %224

95:                                               ; preds = %88
  %96 = getelementptr inbounds nuw i8, ptr %6, i64 8
  %97 = load i64, ptr %96, align 8, !tbaa !15
  %98 = icmp eq i64 %97, 0
  br i1 %98, label %121, label %99

99:                                               ; preds = %95
  %100 = getelementptr inbounds nuw i8, ptr %0, i64 8
  %101 = load ptr, ptr %100, align 8, !tbaa !136
  %102 = getelementptr inbounds nuw i8, ptr %0, i64 16
  %103 = load ptr, ptr %102, align 8, !tbaa !137
  %104 = icmp eq ptr %101, %103
  br i1 %104, label %120, label %105

105:                                              ; preds = %99
  %106 = getelementptr inbounds nuw i8, ptr %101, i64 16
  store ptr %106, ptr %101, align 8, !tbaa !7
  %107 = load ptr, ptr %6, align 8, !tbaa !12
  %108 = getelementptr inbounds nuw i8, ptr %6, i64 16
  %109 = icmp eq ptr %107, %108
  br i1 %109, label %110, label %113

110:                                              ; preds = %105
  %111 = icmp ult i64 %97, 16
  call void @llvm.assume(i1 %111)
  %112 = add nuw nsw i64 %97, 1
  call void @llvm.memcpy.p0.p0.i64(ptr noundef nonnull align 8 dereferenceable(1) %106, ptr noundef nonnull align 8 dereferenceable(1) %108, i64 %112, i1 false)
  br label %115

113:                                              ; preds = %105
  store ptr %107, ptr %101, align 8, !tbaa !12
  %114 = load i64, ptr %108, align 8, !tbaa !17
  store i64 %114, ptr %106, align 8, !tbaa !17
  br label %115

115:                                              ; preds = %113, %110
  %116 = icmp ult i64 %97, 9223372036854775807
  call void @llvm.assume(i1 %116)
  %117 = getelementptr inbounds nuw i8, ptr %101, i64 8
  store i64 %97, ptr %117, align 8, !tbaa !15
  store ptr %108, ptr %6, align 8, !tbaa !12
  store i64 0, ptr %96, align 8, !tbaa !15
  store i8 0, ptr %108, align 8, !tbaa !17
  %118 = load ptr, ptr %100, align 8, !tbaa !136
  %119 = getelementptr inbounds nuw i8, ptr %118, i64 32
  store ptr %119, ptr %100, align 8, !tbaa !136
  br label %202

120:                                              ; preds = %99
  invoke void @_ZNSt6vectorINSt7__cxx1112basic_stringIcSt11char_traitsIcESaIcEEESaIS5_EE17_M_realloc_appendIJS5_EEEvDpOT_(ptr noundef nonnull align 8 dereferenceable(24) %0, ptr noundef nonnull align 8 dereferenceable(32) %6)
          to label %202 unwind label %93

121:                                              ; preds = %95
  %122 = getelementptr inbounds nuw i8, ptr %7, i64 8
  %123 = load i64, ptr %122, align 8, !tbaa !15
  %124 = icmp eq i64 %123, 0
  br i1 %124, label %147, label %125

125:                                              ; preds = %121
  %126 = getelementptr inbounds nuw i8, ptr %0, i64 8
  %127 = load ptr, ptr %126, align 8, !tbaa !136
  %128 = getelementptr inbounds nuw i8, ptr %0, i64 16
  %129 = load ptr, ptr %128, align 8, !tbaa !137
  %130 = icmp eq ptr %127, %129
  br i1 %130, label %146, label %131

131:                                              ; preds = %125
  %132 = getelementptr inbounds nuw i8, ptr %127, i64 16
  store ptr %132, ptr %127, align 8, !tbaa !7
  %133 = load ptr, ptr %7, align 8, !tbaa !12
  %134 = getelementptr inbounds nuw i8, ptr %7, i64 16
  %135 = icmp eq ptr %133, %134
  br i1 %135, label %136, label %139

136:                                              ; preds = %131
  %137 = icmp ult i64 %123, 16
  call void @llvm.assume(i1 %137)
  %138 = add nuw nsw i64 %123, 1
  call void @llvm.memcpy.p0.p0.i64(ptr noundef nonnull align 8 dereferenceable(1) %132, ptr noundef nonnull align 8 dereferenceable(1) %134, i64 %138, i1 false)
  br label %141

139:                                              ; preds = %131
  store ptr %133, ptr %127, align 8, !tbaa !12
  %140 = load i64, ptr %134, align 8, !tbaa !17
  store i64 %140, ptr %132, align 8, !tbaa !17
  br label %141

141:                                              ; preds = %139, %136
  %142 = icmp ult i64 %123, 9223372036854775807
  call void @llvm.assume(i1 %142)
  %143 = getelementptr inbounds nuw i8, ptr %127, i64 8
  store i64 %123, ptr %143, align 8, !tbaa !15
  store ptr %134, ptr %7, align 8, !tbaa !12
  store i64 0, ptr %122, align 8, !tbaa !15
  store i8 0, ptr %134, align 8, !tbaa !17
  %144 = load ptr, ptr %126, align 8, !tbaa !136
  %145 = getelementptr inbounds nuw i8, ptr %144, i64 32
  store ptr %145, ptr %126, align 8, !tbaa !136
  br label %147

146:                                              ; preds = %125
  invoke void @_ZNSt6vectorINSt7__cxx1112basic_stringIcSt11char_traitsIcESaIcEEESaIS5_EE17_M_realloc_appendIJS5_EEEvDpOT_(ptr noundef nonnull align 8 dereferenceable(24) %0, ptr noundef nonnull align 8 dereferenceable(32) %7)
          to label %147 unwind label %93

147:                                              ; preds = %146, %141, %121
  call void @llvm.lifetime.start.p0(ptr %8)
  %148 = getelementptr inbounds nuw i8, ptr %8, i64 16
  store ptr %148, ptr %8, align 8, !tbaa !7
  call void @llvm.lifetime.start.p0(ptr %3)
  store i64 21, ptr %3, align 8, !tbaa !16
  %149 = invoke noundef ptr @_ZNSt7__cxx1112basic_stringIcSt11char_traitsIcESaIcEE9_M_createERmm(ptr noundef nonnull align 8 dereferenceable(32) %8, ptr noundef nonnull align 8 dereferenceable(8) %3, i64 noundef 0)
          to label %150 unwind label %188

150:                                              ; preds = %147
  store ptr %149, ptr %8, align 8, !tbaa !12
  %151 = load i64, ptr %3, align 8, !tbaa !16
  store i64 %151, ptr %148, align 8, !tbaa !17
  call void @llvm.memcpy.p0.p0.i64(ptr noundef nonnull align 1 dereferenceable(21) %149, ptr noundef nonnull align 1 dereferenceable(21) @.str.19, i64 21, i1 false)
  %152 = getelementptr inbounds nuw i8, ptr %8, i64 8
  store i64 %151, ptr %152, align 8, !tbaa !15
  %153 = load ptr, ptr %8, align 8, !tbaa !12
  %154 = getelementptr inbounds nuw i8, ptr %153, i64 %151
  store i8 0, ptr %154, align 1, !tbaa !17
  call void @llvm.lifetime.end.p0(ptr %3)
  %155 = getelementptr inbounds nuw i8, ptr %0, i64 8
  %156 = load ptr, ptr %155, align 8, !tbaa !136
  %157 = getelementptr inbounds nuw i8, ptr %0, i64 16
  %158 = load ptr, ptr %157, align 8, !tbaa !137
  %159 = icmp eq ptr %156, %158
  br i1 %159, label %177, label %160

160:                                              ; preds = %150
  %161 = getelementptr inbounds nuw i8, ptr %156, i64 16
  store ptr %161, ptr %156, align 8, !tbaa !7
  %162 = load ptr, ptr %8, align 8, !tbaa !12
  %163 = icmp eq ptr %162, %148
  br i1 %163, label %164, label %168

164:                                              ; preds = %160
  %165 = load i64, ptr %152, align 8, !tbaa !15
  %166 = icmp ult i64 %165, 16
  call void @llvm.assume(i1 %166)
  %167 = add nuw nsw i64 %165, 1
  call void @llvm.memcpy.p0.p0.i64(ptr noundef nonnull align 8 dereferenceable(1) %161, ptr noundef nonnull align 8 dereferenceable(1) %148, i64 %167, i1 false)
  br label %171

168:                                              ; preds = %160
  store ptr %162, ptr %156, align 8, !tbaa !12
  %169 = load i64, ptr %148, align 8, !tbaa !17
  store i64 %169, ptr %161, align 8, !tbaa !17
  %170 = load i64, ptr %152, align 8, !tbaa !15
  br label %171

171:                                              ; preds = %168, %164
  %172 = phi i64 [ %170, %168 ], [ %165, %164 ]
  %173 = icmp ult i64 %172, 9223372036854775807
  call void @llvm.assume(i1 %173)
  %174 = getelementptr inbounds nuw i8, ptr %156, i64 8
  store i64 %172, ptr %174, align 8, !tbaa !15
  store ptr %148, ptr %8, align 8, !tbaa !12
  store i64 0, ptr %152, align 8, !tbaa !15
  %175 = load ptr, ptr %155, align 8, !tbaa !136
  %176 = getelementptr inbounds nuw i8, ptr %175, i64 32
  store ptr %176, ptr %155, align 8, !tbaa !136
  br label %181

177:                                              ; preds = %150
  invoke void @_ZNSt6vectorINSt7__cxx1112basic_stringIcSt11char_traitsIcESaIcEEESaIS5_EE17_M_realloc_appendIJS5_EEEvDpOT_(ptr noundef nonnull align 8 dereferenceable(24) %0, ptr noundef nonnull align 8 dereferenceable(32) %8)
          to label %178 unwind label %190

178:                                              ; preds = %177
  %179 = load ptr, ptr %8, align 8, !tbaa !12
  %180 = icmp eq ptr %179, %148
  br i1 %180, label %181, label %184

181:                                              ; preds = %178, %171
  %182 = load i64, ptr %152, align 8, !tbaa !15
  %183 = icmp ult i64 %182, 16
  call void @llvm.assume(i1 %183)
  br label %187

184:                                              ; preds = %178
  %185 = load i64, ptr %148, align 8, !tbaa !17
  %186 = add i64 %185, 1
  call void @_ZdlPvm(ptr noundef %179, i64 noundef %186) #30
  br label %187

187:                                              ; preds = %184, %181
  call void @llvm.lifetime.end.p0(ptr %8)
  br label %202

188:                                              ; preds = %147
  %189 = landingpad { ptr, i32 }
          cleanup
  br label %200

190:                                              ; preds = %177
  %191 = landingpad { ptr, i32 }
          cleanup
  %192 = load ptr, ptr %8, align 8, !tbaa !12
  %193 = icmp eq ptr %192, %148
  br i1 %193, label %194, label %197

