; ModuleID = 'temp/PROJ/networkfilemanager.cpp.ll'
source_filename = "/home/mitch/Documents/PROJ/src/networkfilemanager.cpp"
target datalayout = "e-m:e-p270:32:32-p271:32:32-p272:64:64-i64:64-i128:128-f80:128-n8:16:32:64-S128"
target triple = "x86_64-pc-linux-gnu"

%"class.osgeo::proj::NetworkChunkCache" = type { %"class.osgeo::proj::lru11::Cache" }
%"class.osgeo::proj::lru11::Cache" = type { ptr, %"class.std::mutex", %"class.std::unordered_map", %"class.std::__cxx11::list", i64, i64 }
%"class.std::mutex" = type { %"class.std::__mutex_base" }
%"class.std::__mutex_base" = type { %union.pthread_mutex_t }
%union.pthread_mutex_t = type { %struct.__pthread_mutex_s }
%struct.__pthread_mutex_s = type { i32, i32, i32, i32, i32, i16, i16, %struct.__pthread_internal_list }
%struct.__pthread_internal_list = type { ptr, ptr }
%"class.std::unordered_map" = type { %"class.std::_Hashtable" }
%"class.std::_Hashtable" = type { ptr, i64, %"struct.std::__detail::_Hash_node_base", i64, %"struct.std::__detail::_Prime_rehash_policy", ptr }
%"struct.std::__detail::_Hash_node_base" = type { ptr }
%"struct.std::__detail::_Prime_rehash_policy" = type { float, i64 }
%"class.std::__cxx11::list" = type { %"class.std::__cxx11::_List_base" }
%"class.std::__cxx11::_List_base" = type { %"struct.std::__cxx11::_List_base<osgeo::proj::lru11::KeyValuePair<osgeo::proj::NetworkChunkCache::Key, std::shared_ptr<std::vector<unsigned char>>>, std::allocator<osgeo::proj::lru11::KeyValuePair<osgeo::proj::NetworkChunkCache::Key, std::shared_ptr<std::vector<unsigned char>>>>>::_List_impl" }
%"struct.std::__cxx11::_List_base<osgeo::proj::lru11::KeyValuePair<osgeo::proj::NetworkChunkCache::Key, std::shared_ptr<std::vector<unsigned char>>>, std::allocator<osgeo::proj::lru11::KeyValuePair<osgeo::proj::NetworkChunkCache::Key, std::shared_ptr<std::vector<unsigned char>>>>>::_List_impl" = type { %"struct.std::__detail::_List_node_header" }
%"struct.std::__detail::_List_node_header" = type { %"struct.std::__detail::_List_node_base", %"struct.std::__detail::_List_size" }
%"struct.std::__detail::_List_node_base" = type { ptr, ptr }
%"struct.std::__detail::_List_size" = type { i64 }
%"class.osgeo::proj::NetworkFilePropertiesCache" = type { %"class.osgeo::proj::lru11::Cache.0" }
%"class.osgeo::proj::lru11::Cache.0" = type { ptr, %"class.std::mutex", %"class.std::unordered_map.1", %"class.std::__cxx11::list.8", i64, i64 }
%"class.std::unordered_map.1" = type { %"class.std::_Hashtable.2" }
%"class.std::_Hashtable.2" = type { ptr, i64, %"struct.std::__detail::_Hash_node_base", i64, %"struct.std::__detail::_Prime_rehash_policy", ptr }
%"class.std::__cxx11::list.8" = type { %"class.std::__cxx11::_List_base.9" }
%"class.std::__cxx11::_List_base.9" = type { %"struct.std::__cxx11::_List_base<osgeo::proj::lru11::KeyValuePair<std::__cxx11::basic_string<char>, osgeo::proj::FileProperties>, std::allocator<osgeo::proj::lru11::KeyValuePair<std::__cxx11::basic_string<char>, osgeo::proj::FileProperties>>>::_List_impl" }
%"struct.std::__cxx11::_List_base<osgeo::proj::lru11::KeyValuePair<std::__cxx11::basic_string<char>, osgeo::proj::FileProperties>, std::allocator<osgeo::proj::lru11::KeyValuePair<std::__cxx11::basic_string<char>, osgeo::proj::FileProperties>>>::_List_impl" = type { %"struct.std::__detail::_List_node_header" }
%"struct.std::piecewise_construct_t" = type { i8 }
%"class.std::unique_ptr" = type { %"struct.std::__uniq_ptr_data" }
%"struct.std::__uniq_ptr_data" = type { %"class.std::__uniq_ptr_impl" }
%"class.std::__uniq_ptr_impl" = type { %"class.std::tuple" }
%"class.std::tuple" = type { %"struct.std::_Tuple_impl" }
%"struct.std::_Tuple_impl" = type { %"struct.std::_Head_base.14" }
%"struct.std::_Head_base.14" = type { ptr }
%"class.std::__cxx11::basic_string" = type { %"struct.std::__cxx11::basic_string<char>::_Alloc_hider", i64, %union.anon }
%"struct.std::__cxx11::basic_string<char>::_Alloc_hider" = type { ptr }
%union.anon = type { i64, [8 x i8] }
%"class.std::unique_ptr.18" = type { %"struct.std::__uniq_ptr_data.19" }
%"struct.std::__uniq_ptr_data.19" = type { %"class.std::__uniq_ptr_impl.20" }
%"class.std::__uniq_ptr_impl.20" = type { %"class.std::tuple.21" }
%"class.std::tuple.21" = type { %"struct.std::_Tuple_impl.22" }
%"struct.std::_Tuple_impl.22" = type { %"struct.std::_Head_base.25" }
%"struct.std::_Head_base.25" = type { ptr }
%"class.std::unique_ptr.32" = type { %"struct.std::__uniq_ptr_data.33" }
%"struct.std::__uniq_ptr_data.33" = type { %"class.std::__uniq_ptr_impl.34" }
%"class.std::__uniq_ptr_impl.34" = type { %"class.std::tuple.35" }
%"class.std::tuple.35" = type { %"struct.std::_Tuple_impl.36" }
%"struct.std::_Tuple_impl.36" = type { %"struct.std::_Head_base.39" }
%"struct.std::_Head_base.39" = type { ptr }
%"class.std::set" = type { %"class.std::_Rb_tree.40" }
%"class.std::_Rb_tree.40" = type { %"struct.std::_Rb_tree<long long, long long, std::_Identity<long long>, std::less<long long>>::_Rb_tree_impl" }
%"struct.std::_Rb_tree<long long, long long, std::_Identity<long long>, std::less<long long>>::_Rb_tree_impl" = type { [8 x i8], %"struct.std::_Rb_tree_header" }
%"struct.std::_Rb_tree_header" = type { %"struct.std::_Rb_tree_node_base", i64 }
%"struct.std::_Rb_tree_node_base" = type { i32, ptr, ptr, ptr }
%"class.std::shared_ptr" = type { %"class.std::__shared_ptr" }
%"class.std::__shared_ptr" = type { ptr, %"class.std::__shared_count" }
%"class.std::__shared_count" = type { ptr }
%"struct.osgeo::proj::NetworkChunkCache::Key" = type { %"class.std::__cxx11::basic_string", i64 }
%"class.std::vector.45" = type { %"struct.std::_Vector_base.46" }
%"struct.std::_Vector_base.46" = type { %"struct.std::_Vector_base<unsigned char, std::allocator<unsigned char>>::_Vector_impl" }
%"struct.std::_Vector_base<unsigned char, std::allocator<unsigned char>>::_Vector_impl" = type { %"struct.std::_Vector_base<unsigned char, std::allocator<unsigned char>>::_Vector_impl_data" }
%"struct.std::_Vector_base<unsigned char, std::allocator<unsigned char>>::_Vector_impl_data" = type { ptr, ptr, ptr }
%class.anon = type { ptr, ptr, ptr, ptr, ptr, i64, ptr }
%"struct.std::_Hashtable<osgeo::proj::NetworkChunkCache::Key, std::pair<const osgeo::proj::NetworkChunkCache::Key, std::_List_iterator<osgeo::proj::lru11::KeyValuePair<osgeo::proj::NetworkChunkCache::Key, std::shared_ptr<std::vector<unsigned char>>>>>, std::allocator<std::pair<const osgeo::proj::NetworkChunkCache::Key, std::_List_iterator<osgeo::proj::lru11::KeyValuePair<osgeo::proj::NetworkChunkCache::Key, std::shared_ptr<std::vector<unsigned char>>>>>>, std::__detail::_Select1st, std::equal_to<osgeo::proj::NetworkChunkCache::Key>, osgeo::proj::NetworkChunkCache::KeyHasher, std::__detail::_Mod_range_hashing, std::__detail::_Default_ranged_hash, std::__detail::_Prime_rehash_policy, std::__detail::_Hashtable_traits<true, false, true>>::__location_type" = type { ptr, i64, i64 }
%"struct.osgeo::proj::FileProperties" = type { i64, i64, %"class.std::__cxx11::basic_string", %"class.std::__cxx11::basic_string" }
%"struct.std::_Hashtable<std::__cxx11::basic_string<char>, std::pair<const std::__cxx11::basic_string<char>, std::_List_iterator<osgeo::proj::lru11::KeyValuePair<std::__cxx11::basic_string<char>, osgeo::proj::FileProperties>>>, std::allocator<std::pair<const std::__cxx11::basic_string<char>, std::_List_iterator<osgeo::proj::lru11::KeyValuePair<std::__cxx11::basic_string<char>, osgeo::proj::FileProperties>>>>, std::__detail::_Select1st, std::equal_to<std::__cxx11::basic_string<char>>, std::hash<std::__cxx11::basic_string<char>>, std::__detail::_Mod_range_hashing, std::__detail::_Default_ranged_hash, std::__detail::_Prime_rehash_policy, std::__detail::_Hashtable_traits<true, false, true>>::__location_type" = type { ptr, i64, i64 }
%"class.std::unique_ptr.55" = type { %"struct.std::__uniq_ptr_data.56" }
%"struct.std::__uniq_ptr_data.56" = type { %"class.std::__uniq_ptr_impl.57" }
%"class.std::__uniq_ptr_impl.57" = type { %"class.std::tuple.58" }
%"class.std::tuple.58" = type { %"struct.std::_Tuple_impl.59" }
%"struct.std::_Tuple_impl.59" = type { %"struct.std::_Head_base.62" }
%"struct.std::_Head_base.62" = type { ptr }
%"class.std::unique_ptr.63" = type { %"struct.std::__uniq_ptr_data.64" }
%"struct.std::__uniq_ptr_data.64" = type { %"class.std::__uniq_ptr_impl.65" }
%"class.std::__uniq_ptr_impl.65" = type { %"class.std::tuple.66" }
%"class.std::tuple.66" = type { %"struct.std::_Tuple_impl.67" }
%"struct.std::_Tuple_impl.67" = type { %"struct.std::_Head_base.70" }
%"struct.std::_Head_base.70" = type { ptr }
%"class.std::allocator.15" = type { i8 }
%"class.dropbox::oxygen::nn" = type { %"class.std::shared_ptr.71" }
%"class.std::shared_ptr.71" = type { %"class.std::__shared_ptr.72" }
%"class.std::__shared_ptr.72" = type { ptr, %"class.std::__shared_count" }
%"struct.std::_Hashtable<osgeo::proj::NetworkChunkCache::Key, std::pair<const osgeo::proj::NetworkChunkCache::Key, std::_List_iterator<osgeo::proj::lru11::KeyValuePair<osgeo::proj::NetworkChunkCache::Key, std::shared_ptr<std::vector<unsigned char>>>>>, std::allocator<std::pair<const osgeo::proj::NetworkChunkCache::Key, std::_List_iterator<osgeo::proj::lru11::KeyValuePair<osgeo::proj::NetworkChunkCache::Key, std::shared_ptr<std::vector<unsigned char>>>>>>, std::__detail::_Select1st, std::equal_to<osgeo::proj::NetworkChunkCache::Key>, osgeo::proj::NetworkChunkCache::KeyHasher, std::__detail::_Mod_range_hashing, std::__detail::_Default_ranged_hash, std::__detail::_Prime_rehash_policy, std::__detail::_Hashtable_traits<true, false, true>>::_Scoped_node" = type { ptr, ptr }
%"class.std::tuple.132" = type { %"struct.std::_Tuple_impl.133" }
%"struct.std::_Tuple_impl.133" = type { %"struct.std::_Head_base.134" }
%"struct.std::_Head_base.134" = type { ptr }
%"class.std::tuple.135" = type { i8 }
%"struct.std::_Hashtable<std::__cxx11::basic_string<char>, std::pair<const std::__cxx11::basic_string<char>, std::_List_iterator<osgeo::proj::lru11::KeyValuePair<std::__cxx11::basic_string<char>, osgeo::proj::FileProperties>>>, std::allocator<std::pair<const std::__cxx11::basic_string<char>, std::_List_iterator<osgeo::proj::lru11::KeyValuePair<std::__cxx11::basic_string<char>, osgeo::proj::FileProperties>>>>, std::__detail::_Select1st, std::equal_to<std::__cxx11::basic_string<char>>, std::hash<std::__cxx11::basic_string<char>>, std::__detail::_Mod_range_hashing, std::__detail::_Default_ranged_hash, std::__detail::_Prime_rehash_policy, std::__detail::_Hashtable_traits<true, false, true>>::_Scoped_node" = type { ptr, ptr }
%"class.std::tuple.146" = type { %"struct.std::_Tuple_impl.147" }
%"struct.std::_Tuple_impl.147" = type { %"struct.std::_Head_base.148" }
%"struct.std::_Head_base.148" = type { ptr }

$_ZN5osgeo4proj17NetworkChunkCacheD2Ev = comdat any

$_ZN5osgeo4proj26NetworkFilePropertiesCacheD2Ev = comdat any

$_ZNSt10unique_ptrIN5osgeo4proj14DiskChunkCacheESt14default_deleteIS2_EED2Ev = comdat any

$_ZNSt10unique_ptrIN5osgeo4proj15SQLiteStatementESt14default_deleteIS2_EEaSEOS5_ = comdat any

$_ZNSt10unique_ptrIN5osgeo4proj15SQLiteStatementESt14default_deleteIS2_EED2Ev = comdat any

$_ZNSt3setIxSt4lessIxESaIxEED2Ev = comdat any

$__clang_call_terminate = comdat any

$_ZN5osgeo4proj5lru115CacheINS0_17NetworkChunkCache3KeyESt10shared_ptrISt6vectorIhSaIhEEESt5mutexSt13unordered_mapIS4_St14_List_iteratorINS1_12KeyValuePairIS4_S9_EEENS3_9KeyHasherESt8equal_toIS4_ESaISt4pairIKS4_SF_EEEE6insertERSK_RKS9_ = comdat any

$_ZN5osgeo4proj17NetworkChunkCache3KeyC2ERKNSt7__cxx1112basic_stringIcSt11char_traitsIcESaIcEEEy = comdat any

$_ZN5osgeo4proj5lru115CacheINS0_17NetworkChunkCache3KeyESt10shared_ptrISt6vectorIhSaIhEEESt5mutexSt13unordered_mapIS4_St14_List_iteratorINS1_12KeyValuePairIS4_S9_EEENS3_9KeyHasherESt8equal_toIS4_ESaISt4pairIKS4_SF_EEEE6tryGetERSK_RS9_ = comdat any

$_ZNSt12__shared_ptrISt6vectorIhSaIhEELN9__gnu_cxx12_Lock_policyE2EE5resetIS2_EENSt9enable_ifIXsr21__sp_is_constructibleIS2_T_EE5valueEvE4typeEPS8_ = comdat any

$_ZN5osgeo4proj5lru115CacheINS0_17NetworkChunkCache3KeyESt10shared_ptrISt6vectorIhSaIhEEESt5mutexSt13unordered_mapIS4_St14_List_iteratorINS1_12KeyValuePairIS4_S9_EEENS3_9KeyHasherESt8equal_toIS4_ESaISt4pairIKS4_SF_EEEE5clearEv = comdat any

$_ZN5osgeo4proj5lru115CacheINSt7__cxx1112basic_stringIcSt11char_traitsIcESaIcEEENS0_14FilePropertiesESt5mutexSt13unordered_mapIS8_St14_List_iteratorINS1_12KeyValuePairIS8_S9_EEESt4hashIS8_ESt8equal_toIS8_ESaISt4pairIKS8_SF_EEEE6insertERSL_RKS9_ = comdat any

$_ZNSt7__cxx1112basic_stringIcSt11char_traitsIcESaIcEEC2IS3_EEPKcRKS3_ = comdat any

$_ZN5osgeo4proj14FilePropertiesD2Ev = comdat any

$_ZN5osgeo4proj5lru115CacheINSt7__cxx1112basic_stringIcSt11char_traitsIcESaIcEEENS0_14FilePropertiesESt5mutexSt13unordered_mapIS8_St14_List_iteratorINS1_12KeyValuePairIS8_S9_EEESt4hashIS8_ESt8equal_toIS8_ESaISt4pairIKS8_SF_EEEE6tryGetERSL_RS9_ = comdat any

$_ZN5osgeo4proj14FilePropertiesaSEOS1_ = comdat any

$_ZN5osgeo4proj5lru115CacheINSt7__cxx1112basic_stringIcSt11char_traitsIcESaIcEEENS0_14FilePropertiesESt5mutexSt13unordered_mapIS8_St14_List_iteratorINS1_12KeyValuePairIS8_S9_EEESt4hashIS8_ESt8equal_toIS8_ESaISt4pairIKS8_SF_EEEE5clearEv = comdat any

$_ZN5osgeo4proj11NetworkFileC2EP6pj_ctxRKNSt7__cxx1112basic_stringIcSt11char_traitsIcESaIcEEEP19PROJ_NETWORK_HANDLEyRKNS0_14FilePropertiesE = comdat any

$_ZNSt10unique_ptrIN5osgeo4proj14CurlFileHandleESt14default_deleteIS2_EED2Ev = comdat any

$_ZNSt12__shared_ptrIN5osgeo4proj2io15DatabaseContextELN9__gnu_cxx12_Lock_policyE2EED2Ev = comdat any

$_ZN5osgeo4proj11NetworkFile5writeEPKvm = comdat any

$_ZNK5osgeo4proj11NetworkFile10hasChangedEv = comdat any

$_ZN5osgeo4proj5lru115CacheINS0_17NetworkChunkCache3KeyESt10shared_ptrISt6vectorIhSaIhEEESt5mutexSt13unordered_mapIS4_St14_List_iteratorINS1_12KeyValuePairIS4_S9_EEENS3_9KeyHasherESt8equal_toIS4_ESaISt4pairIKS4_SF_EEEED2Ev = comdat any

$_ZN5osgeo4proj5lru115CacheINS0_17NetworkChunkCache3KeyESt10shared_ptrISt6vectorIhSaIhEEESt5mutexSt13unordered_mapIS4_St14_List_iteratorINS1_12KeyValuePairIS4_S9_EEENS3_9KeyHasherESt8equal_toIS4_ESaISt4pairIKS4_SF_EEEED0Ev = comdat any

$_ZNSt7__cxx1110_List_baseIN5osgeo4proj5lru1112KeyValuePairINS2_17NetworkChunkCache3KeyESt10shared_ptrISt6vectorIhSaIhEEEEESaISC_EE8_M_clearEv = comdat any

$_ZN5osgeo4proj5lru115CacheINSt7__cxx1112basic_stringIcSt11char_traitsIcESaIcEEENS0_14FilePropertiesESt5mutexSt13unordered_mapIS8_St14_List_iteratorINS1_12KeyValuePairIS8_S9_EEESt4hashIS8_ESt8equal_toIS8_ESaISt4pairIKS8_SF_EEEED2Ev = comdat any

$_ZN5osgeo4proj5lru115CacheINSt7__cxx1112basic_stringIcSt11char_traitsIcESaIcEEENS0_14FilePropertiesESt5mutexSt13unordered_mapIS8_St14_List_iteratorINS1_12KeyValuePairIS8_S9_EEESt4hashIS8_ESt8equal_toIS8_ESaISt4pairIKS8_SF_EEEED0Ev = comdat any

$_ZNSt8_Rb_treeIxxSt9_IdentityIxESt4lessIxESaIxEE8_M_eraseEPSt13_Rb_tree_nodeIxE = comdat any

$_ZNSt16_Sp_counted_baseILN9__gnu_cxx12_Lock_policyE2EE24_M_release_last_use_coldEv = comdat any

$_ZN5osgeo4proj14FilePropertiesC2ERKS1_ = comdat any

$_ZNSt23_Sp_counted_ptr_inplaceISt6vectorIhSaIhEESaIvELN9__gnu_cxx12_Lock_policyE2EED0Ev = comdat any

$_ZNSt23_Sp_counted_ptr_inplaceISt6vectorIhSaIhEESaIvELN9__gnu_cxx12_Lock_policyE2EE10_M_disposeEv = comdat any

$_ZNSt23_Sp_counted_ptr_inplaceISt6vectorIhSaIhEESaIvELN9__gnu_cxx12_Lock_policyE2EE10_M_destroyEv = comdat any

$_ZNSt23_Sp_counted_ptr_inplaceISt6vectorIhSaIhEESaIvELN9__gnu_cxx12_Lock_policyE2EE14_M_get_deleterERKSt9type_info = comdat any

$_ZNKSt10_HashtableIN5osgeo4proj17NetworkChunkCache3KeyESt4pairIKS3_St14_List_iteratorINS1_5lru1112KeyValuePairIS3_St10shared_ptrISt6vectorIhSaIhEEEEEEESaISG_ENSt8__detail10_Select1stESt8equal_toIS3_ENS2_9KeyHasherENSI_18_Mod_range_hashingENSI_20_Default_ranged_hashENSI_20_Prime_rehash_policyENSI_17_Hashtable_traitsILb1ELb0ELb1EEEE9_M_locateERS5_ = comdat any

$_ZNSt7__cxx114listIN5osgeo4proj5lru1112KeyValuePairINS2_17NetworkChunkCache3KeyESt10shared_ptrISt6vectorIhSaIhEEEEESaISC_EE14_M_create_nodeIJRKS6_RKSB_EEEPSt10_List_nodeISC_EDpOT_ = comdat any

$_ZNSt8__detail9_Map_baseIN5osgeo4proj17NetworkChunkCache3KeyESt4pairIKS4_St14_List_iteratorINS2_5lru1112KeyValuePairIS4_St10shared_ptrISt6vectorIhSaIhEEEEEEESaISH_ENS_10_Select1stESt8equal_toIS4_ENS3_9KeyHasherENS_18_Mod_range_hashingENS_20_Default_ranged_hashENS_20_Prime_rehash_policyENS_17_Hashtable_traitsILb1ELb0ELb1EEELb1EEixERS6_ = comdat any

$_ZNSt10_HashtableIN5osgeo4proj17NetworkChunkCache3KeyESt4pairIKS3_St14_List_iteratorINS1_5lru1112KeyValuePairIS3_St10shared_ptrISt6vectorIhSaIhEEEEEEESaISG_ENSt8__detail10_Select1stESt8equal_toIS3_ENS2_9KeyHasherENSI_18_Mod_range_hashingENSI_20_Default_ranged_hashENSI_20_Prime_rehash_policyENSI_17_Hashtable_traitsILb1ELb0ELb1EEEE12_Scoped_nodeD2Ev = comdat any

$_ZNSt8__detail16_Hashtable_allocISaINS_10_Hash_nodeISt4pairIKN5osgeo4proj17NetworkChunkCache3KeyESt14_List_iteratorINS4_5lru1112KeyValuePairIS6_St10shared_ptrISt6vectorIhSaIhEEEEEEELb1EEEEE16_M_allocate_nodeIJRKSt21piecewise_construct_tSt5tupleIJRS7_EESQ_IJEEEEEPSJ_DpOT_ = comdat any

$_ZNSt10_HashtableIN5osgeo4proj17NetworkChunkCache3KeyESt4pairIKS3_St14_List_iteratorINS1_5lru1112KeyValuePairIS3_St10shared_ptrISt6vectorIhSaIhEEEEEEESaISG_ENSt8__detail10_Select1stESt8equal_toIS3_ENS2_9KeyHasherENSI_18_Mod_range_hashingENSI_20_Default_ranged_hashENSI_20_Prime_rehash_policyENSI_17_Hashtable_traitsILb1ELb0ELb1EEEE9_M_rehashEmSt17integral_constantIbLb1EE = comdat any

$_ZNSt10_HashtableIN5osgeo4proj17NetworkChunkCache3KeyESt4pairIKS3_St14_List_iteratorINS1_5lru1112KeyValuePairIS3_St10shared_ptrISt6vectorIhSaIhEEEEEEESaISG_ENSt8__detail10_Select1stESt8equal_toIS3_ENS2_9KeyHasherENSI_18_Mod_range_hashingENSI_20_Default_ranged_hashENSI_20_Prime_rehash_policyENSI_17_Hashtable_traitsILb1ELb0ELb1EEEE5eraseERS5_ = comdat any

$_ZNSt7__cxx114listIN5osgeo4proj5lru1112KeyValuePairINS2_17NetworkChunkCache3KeyESt10shared_ptrISt6vectorIhSaIhEEEEESaISC_EE8_M_eraseESt14_List_iteratorISC_E = comdat any

$_ZNSt12__shared_ptrISt6vectorIhSaIhEELN9__gnu_cxx12_Lock_policyE2EED2Ev = comdat any

$_ZNSt14__shared_countILN9__gnu_cxx12_Lock_policyE2EEC2IPSt6vectorIhSaIhEEEET_ = comdat any

$_ZNSt16_Sp_counted_baseILN9__gnu_cxx12_Lock_policyE2EED2Ev = comdat any

$_ZNSt15_Sp_counted_ptrIPSt6vectorIhSaIhEELN9__gnu_cxx12_Lock_policyE2EED0Ev = comdat any

$_ZNSt15_Sp_counted_ptrIPSt6vectorIhSaIhEELN9__gnu_cxx12_Lock_policyE2EE10_M_disposeEv = comdat any

$_ZNSt15_Sp_counted_ptrIPSt6vectorIhSaIhEELN9__gnu_cxx12_Lock_policyE2EE10_M_destroyEv = comdat any

$_ZNSt15_Sp_counted_ptrIPSt6vectorIhSaIhEELN9__gnu_cxx12_Lock_policyE2EE14_M_get_deleterERKSt9type_info = comdat any

$_ZNSt6vectorIhSaIhEE13_M_assign_auxIPKhEEvT_S5_St20forward_iterator_tag = comdat any

$_ZNKSt10_HashtableINSt7__cxx1112basic_stringIcSt11char_traitsIcESaIcEEESt4pairIKS5_St14_List_iteratorIN5osgeo4proj5lru1112KeyValuePairIS5_NSA_14FilePropertiesEEEEESaISG_ENSt8__detail10_Select1stESt8equal_toIS5_ESt4hashIS5_ENSI_18_Mod_range_hashingENSI_20_Default_ranged_hashENSI_20_Prime_rehash_policyENSI_17_Hashtable_traitsILb1ELb0ELb1EEEE9_M_locateERS7_ = comdat any

$_ZNSt7__cxx114listIN5osgeo4proj5lru1112KeyValuePairINS_12basic_stringIcSt11char_traitsIcESaIcEEENS2_14FilePropertiesEEESaISB_EE14_M_create_nodeIJRKS9_RKSA_EEEPSt10_List_nodeISB_EDpOT_ = comdat any

$_ZNSt8__detail9_Map_baseINSt7__cxx1112basic_stringIcSt11char_traitsIcESaIcEEESt4pairIKS6_St14_List_iteratorIN5osgeo4proj5lru1112KeyValuePairIS6_NSB_14FilePropertiesEEEEESaISH_ENS_10_Select1stESt8equal_toIS6_ESt4hashIS6_ENS_18_Mod_range_hashingENS_20_Default_ranged_hashENS_20_Prime_rehash_policyENS_17_Hashtable_traitsILb1ELb0ELb1EEELb1EEixERS8_ = comdat any

$_ZNSt10_HashtableINSt7__cxx1112basic_stringIcSt11char_traitsIcESaIcEEESt4pairIKS5_St14_List_iteratorIN5osgeo4proj5lru1112KeyValuePairIS5_NSA_14FilePropertiesEEEEESaISG_ENSt8__detail10_Select1stESt8equal_toIS5_ESt4hashIS5_ENSI_18_Mod_range_hashingENSI_20_Default_ranged_hashENSI_20_Prime_rehash_policyENSI_17_Hashtable_traitsILb1ELb0ELb1EEEE12_Scoped_nodeD2Ev = comdat any

$_ZNSt8__detail16_Hashtable_allocISaINS_10_Hash_nodeISt4pairIKNSt7__cxx1112basic_stringIcSt11char_traitsIcESaIcEEESt14_List_iteratorIN5osgeo4proj5lru1112KeyValuePairIS8_NSC_14FilePropertiesEEEEELb1EEEEE16_M_allocate_nodeIJRKSt21piecewise_construct_tSt5tupleIJRS9_EESQ_IJEEEEEPSJ_DpOT_ = comdat any

$_ZNSt10_HashtableINSt7__cxx1112basic_stringIcSt11char_traitsIcESaIcEEESt4pairIKS5_St14_List_iteratorIN5osgeo4proj5lru1112KeyValuePairIS5_NSA_14FilePropertiesEEEEESaISG_ENSt8__detail10_Select1stESt8equal_toIS5_ESt4hashIS5_ENSI_18_Mod_range_hashingENSI_20_Default_ranged_hashENSI_20_Prime_rehash_policyENSI_17_Hashtable_traitsILb1ELb0ELb1EEEE9_M_rehashEmSt17integral_constantIbLb1EE = comdat any

$_ZNSt7__cxx114listIN5osgeo4proj5lru1112KeyValuePairINS_12basic_stringIcSt11char_traitsIcESaIcEEENS2_14FilePropertiesEEESaISB_EE8pop_backEv = comdat any

$_ZNSt10_HashtableINSt7__cxx1112basic_stringIcSt11char_traitsIcESaIcEEESt4pairIKS5_St14_List_iteratorIN5osgeo4proj5lru1112KeyValuePairIS5_NSA_14FilePropertiesEEEEESaISG_ENSt8__detail10_Select1stESt8equal_toIS5_ESt4hashIS5_ENSI_18_Mod_range_hashingENSI_20_Default_ranged_hashENSI_20_Prime_rehash_policyENSI_17_Hashtable_traitsILb1ELb0ELb1EEEE5eraseERS7_ = comdat any

$_ZTVN5osgeo4proj5lru115CacheINS0_17NetworkChunkCache3KeyESt10shared_ptrISt6vectorIhSaIhEEESt5mutexSt13unordered_mapIS4_St14_List_iteratorINS1_12KeyValuePairIS4_S9_EEENS3_9KeyHasherESt8equal_toIS4_ESaISt4pairIKS4_SF_EEEEE = comdat any

$_ZTIN5osgeo4proj5lru115CacheINS0_17NetworkChunkCache3KeyESt10shared_ptrISt6vectorIhSaIhEEESt5mutexSt13unordered_mapIS4_St14_List_iteratorINS1_12KeyValuePairIS4_S9_EEENS3_9KeyHasherESt8equal_toIS4_ESaISt4pairIKS4_SF_EEEEE = comdat any

$_ZTSN5osgeo4proj5lru115CacheINS0_17NetworkChunkCache3KeyESt10shared_ptrISt6vectorIhSaIhEEESt5mutexSt13unordered_mapIS4_St14_List_iteratorINS1_12KeyValuePairIS4_S9_EEENS3_9KeyHasherESt8equal_toIS4_ESaISt4pairIKS4_SF_EEEEE = comdat any

$_ZTVN5osgeo4proj5lru115CacheINSt7__cxx1112basic_stringIcSt11char_traitsIcESaIcEEENS0_14FilePropertiesESt5mutexSt13unordered_mapIS8_St14_List_iteratorINS1_12KeyValuePairIS8_S9_EEESt4hashIS8_ESt8equal_toIS8_ESaISt4pairIKS8_SF_EEEEE = comdat any

$_ZTIN5osgeo4proj5lru115CacheINSt7__cxx1112basic_stringIcSt11char_traitsIcESaIcEEENS0_14FilePropertiesESt5mutexSt13unordered_mapIS8_St14_List_iteratorINS1_12KeyValuePairIS8_S9_EEESt4hashIS8_ESt8equal_toIS8_ESaISt4pairIKS8_SF_EEEEE = comdat any

$_ZTSN5osgeo4proj5lru115CacheINSt7__cxx1112basic_stringIcSt11char_traitsIcESaIcEEENS0_14FilePropertiesESt5mutexSt13unordered_mapIS8_St14_List_iteratorINS1_12KeyValuePairIS8_S9_EEESt4hashIS8_ESt8equal_toIS8_ESaISt4pairIKS8_SF_EEEEE = comdat any

$_ZTVSt23_Sp_counted_ptr_inplaceISt6vectorIhSaIhEESaIvELN9__gnu_cxx12_Lock_policyE2EE = comdat any

$_ZTISt23_Sp_counted_ptr_inplaceISt6vectorIhSaIhEESaIvELN9__gnu_cxx12_Lock_policyE2EE = comdat any

$_ZTSSt23_Sp_counted_ptr_inplaceISt6vectorIhSaIhEESaIvELN9__gnu_cxx12_Lock_policyE2EE = comdat any

$_ZTISt16_Sp_counted_baseILN9__gnu_cxx12_Lock_policyE2EE = comdat any

$_ZTSSt16_Sp_counted_baseILN9__gnu_cxx12_Lock_policyE2EE = comdat any

$_ZTISt11_Mutex_baseILN9__gnu_cxx12_Lock_policyE2EE = comdat any

$_ZTSSt11_Mutex_baseILN9__gnu_cxx12_Lock_policyE2EE = comdat any

$_ZTSSt19_Sp_make_shared_tag = comdat any

$_ZZNSt19_Sp_make_shared_tag5_S_tiEvE5__tag = comdat any

$_ZSt19piecewise_construct = comdat any

$_ZTVSt15_Sp_counted_ptrIPSt6vectorIhSaIhEELN9__gnu_cxx12_Lock_policyE2EE = comdat any

$_ZTISt15_Sp_counted_ptrIPSt6vectorIhSaIhEELN9__gnu_cxx12_Lock_policyE2EE = comdat any

$_ZTSSt15_Sp_counted_ptrIPSt6vectorIhSaIhEELN9__gnu_cxx12_Lock_policyE2EE = comdat any

@_ZN5osgeo4projL18gNetworkChunkCacheE = internal global %"class.osgeo::proj::NetworkChunkCache" zeroinitializer, align 8
@__dso_handle = external hidden global i8
@_ZN5osgeo4projL22gNetworkFilePropertiesE = internal global %"class.osgeo::proj::NetworkFilePropertiesCache" zeroinitializer, align 8
@.str = private unnamed_addr constant [15 x i8] c"Cannot open %s\00", align 1
@.str.2 = private unnamed_addr constant [16 x i8] c"BEGIN EXCLUSIVE\00", align 1
@.str.3 = private unnamed_addr constant [3 x i8] c"%s\00", align 1
@.str.4 = private unnamed_addr constant [20 x i8] c"PROJ_LOCK_MAX_ITERS\00", align 1
@.str.5 = private unnamed_addr constant [33 x i8] c"Cannot take exclusive lock on %s\00", align 1
@.str.6 = private unnamed_addr constant [38 x i8] c"Lock taken on cache. Waiting a bit...\00", align 1
@.str.7 = private unnamed_addr constant [54 x i8] c"SELECT 1 FROM sqlite_master WHERE name = 'properties'\00", align 1
@.str.8 = private unnamed_addr constant [29 x i8] c"PROJ_CHECK_CACHE_CONSISTENCY\00", align 1
@.str.9 = private unnamed_addr constant [28 x i8] c"Creating cache DB structure\00", align 1
@.str.10 = private unnamed_addr constant [70 x i8] c"SELECT * FROM chunk_data WHERE id NOT IN (SELECT data_id FROM chunks)\00", align 1
@stderr = external local_unnamed_addr global ptr, align 8
@.str.11 = private unnamed_addr constant [46 x i8] c"Rows in chunk_data not referenced by chunks.\0A\00", align 1
@.str.12 = private unnamed_addr constant [74 x i8] c"SELECT * FROM chunks WHERE id NOT IN (SELECT chunk_id FROM linked_chunks)\00", align 1
@.str.13 = private unnamed_addr constant [49 x i8] c"Rows in chunks not referenced by linked_chunks.\0A\00", align 1
@.str.14 = private unnamed_addr constant [92 x i8] c"SELECT * FROM chunks WHERE url <> 'invalidated' AND url NOT IN (SELECT url FROM properties)\00", align 1
@.str.15 = private unnamed_addr constant [52 x i8] c"url values in chunks not referenced by properties.\0A\00", align 1
@.str.16 = private unnamed_addr constant [47 x i8] c"SELECT head, tail FROM linked_chunks_head_tail\00", align 1
@.str.17 = private unnamed_addr constant [32 x i8] c"linked_chunks_head_tail empty.\0A\00", align 1
@.str.18 = private unnamed_addr constant [48 x i8] c"linked_chunks_head_tail has more than one row.\0A\00", align 1
@.str.19 = private unnamed_addr constant [35 x i8] c"SELECT COUNT(*) FROM linked_chunks\00", align 1
@.str.20 = private unnamed_addr constant [44 x i8] c"SELECT next FROM linked_chunks WHERE id = ?\00", align 1
@.str.21 = private unnamed_addr constant [36 x i8] c"cannot find linked_chunks.id = %d.\0A\00", align 1
@.str.22 = private unnamed_addr constant [44 x i8] c"last item when following next is not tail.\0A\00", align 1
@.str.23 = private unnamed_addr constant [41 x i8] c"found cycle on linked_chunks.next = %d.\0A\00", align 1
@.str.24 = private unnamed_addr constant [51 x i8] c"ghost items in linked_chunks when following next.\0A\00", align 1
@.str.25 = private unnamed_addr constant [66 x i8] c"linked_chunks_head_tail.head = NULL but linked_chunks not empty.\0A\00", align 1
@.str.26 = private unnamed_addr constant [44 x i8] c"SELECT prev FROM linked_chunks WHERE id = ?\00", align 1
@.str.27 = private unnamed_addr constant [44 x i8] c"last item when following prev is not head.\0A\00", align 1
@.str.28 = private unnamed_addr constant [41 x i8] c"found cycle on linked_chunks.prev = %d.\0A\00", align 1
@.str.29 = private unnamed_addr constant [51 x i8] c"ghost items in linked_chunks when following prev.\0A\00", align 1
@.str.31 = private unnamed_addr constant [10 x i8] c"check ok\0A\00", align 1
@.str.32 = private unnamed_addr constant [7 x i8] c"COMMIT\00", align 1
@.str.33 = private unnamed_addr constant [60 x i8] c"SELECT id, prev, next FROM linked_chunks WHERE chunk_id = ?\00", align 1
@.str.34 = private unnamed_addr constant [47 x i8] c"UPDATE linked_chunks SET next = ? WHERE id = ?\00", align 1
@.str.35 = private unnamed_addr constant [47 x i8] c"UPDATE linked_chunks SET prev = ? WHERE id = ?\00", align 1
@.str.36 = private unnamed_addr constant [57 x i8] c"UPDATE linked_chunks SET prev = ?, next = ? WHERE id = ?\00", align 1
@.str.37 = private unnamed_addr constant [54 x i8] c"UPDATE linked_chunks_head_tail SET head = ?, tail = ?\00", align 1
@.str.38 = private unnamed_addr constant [60 x i8] c"SELECT id, data_id FROM chunks WHERE url = ? AND offset = ?\00", align 1
@.str.39 = private unnamed_addr constant [44 x i8] c"UPDATE chunk_data SET data = ? WHERE id = ?\00", align 1
@.str.40 = private unnamed_addr constant [109 x i8] c"SELECT id, data_id FROM chunks WHERE id = (SELECT tail FROM linked_chunks_head_tail) AND url = 'invalidated'\00", align 1
@.str.41 = private unnamed_addr constant [28 x i8] c"SELECT COUNT(*) FROM chunks\00", align 1
@.str.42 = private unnamed_addr constant [85 x i8] c"SELECT id, data_id FROM chunks WHERE id = (SELECT tail FROM linked_chunks_head_tail)\00", align 1
@.str.43 = private unnamed_addr constant [40 x i8] c"INSERT INTO chunk_data(data) VALUES (?)\00", align 1
@.str.44 = private unnamed_addr constant [69 x i8] c"INSERT INTO chunks(url, offset, data_id, data_size) VALUES (?,?,?,?)\00", align 1
@.str.45 = private unnamed_addr constant [69 x i8] c"INSERT INTO linked_chunks(chunk_id, prev, next) VALUES (?,NULL,NULL)\00", align 1
@.str.46 = private unnamed_addr constant [41 x i8] c"SELECT head FROM linked_chunks_head_tail\00", align 1
@.str.47 = private unnamed_addr constant [152 x i8] c"SELECT chunks.id, chunks.data_size, chunk_data.data FROM chunks JOIN chunk_data ON chunks.id = chunk_data.id WHERE chunks.url = ? AND chunks.offset = ?\00", align 1
@.str.48 = private unnamed_addr constant [41 x i8] c"blob_size=%d < data_size for chunk_id=%d\00", align 1
@.str.49 = private unnamed_addr constant [32 x i8] c"data_size > DOWNLOAD_CHUNK_SIZE\00", align 1
@.str.50 = private unnamed_addr constant [66 x i8] c"SELECT fileSize, lastModified, etag FROM properties WHERE url = ?\00", align 1
@.str.51 = private unnamed_addr constant [36 x i8] c"SELECT id FROM chunks WHERE url = ?\00", align 1
@.str.52 = private unnamed_addr constant [80 x i8] c"UPDATE chunks SET url = 'invalidated', offset = -1, data_size = 0 WHERE url = ?\00", align 1
@.str.53 = private unnamed_addr constant [94 x i8] c"UPDATE properties SET lastChecked = ?, fileSize = ?, lastModified = ?, etag = ? WHERE url = ?\00", align 1
@.str.54 = private unnamed_addr constant [91 x i8] c"INSERT INTO properties (url, lastChecked, fileSize, lastModified, etag) VALUES (?,?,?,?,?)\00", align 1
@.str.55 = private unnamed_addr constant [79 x i8] c"SELECT lastChecked, fileSize, lastModified, etag FROM properties WHERE url = ?\00", align 1
@.str.56 = private unnamed_addr constant [14 x i8] c"Content-Range\00", align 1
@.str.57 = private unnamed_addr constant [14 x i8] c"Last-Modified\00", align 1
@.str.58 = private unnamed_addr constant [5 x i8] c"ETag\00", align 1
@.str.59 = private unnamed_addr constant [19 x i8] c"Cannot open %s: %s\00", align 1
@.str.60 = private unnamed_addr constant [22 x i8] c"Cannot read in %s: %s\00", align 1
@_ZTVN5osgeo4proj11NetworkFileE = hidden unnamed_addr constant { [10 x ptr] } { [10 x ptr] [ptr null, ptr @_ZTIN5osgeo4proj11NetworkFileE, ptr @_ZN5osgeo4proj11NetworkFileD2Ev, ptr @_ZN5osgeo4proj11NetworkFileD0Ev, ptr @_ZN5osgeo4proj11NetworkFile4readEPvm, ptr @_ZN5osgeo4proj11NetworkFile5writeEPKvm, ptr @_ZN5osgeo4proj11NetworkFile4seekEyi, ptr @_ZN5osgeo4proj11NetworkFile4tellEv, ptr @_ZN5osgeo4proj11NetworkFile16reassign_contextEP6pj_ctx, ptr @_ZNK5osgeo4proj11NetworkFile10hasChangedEv] }, align 8
@.str.61 = private unnamed_addr constant [97 x i8] c"Networking close callback has changed following context reassignment ! This is highly suspicious\00", align 1
@.str.62 = private unnamed_addr constant [18 x i8] c"PROJ_CURL_VERBOSE\00", align 1
@.str.63 = private unnamed_addr constant [16 x i8] c"PROJ_UNSAFE_SSL\00", align 1
@.str.64 = private unnamed_addr constant [18 x i8] c"PROJ_NO_USERAGENT\00", align 1
@.str.65 = private unnamed_addr constant [11 x i8] c"PROJ 9.8.0\00", align 1
@.str.66 = private unnamed_addr constant [8 x i8] c" using \00", align 1
@.str.67 = private unnamed_addr constant [10 x i8] c"%llu-%llu\00", align 1
@.str.68 = private unnamed_addr constant [40 x i8] c"Got a HTTP %ld error. Retrying in %d ms\00", align 1
@.str.69 = private unnamed_addr constant [19 x i8] c"HTTP error %ld: %s\00", align 1
@.str.70 = private unnamed_addr constant [31 x i8] c"PROJ_GRID_CACHE_MAX_SIZE_BYTES\00", align 1
@.str.71 = private unnamed_addr constant [40 x i8] c"Networking capabilities are not enabled\00", align 1
@.str.72 = private unnamed_addr constant [95 x i8] c"SELECT lastChecked, fileSize, lastModified, etag FROM downloaded_file_properties WHERE url = ?\00", align 1
@.str.73 = private unnamed_addr constant [68 x i8] c"UPDATE downloaded_file_properties SET lastChecked = ? WHERE url = ?\00", align 1
@.str.74 = private unnamed_addr constant [6 x i8] c"%d_%p\00", align 1
@.str.75 = private unnamed_addr constant [17 x i8] c"Cannot create %s\00", align 1
@.str.76 = private unnamed_addr constant [26 x i8] c"PROJ_FULL_FILE_CHUNK_SIZE\00", align 1
@.str.77 = private unnamed_addr constant [38 x i8] c"Did not get as many bytes as expected\00", align 1
@.str.78 = private unnamed_addr constant [12 x i8] c"Write error\00", align 1
@.str.79 = private unnamed_addr constant [23 x i8] c"Cannot rename %s to %s\00", align 1
@.str.80 = private unnamed_addr constant [110 x i8] c"UPDATE downloaded_file_properties SET lastChecked = ?, fileSize = ?, lastModified = ?, etag = ? WHERE url = ?\00", align 1
@.str.81 = private unnamed_addr constant [107 x i8] c"INSERT INTO downloaded_file_properties (url, lastChecked, fileSize, lastModified, etag) VALUES (?,?,?,?,?)\00", align 1
@.str.82 = private unnamed_addr constant [10 x i8] c"/cache.db\00", align 1
@_ZTIN5osgeo4proj11NetworkFileE = hidden constant { ptr, ptr, ptr } { ptr getelementptr inbounds (ptr, ptr @_ZTVN10__cxxabiv120__si_class_type_infoE, i64 2), ptr @_ZTSN5osgeo4proj11NetworkFileE, ptr @_ZTIN5osgeo4proj4FileE }, align 8
@_ZTVN10__cxxabiv120__si_class_type_infoE = external global [0 x ptr]
@_ZTSN5osgeo4proj11NetworkFileE = hidden constant [27 x i8] c"N5osgeo4proj11NetworkFileE\00", align 1
@_ZTIN5osgeo4proj4FileE = external constant ptr
@_ZTVN5osgeo4proj5lru115CacheINS0_17NetworkChunkCache3KeyESt10shared_ptrISt6vectorIhSaIhEEESt5mutexSt13unordered_mapIS4_St14_List_iteratorINS1_12KeyValuePairIS4_S9_EEENS3_9KeyHasherESt8equal_toIS4_ESaISt4pairIKS4_SF_EEEEE = linkonce_odr hidden unnamed_addr constant { [4 x ptr] } { [4 x ptr] [ptr null, ptr @_ZTIN5osgeo4proj5lru115CacheINS0_17NetworkChunkCache3KeyESt10shared_ptrISt6vectorIhSaIhEEESt5mutexSt13unordered_mapIS4_St14_List_iteratorINS1_12KeyValuePairIS4_S9_EEENS3_9KeyHasherESt8equal_toIS4_ESaISt4pairIKS4_SF_EEEEE, ptr @_ZN5osgeo4proj5lru115CacheINS0_17NetworkChunkCache3KeyESt10shared_ptrISt6vectorIhSaIhEEESt5mutexSt13unordered_mapIS4_St14_List_iteratorINS1_12KeyValuePairIS4_S9_EEENS3_9KeyHasherESt8equal_toIS4_ESaISt4pairIKS4_SF_EEEED2Ev, ptr @_ZN5osgeo4proj5lru115CacheINS0_17NetworkChunkCache3KeyESt10shared_ptrISt6vectorIhSaIhEEESt5mutexSt13unordered_mapIS4_St14_List_iteratorINS1_12KeyValuePairIS4_S9_EEENS3_9KeyHasherESt8equal_toIS4_ESaISt4pairIKS4_SF_EEEED0Ev] }, comdat, align 8
@_ZTIN5osgeo4proj5lru115CacheINS0_17NetworkChunkCache3KeyESt10shared_ptrISt6vectorIhSaIhEEESt5mutexSt13unordered_mapIS4_St14_List_iteratorINS1_12KeyValuePairIS4_S9_EEENS3_9KeyHasherESt8equal_toIS4_ESaISt4pairIKS4_SF_EEEEE = linkonce_odr hidden constant { ptr, ptr } { ptr getelementptr inbounds (ptr, ptr @_ZTVN10__cxxabiv117__class_type_infoE, i64 2), ptr @_ZTSN5osgeo4proj5lru115CacheINS0_17NetworkChunkCache3KeyESt10shared_ptrISt6vectorIhSaIhEEESt5mutexSt13unordered_mapIS4_St14_List_iteratorINS1_12KeyValuePairIS4_S9_EEENS3_9KeyHasherESt8equal_toIS4_ESaISt4pairIKS4_SF_EEEEE }, comdat, align 8
@_ZTVN10__cxxabiv117__class_type_infoE = external global [0 x ptr]
@_ZTSN5osgeo4proj5lru115CacheINS0_17NetworkChunkCache3KeyESt10shared_ptrISt6vectorIhSaIhEEESt5mutexSt13unordered_mapIS4_St14_List_iteratorINS1_12KeyValuePairIS4_S9_EEENS3_9KeyHasherESt8equal_toIS4_ESaISt4pairIKS4_SF_EEEEE = linkonce_odr hidden constant [217 x i8] c"N5osgeo4proj5lru115CacheINS0_17NetworkChunkCache3KeyESt10shared_ptrISt6vectorIhSaIhEEESt5mutexSt13unordered_mapIS4_St14_List_iteratorINS1_12KeyValuePairIS4_S9_EEENS3_9KeyHasherESt8equal_toIS4_ESaISt4pairIKS4_SF_EEEEE\00", comdat, align 1
@_ZTVN5osgeo4proj5lru115CacheINSt7__cxx1112basic_stringIcSt11char_traitsIcESaIcEEENS0_14FilePropertiesESt5mutexSt13unordered_mapIS8_St14_List_iteratorINS1_12KeyValuePairIS8_S9_EEESt4hashIS8_ESt8equal_toIS8_ESaISt4pairIKS8_SF_EEEEE = linkonce_odr hidden unnamed_addr constant { [4 x ptr] } { [4 x ptr] [ptr null, ptr @_ZTIN5osgeo4proj5lru115CacheINSt7__cxx1112basic_stringIcSt11char_traitsIcESaIcEEENS0_14FilePropertiesESt5mutexSt13unordered_mapIS8_St14_List_iteratorINS1_12KeyValuePairIS8_S9_EEESt4hashIS8_ESt8equal_toIS8_ESaISt4pairIKS8_SF_EEEEE, ptr @_ZN5osgeo4proj5lru115CacheINSt7__cxx1112basic_stringIcSt11char_traitsIcESaIcEEENS0_14FilePropertiesESt5mutexSt13unordered_mapIS8_St14_List_iteratorINS1_12KeyValuePairIS8_S9_EEESt4hashIS8_ESt8equal_toIS8_ESaISt4pairIKS8_SF_EEEED2Ev, ptr @_ZN5osgeo4proj5lru115CacheINSt7__cxx1112basic_stringIcSt11char_traitsIcESaIcEEENS0_14FilePropertiesESt5mutexSt13unordered_mapIS8_St14_List_iteratorINS1_12KeyValuePairIS8_S9_EEESt4hashIS8_ESt8equal_toIS8_ESaISt4pairIKS8_SF_EEEED0Ev] }, comdat, align 8
@_ZTIN5osgeo4proj5lru115CacheINSt7__cxx1112basic_stringIcSt11char_traitsIcESaIcEEENS0_14FilePropertiesESt5mutexSt13unordered_mapIS8_St14_List_iteratorINS1_12KeyValuePairIS8_S9_EEESt4hashIS8_ESt8equal_toIS8_ESaISt4pairIKS8_SF_EEEEE = linkonce_odr hidden constant { ptr, ptr } { ptr getelementptr inbounds (ptr, ptr @_ZTVN10__cxxabiv117__class_type_infoE, i64 2), ptr @_ZTSN5osgeo4proj5lru115CacheINSt7__cxx1112basic_stringIcSt11char_traitsIcESaIcEEENS0_14FilePropertiesESt5mutexSt13unordered_mapIS8_St14_List_iteratorINS1_12KeyValuePairIS8_S9_EEESt4hashIS8_ESt8equal_toIS8_ESaISt4pairIKS8_SF_EEEEE }, comdat, align 8
@_ZTSN5osgeo4proj5lru115CacheINSt7__cxx1112basic_stringIcSt11char_traitsIcESaIcEEENS0_14FilePropertiesESt5mutexSt13unordered_mapIS8_St14_List_iteratorINS1_12KeyValuePairIS8_S9_EEESt4hashIS8_ESt8equal_toIS8_ESaISt4pairIKS8_SF_EEEEE = linkonce_odr hidden constant [226 x i8] c"N5osgeo4proj5lru115CacheINSt7__cxx1112basic_stringIcSt11char_traitsIcESaIcEEENS0_14FilePropertiesESt5mutexSt13unordered_mapIS8_St14_List_iteratorINS1_12KeyValuePairIS8_S9_EEESt4hashIS8_ESt8equal_toIS8_ESaISt4pairIKS8_SF_EEEEE\00", comdat, align 1
@.str.83 = private unnamed_addr constant [1563 x i8] c"CREATE TABLE properties( url          TEXT PRIMARY KEY NOT NULL, lastChecked  TIMESTAMP NOT NULL, fileSize     INTEGER NOT NULL, lastModified TEXT, etag         TEXT);CREATE TABLE downloaded_file_properties( url          TEXT PRIMARY KEY NOT NULL, lastChecked  TIMESTAMP NOT NULL, fileSize     INTEGER NOT NULL, lastModified TEXT, etag         TEXT);CREATE TABLE chunk_data( id        INTEGER PRIMARY KEY AUTOINCREMENT CHECK (id > 0), data      BLOB NOT NULL);CREATE TABLE chunks( id        INTEGER PRIMARY KEY AUTOINCREMENT CHECK (id > 0), url       TEXT NOT NULL, offset    INTEGER NOT NULL, data_id   INTEGER NOT NULL, data_size INTEGER NOT NULL, CONSTRAINT fk_chunks_url FOREIGN KEY (url) REFERENCES properties(url), CONSTRAINT fk_chunks_data FOREIGN KEY (data_id) REFERENCES chunk_data(id));CREATE INDEX idx_chunks ON chunks(url, offset);CREATE TABLE linked_chunks( id        INTEGER PRIMARY KEY AUTOINCREMENT CHECK (id > 0), chunk_id  INTEGER NOT NULL, prev      INTEGER, next      INTEGER, CONSTRAINT fk_links_chunkid FOREIGN KEY (chunk_id) REFERENCES chunks(id), CONSTRAINT fk_links_prev FOREIGN KEY (prev) REFERENCES linked_chunks(id), CONSTRAINT fk_links_next FOREIGN KEY (next) REFERENCES linked_chunks(id));CREATE INDEX idx_linked_chunks_chunk_id ON linked_chunks(chunk_id);CREATE TABLE linked_chunks_head_tail(  head       INTEGER,  tail       INTEGER,  CONSTRAINT lht_head FOREIGN KEY (head) REFERENCES linked_chunks(id),  CONSTRAINT lht_tail FOREIGN KEY (tail) REFERENCES linked_chunks(id));INSERT INTO linked_chunks_head_tail VALUES (NULL, NULL);\00", align 1
@.str.84 = private unnamed_addr constant [13 x i8] c"data_id <= 0\00", align 1
@.str.85 = private unnamed_addr constant [79 x i8] c"UPDATE chunks SET url = ?, offset = ?, data_size = ?, data_id = ? WHERE id = ?\00", align 1
@__libc_single_threaded = external local_unnamed_addr global i8, align 1
@.str.86 = private unnamed_addr constant [7 x i8] c"stoull\00", align 1
@.str.87 = private unnamed_addr constant [35 x i8] c"curl_easy_setopt at line %d failed\00", align 1
@.str.88 = private unnamed_addr constant [15 x i8] c"/proc/self/exe\00", align 1
@.str.89 = private unnamed_addr constant [21 x i8] c"basic_string::substr\00", align 1
@.str.90 = private unnamed_addr constant [55 x i8] c"%s: __pos (which is %zu) > this->size() (which is %zu)\00", align 1
@.str.92 = private unnamed_addr constant [21 x i8] c"basic_string::append\00", align 1
@.str.93 = private unnamed_addr constant [15 x i8] c"RequestTimeout\00", align 1
@.str.94 = private unnamed_addr constant [25 x i8] c"Connection reset by peer\00", align 1
@.str.95 = private unnamed_addr constant [21 x i8] c"Connection timed out\00", align 1
@.str.96 = private unnamed_addr constant [23 x i8] c"SSL connection timeout\00", align 1
@.str.97 = private unnamed_addr constant [8 x i8] c"http://\00", align 1
@.str.98 = private unnamed_addr constant [9 x i8] c"https://\00", align 1
@_ZTISt9exception = external constant ptr
@_ZTVSt23_Sp_counted_ptr_inplaceISt6vectorIhSaIhEESaIvELN9__gnu_cxx12_Lock_policyE2EE = linkonce_odr unnamed_addr constant { [7 x ptr] } { [7 x ptr] [ptr null, ptr @_ZTISt23_Sp_counted_ptr_inplaceISt6vectorIhSaIhEESaIvELN9__gnu_cxx12_Lock_policyE2EE, ptr @_ZNSt16_Sp_counted_baseILN9__gnu_cxx12_Lock_policyE2EED2Ev, ptr @_ZNSt23_Sp_counted_ptr_inplaceISt6vectorIhSaIhEESaIvELN9__gnu_cxx12_Lock_policyE2EED0Ev, ptr @_ZNSt23_Sp_counted_ptr_inplaceISt6vectorIhSaIhEESaIvELN9__gnu_cxx12_Lock_policyE2EE10_M_disposeEv, ptr @_ZNSt23_Sp_counted_ptr_inplaceISt6vectorIhSaIhEESaIvELN9__gnu_cxx12_Lock_policyE2EE10_M_destroyEv, ptr @_ZNSt23_Sp_counted_ptr_inplaceISt6vectorIhSaIhEESaIvELN9__gnu_cxx12_Lock_policyE2EE14_M_get_deleterERKSt9type_info] }, comdat, align 8
@_ZTISt23_Sp_counted_ptr_inplaceISt6vectorIhSaIhEESaIvELN9__gnu_cxx12_Lock_policyE2EE = linkonce_odr constant { ptr, ptr, ptr } { ptr getelementptr inbounds (ptr, ptr @_ZTVN10__cxxabiv120__si_class_type_infoE, i64 2), ptr @_ZTSSt23_Sp_counted_ptr_inplaceISt6vectorIhSaIhEESaIvELN9__gnu_cxx12_Lock_policyE2EE, ptr @_ZTISt16_Sp_counted_baseILN9__gnu_cxx12_Lock_policyE2EE }, comdat, align 8
@_ZTSSt23_Sp_counted_ptr_inplaceISt6vectorIhSaIhEESaIvELN9__gnu_cxx12_Lock_policyE2EE = linkonce_odr constant [81 x i8] c"St23_Sp_counted_ptr_inplaceISt6vectorIhSaIhEESaIvELN9__gnu_cxx12_Lock_policyE2EE\00", comdat, align 1
@_ZTISt16_Sp_counted_baseILN9__gnu_cxx12_Lock_policyE2EE = linkonce_odr constant { ptr, ptr, ptr } { ptr getelementptr inbounds (ptr, ptr @_ZTVN10__cxxabiv120__si_class_type_infoE, i64 2), ptr @_ZTSSt16_Sp_counted_baseILN9__gnu_cxx12_Lock_policyE2EE, ptr @_ZTISt11_Mutex_baseILN9__gnu_cxx12_Lock_policyE2EE }, comdat, align 8
@_ZTSSt16_Sp_counted_baseILN9__gnu_cxx12_Lock_policyE2EE = linkonce_odr constant [52 x i8] c"St16_Sp_counted_baseILN9__gnu_cxx12_Lock_policyE2EE\00", comdat, align 1
@_ZTISt11_Mutex_baseILN9__gnu_cxx12_Lock_policyE2EE = linkonce_odr constant { ptr, ptr } { ptr getelementptr inbounds (ptr, ptr @_ZTVN10__cxxabiv117__class_type_infoE, i64 2), ptr @_ZTSSt11_Mutex_baseILN9__gnu_cxx12_Lock_policyE2EE }, comdat, align 8
@_ZTSSt11_Mutex_baseILN9__gnu_cxx12_Lock_policyE2EE = linkonce_odr constant [47 x i8] c"St11_Mutex_baseILN9__gnu_cxx12_Lock_policyE2EE\00", comdat, align 1
@_ZTSSt19_Sp_make_shared_tag = linkonce_odr constant [24 x i8] c"St19_Sp_make_shared_tag\00", comdat, align 1
@_ZZNSt19_Sp_make_shared_tag5_S_tiEvE5__tag = linkonce_odr constant [16 x i8] zeroinitializer, comdat, align 8
@_ZSt19piecewise_construct = linkonce_odr constant %"struct.std::piecewise_construct_t" zeroinitializer, comdat, align 1
@.str.100 = private unnamed_addr constant [26 x i8] c"vector::_M_default_append\00", align 1
@_ZTVSt15_Sp_counted_ptrIPSt6vectorIhSaIhEELN9__gnu_cxx12_Lock_policyE2EE = linkonce_odr unnamed_addr constant { [7 x ptr] } { [7 x ptr] [ptr null, ptr @_ZTISt15_Sp_counted_ptrIPSt6vectorIhSaIhEELN9__gnu_cxx12_Lock_policyE2EE, ptr @_ZNSt16_Sp_counted_baseILN9__gnu_cxx12_Lock_policyE2EED2Ev, ptr @_ZNSt15_Sp_counted_ptrIPSt6vectorIhSaIhEELN9__gnu_cxx12_Lock_policyE2EED0Ev, ptr @_ZNSt15_Sp_counted_ptrIPSt6vectorIhSaIhEELN9__gnu_cxx12_Lock_policyE2EE10_M_disposeEv, ptr @_ZNSt15_Sp_counted_ptrIPSt6vectorIhSaIhEELN9__gnu_cxx12_Lock_policyE2EE10_M_destroyEv, ptr @_ZNSt15_Sp_counted_ptrIPSt6vectorIhSaIhEELN9__gnu_cxx12_Lock_policyE2EE14_M_get_deleterERKSt9type_info] }, comdat, align 8
@_ZTISt15_Sp_counted_ptrIPSt6vectorIhSaIhEELN9__gnu_cxx12_Lock_policyE2EE = linkonce_odr constant { ptr, ptr, ptr } { ptr getelementptr inbounds (ptr, ptr @_ZTVN10__cxxabiv120__si_class_type_infoE, i64 2), ptr @_ZTSSt15_Sp_counted_ptrIPSt6vectorIhSaIhEELN9__gnu_cxx12_Lock_policyE2EE, ptr @_ZTISt16_Sp_counted_baseILN9__gnu_cxx12_Lock_policyE2EE }, comdat, align 8
@_ZTSSt15_Sp_counted_ptrIPSt6vectorIhSaIhEELN9__gnu_cxx12_Lock_policyE2EE = linkonce_odr constant [69 x i8] c"St15_Sp_counted_ptrIPSt6vectorIhSaIhEELN9__gnu_cxx12_Lock_policyE2EE\00", comdat, align 1
@.str.101 = private unnamed_addr constant [49 x i8] c"cannot create std::vector larger than max_size()\00", align 1
@.str.102 = private unnamed_addr constant [50 x i8] c"basic_string: construction from null is not valid\00", align 1
@.str.103 = private unnamed_addr constant [26 x i8] c"vector::_M_realloc_append\00", align 1
@llvm.global_ctors = appending global [1 x { i32, ptr, ptr }] [{ i32, ptr, ptr } { i32 65535, ptr @_GLOBAL__sub_I_networkfilemanager.cpp, ptr null }]

@_ZN5osgeo4proj14DiskChunkCacheC1EP6pj_ctxRKNSt7__cxx1112basic_stringIcSt11char_traitsIcESaIcEEE = hidden unnamed_addr alias void (ptr, ptr, ptr), ptr @_ZN5osgeo4proj14DiskChunkCacheC2EP6pj_ctxRKNSt7__cxx1112basic_stringIcSt11char_traitsIcESaIcEEE
@_ZN5osgeo4proj14DiskChunkCacheD1Ev = hidden unnamed_addr alias void (ptr), ptr @_ZN5osgeo4proj14DiskChunkCacheD2Ev
@_ZN5osgeo4proj11NetworkFileD1Ev = hidden unnamed_addr alias void (ptr), ptr @_ZN5osgeo4proj11NetworkFileD2Ev
@_ZN5osgeo4proj14CurlFileHandleC1EP6pj_ctxPKcPv = hidden unnamed_addr alias void (ptr, ptr, ptr, ptr), ptr @_ZN5osgeo4proj14CurlFileHandleC2EP6pj_ctxPKcPv
@_ZN5osgeo4proj14CurlFileHandleD1Ev = hidden unnamed_addr alias void (ptr), ptr @_ZN5osgeo4proj14CurlFileHandleD2Ev

; Function Attrs: nocallback nofree nounwind willreturn memory(argmem: write)
declare void @llvm.memset.p0.i64(ptr writeonly captures(none), i8, i64, i1 immarg) #0

; Function Attrs: inlinehint mustprogress nounwind sspstrong uwtable
define linkonce_odr hidden void @_ZN5osgeo4proj17NetworkChunkCacheD2Ev(ptr noundef nonnull align 8 dereferenceable(144) %0) unnamed_addr #1 comdat align 2 personality ptr @__gxx_personality_v0 {
  store ptr getelementptr inbounds nuw inrange(-16, 16) (i8, ptr @_ZTVN5osgeo4proj5lru115CacheINS0_17NetworkChunkCache3KeyESt10shared_ptrISt6vectorIhSaIhEEESt5mutexSt13unordered_mapIS4_St14_List_iteratorINS1_12KeyValuePairIS4_S9_EEENS3_9KeyHasherESt8equal_toIS4_ESaISt4pairIKS4_SF_EEEEE, i64 16), ptr %0, align 8, !tbaa !4
  %2 = getelementptr inbounds nuw i8, ptr %0, i64 104
  tail call void @_ZNSt7__cxx1110_List_baseIN5osgeo4proj5lru1112KeyValuePairINS2_17NetworkChunkCache3KeyESt10shared_ptrISt6vectorIhSaIhEEEEESaISC_EE8_M_clearEv(ptr noundef nonnull align 8 dereferenceable(24) %2) #31
  %3 = getelementptr inbounds nuw i8, ptr %0, i64 48
  %4 = getelementptr inbounds nuw i8, ptr %0, i64 64
  %5 = load ptr, ptr %4, align 8, !tbaa !7
  %6 = icmp eq ptr %5, null
  br i1 %6, label %23, label %7

7:                                                ; preds = %21, %1
  %8 = phi ptr [ %9, %21 ], [ %5, %1 ]
  %9 = load ptr, ptr %8, align 8, !tbaa !18
  %10 = getelementptr inbounds nuw i8, ptr %8, i64 8
  %11 = load ptr, ptr %10, align 8, !tbaa !19
  %12 = getelementptr inbounds nuw i8, ptr %8, i64 24
  %13 = icmp eq ptr %11, %12
  br i1 %13, label %14, label %18

14:                                               ; preds = %7
  %15 = getelementptr inbounds nuw i8, ptr %8, i64 16
  %16 = load i64, ptr %15, align 8, !tbaa !23
  %17 = icmp ult i64 %16, 16
  tail call void @llvm.assume(i1 %17)
  br label %21

18:                                               ; preds = %7
  %19 = load i64, ptr %12, align 8, !tbaa !24
  %20 = add i64 %19, 1
  tail call void @_ZdlPvm(ptr noundef %11, i64 noundef %20) #32
  br label %21

21:                                               ; preds = %18, %14
  tail call void @_ZdlPvm(ptr noundef nonnull %8, i64 noundef 64) #32
  %22 = icmp eq ptr %9, null
  br i1 %22, label %23, label %7, !llvm.loop !25

23:                                               ; preds = %21, %1
  %24 = load ptr, ptr %3, align 8, !tbaa !27
  %25 = getelementptr inbounds nuw i8, ptr %0, i64 96
  %26 = icmp eq ptr %24, %25
  br i1 %26, label %31, label %27

27:                                               ; preds = %23
  %28 = getelementptr inbounds nuw i8, ptr %0, i64 56
  %29 = load i64, ptr %28, align 8, !tbaa !28
  %30 = shl i64 %29, 3
  tail call void @_ZdlPvm(ptr noundef %24, i64 noundef %30) #32
  br label %31

31:                                               ; preds = %27, %23
  ret void
}

; Function Attrs: nofree nounwind
declare i32 @__cxa_atexit(ptr, ptr, ptr) local_unnamed_addr #2

; Function Attrs: inlinehint mustprogress nounwind sspstrong uwtable
define linkonce_odr hidden void @_ZN5osgeo4proj26NetworkFilePropertiesCacheD2Ev(ptr noundef nonnull align 8 dereferenceable(144) %0) unnamed_addr #1 comdat align 2 {
  tail call void @_ZN5osgeo4proj5lru115CacheINSt7__cxx1112basic_stringIcSt11char_traitsIcESaIcEEENS0_14FilePropertiesESt5mutexSt13unordered_mapIS8_St14_List_iteratorINS1_12KeyValuePairIS8_S9_EEESt4hashIS8_ESt8equal_toIS8_ESaISt4pairIKS8_SF_EEEED2Ev(ptr noundef nonnull align 8 dereferenceable(144) %0) #31
  ret void
}

; Function Attrs: mustprogress sspstrong uwtable
define hidden void @_ZN5osgeo4proj14DiskChunkCache4openEP6pj_ctx(ptr dead_on_unwind noalias writable sret(%"class.std::unique_ptr") align 8 %0, ptr noundef %1) local_unnamed_addr #3 align 2 personality ptr @__gxx_personality_v0 {
  %3 = alloca i64, align 8
  %4 = alloca %"class.std::__cxx11::basic_string", align 8
  tail call void @_Z11pj_load_iniP6pj_ctx(ptr noundef %1)
  %5 = getelementptr inbounds nuw i8, ptr %1, i64 504
  %6 = load i8, ptr %5, align 8, !tbaa !29, !range !54, !noundef !55
  %7 = trunc nuw i8 %6 to i1
  br i1 %7, label %9, label %8

8:                                                ; preds = %2
  store ptr null, ptr %0, align 8, !tbaa !56
  br label %69

9:                                                ; preds = %2
  call void @llvm.lifetime.start.p0(ptr %4)
  call void @_Z34pj_context_get_grid_cache_filenameB5cxx11P6pj_ctx(ptr dead_on_unwind nonnull writable sret(%"class.std::__cxx11::basic_string") align 8 %4, ptr noundef nonnull %1)
  %10 = getelementptr inbounds nuw i8, ptr %4, i64 8
  %11 = load i64, ptr %10, align 8, !tbaa !23
  %12 = icmp eq i64 %11, 0
  br i1 %12, label %13, label %14

13:                                               ; preds = %9
  store ptr null, ptr %0, align 8, !tbaa !56
  br label %46

14:                                               ; preds = %9
  %15 = invoke noalias noundef nonnull dereferenceable(56) ptr @_Znwm(i64 noundef 56) #33
          to label %16 unwind label %40

16:                                               ; preds = %14
  store ptr %1, ptr %15, align 8, !tbaa !59
  %17 = getelementptr inbounds nuw i8, ptr %15, i64 8
  %18 = getelementptr inbounds nuw i8, ptr %15, i64 24
  store ptr %18, ptr %17, align 8, !tbaa !70
  %19 = load ptr, ptr %4, align 8, !tbaa !19
  %20 = icmp ult i64 %11, 9223372036854775807
  call void @llvm.assume(i1 %20)
  call void @llvm.lifetime.start.p0(ptr %3)
  store i64 %11, ptr %3, align 8, !tbaa !71
  %21 = icmp samesign ugt i64 %11, 15
  br i1 %21, label %22, label %26

22:                                               ; preds = %16
  %23 = invoke noundef ptr @_ZNSt7__cxx1112basic_stringIcSt11char_traitsIcESaIcEE9_M_createERmm(ptr noundef nonnull align 8 dereferenceable(32) %17, ptr noundef nonnull align 8 dereferenceable(8) %3, i64 noundef 0)
          to label %24 unwind label %42

24:                                               ; preds = %22
  store ptr %23, ptr %17, align 8, !tbaa !19
  %25 = load i64, ptr %3, align 8, !tbaa !71
  store i64 %25, ptr %18, align 8, !tbaa !24
  br label %26

26:                                               ; preds = %24, %16
  %27 = phi i64 [ %25, %24 ], [ %11, %16 ]
  %28 = phi ptr [ %23, %24 ], [ %18, %16 ]
  switch i64 %27, label %31 [
    i64 0, label %29
    i64 -1, label %33
  ]

29:                                               ; preds = %26
  %30 = load i8, ptr %19, align 1, !tbaa !24
  store i8 %30, ptr %28, align 1, !tbaa !24
  br label %33

31:                                               ; preds = %26
  %32 = add nuw i64 %27, 1
  call void @llvm.memcpy.p0.p0.i64(ptr noundef nonnull align 1 dereferenceable(1) %28, ptr noundef nonnull align 1 dereferenceable(1) %19, i64 %32, i1 false)
  br label %33

33:                                               ; preds = %31, %29, %26
  %34 = load i64, ptr %3, align 8, !tbaa !71
  %35 = getelementptr inbounds nuw i8, ptr %15, i64 16
  store i64 %34, ptr %35, align 8, !tbaa !23
  call void @llvm.lifetime.end.p0(ptr %3)
  %36 = getelementptr inbounds nuw i8, ptr %15, i64 40
  call void @llvm.memset.p0.i64(ptr noundef nonnull align 8 dereferenceable(16) %36, i8 0, i64 16, i1 false)
  store ptr %15, ptr %0, align 8, !tbaa !72
  %37 = invoke noundef zeroext i1 @_ZN5osgeo4proj14DiskChunkCache10initializeEv(ptr noundef nonnull align 8 dereferenceable(56) %15)
          to label %38 unwind label %44

38:                                               ; preds = %33
  br i1 %37, label %46, label %39

39:                                               ; preds = %38
  store ptr null, ptr %0, align 8, !tbaa !72
  call void @_ZN5osgeo4proj14DiskChunkCacheD2Ev(ptr noundef nonnull align 8 dereferenceable(56) %15) #31
  call void @_ZdlPvm(ptr noundef nonnull %15, i64 noundef 56) #32
  br label %46

40:                                               ; preds = %14
  %41 = landingpad { ptr, i32 }
          cleanup
  br label %57

42:                                               ; preds = %22
  %43 = landingpad { ptr, i32 }
          cleanup
  call void @_ZdlPvm(ptr noundef nonnull %15, i64 noundef 56) #32
  br label %57

44:                                               ; preds = %33
  %45 = landingpad { ptr, i32 }
          cleanup
  call void @_ZNSt10unique_ptrIN5osgeo4proj14DiskChunkCacheESt14default_deleteIS2_EED2Ev(ptr noundef nonnull align 8 dereferenceable(8) %0) #31
  br label %57

46:                                               ; preds = %39, %38, %13
  %47 = load ptr, ptr %4, align 8, !tbaa !19
  %48 = getelementptr inbounds nuw i8, ptr %4, i64 16
  %49 = icmp eq ptr %47, %48
  br i1 %49, label %50, label %53

50:                                               ; preds = %46
  %51 = load i64, ptr %10, align 8, !tbaa !23
  %52 = icmp ult i64 %51, 16
  call void @llvm.assume(i1 %52)
  br label %56

53:                                               ; preds = %46
  %54 = load i64, ptr %48, align 8, !tbaa !24
  %55 = add i64 %54, 1
  call void @_ZdlPvm(ptr noundef %47, i64 noundef %55) #32
  br label %56

56:                                               ; preds = %53, %50
  call void @llvm.lifetime.end.p0(ptr %4)
  br label %69

57:                                               ; preds = %44, %42, %40
  %58 = phi { ptr, i32 } [ %45, %44 ], [ %43, %42 ], [ %41, %40 ]
  %59 = load ptr, ptr %4, align 8, !tbaa !19
  %60 = getelementptr inbounds nuw i8, ptr %4, i64 16
  %61 = icmp eq ptr %59, %60
  br i1 %61, label %62, label %65

62:                                               ; preds = %57
  %63 = load i64, ptr %10, align 8, !tbaa !23
  %64 = icmp ult i64 %63, 16
  call void @llvm.assume(i1 %64)
  br label %68

65:                                               ; preds = %57
  %66 = load i64, ptr %60, align 8, !tbaa !24
  %67 = add i64 %66, 1
  call void @_ZdlPvm(ptr noundef %59, i64 noundef %67) #32
  br label %68

68:                                               ; preds = %65, %62
  call void @llvm.lifetime.end.p0(ptr %4)
  resume { ptr, i32 } %58

69:                                               ; preds = %56, %8
  ret void
}

; Function Attrs: mustprogress sspstrong uwtable
define void @_Z34pj_context_get_grid_cache_filenameB5cxx11P6pj_ctx(ptr dead_on_unwind noalias writable sret(%"class.std::__cxx11::basic_string") align 8 %0, ptr noundef %1) local_unnamed_addr #3 personality ptr @__gxx_personality_v0 {
  %3 = alloca i64, align 8
  %4 = alloca i64, align 8
  %5 = alloca i64, align 8
  %6 = alloca %"class.std::__cxx11::basic_string", align 8
  %7 = alloca %"class.std::__cxx11::basic_string", align 8
  tail call void @_Z11pj_load_iniP6pj_ctx(ptr noundef %1)
  %8 = getelementptr inbounds nuw i8, ptr %1, i64 512
  %9 = getelementptr inbounds nuw i8, ptr %1, i64 520
  %10 = load i64, ptr %9, align 8, !tbaa !23
  %11 = icmp eq i64 %10, 0
  br i1 %11, label %30, label %12

12:                                               ; preds = %2
  %13 = getelementptr inbounds nuw i8, ptr %0, i64 16
  store ptr %13, ptr %0, align 8, !tbaa !70
  %14 = load ptr, ptr %8, align 8, !tbaa !19
  %15 = icmp ult i64 %10, 9223372036854775807
  tail call void @llvm.assume(i1 %15)
  call void @llvm.lifetime.start.p0(ptr %5)
  store i64 %10, ptr %5, align 8, !tbaa !71
  %16 = icmp samesign ugt i64 %10, 15
  br i1 %16, label %17, label %20

17:                                               ; preds = %12
  %18 = call noundef ptr @_ZNSt7__cxx1112basic_stringIcSt11char_traitsIcESaIcEE9_M_createERmm(ptr noundef nonnull align 8 dereferenceable(32) %0, ptr noundef nonnull align 8 dereferenceable(8) %5, i64 noundef 0)
  store ptr %18, ptr %0, align 8, !tbaa !19
  %19 = load i64, ptr %5, align 8, !tbaa !71
  store i64 %19, ptr %13, align 8, !tbaa !24
  br label %20

20:                                               ; preds = %17, %12
  %21 = phi i64 [ %19, %17 ], [ %10, %12 ]
  %22 = phi ptr [ %18, %17 ], [ %13, %12 ]
  switch i64 %21, label %25 [
    i64 0, label %23
    i64 -1, label %27
  ]

23:                                               ; preds = %20
  %24 = load i8, ptr %14, align 1, !tbaa !24
  store i8 %24, ptr %22, align 1, !tbaa !24
  br label %27

25:                                               ; preds = %20
  %26 = add nuw i64 %21, 1
  call void @llvm.memcpy.p0.p0.i64(ptr noundef nonnull align 1 dereferenceable(1) %22, ptr noundef nonnull align 1 dereferenceable(1) %14, i64 %26, i1 false)
  br label %27

27:                                               ; preds = %25, %23, %20
  %28 = load i64, ptr %5, align 8, !tbaa !71
  %29 = getelementptr inbounds nuw i8, ptr %0, i64 8
  store i64 %28, ptr %29, align 8, !tbaa !23
  call void @llvm.lifetime.end.p0(ptr %5)
  br label %174

30:                                               ; preds = %2
  call void @llvm.lifetime.start.p0(ptr %6)
  %31 = tail call ptr @proj_context_get_user_writable_directory(ptr noundef nonnull %1, i32 noundef 1)
  %32 = getelementptr inbounds nuw i8, ptr %6, i64 16
  store ptr %32, ptr %6, align 8, !tbaa !70
  %33 = icmp eq ptr %31, null
  br i1 %33, label %34, label %35

34:                                               ; preds = %30
  call void @_ZSt19__throw_logic_errorPKc(ptr noundef nonnull @.str.102) #34
  unreachable

35:                                               ; preds = %30
  %36 = call noundef i64 @strlen(ptr noundef nonnull dereferenceable(1) %31) #31
  call void @llvm.lifetime.start.p0(ptr %4)
  store i64 %36, ptr %4, align 8, !tbaa !71
  %37 = icmp ugt i64 %36, 15
  br i1 %37, label %38, label %41

38:                                               ; preds = %35
  %39 = call noundef ptr @_ZNSt7__cxx1112basic_stringIcSt11char_traitsIcESaIcEE9_M_createERmm(ptr noundef nonnull align 8 dereferenceable(32) %6, ptr noundef nonnull align 8 dereferenceable(8) %4, i64 noundef 0)
  store ptr %39, ptr %6, align 8, !tbaa !19
  %40 = load i64, ptr %4, align 8, !tbaa !71
  store i64 %40, ptr %32, align 8, !tbaa !24
  br label %41

41:                                               ; preds = %38, %35
  %42 = phi ptr [ %39, %38 ], [ %32, %35 ]
  switch i64 %36, label %45 [
    i64 1, label %43
    i64 0, label %46
  ]

43:                                               ; preds = %41
  %44 = load i8, ptr %31, align 1, !tbaa !24
  store i8 %44, ptr %42, align 1, !tbaa !24
  br label %46

45:                                               ; preds = %41
  call void @llvm.memcpy.p0.p0.i64(ptr align 1 %42, ptr nonnull align 1 %31, i64 %36, i1 false)
  br label %46

46:                                               ; preds = %45, %43, %41
  %47 = load i64, ptr %4, align 8, !tbaa !71
  %48 = getelementptr inbounds nuw i8, ptr %6, i64 8
  store i64 %47, ptr %48, align 8, !tbaa !23
  %49 = load ptr, ptr %6, align 8, !tbaa !19
  %50 = getelementptr inbounds nuw i8, ptr %49, i64 %47
  store i8 0, ptr %50, align 1, !tbaa !24
  call void @llvm.lifetime.end.p0(ptr %4)
  call void @llvm.lifetime.start.p0(ptr %7)
  call void @llvm.experimental.noalias.scope.decl(metadata !73)
  %51 = load ptr, ptr %6, align 8, !tbaa !19, !noalias !73
  %52 = load i64, ptr %48, align 8, !tbaa !23, !noalias !73
  %53 = icmp ult i64 %52, 9223372036854775807
  call void @llvm.assume(i1 %53)
  %54 = getelementptr inbounds nuw i8, ptr %7, i64 16
  store ptr %54, ptr %7, align 8, !tbaa !70, !alias.scope !76
  %55 = getelementptr inbounds nuw i8, ptr %7, i64 8
  store i64 0, ptr %55, align 8, !tbaa !23, !alias.scope !76
  store i8 0, ptr %54, align 8, !tbaa !24, !alias.scope !76
  %56 = add nuw i64 %52, 9
  invoke void @_ZNSt7__cxx1112basic_stringIcSt11char_traitsIcESaIcEE7reserveEm(ptr noundef nonnull align 8 dereferenceable(32) %7, i64 noundef %56)
          to label %57 unwind label %72

57:                                               ; preds = %46
  %58 = load i64, ptr %55, align 8, !tbaa !23, !alias.scope !76
  %59 = icmp ult i64 %58, 9223372036854775807
  call void @llvm.assume(i1 %59)
  %60 = sub nuw nsw i64 9223372036854775806, %58
  %61 = icmp samesign ult i64 %60, %52
  br i1 %61, label %68, label %62

62:                                               ; preds = %57
  %63 = invoke noundef nonnull align 8 dereferenceable(32) ptr @_ZNSt7__cxx1112basic_stringIcSt11char_traitsIcESaIcEE9_M_appendEPKcm(ptr noundef nonnull align 8 dereferenceable(32) %7, ptr noundef %51, i64 noundef %52)
          to label %64 unwind label %72

64:                                               ; preds = %62
  %65 = load i64, ptr %55, align 8, !tbaa !23, !alias.scope !76
  %66 = icmp ult i64 %65, 9223372036854775807
  call void @llvm.assume(i1 %66)
  %67 = icmp samesign ugt i64 %65, 9223372036854775797
  br i1 %67, label %68, label %70

68:                                               ; preds = %64, %57
  invoke void @_ZSt20__throw_length_errorPKc(ptr noundef nonnull @.str.92) #34
          to label %69 unwind label %72

69:                                               ; preds = %68
  unreachable

70:                                               ; preds = %64
  %71 = invoke noundef nonnull align 8 dereferenceable(32) ptr @_ZNSt7__cxx1112basic_stringIcSt11char_traitsIcESaIcEE9_M_appendEPKcm(ptr noundef nonnull align 8 dereferenceable(32) %7, ptr noundef nonnull @.str.82, i64 noundef 9)
          to label %82 unwind label %72

72:                                               ; preds = %70, %68, %62, %46
  %73 = landingpad { ptr, i32 }
          cleanup
  %74 = load ptr, ptr %7, align 8, !tbaa !19, !alias.scope !76
  %75 = icmp eq ptr %74, %54
  br i1 %75, label %76, label %79

76:                                               ; preds = %72
  %77 = load i64, ptr %55, align 8, !tbaa !23, !alias.scope !76
  %78 = icmp ult i64 %77, 16
  call void @llvm.assume(i1 %78)
  br label %160

79:                                               ; preds = %72
  %80 = load i64, ptr %54, align 8, !tbaa !24, !alias.scope !76
  %81 = add i64 %80, 1
  call void @_ZdlPvm(ptr noundef %74, i64 noundef %81) #32
  br label %160

82:                                               ; preds = %70
  %83 = load ptr, ptr %8, align 8, !tbaa !19
  %84 = getelementptr inbounds nuw i8, ptr %1, i64 528
  %85 = icmp eq ptr %83, %84
  br i1 %85, label %86, label %91

86:                                               ; preds = %82
  %87 = load i64, ptr %9, align 8, !tbaa !23
  %88 = icmp ult i64 %87, 16
  call void @llvm.assume(i1 %88)
  %89 = load ptr, ptr %7, align 8, !tbaa !19
  %90 = icmp eq ptr %89, %54
  br i1 %90, label %94, label %111

91:                                               ; preds = %82
  %92 = load ptr, ptr %7, align 8, !tbaa !19
  %93 = icmp eq ptr %92, %54
  br i1 %93, label %94, label %109

94:                                               ; preds = %91, %86
  %95 = phi ptr [ %92, %91 ], [ %89, %86 ]
  %96 = load i64, ptr %55, align 8, !tbaa !23
  %97 = icmp ult i64 %96, 16
  call void @llvm.assume(i1 %97)
  %98 = icmp eq ptr %7, %8
  br i1 %98, label %121, label %99, !prof !79

99:                                               ; preds = %94
  switch i64 %96, label %102 [
    i64 0, label %103
    i64 1, label %100
  ]

100:                                              ; preds = %99
  %101 = load i8, ptr %95, align 1, !tbaa !24
  store i8 %101, ptr %83, align 1, !tbaa !24
  br label %103

102:                                              ; preds = %99
  call void @llvm.memcpy.p0.p0.i64(ptr align 1 %83, ptr align 1 %95, i64 %96, i1 false)
  br label %103

103:                                              ; preds = %102, %100, %99
  %104 = load i64, ptr %55, align 8, !tbaa !23
  %105 = icmp ult i64 %104, 9223372036854775807
  call void @llvm.assume(i1 %105)
  store i64 %104, ptr %9, align 8, !tbaa !23
  %106 = load ptr, ptr %8, align 8, !tbaa !19
  %107 = getelementptr inbounds nuw i8, ptr %106, i64 %104
  store i8 0, ptr %107, align 1, !tbaa !24
  %108 = load ptr, ptr %7, align 8, !tbaa !19
  br label %121

109:                                              ; preds = %91
  %110 = load i64, ptr %84, align 8, !tbaa !24
  br label %111

111:                                              ; preds = %109, %86
  %112 = phi ptr [ %92, %109 ], [ %89, %86 ]
  %113 = phi ptr [ %83, %109 ], [ null, %86 ]
  %114 = phi i64 [ %110, %109 ], [ undef, %86 ]
  store ptr %112, ptr %8, align 8, !tbaa !19
  %115 = load i64, ptr %55, align 8, !tbaa !23
  %116 = icmp ult i64 %115, 9223372036854775807
  call void @llvm.assume(i1 %116)
  store i64 %115, ptr %9, align 8, !tbaa !23
  %117 = load i64, ptr %54, align 8, !tbaa !24
  store i64 %117, ptr %84, align 8, !tbaa !24
  %118 = icmp eq ptr %113, null
  br i1 %118, label %120, label %119

119:                                              ; preds = %111
  store ptr %113, ptr %7, align 8, !tbaa !19
  store i64 %114, ptr %54, align 8, !tbaa !24
  br label %121

120:                                              ; preds = %111
  store ptr %54, ptr %7, align 8, !tbaa !19
  br label %121

121:                                              ; preds = %120, %119, %103, %94
  %122 = phi ptr [ %108, %103 ], [ %113, %119 ], [ %54, %120 ], [ %95, %94 ]
  store i64 0, ptr %55, align 8, !tbaa !23
  store i8 0, ptr %122, align 1, !tbaa !24
  %123 = load ptr, ptr %7, align 8, !tbaa !19
  %124 = icmp eq ptr %123, %54
  br i1 %124, label %125, label %128

125:                                              ; preds = %121
  %126 = load i64, ptr %55, align 8, !tbaa !23
  %127 = icmp ult i64 %126, 16
  call void @llvm.assume(i1 %127)
  br label %131

128:                                              ; preds = %121
  %129 = load i64, ptr %54, align 8, !tbaa !24
  %130 = add i64 %129, 1
  call void @_ZdlPvm(ptr noundef %123, i64 noundef %130) #32
  br label %131

131:                                              ; preds = %128, %125
  call void @llvm.lifetime.end.p0(ptr %7)
  %132 = getelementptr inbounds nuw i8, ptr %0, i64 16
  store ptr %132, ptr %0, align 8, !tbaa !70
  %133 = load ptr, ptr %8, align 8, !tbaa !19
  %134 = load i64, ptr %9, align 8, !tbaa !23
  %135 = icmp ult i64 %134, 9223372036854775807
  call void @llvm.assume(i1 %135)
  call void @llvm.lifetime.start.p0(ptr %3)
  store i64 %134, ptr %3, align 8, !tbaa !71
  %136 = icmp samesign ugt i64 %134, 15
  br i1 %136, label %137, label %141

137:                                              ; preds = %131
  %138 = invoke noundef ptr @_ZNSt7__cxx1112basic_stringIcSt11char_traitsIcESaIcEE9_M_createERmm(ptr noundef nonnull align 8 dereferenceable(32) %0, ptr noundef nonnull align 8 dereferenceable(8) %3, i64 noundef 0)
          to label %139 unwind label %161

139:                                              ; preds = %137
  store ptr %138, ptr %0, align 8, !tbaa !19
  %140 = load i64, ptr %3, align 8, !tbaa !71
  store i64 %140, ptr %132, align 8, !tbaa !24
  br label %141

141:                                              ; preds = %139, %131
  %142 = phi i64 [ %140, %139 ], [ %134, %131 ]
  %143 = phi ptr [ %138, %139 ], [ %132, %131 ]
  switch i64 %142, label %146 [
    i64 0, label %144
    i64 -1, label %148
  ]

144:                                              ; preds = %141
  %145 = load i8, ptr %133, align 1, !tbaa !24
  store i8 %145, ptr %143, align 1, !tbaa !24
  br label %148

146:                                              ; preds = %141
  %147 = add nuw i64 %142, 1
  call void @llvm.memcpy.p0.p0.i64(ptr noundef nonnull align 1 dereferenceable(1) %143, ptr noundef nonnull align 1 dereferenceable(1) %133, i64 %147, i1 false)
  br label %148

148:                                              ; preds = %146, %144, %141
  %149 = load i64, ptr %3, align 8, !tbaa !71
  %150 = getelementptr inbounds nuw i8, ptr %0, i64 8
  store i64 %149, ptr %150, align 8, !tbaa !23
  call void @llvm.lifetime.end.p0(ptr %3)
  %151 = load ptr, ptr %6, align 8, !tbaa !19
  %152 = icmp eq ptr %151, %32
  br i1 %152, label %153, label %156

153:                                              ; preds = %148
  %154 = load i64, ptr %48, align 8, !tbaa !23
  %155 = icmp ult i64 %154, 16
  call void @llvm.assume(i1 %155)
  br label %159

156:                                              ; preds = %148
  %157 = load i64, ptr %32, align 8, !tbaa !24
  %158 = add i64 %157, 1
  call void @_ZdlPvm(ptr noundef %151, i64 noundef %158) #32
  br label %159

159:                                              ; preds = %156, %153
  call void @llvm.lifetime.end.p0(ptr %6)
  br label %174

160:                                              ; preds = %79, %76
  call void @llvm.lifetime.end.p0(ptr %7)
  br label %163

161:                                              ; preds = %137
  %162 = landingpad { ptr, i32 }
          cleanup
  br label %163

163:                                              ; preds = %161, %160
  %164 = phi { ptr, i32 } [ %162, %161 ], [ %73, %160 ]
  %165 = load ptr, ptr %6, align 8, !tbaa !19
  %166 = icmp eq ptr %165, %32
  br i1 %166, label %167, label %170

167:                                              ; preds = %163
  %168 = load i64, ptr %48, align 8, !tbaa !23
  %169 = icmp ult i64 %168, 16
  call void @llvm.assume(i1 %169)
  br label %173

170:                                              ; preds = %163
  %171 = load i64, ptr %32, align 8, !tbaa !24
  %172 = add i64 %171, 1
  call void @_ZdlPvm(ptr noundef %165, i64 noundef %172) #32
  br label %173

173:                                              ; preds = %170, %167
  call void @llvm.lifetime.end.p0(ptr %6)
  resume { ptr, i32 } %164

174:                                              ; preds = %159, %27
  ret void
}

; Function Attrs: nobuiltin allocsize(0)
declare noalias noundef nonnull ptr @_Znwm(i64 noundef) local_unnamed_addr #4

declare i32 @__gxx_personality_v0(...)

; Function Attrs: nobuiltin nounwind
declare void @_ZdlPvm(ptr noundef, i64 noundef) local_unnamed_addr #5

; Function Attrs: mustprogress sspstrong uwtable
define hidden noundef zeroext i1 @_ZN5osgeo4proj14DiskChunkCache10initializeEv(ptr noundef nonnull align 8 dereferenceable(56) %0) local_unnamed_addr #3 align 2 personality ptr @__gxx_personality_v0 {
  %2 = alloca %"class.std::__cxx11::basic_string", align 8
  %3 = alloca %"class.std::unique_ptr.18", align 8
  %4 = alloca ptr, align 8
  %5 = alloca i32, align 4
  %6 = alloca i32, align 4
  call void @llvm.lifetime.start.p0(ptr %2)
  %7 = getelementptr inbounds nuw i8, ptr %2, i64 16
  store ptr %7, ptr %2, align 8, !tbaa !70
  %8 = getelementptr inbounds nuw i8, ptr %2, i64 8
  store i64 0, ptr %8, align 8, !tbaa !23
  store i8 0, ptr %7, align 8, !tbaa !24
  %9 = load ptr, ptr %0, align 8, !tbaa !59
  %10 = getelementptr inbounds nuw i8, ptr %9, i64 320
  %11 = load i64, ptr %10, align 8, !tbaa !23
  %12 = icmp eq i64 %11, 0
  br i1 %12, label %13, label %39

13:                                               ; preds = %1
  call void @llvm.lifetime.start.p0(ptr %3)
  invoke void @_ZN5osgeo4proj10SQLite3VFS6createEbbb(ptr dead_on_unwind nonnull writable sret(%"class.std::unique_ptr.18") align 8 %3, i1 noundef zeroext true, i1 noundef zeroext false, i1 noundef zeroext false)
          to label %14 unwind label %28

14:                                               ; preds = %13
  %15 = getelementptr inbounds nuw i8, ptr %0, i64 48
  %16 = load ptr, ptr %3, align 8, !tbaa !80
  store ptr null, ptr %3, align 8, !tbaa !80
  %17 = load ptr, ptr %15, align 8, !tbaa !80
  store ptr %16, ptr %15, align 8, !tbaa !80
  %18 = icmp eq ptr %17, null
  br i1 %18, label %25, label %19

19:                                               ; preds = %14
  call void @_ZN5osgeo4proj10SQLite3VFSD1Ev(ptr noundef nonnull align 8 dereferenceable(8) %17) #31
  call void @_ZdlPvm(ptr noundef nonnull %17, i64 noundef 8) #32
  %20 = load ptr, ptr %3, align 8, !tbaa !80
  %21 = icmp eq ptr %20, null
  br i1 %21, label %23, label %22

22:                                               ; preds = %19
  call void @_ZN5osgeo4proj10SQLite3VFSD1Ev(ptr noundef nonnull align 8 dereferenceable(8) %20) #31
  call void @_ZdlPvm(ptr noundef nonnull %20, i64 noundef 8) #32
  br label %23

23:                                               ; preds = %22, %19
  %24 = load ptr, ptr %15, align 8, !tbaa !80
  br label %25

25:                                               ; preds = %23, %14
  %26 = phi ptr [ %24, %23 ], [ %16, %14 ]
  call void @llvm.lifetime.end.p0(ptr %3)
  %27 = icmp eq ptr %26, null
  br i1 %27, label %137, label %30

28:                                               ; preds = %13
  %29 = landingpad { ptr, i32 }
          cleanup
  call void @llvm.lifetime.end.p0(ptr %3)
  br label %148

30:                                               ; preds = %25
  %31 = invoke noundef ptr @_ZNK5osgeo4proj10SQLite3VFS4nameEv(ptr noundef nonnull align 8 dereferenceable(8) %26)
          to label %32 unwind label %37

32:                                               ; preds = %30
  %33 = load i64, ptr %8, align 8, !tbaa !23
  %34 = icmp ult i64 %33, 9223372036854775807
  call void @llvm.assume(i1 %34)
  %35 = call noundef i64 @strlen(ptr noundef nonnull dereferenceable(1) %31) #31
  %36 = invoke noundef nonnull align 8 dereferenceable(32) ptr @_ZNSt7__cxx1112basic_stringIcSt11char_traitsIcESaIcEE10_M_replaceEmmPKcm(ptr noundef nonnull align 8 dereferenceable(32) %2, i64 noundef 0, i64 noundef %33, ptr noundef nonnull %31, i64 noundef %35)
          to label %41 unwind label %37

37:                                               ; preds = %50, %41, %39, %32, %30
  %38 = landingpad { ptr, i32 }
          cleanup
  br label %148

39:                                               ; preds = %1
  %40 = getelementptr inbounds nuw i8, ptr %9, i64 312
  invoke void @_ZNSt7__cxx1112basic_stringIcSt11char_traitsIcESaIcEE9_M_assignERKS4_(ptr noundef nonnull align 8 dereferenceable(32) %2, ptr noundef nonnull align 8 dereferenceable(32) %40)
          to label %41 unwind label %37

41:                                               ; preds = %39, %32
  %42 = getelementptr inbounds nuw i8, ptr %0, i64 8
  %43 = load ptr, ptr %42, align 8, !tbaa !19
  %44 = getelementptr inbounds nuw i8, ptr %0, i64 40
  %45 = load ptr, ptr %2, align 8, !tbaa !19
  %46 = invoke i32 @sqlite3_open_v2(ptr noundef %43, ptr noundef nonnull %44, i32 noundef 6, ptr noundef %45)
          to label %47 unwind label %37

47:                                               ; preds = %41
  %48 = load ptr, ptr %44, align 8, !tbaa !81
  %49 = icmp eq ptr %48, null
  br i1 %49, label %50, label %53

50:                                               ; preds = %47
  %51 = load ptr, ptr %0, align 8, !tbaa !59
  %52 = load ptr, ptr %42, align 8, !tbaa !19
  invoke void (ptr, i32, ptr, ...) @_Z6pj_logP6pj_ctxiPKcz(ptr noundef %51, i32 noundef 1, ptr noundef nonnull @.str, ptr noundef %52)
          to label %137 unwind label %37

53:                                               ; preds = %101, %47
  %54 = phi ptr [ %103, %101 ], [ %48, %47 ]
  %55 = phi i32 [ %102, %101 ], [ 0, %47 ]
  %56 = invoke i32 @sqlite3_exec(ptr noundef %54, ptr noundef nonnull @.str.2, ptr noundef null, ptr noundef null, ptr noundef null)
          to label %57 unwind label %58

57:                                               ; preds = %53
  switch i32 %56, label %62 [
    i32 0, label %104
    i32 5, label %71
  ]

58:                                               ; preds = %53
  %59 = landingpad { ptr, i32 }
          cleanup
  br label %148

60:                                               ; preds = %67, %66, %62
  %61 = landingpad { ptr, i32 }
          cleanup
  br label %148

62:                                               ; preds = %57
  %63 = load ptr, ptr %0, align 8, !tbaa !59
  %64 = load ptr, ptr %44, align 8, !tbaa !81
  %65 = invoke ptr @sqlite3_errmsg(ptr noundef %64)
          to label %66 unwind label %60

66:                                               ; preds = %62
  invoke void (ptr, i32, ptr, ...) @_Z6pj_logP6pj_ctxiPKcz(ptr noundef %63, i32 noundef 1, ptr noundef nonnull @.str.3, ptr noundef %65)
          to label %67 unwind label %60

67:                                               ; preds = %66
  %68 = load ptr, ptr %44, align 8, !tbaa !81
  %69 = invoke i32 @sqlite3_close(ptr noundef %68)
          to label %70 unwind label %60

70:                                               ; preds = %67
  store ptr null, ptr %44, align 8, !tbaa !81
  br label %137

71:                                               ; preds = %57
  %72 = call ptr @getenv(ptr noundef nonnull @.str.4) #31
  %73 = icmp eq ptr %72, null
  br i1 %73, label %80, label %74

74:                                               ; preds = %71
  %75 = load i8, ptr %72, align 1, !tbaa !24
  %76 = icmp eq i8 %75, 0
  br i1 %76, label %80, label %77

77:                                               ; preds = %74
  %78 = call i64 @__isoc23_strtol(ptr noundef nonnull %72, ptr noundef null, i32 noundef 10) #31
  %79 = trunc i64 %78 to i32
  br label %80

80:                                               ; preds = %77, %74, %71
  %81 = phi i32 [ %79, %77 ], [ 30, %74 ], [ 30, %71 ]
  %82 = icmp slt i32 %55, %81
  %83 = load ptr, ptr %0, align 8, !tbaa !59
  br i1 %82, label %94, label %84

84:                                               ; preds = %80
  %85 = load ptr, ptr %42, align 8, !tbaa !19
  invoke void (ptr, i32, ptr, ...) @_Z6pj_logP6pj_ctxiPKcz(ptr noundef %83, i32 noundef 1, ptr noundef nonnull @.str.5, ptr noundef %85)
          to label %86 unwind label %92

86:                                               ; preds = %84
  %87 = load ptr, ptr %44, align 8, !tbaa !81
  %88 = invoke i32 @sqlite3_close(ptr noundef %87)
          to label %89 unwind label %92

89:                                               ; preds = %86
  store ptr null, ptr %44, align 8, !tbaa !81
  br label %137

90:                                               ; preds = %95, %94
  %91 = landingpad { ptr, i32 }
          cleanup
  br label %148

92:                                               ; preds = %86, %84
  %93 = landingpad { ptr, i32 }
          cleanup
  br label %148

94:                                               ; preds = %80
  invoke void (ptr, i32, ptr, ...) @_Z6pj_logP6pj_ctxiPKcz(ptr noundef %83, i32 noundef 3, ptr noundef nonnull @.str.6)
          to label %95 unwind label %90

95:                                               ; preds = %94
  %96 = icmp samesign ult i32 %55, 10
  %97 = icmp samesign ult i32 %55, 20
  %98 = select i1 %97, i32 10000, i32 100000
  %99 = select i1 %96, i32 5000, i32 %98
  %100 = invoke i32 @usleep(i32 noundef %99)
          to label %101 unwind label %90

101:                                              ; preds = %95
  %102 = add nuw nsw i32 %55, 1
  %103 = load ptr, ptr %44, align 8, !tbaa !81
  br label %53, !llvm.loop !82

104:                                              ; preds = %57
  call void @llvm.lifetime.start.p0(ptr %4)
  store ptr null, ptr %4, align 8, !tbaa !83
  call void @llvm.lifetime.start.p0(ptr %5)
  store i32 0, ptr %5, align 4, !tbaa !84
  call void @llvm.lifetime.start.p0(ptr %6)
  store i32 0, ptr %6, align 4, !tbaa !84
  %105 = load ptr, ptr %44, align 8, !tbaa !81
  %106 = invoke i32 @sqlite3_get_table(ptr noundef %105, ptr noundef nonnull @.str.7, ptr noundef nonnull %4, ptr noundef nonnull %5, ptr noundef nonnull %6, ptr noundef null)
          to label %107 unwind label %128

107:                                              ; preds = %104
  %108 = load ptr, ptr %4, align 8, !tbaa !83
  invoke void @sqlite3_free_table(ptr noundef %108)
          to label %109 unwind label %128

109:                                              ; preds = %107
  %110 = load i32, ptr %5, align 4, !tbaa !84
  %111 = icmp eq i32 %110, 0
  br i1 %111, label %112, label %130

112:                                              ; preds = %109
  %113 = load ptr, ptr %0, align 8, !tbaa !59
  invoke void (ptr, i32, ptr, ...) @_Z6pj_logP6pj_ctxiPKcz(ptr noundef %113, i32 noundef 3, ptr noundef nonnull @.str.9)
          to label %114 unwind label %128

114:                                              ; preds = %112
  %115 = load ptr, ptr %44, align 8, !tbaa !81
  %116 = invoke i32 @sqlite3_exec(ptr noundef %115, ptr noundef nonnull @.str.83, ptr noundef null, ptr noundef null, ptr noundef null)
          to label %117 unwind label %128

117:                                              ; preds = %114
  %118 = icmp eq i32 %116, 0
  br i1 %118, label %130, label %119

119:                                              ; preds = %117
  %120 = load ptr, ptr %0, align 8, !tbaa !59
  %121 = load ptr, ptr %44, align 8, !tbaa !81
  %122 = invoke ptr @sqlite3_errmsg(ptr noundef %121)
          to label %123 unwind label %128

123:                                              ; preds = %119
  invoke void (ptr, i32, ptr, ...) @_Z6pj_logP6pj_ctxiPKcz(ptr noundef %120, i32 noundef 1, ptr noundef nonnull @.str.3, ptr noundef %122)
          to label %124 unwind label %128

124:                                              ; preds = %123
  %125 = load ptr, ptr %44, align 8, !tbaa !81
  %126 = invoke i32 @sqlite3_close(ptr noundef %125)
          to label %127 unwind label %128

127:                                              ; preds = %124
  store ptr null, ptr %44, align 8, !tbaa !81
  br label %135

128:                                              ; preds = %133, %124, %123, %119, %114, %112, %107, %104
  %129 = landingpad { ptr, i32 }
          cleanup
  call void @llvm.lifetime.end.p0(ptr %6)
  call void @llvm.lifetime.end.p0(ptr %5)
  call void @llvm.lifetime.end.p0(ptr %4)
  br label %148

130:                                              ; preds = %117, %109
  %131 = call ptr @getenv(ptr noundef nonnull @.str.8) #31
  %132 = icmp eq ptr %131, null
  br i1 %132, label %135, label %133

133:                                              ; preds = %130
  %134 = invoke noundef zeroext i1 @_ZN5osgeo4proj14DiskChunkCache16checkConsistencyEv(ptr noundef nonnull align 8 dereferenceable(56) %0)
          to label %135 unwind label %128

135:                                              ; preds = %133, %130, %127
  %136 = phi i1 [ false, %127 ], [ true, %133 ], [ true, %130 ]
  call void @llvm.lifetime.end.p0(ptr %6)
  call void @llvm.lifetime.end.p0(ptr %5)
  call void @llvm.lifetime.end.p0(ptr %4)
  br label %137

137:                                              ; preds = %135, %89, %70, %50, %25
  %138 = phi i1 [ %136, %135 ], [ false, %25 ], [ false, %50 ], [ false, %70 ], [ false, %89 ]
  %139 = load ptr, ptr %2, align 8, !tbaa !19
  %140 = icmp eq ptr %139, %7
  br i1 %140, label %141, label %144

141:                                              ; preds = %137
  %142 = load i64, ptr %8, align 8, !tbaa !23
  %143 = icmp ult i64 %142, 16
  call void @llvm.assume(i1 %143)
  br label %147

144:                                              ; preds = %137
  %145 = load i64, ptr %7, align 8, !tbaa !24
  %146 = add i64 %145, 1
  call void @_ZdlPvm(ptr noundef %139, i64 noundef %146) #32
  br label %147

147:                                              ; preds = %144, %141
  call void @llvm.lifetime.end.p0(ptr %2)
  ret i1 %138

148:                                              ; preds = %128, %92, %90, %60, %58, %37, %28
  %149 = phi { ptr, i32 } [ %129, %128 ], [ %38, %37 ], [ %29, %28 ], [ %59, %58 ], [ %61, %60 ], [ %91, %90 ], [ %93, %92 ]
  %150 = load ptr, ptr %2, align 8, !tbaa !19
  %151 = icmp eq ptr %150, %7
  br i1 %151, label %152, label %155

152:                                              ; preds = %148
  %153 = load i64, ptr %8, align 8, !tbaa !23
  %154 = icmp ult i64 %153, 16
  call void @llvm.assume(i1 %154)
  br label %158

155:                                              ; preds = %148
  %156 = load i64, ptr %7, align 8, !tbaa !24
  %157 = add i64 %156, 1
  call void @_ZdlPvm(ptr noundef %150, i64 noundef %157) #32
  br label %158

158:                                              ; preds = %155, %152
  call void @llvm.lifetime.end.p0(ptr %2)
  resume { ptr, i32 } %149
}

; Function Attrs: mustprogress nounwind sspstrong uwtable
define linkonce_odr hidden void @_ZNSt10unique_ptrIN5osgeo4proj14DiskChunkCacheESt14default_deleteIS2_EED2Ev(ptr noundef nonnull align 8 dereferenceable(8) %0) unnamed_addr #6 comdat align 2 personality ptr @__gxx_personality_v0 {
  %2 = load ptr, ptr %0, align 8, !tbaa !72
  %3 = icmp eq ptr %2, null
  br i1 %3, label %5, label %4

4:                                                ; preds = %1
  tail call void @_ZN5osgeo4proj14DiskChunkCacheD2Ev(ptr noundef nonnull align 8 dereferenceable(56) %2) #31
  tail call void @_ZdlPvm(ptr noundef nonnull %2, i64 noundef 56) #32
  br label %5

5:                                                ; preds = %4, %1
  store ptr null, ptr %0, align 8, !tbaa !72
  ret void
}

; Function Attrs: mustprogress sspstrong uwtable
define hidden void @_ZN5osgeo4proj14DiskChunkCacheC2EP6pj_ctxRKNSt7__cxx1112basic_stringIcSt11char_traitsIcESaIcEEE(ptr noundef nonnull align 8 dereferenceable(56) initializes((0, 8)) %0, ptr noundef %1, ptr noundef nonnull readonly align 8 captures(none) dereferenceable(32) %2) unnamed_addr #3 align 2 personality ptr @__gxx_personality_v0 {
  %4 = alloca i64, align 8
  store ptr %1, ptr %0, align 8, !tbaa !59
  %5 = getelementptr inbounds nuw i8, ptr %0, i64 8
  %6 = getelementptr inbounds nuw i8, ptr %0, i64 24
  store ptr %6, ptr %5, align 8, !tbaa !70
  %7 = load ptr, ptr %2, align 8, !tbaa !19
  %8 = getelementptr inbounds nuw i8, ptr %2, i64 8
  %9 = load i64, ptr %8, align 8, !tbaa !23
  %10 = icmp ult i64 %9, 9223372036854775807
  tail call void @llvm.assume(i1 %10)
  call void @llvm.lifetime.start.p0(ptr %4)
  store i64 %9, ptr %4, align 8, !tbaa !71
  %11 = icmp samesign ugt i64 %9, 15
  br i1 %11, label %12, label %15

12:                                               ; preds = %3
  %13 = call noundef ptr @_ZNSt7__cxx1112basic_stringIcSt11char_traitsIcESaIcEE9_M_createERmm(ptr noundef nonnull align 8 dereferenceable(32) %5, ptr noundef nonnull align 8 dereferenceable(8) %4, i64 noundef 0)
  store ptr %13, ptr %5, align 8, !tbaa !19
  %14 = load i64, ptr %4, align 8, !tbaa !71
  store i64 %14, ptr %6, align 8, !tbaa !24
  br label %15

15:                                               ; preds = %12, %3
  %16 = phi i64 [ %14, %12 ], [ %9, %3 ]
  %17 = phi ptr [ %13, %12 ], [ %6, %3 ]
  switch i64 %16, label %20 [
    i64 0, label %18
    i64 -1, label %22
  ]

18:                                               ; preds = %15
  %19 = load i8, ptr %7, align 1, !tbaa !24
  store i8 %19, ptr %17, align 1, !tbaa !24
  br label %22

20:                                               ; preds = %15
  %21 = add nuw i64 %16, 1
  call void @llvm.memcpy.p0.p0.i64(ptr noundef nonnull align 1 dereferenceable(1) %17, ptr noundef nonnull align 1 dereferenceable(1) %7, i64 %21, i1 false)
  br label %22

22:                                               ; preds = %20, %18, %15
  %23 = load i64, ptr %4, align 8, !tbaa !71
  %24 = getelementptr inbounds nuw i8, ptr %0, i64 16
  store i64 %23, ptr %24, align 8, !tbaa !23
  call void @llvm.lifetime.end.p0(ptr %4)
  %25 = getelementptr inbounds nuw i8, ptr %0, i64 40
  call void @llvm.memset.p0.i64(ptr noundef nonnull align 8 dereferenceable(16) %25, i8 0, i64 16, i1 false)
  ret void
}

declare void @_ZN5osgeo4proj10SQLite3VFS6createEbbb(ptr dead_on_unwind writable sret(%"class.std::unique_ptr.18") align 8, i1 noundef zeroext, i1 noundef zeroext, i1 noundef zeroext) local_unnamed_addr #7

declare noundef ptr @_ZNK5osgeo4proj10SQLite3VFS4nameEv(ptr noundef nonnull align 8 dereferenceable(8)) local_unnamed_addr #7

declare i32 @sqlite3_open_v2(ptr noundef, ptr noundef, i32 noundef, ptr noundef) local_unnamed_addr #7

declare void @_Z6pj_logP6pj_ctxiPKcz(ptr noundef, i32 noundef, ptr noundef, ...) local_unnamed_addr #7

declare i32 @sqlite3_exec(ptr noundef, ptr noundef, ptr noundef, ptr noundef, ptr noundef) local_unnamed_addr #7

declare ptr @sqlite3_errmsg(ptr noundef) local_unnamed_addr #7

declare i32 @sqlite3_close(ptr noundef) local_unnamed_addr #7

; Function Attrs: nofree nounwind memory(read)
declare noundef ptr @getenv(ptr noundef captures(none)) local_unnamed_addr #8

declare i32 @sqlite3_get_table(ptr noundef, ptr noundef, ptr noundef, ptr noundef, ptr noundef, ptr noundef) local_unnamed_addr #7

declare void @sqlite3_free_table(ptr noundef) local_unnamed_addr #7

; Function Attrs: mustprogress sspstrong uwtable
define hidden noundef zeroext i1 @_ZN5osgeo4proj14DiskChunkCache17createDBStructureEv(ptr noundef nonnull readonly align 8 captures(none) dereferenceable(56) %0) local_unnamed_addr #3 align 2 {
  %2 = load ptr, ptr %0, align 8, !tbaa !59
  tail call void (ptr, i32, ptr, ...) @_Z6pj_logP6pj_ctxiPKcz(ptr noundef %2, i32 noundef 3, ptr noundef nonnull @.str.9)
  %3 = getelementptr inbounds nuw i8, ptr %0, i64 40
  %4 = load ptr, ptr %3, align 8, !tbaa !81
  %5 = tail call i32 @sqlite3_exec(ptr noundef %4, ptr noundef nonnull @.str.83, ptr noundef null, ptr noundef null, ptr noundef null)
  %6 = icmp eq i32 %5, 0
  br i1 %6, label %11, label %7

7:                                                ; preds = %1
  %8 = load ptr, ptr %0, align 8, !tbaa !59
  %9 = load ptr, ptr %3, align 8, !tbaa !81
  %10 = tail call ptr @sqlite3_errmsg(ptr noundef %9)
  tail call void (ptr, i32, ptr, ...) @_Z6pj_logP6pj_ctxiPKcz(ptr noundef %8, i32 noundef 1, ptr noundef nonnull @.str.3, ptr noundef %10)
  br label %11

11:                                               ; preds = %7, %1
  ret i1 %6
}

; Function Attrs: mustprogress sspstrong uwtable
define hidden noundef zeroext i1 @_ZN5osgeo4proj14DiskChunkCache16checkConsistencyEv(ptr noundef nonnull readonly align 8 captures(none) dereferenceable(56) %0) local_unnamed_addr #3 align 2 personality ptr @__gxx_personality_v0 {
  %2 = alloca %"class.std::unique_ptr.32", align 8
  %3 = alloca %"class.std::unique_ptr.32", align 8
  %4 = alloca %"class.std::unique_ptr.32", align 8
  %5 = alloca %"class.std::unique_ptr.32", align 8
  %6 = alloca %"class.std::unique_ptr.32", align 8
  %7 = alloca %"class.std::set", align 8
  %8 = alloca %"class.std::unique_ptr.32", align 8
  %9 = alloca %"class.std::set", align 8
  %10 = alloca %"class.std::unique_ptr.32", align 8
  call void @llvm.lifetime.start.p0(ptr %2)
  call void @_ZN5osgeo4proj14DiskChunkCache7prepareEPKc(ptr dead_on_unwind nonnull writable sret(%"class.std::unique_ptr.32") align 8 %2, ptr noundef nonnull align 8 dereferenceable(56) %0, ptr noundef nonnull @.str.10)
  %11 = load ptr, ptr %2, align 8, !tbaa !85
  %12 = icmp eq ptr %11, null
  br i1 %12, label %455, label %13

13:                                               ; preds = %1
  %14 = load ptr, ptr %11, align 8, !tbaa !87
  %15 = invoke noundef i32 @sqlite3_step(ptr noundef %14)
          to label %16 unwind label %21

16:                                               ; preds = %13
  %17 = icmp eq i32 %15, 101
  br i1 %17, label %23, label %18

18:                                               ; preds = %16
  %19 = load ptr, ptr @stderr, align 8, !tbaa !90
  %20 = tail call i64 @fwrite(ptr nonnull @.str.11, i64 45, i64 1, ptr %19) #35
  br label %444

21:                                               ; preds = %93, %67, %41, %13
  %22 = landingpad { ptr, i32 }
          cleanup
  br label %457

23:                                               ; preds = %16
  call void @llvm.lifetime.start.p0(ptr %3)
  invoke void @_ZN5osgeo4proj14DiskChunkCache7prepareEPKc(ptr dead_on_unwind nonnull writable sret(%"class.std::unique_ptr.32") align 8 %3, ptr noundef nonnull align 8 dereferenceable(56) %0, ptr noundef nonnull @.str.12)
          to label %24 unwind label %39

24:                                               ; preds = %23
  %25 = load ptr, ptr %3, align 8, !tbaa !85
  %26 = load ptr, ptr %2, align 8, !tbaa !85
  store ptr %25, ptr %2, align 8, !tbaa !85
  %27 = icmp eq ptr %26, null
  br i1 %27, label %36, label %28

28:                                               ; preds = %24
  %29 = load ptr, ptr %26, align 8, !tbaa !87
  %30 = invoke i32 @sqlite3_finalize(ptr noundef %29)
          to label %34 unwind label %31

31:                                               ; preds = %28
  %32 = landingpad { ptr, i32 }
          catch ptr null
  %33 = extractvalue { ptr, i32 } %32, 0
  tail call void @__clang_call_terminate(ptr %33) #36
  unreachable

34:                                               ; preds = %28
  tail call void @_ZdlPvm(ptr noundef nonnull %26, i64 noundef 16) #32
  %35 = load ptr, ptr %2, align 8, !tbaa !85
  br label %36

36:                                               ; preds = %34, %24
  %37 = phi ptr [ %35, %34 ], [ %25, %24 ]
  call void @llvm.lifetime.end.p0(ptr %3)
  %38 = icmp eq ptr %37, null
  br i1 %38, label %444, label %41

39:                                               ; preds = %23
  %40 = landingpad { ptr, i32 }
          cleanup
  call void @llvm.lifetime.end.p0(ptr %3)
  br label %457

41:                                               ; preds = %36
  %42 = load ptr, ptr %37, align 8, !tbaa !87
  %43 = invoke noundef i32 @sqlite3_step(ptr noundef %42)
          to label %44 unwind label %21

44:                                               ; preds = %41
  %45 = icmp eq i32 %43, 101
  br i1 %45, label %49, label %46

46:                                               ; preds = %44
  %47 = load ptr, ptr @stderr, align 8, !tbaa !90
  %48 = tail call i64 @fwrite(ptr nonnull @.str.13, i64 48, i64 1, ptr %47) #35
  br label %444

49:                                               ; preds = %44
  call void @llvm.lifetime.start.p0(ptr %4)
  invoke void @_ZN5osgeo4proj14DiskChunkCache7prepareEPKc(ptr dead_on_unwind nonnull writable sret(%"class.std::unique_ptr.32") align 8 %4, ptr noundef nonnull align 8 dereferenceable(56) %0, ptr noundef nonnull @.str.14)
          to label %50 unwind label %65

50:                                               ; preds = %49
  %51 = load ptr, ptr %4, align 8, !tbaa !85
  %52 = load ptr, ptr %2, align 8, !tbaa !85
  store ptr %51, ptr %2, align 8, !tbaa !85
  %53 = icmp eq ptr %52, null
  br i1 %53, label %62, label %54

54:                                               ; preds = %50
  %55 = load ptr, ptr %52, align 8, !tbaa !87
  %56 = invoke i32 @sqlite3_finalize(ptr noundef %55)
          to label %60 unwind label %57

57:                                               ; preds = %54
  %58 = landingpad { ptr, i32 }
          catch ptr null
  %59 = extractvalue { ptr, i32 } %58, 0
  tail call void @__clang_call_terminate(ptr %59) #36
  unreachable

60:                                               ; preds = %54
  tail call void @_ZdlPvm(ptr noundef nonnull %52, i64 noundef 16) #32
  %61 = load ptr, ptr %2, align 8, !tbaa !85
  br label %62

62:                                               ; preds = %60, %50
  %63 = phi ptr [ %61, %60 ], [ %51, %50 ]
  call void @llvm.lifetime.end.p0(ptr %4)
  %64 = icmp eq ptr %63, null
  br i1 %64, label %444, label %67

65:                                               ; preds = %49
  %66 = landingpad { ptr, i32 }
          cleanup
  call void @llvm.lifetime.end.p0(ptr %4)
  br label %457

67:                                               ; preds = %62
  %68 = load ptr, ptr %63, align 8, !tbaa !87
  %69 = invoke noundef i32 @sqlite3_step(ptr noundef %68)
          to label %70 unwind label %21

70:                                               ; preds = %67
  %71 = icmp eq i32 %69, 101
  br i1 %71, label %75, label %72

72:                                               ; preds = %70
  %73 = load ptr, ptr @stderr, align 8, !tbaa !90
  %74 = tail call i64 @fwrite(ptr nonnull @.str.15, i64 51, i64 1, ptr %73) #35
  br label %444

75:                                               ; preds = %70
  call void @llvm.lifetime.start.p0(ptr %5)
  invoke void @_ZN5osgeo4proj14DiskChunkCache7prepareEPKc(ptr dead_on_unwind nonnull writable sret(%"class.std::unique_ptr.32") align 8 %5, ptr noundef nonnull align 8 dereferenceable(56) %0, ptr noundef nonnull @.str.16)
          to label %76 unwind label %91

76:                                               ; preds = %75
  %77 = load ptr, ptr %5, align 8, !tbaa !85
  %78 = load ptr, ptr %2, align 8, !tbaa !85
  store ptr %77, ptr %2, align 8, !tbaa !85
  %79 = icmp eq ptr %78, null
  br i1 %79, label %88, label %80

80:                                               ; preds = %76
  %81 = load ptr, ptr %78, align 8, !tbaa !87
  %82 = invoke i32 @sqlite3_finalize(ptr noundef %81)
          to label %86 unwind label %83

83:                                               ; preds = %80
  %84 = landingpad { ptr, i32 }
          catch ptr null
  %85 = extractvalue { ptr, i32 } %84, 0
  tail call void @__clang_call_terminate(ptr %85) #36
  unreachable

86:                                               ; preds = %80
  tail call void @_ZdlPvm(ptr noundef nonnull %78, i64 noundef 16) #32
  %87 = load ptr, ptr %2, align 8, !tbaa !85
  br label %88

88:                                               ; preds = %86, %76
  %89 = phi ptr [ %87, %86 ], [ %77, %76 ]
  call void @llvm.lifetime.end.p0(ptr %5)
  %90 = icmp eq ptr %89, null
  br i1 %90, label %444, label %93

91:                                               ; preds = %75
  %92 = landingpad { ptr, i32 }
          cleanup
  call void @llvm.lifetime.end.p0(ptr %5)
  br label %457

93:                                               ; preds = %88
  %94 = load ptr, ptr %89, align 8, !tbaa !87
  %95 = invoke noundef i32 @sqlite3_step(ptr noundef %94)
          to label %96 unwind label %21

96:                                               ; preds = %93
  %97 = icmp eq i32 %95, 100
  br i1 %97, label %101, label %98

98:                                               ; preds = %96
  %99 = load ptr, ptr @stderr, align 8, !tbaa !90
  %100 = tail call i64 @fwrite(ptr nonnull @.str.17, i64 31, i64 1, ptr %99) #35
  br label %444

101:                                              ; preds = %96
  %102 = load ptr, ptr %2, align 8, !tbaa !85
  %103 = load ptr, ptr %102, align 8, !tbaa !87
  %104 = getelementptr inbounds nuw i8, ptr %102, i64 12
  %105 = load i32, ptr %104, align 4, !tbaa !92
  %106 = invoke noundef i64 @sqlite3_column_int64(ptr noundef %103, i32 noundef %105)
          to label %107 unwind label %126

107:                                              ; preds = %101
  %108 = load i32, ptr %104, align 4, !tbaa !92
  %109 = add nsw i32 %108, 1
  store i32 %109, ptr %104, align 4, !tbaa !92
  %110 = load ptr, ptr %2, align 8, !tbaa !85
  %111 = load ptr, ptr %110, align 8, !tbaa !87
  %112 = getelementptr inbounds nuw i8, ptr %110, i64 12
  %113 = load i32, ptr %112, align 4, !tbaa !92
  %114 = invoke noundef i64 @sqlite3_column_int64(ptr noundef %111, i32 noundef %113)
          to label %115 unwind label %128

115:                                              ; preds = %107
  %116 = load i32, ptr %112, align 4, !tbaa !92
  %117 = add nsw i32 %116, 1
  store i32 %117, ptr %112, align 4, !tbaa !92
  %118 = load ptr, ptr %2, align 8, !tbaa !85
  %119 = load ptr, ptr %118, align 8, !tbaa !87
  %120 = invoke noundef i32 @sqlite3_step(ptr noundef %119)
          to label %121 unwind label %128

121:                                              ; preds = %115
  %122 = icmp eq i32 %120, 101
  br i1 %122, label %130, label %123

123:                                              ; preds = %121
  %124 = load ptr, ptr @stderr, align 8, !tbaa !90
  %125 = tail call i64 @fwrite(ptr nonnull @.str.18, i64 47, i64 1, ptr %124) #35
  br label %444

126:                                              ; preds = %101
  %127 = landingpad { ptr, i32 }
          cleanup
  br label %457

128:                                              ; preds = %148, %115, %107
  %129 = landingpad { ptr, i32 }
          cleanup
  br label %457

130:                                              ; preds = %121
  call void @llvm.lifetime.start.p0(ptr %6)
  invoke void @_ZN5osgeo4proj14DiskChunkCache7prepareEPKc(ptr dead_on_unwind nonnull writable sret(%"class.std::unique_ptr.32") align 8 %6, ptr noundef nonnull align 8 dereferenceable(56) %0, ptr noundef nonnull @.str.19)
          to label %131 unwind label %146

131:                                              ; preds = %130
  %132 = load ptr, ptr %6, align 8, !tbaa !85
  %133 = load ptr, ptr %2, align 8, !tbaa !85
  store ptr %132, ptr %2, align 8, !tbaa !85
  %134 = icmp eq ptr %133, null
  br i1 %134, label %143, label %135

135:                                              ; preds = %131
  %136 = load ptr, ptr %133, align 8, !tbaa !87
  %137 = invoke i32 @sqlite3_finalize(ptr noundef %136)
          to label %141 unwind label %138

138:                                              ; preds = %135
  %139 = landingpad { ptr, i32 }
          catch ptr null
  %140 = extractvalue { ptr, i32 } %139, 0
  tail call void @__clang_call_terminate(ptr %140) #36
  unreachable

141:                                              ; preds = %135
  tail call void @_ZdlPvm(ptr noundef nonnull %133, i64 noundef 16) #32
  %142 = load ptr, ptr %2, align 8, !tbaa !85
  br label %143

143:                                              ; preds = %141, %131
  %144 = phi ptr [ %142, %141 ], [ %132, %131 ]
  call void @llvm.lifetime.end.p0(ptr %6)
  %145 = icmp eq ptr %144, null
  br i1 %145, label %444, label %148

146:                                              ; preds = %130
  %147 = landingpad { ptr, i32 }
          cleanup
  call void @llvm.lifetime.end.p0(ptr %6)
  br label %457

148:                                              ; preds = %143
  %149 = load ptr, ptr %144, align 8, !tbaa !87
  %150 = invoke noundef i32 @sqlite3_step(ptr noundef %149)
          to label %151 unwind label %128

151:                                              ; preds = %148
  %152 = icmp eq i32 %150, 100
  br i1 %152, label %156, label %153

153:                                              ; preds = %151
  %154 = load ptr, ptr @stderr, align 8, !tbaa !90
  %155 = tail call i64 @fwrite(ptr nonnull @.str.17, i64 31, i64 1, ptr %154) #35
  br label %444

156:                                              ; preds = %151
  %157 = load ptr, ptr %2, align 8, !tbaa !85
  %158 = load ptr, ptr %157, align 8, !tbaa !87
  %159 = getelementptr inbounds nuw i8, ptr %157, i64 12
  %160 = load i32, ptr %159, align 4, !tbaa !92
  %161 = invoke noundef i64 @sqlite3_column_int64(ptr noundef %158, i32 noundef %160)
          to label %162 unwind label %178

162:                                              ; preds = %156
  %163 = load i32, ptr %159, align 4, !tbaa !92
  %164 = add nsw i32 %163, 1
  store i32 %164, ptr %159, align 4, !tbaa !92
  %165 = icmp eq i64 %106, 0
  br i1 %165, label %301, label %166

166:                                              ; preds = %162
  call void @llvm.lifetime.start.p0(ptr %7)
  %167 = getelementptr inbounds nuw i8, ptr %7, i64 8
  store i32 0, ptr %167, align 8, !tbaa !93
  %168 = getelementptr inbounds nuw i8, ptr %7, i64 16
  store ptr null, ptr %168, align 8, !tbaa !94
  %169 = getelementptr inbounds nuw i8, ptr %7, i64 24
  store ptr %167, ptr %169, align 8, !tbaa !95
  %170 = getelementptr inbounds nuw i8, ptr %7, i64 32
  store ptr %167, ptr %170, align 8, !tbaa !96
  %171 = getelementptr inbounds nuw i8, ptr %7, i64 40
  store i64 0, ptr %171, align 8, !tbaa !97
  call void @llvm.lifetime.start.p0(ptr %8)
  invoke void @_ZN5osgeo4proj14DiskChunkCache7prepareEPKc(ptr dead_on_unwind nonnull writable sret(%"class.std::unique_ptr.32") align 8 %8, ptr noundef nonnull align 8 dereferenceable(56) %0, ptr noundef nonnull @.str.20)
          to label %172 unwind label %180

172:                                              ; preds = %166
  %173 = call noundef nonnull align 8 dereferenceable(8) ptr @_ZNSt10unique_ptrIN5osgeo4proj15SQLiteStatementESt14default_deleteIS2_EEaSEOS5_(ptr noundef nonnull align 8 dereferenceable(8) %2, ptr noundef nonnull align 8 dereferenceable(8) %8) #31
  call void @_ZNSt10unique_ptrIN5osgeo4proj15SQLiteStatementESt14default_deleteIS2_EED2Ev(ptr noundef nonnull align 8 dereferenceable(8) %8) #31
  call void @llvm.lifetime.end.p0(ptr %8)
  %174 = load ptr, ptr %2, align 8, !tbaa !85
  %175 = icmp eq ptr %174, null
  br i1 %175, label %297, label %176

176:                                              ; preds = %172
  %177 = load ptr, ptr %168, align 8, !tbaa !98
  br label %182

178:                                              ; preds = %156
  %179 = landingpad { ptr, i32 }
          cleanup
  br label %457

180:                                              ; preds = %166
  %181 = landingpad { ptr, i32 }
          cleanup
  call void @llvm.lifetime.end.p0(ptr %8)
  br label %299

182:                                              ; preds = %268, %176
  %183 = phi ptr [ %177, %176 ], [ %266, %268 ]
  %184 = phi i64 [ %106, %176 ], [ %253, %268 ]
  %185 = icmp eq ptr %183, null
  br i1 %185, label %196, label %186

186:                                              ; preds = %186, %182
  %187 = phi ptr [ %193, %186 ], [ %183, %182 ]
  %188 = getelementptr inbounds nuw i8, ptr %187, i64 32
  %189 = load i64, ptr %188, align 8, !tbaa !99
  %190 = icmp slt i64 %184, %189
  %191 = select i1 %190, i64 16, i64 24
  %192 = getelementptr inbounds nuw i8, ptr %187, i64 %191
  %193 = load ptr, ptr %192, align 8, !tbaa !98
  %194 = icmp eq ptr %193, null
  br i1 %194, label %195, label %186, !llvm.loop !100

195:                                              ; preds = %186
  br i1 %190, label %196, label %204

196:                                              ; preds = %195, %182
  %197 = phi ptr [ %187, %195 ], [ %167, %182 ]
  %198 = load ptr, ptr %169, align 8, !tbaa !95
  %199 = icmp eq ptr %197, %198
  br i1 %199, label %208, label %200

200:                                              ; preds = %196
  %201 = call noundef ptr @_ZSt18_Rb_tree_decrementPSt18_Rb_tree_node_base(ptr noundef nonnull %197) #37
  %202 = getelementptr inbounds nuw i8, ptr %201, i64 32
  %203 = load i64, ptr %202, align 8, !tbaa !99
  br label %204

204:                                              ; preds = %200, %195
  %205 = phi i64 [ %203, %200 ], [ %189, %195 ]
  %206 = phi ptr [ %197, %200 ], [ %187, %195 ]
  %207 = icmp slt i64 %205, %184
  br i1 %207, label %208, label %222

208:                                              ; preds = %204, %196
  %209 = phi ptr [ %197, %196 ], [ %206, %204 ]
  %210 = icmp eq ptr %209, %167
  br i1 %210, label %215, label %211

211:                                              ; preds = %208
  %212 = getelementptr inbounds nuw i8, ptr %209, i64 32
  %213 = load i64, ptr %212, align 8, !tbaa !99
  %214 = icmp slt i64 %184, %213
  br label %215

215:                                              ; preds = %211, %208
  %216 = phi i1 [ true, %208 ], [ %214, %211 ]
  %217 = invoke noalias noundef nonnull dereferenceable(40) ptr @_Znwm(i64 noundef 40) #33
          to label %218 unwind label %246

218:                                              ; preds = %215
  %219 = getelementptr inbounds nuw i8, ptr %217, i64 32
  store i64 %184, ptr %219, align 8, !tbaa !99
  call void @_ZSt29_Rb_tree_insert_and_rebalancebPSt18_Rb_tree_node_baseS0_RS_(i1 noundef zeroext %216, ptr noundef nonnull %217, ptr noundef nonnull %209, ptr noundef nonnull align 8 dereferenceable(32) %167) #31
  %220 = load i64, ptr %171, align 8, !tbaa !97
  %221 = add i64 %220, 1
  store i64 %221, ptr %171, align 8, !tbaa !97
  br label %222

222:                                              ; preds = %218, %204
  %223 = load ptr, ptr %2, align 8, !tbaa !85
  %224 = load ptr, ptr %223, align 8, !tbaa !87
  %225 = invoke i32 @sqlite3_reset(ptr noundef %224)
          to label %226 unwind label %246

226:                                              ; preds = %222
  %227 = getelementptr inbounds nuw i8, ptr %223, i64 8
  store i32 1, ptr %227, align 8, !tbaa !101
  %228 = getelementptr inbounds nuw i8, ptr %223, i64 12
  store i32 0, ptr %228, align 4, !tbaa !92
  %229 = load ptr, ptr %2, align 8, !tbaa !85
  %230 = load ptr, ptr %229, align 8, !tbaa !87
  %231 = getelementptr inbounds nuw i8, ptr %229, i64 8
  %232 = load i32, ptr %231, align 8, !tbaa !101
  %233 = invoke i32 @sqlite3_bind_int64(ptr noundef %230, i32 noundef %232, i64 noundef %184)
          to label %234 unwind label %246

234:                                              ; preds = %226
  %235 = load i32, ptr %231, align 8, !tbaa !101
  %236 = add nsw i32 %235, 1
  store i32 %236, ptr %231, align 8, !tbaa !101
  %237 = load ptr, ptr %2, align 8, !tbaa !85
  %238 = load ptr, ptr %237, align 8, !tbaa !87
  %239 = invoke noundef i32 @sqlite3_step(ptr noundef %238)
          to label %240 unwind label %246

240:                                              ; preds = %234
  %241 = icmp eq i32 %239, 100
  br i1 %241, label %248, label %242

242:                                              ; preds = %240
  %243 = load ptr, ptr @stderr, align 8, !tbaa !90
  %244 = trunc i64 %184 to i32
  %245 = call i32 (ptr, ptr, ...) @fprintf(ptr noundef %243, ptr noundef nonnull @.str.21, i32 noundef %244) #38
  br label %297

246:                                              ; preds = %234, %226, %222, %215
  %247 = landingpad { ptr, i32 }
          cleanup
  br label %299

248:                                              ; preds = %240
  %249 = load ptr, ptr %2, align 8, !tbaa !85
  %250 = load ptr, ptr %249, align 8, !tbaa !87
  %251 = getelementptr inbounds nuw i8, ptr %249, i64 12
  %252 = load i32, ptr %251, align 4, !tbaa !92
  %253 = invoke noundef i64 @sqlite3_column_int64(ptr noundef %250, i32 noundef %252)
          to label %254 unwind label %263

254:                                              ; preds = %248
  %255 = load i32, ptr %251, align 4, !tbaa !92
  %256 = add nsw i32 %255, 1
  store i32 %256, ptr %251, align 4, !tbaa !92
  %257 = icmp eq i64 %253, 0
  br i1 %257, label %258, label %265

258:                                              ; preds = %254
  %259 = icmp eq i64 %184, %114
  br i1 %259, label %291, label %260

260:                                              ; preds = %258
  %261 = load ptr, ptr @stderr, align 8, !tbaa !90
  %262 = call i64 @fwrite(ptr nonnull @.str.22, i64 43, i64 1, ptr %261) #35
  br label %297

263:                                              ; preds = %248
  %264 = landingpad { ptr, i32 }
          cleanup
  br label %299

265:                                              ; preds = %254
  %266 = load ptr, ptr %168, align 8, !tbaa !94
  %267 = icmp eq ptr %266, null
  br i1 %267, label %268, label %269

268:                                              ; preds = %282, %280, %265
  br label %182

269:                                              ; preds = %269, %265
  %270 = phi ptr [ %278, %269 ], [ %266, %265 ]
  %271 = phi ptr [ %275, %269 ], [ %167, %265 ]
  %272 = getelementptr inbounds nuw i8, ptr %270, i64 32
  %273 = load i64, ptr %272, align 8, !tbaa !99
  %274 = icmp slt i64 %273, %253
  %275 = select i1 %274, ptr %271, ptr %270
  %276 = select i1 %274, i64 24, i64 16
  %277 = getelementptr inbounds nuw i8, ptr %270, i64 %276
  %278 = load ptr, ptr %277, align 8, !tbaa !98
  %279 = icmp eq ptr %278, null
  br i1 %279, label %280, label %269, !llvm.loop !102

280:                                              ; preds = %269
  %281 = icmp eq ptr %275, %167
  br i1 %281, label %268, label %282

282:                                              ; preds = %280
  %283 = select i1 %274, ptr %271, ptr %270
  %284 = getelementptr inbounds nuw i8, ptr %283, i64 32
  %285 = load i64, ptr %284, align 8, !tbaa !99
  %286 = icmp slt i64 %253, %285
  br i1 %286, label %268, label %287

287:                                              ; preds = %282
  %288 = load ptr, ptr @stderr, align 8, !tbaa !90
  %289 = trunc i64 %253 to i32
  %290 = call i32 (ptr, ptr, ...) @fprintf(ptr noundef %288, ptr noundef nonnull @.str.23, i32 noundef %289) #38
  br label %297

291:                                              ; preds = %258
  %292 = load i64, ptr %171, align 8, !tbaa !97
  %293 = icmp eq i64 %292, %161
  br i1 %293, label %298, label %294

294:                                              ; preds = %291
  %295 = load ptr, ptr @stderr, align 8, !tbaa !90
  %296 = call i64 @fwrite(ptr nonnull @.str.24, i64 50, i64 1, ptr %295) #35
  br label %297

297:                                              ; preds = %294, %287, %260, %242, %172
  call void @_ZNSt3setIxSt4lessIxESaIxEED2Ev(ptr noundef nonnull align 8 dereferenceable(48) %7) #31
  call void @llvm.lifetime.end.p0(ptr %7)
  br label %444

298:                                              ; preds = %291
  call void @_ZNSt3setIxSt4lessIxESaIxEED2Ev(ptr noundef nonnull align 8 dereferenceable(48) %7) #31
  call void @llvm.lifetime.end.p0(ptr %7)
  br label %308

299:                                              ; preds = %263, %246, %180
  %300 = phi { ptr, i32 } [ %247, %246 ], [ %181, %180 ], [ %264, %263 ]
  call void @_ZNSt3setIxSt4lessIxESaIxEED2Ev(ptr noundef nonnull align 8 dereferenceable(48) %7) #31
  call void @llvm.lifetime.end.p0(ptr %7)
  br label %457

301:                                              ; preds = %162
  %302 = icmp eq i64 %161, 0
  br i1 %302, label %306, label %303

303:                                              ; preds = %301
  %304 = load ptr, ptr @stderr, align 8, !tbaa !90
  %305 = tail call i64 @fwrite(ptr nonnull @.str.25, i64 65, i64 1, ptr %304) #35
  br label %444

306:                                              ; preds = %301
  %307 = icmp eq i64 %114, 0
  br i1 %307, label %441, label %308

308:                                              ; preds = %306, %298
  call void @llvm.lifetime.start.p0(ptr %9)
  %309 = getelementptr inbounds nuw i8, ptr %9, i64 8
  store i32 0, ptr %309, align 8, !tbaa !93
  %310 = getelementptr inbounds nuw i8, ptr %9, i64 16
  store ptr null, ptr %310, align 8, !tbaa !94
  %311 = getelementptr inbounds nuw i8, ptr %9, i64 24
  store ptr %309, ptr %311, align 8, !tbaa !95
  %312 = getelementptr inbounds nuw i8, ptr %9, i64 32
  store ptr %309, ptr %312, align 8, !tbaa !96
  %313 = getelementptr inbounds nuw i8, ptr %9, i64 40
  store i64 0, ptr %313, align 8, !tbaa !97
  call void @llvm.lifetime.start.p0(ptr %10)
  invoke void @_ZN5osgeo4proj14DiskChunkCache7prepareEPKc(ptr dead_on_unwind nonnull writable sret(%"class.std::unique_ptr.32") align 8 %10, ptr noundef nonnull align 8 dereferenceable(56) %0, ptr noundef nonnull @.str.26)
          to label %314 unwind label %320

314:                                              ; preds = %308
  %315 = call noundef nonnull align 8 dereferenceable(8) ptr @_ZNSt10unique_ptrIN5osgeo4proj15SQLiteStatementESt14default_deleteIS2_EEaSEOS5_(ptr noundef nonnull align 8 dereferenceable(8) %2, ptr noundef nonnull align 8 dereferenceable(8) %10) #31
  call void @_ZNSt10unique_ptrIN5osgeo4proj15SQLiteStatementESt14default_deleteIS2_EED2Ev(ptr noundef nonnull align 8 dereferenceable(8) %10) #31
  call void @llvm.lifetime.end.p0(ptr %10)
  %316 = load ptr, ptr %2, align 8, !tbaa !85
  %317 = icmp eq ptr %316, null
  br i1 %317, label %437, label %318

318:                                              ; preds = %314
  %319 = load ptr, ptr %310, align 8, !tbaa !98
  br label %322

320:                                              ; preds = %308
  %321 = landingpad { ptr, i32 }
          cleanup
  call void @llvm.lifetime.end.p0(ptr %10)
  br label %439

322:                                              ; preds = %408, %318
  %323 = phi ptr [ %319, %318 ], [ %406, %408 ]
  %324 = phi i64 [ %114, %318 ], [ %393, %408 ]
  %325 = icmp eq ptr %323, null
  br i1 %325, label %336, label %326

326:                                              ; preds = %326, %322
  %327 = phi ptr [ %333, %326 ], [ %323, %322 ]
  %328 = getelementptr inbounds nuw i8, ptr %327, i64 32
  %329 = load i64, ptr %328, align 8, !tbaa !99
  %330 = icmp slt i64 %324, %329
  %331 = select i1 %330, i64 16, i64 24
  %332 = getelementptr inbounds nuw i8, ptr %327, i64 %331
  %333 = load ptr, ptr %332, align 8, !tbaa !98
  %334 = icmp eq ptr %333, null
  br i1 %334, label %335, label %326, !llvm.loop !100

335:                                              ; preds = %326
  br i1 %330, label %336, label %344

336:                                              ; preds = %335, %322
  %337 = phi ptr [ %327, %335 ], [ %309, %322 ]
  %338 = load ptr, ptr %311, align 8, !tbaa !95
  %339 = icmp eq ptr %337, %338
  br i1 %339, label %348, label %340

340:                                              ; preds = %336
  %341 = call noundef ptr @_ZSt18_Rb_tree_decrementPSt18_Rb_tree_node_base(ptr noundef nonnull %337) #37
  %342 = getelementptr inbounds nuw i8, ptr %341, i64 32
  %343 = load i64, ptr %342, align 8, !tbaa !99
  br label %344

344:                                              ; preds = %340, %335
  %345 = phi i64 [ %343, %340 ], [ %329, %335 ]
  %346 = phi ptr [ %337, %340 ], [ %327, %335 ]
  %347 = icmp slt i64 %345, %324
  br i1 %347, label %348, label %362

348:                                              ; preds = %344, %336
  %349 = phi ptr [ %337, %336 ], [ %346, %344 ]
  %350 = icmp eq ptr %349, %309
  br i1 %350, label %355, label %351

351:                                              ; preds = %348
  %352 = getelementptr inbounds nuw i8, ptr %349, i64 32
  %353 = load i64, ptr %352, align 8, !tbaa !99
  %354 = icmp slt i64 %324, %353
  br label %355

355:                                              ; preds = %351, %348
  %356 = phi i1 [ true, %348 ], [ %354, %351 ]
  %357 = invoke noalias noundef nonnull dereferenceable(40) ptr @_Znwm(i64 noundef 40) #33
          to label %358 unwind label %386

358:                                              ; preds = %355
  %359 = getelementptr inbounds nuw i8, ptr %357, i64 32
  store i64 %324, ptr %359, align 8, !tbaa !99
  call void @_ZSt29_Rb_tree_insert_and_rebalancebPSt18_Rb_tree_node_baseS0_RS_(i1 noundef zeroext %356, ptr noundef nonnull %357, ptr noundef nonnull %349, ptr noundef nonnull align 8 dereferenceable(32) %309) #31
  %360 = load i64, ptr %313, align 8, !tbaa !97
  %361 = add i64 %360, 1
  store i64 %361, ptr %313, align 8, !tbaa !97
  br label %362

362:                                              ; preds = %358, %344
  %363 = load ptr, ptr %2, align 8, !tbaa !85
  %364 = load ptr, ptr %363, align 8, !tbaa !87
  %365 = invoke i32 @sqlite3_reset(ptr noundef %364)
          to label %366 unwind label %386

366:                                              ; preds = %362
  %367 = getelementptr inbounds nuw i8, ptr %363, i64 8
  store i32 1, ptr %367, align 8, !tbaa !101
  %368 = getelementptr inbounds nuw i8, ptr %363, i64 12
  store i32 0, ptr %368, align 4, !tbaa !92
  %369 = load ptr, ptr %2, align 8, !tbaa !85
  %370 = load ptr, ptr %369, align 8, !tbaa !87
  %371 = getelementptr inbounds nuw i8, ptr %369, i64 8
  %372 = load i32, ptr %371, align 8, !tbaa !101
  %373 = invoke i32 @sqlite3_bind_int64(ptr noundef %370, i32 noundef %372, i64 noundef %324)
          to label %374 unwind label %386

374:                                              ; preds = %366
  %375 = load i32, ptr %371, align 8, !tbaa !101
  %376 = add nsw i32 %375, 1
  store i32 %376, ptr %371, align 8, !tbaa !101
  %377 = load ptr, ptr %2, align 8, !tbaa !85
  %378 = load ptr, ptr %377, align 8, !tbaa !87
  %379 = invoke noundef i32 @sqlite3_step(ptr noundef %378)
          to label %380 unwind label %386

380:                                              ; preds = %374
  %381 = icmp eq i32 %379, 100
  br i1 %381, label %388, label %382

382:                                              ; preds = %380
  %383 = load ptr, ptr @stderr, align 8, !tbaa !90
  %384 = trunc i64 %324 to i32
  %385 = call i32 (ptr, ptr, ...) @fprintf(ptr noundef %383, ptr noundef nonnull @.str.21, i32 noundef %384) #38
  br label %437

386:                                              ; preds = %374, %366, %362, %355
  %387 = landingpad { ptr, i32 }
          cleanup
  br label %439

388:                                              ; preds = %380
  %389 = load ptr, ptr %2, align 8, !tbaa !85
  %390 = load ptr, ptr %389, align 8, !tbaa !87
  %391 = getelementptr inbounds nuw i8, ptr %389, i64 12
  %392 = load i32, ptr %391, align 4, !tbaa !92
  %393 = invoke noundef i64 @sqlite3_column_int64(ptr noundef %390, i32 noundef %392)
          to label %394 unwind label %403

394:                                              ; preds = %388
  %395 = load i32, ptr %391, align 4, !tbaa !92
  %396 = add nsw i32 %395, 1
  store i32 %396, ptr %391, align 4, !tbaa !92
  %397 = icmp eq i64 %393, 0
  br i1 %397, label %398, label %405

398:                                              ; preds = %394
  %399 = icmp eq i64 %324, %106
  br i1 %399, label %431, label %400

400:                                              ; preds = %398
  %401 = load ptr, ptr @stderr, align 8, !tbaa !90
  %402 = call i64 @fwrite(ptr nonnull @.str.27, i64 43, i64 1, ptr %401) #35
  br label %437

403:                                              ; preds = %388
  %404 = landingpad { ptr, i32 }
          cleanup
  br label %439

405:                                              ; preds = %394
  %406 = load ptr, ptr %310, align 8, !tbaa !94
  %407 = icmp eq ptr %406, null
  br i1 %407, label %408, label %409

408:                                              ; preds = %422, %420, %405
  br label %322

409:                                              ; preds = %409, %405
  %410 = phi ptr [ %418, %409 ], [ %406, %405 ]
  %411 = phi ptr [ %415, %409 ], [ %309, %405 ]
  %412 = getelementptr inbounds nuw i8, ptr %410, i64 32
  %413 = load i64, ptr %412, align 8, !tbaa !99
  %414 = icmp slt i64 %413, %393
  %415 = select i1 %414, ptr %411, ptr %410
  %416 = select i1 %414, i64 24, i64 16
  %417 = getelementptr inbounds nuw i8, ptr %410, i64 %416
  %418 = load ptr, ptr %417, align 8, !tbaa !98
  %419 = icmp eq ptr %418, null
  br i1 %419, label %420, label %409, !llvm.loop !102

420:                                              ; preds = %409
  %421 = icmp eq ptr %415, %309
  br i1 %421, label %408, label %422

422:                                              ; preds = %420
  %423 = select i1 %414, ptr %411, ptr %410
  %424 = getelementptr inbounds nuw i8, ptr %423, i64 32
  %425 = load i64, ptr %424, align 8, !tbaa !99
  %426 = icmp slt i64 %393, %425
  br i1 %426, label %408, label %427

427:                                              ; preds = %422
  %428 = load ptr, ptr @stderr, align 8, !tbaa !90
  %429 = trunc i64 %393 to i32
  %430 = call i32 (ptr, ptr, ...) @fprintf(ptr noundef %428, ptr noundef nonnull @.str.28, i32 noundef %429) #38
  br label %437

431:                                              ; preds = %398
  %432 = load i64, ptr %313, align 8, !tbaa !97
  %433 = icmp eq i64 %432, %161
  br i1 %433, label %438, label %434

434:                                              ; preds = %431
  %435 = load ptr, ptr @stderr, align 8, !tbaa !90
  %436 = call i64 @fwrite(ptr nonnull @.str.29, i64 50, i64 1, ptr %435) #35
  br label %437

437:                                              ; preds = %434, %427, %400, %382, %314
  call void @_ZNSt3setIxSt4lessIxESaIxEED2Ev(ptr noundef nonnull align 8 dereferenceable(48) %9) #31
  call void @llvm.lifetime.end.p0(ptr %9)
  br label %444

438:                                              ; preds = %431
  call void @_ZNSt3setIxSt4lessIxESaIxEED2Ev(ptr noundef nonnull align 8 dereferenceable(48) %9) #31
  call void @llvm.lifetime.end.p0(ptr %9)
  br label %441

439:                                              ; preds = %403, %386, %320
  %440 = phi { ptr, i32 } [ %387, %386 ], [ %321, %320 ], [ %404, %403 ]
  call void @_ZNSt3setIxSt4lessIxESaIxEED2Ev(ptr noundef nonnull align 8 dereferenceable(48) %9) #31
  call void @llvm.lifetime.end.p0(ptr %9)
  br label %457

441:                                              ; preds = %438, %306
  %442 = load ptr, ptr @stderr, align 8, !tbaa !90
  %443 = call i64 @fwrite(ptr nonnull @.str.31, i64 9, i64 1, ptr %442) #35
  br label %444

444:                                              ; preds = %441, %437, %303, %297, %153, %143, %123, %98, %88, %72, %62, %46, %36, %18
  %445 = phi i1 [ false, %437 ], [ false, %297 ], [ false, %303 ], [ true, %441 ], [ false, %143 ], [ false, %153 ], [ false, %123 ], [ false, %88 ], [ false, %62 ], [ false, %36 ], [ false, %98 ], [ false, %72 ], [ false, %46 ], [ false, %18 ]
  %446 = load ptr, ptr %2, align 8, !tbaa !85
  %447 = icmp eq ptr %446, null
  br i1 %447, label %455, label %448

448:                                              ; preds = %444
  %449 = load ptr, ptr %446, align 8, !tbaa !87
  %450 = invoke i32 @sqlite3_finalize(ptr noundef %449)
          to label %454 unwind label %451

451:                                              ; preds = %448
  %452 = landingpad { ptr, i32 }
          catch ptr null
  %453 = extractvalue { ptr, i32 } %452, 0
  call void @__clang_call_terminate(ptr %453) #36
  unreachable

454:                                              ; preds = %448
  call void @_ZdlPvm(ptr noundef nonnull %446, i64 noundef 16) #32
  br label %455

455:                                              ; preds = %454, %444, %1
  %456 = phi i1 [ %445, %444 ], [ %445, %454 ], [ false, %1 ]
  call void @llvm.lifetime.end.p0(ptr %2)
  ret i1 %456

457:                                              ; preds = %439, %299, %178, %146, %128, %126, %91, %65, %39, %21
  %458 = phi { ptr, i32 } [ %22, %21 ], [ %92, %91 ], [ %66, %65 ], [ %40, %39 ], [ %127, %126 ], [ %129, %128 ], [ %147, %146 ], [ %440, %439 ], [ %300, %299 ], [ %179, %178 ]
  call void @_ZNSt10unique_ptrIN5osgeo4proj15SQLiteStatementESt14default_deleteIS2_EED2Ev(ptr noundef nonnull align 8 dereferenceable(8) %2) #31
  call void @llvm.lifetime.end.p0(ptr %2)
  resume { ptr, i32 } %458
}

; Function Attrs: mustprogress sspstrong uwtable
define hidden void @_ZN5osgeo4proj14DiskChunkCache7prepareEPKc(ptr dead_on_unwind noalias writable writeonly sret(%"class.std::unique_ptr.32") align 8 captures(none) %0, ptr noundef nonnull readonly align 8 captures(none) dereferenceable(56) %1, ptr noundef %2) local_unnamed_addr #3 align 2 personality ptr @__gxx_personality_v0 {
  %4 = alloca ptr, align 8
  call void @llvm.lifetime.start.p0(ptr %4)
  store ptr null, ptr %4, align 8, !tbaa !103
  %5 = getelementptr inbounds nuw i8, ptr %1, i64 40
  %6 = load ptr, ptr %5, align 8, !tbaa !81
  %7 = call i32 @sqlite3_prepare_v2(ptr noundef %6, ptr noundef %2, i32 noundef -1, ptr noundef nonnull %4, ptr noundef null)
  %8 = load ptr, ptr %4, align 8, !tbaa !103
  %9 = icmp eq ptr %8, null
  br i1 %9, label %10, label %14

10:                                               ; preds = %3
  %11 = load ptr, ptr %1, align 8, !tbaa !59
  %12 = load ptr, ptr %5, align 8, !tbaa !81
  %13 = call ptr @sqlite3_errmsg(ptr noundef %12)
  call void (ptr, i32, ptr, ...) @_Z6pj_logP6pj_ctxiPKcz(ptr noundef %11, i32 noundef 1, ptr noundef nonnull @.str.3, ptr noundef %13)
  br label %18

14:                                               ; preds = %3
  %15 = call noalias noundef nonnull dereferenceable(16) ptr @_Znwm(i64 noundef 16) #33
  invoke void @_ZN5osgeo4proj15SQLiteStatementC1EP12sqlite3_stmt(ptr noundef nonnull align 8 dereferenceable(16) %15, ptr noundef nonnull %8)
          to label %18 unwind label %16

16:                                               ; preds = %14
  %17 = landingpad { ptr, i32 }
          cleanup
  call void @_ZdlPvm(ptr noundef nonnull %15, i64 noundef 16) #32
  call void @llvm.lifetime.end.p0(ptr %4)
  resume { ptr, i32 } %17

18:                                               ; preds = %14, %10
  %19 = phi ptr [ null, %10 ], [ %15, %14 ]
  store ptr %19, ptr %0, align 8, !tbaa !85
  call void @llvm.lifetime.end.p0(ptr %4)
  ret void
}

; Function Attrs: nofree nounwind
declare noundef i32 @fprintf(ptr noundef captures(none), ptr noundef readonly captures(none), ...) local_unnamed_addr #9

; Function Attrs: mustprogress nounwind sspstrong uwtable
define linkonce_odr hidden noundef nonnull align 8 dereferenceable(8) ptr @_ZNSt10unique_ptrIN5osgeo4proj15SQLiteStatementESt14default_deleteIS2_EEaSEOS5_(ptr noundef nonnull align 8 dereferenceable(8) %0, ptr noundef nonnull align 8 dereferenceable(8) %1) local_unnamed_addr #6 comdat align 2 personality ptr @__gxx_personality_v0 {
  %3 = load ptr, ptr %1, align 8, !tbaa !85
  store ptr null, ptr %1, align 8, !tbaa !85
  %4 = load ptr, ptr %0, align 8, !tbaa !85
  store ptr %3, ptr %0, align 8, !tbaa !85
  %5 = icmp eq ptr %4, null
  br i1 %5, label %13, label %6

6:                                                ; preds = %2
  %7 = load ptr, ptr %4, align 8, !tbaa !87
  %8 = invoke i32 @sqlite3_finalize(ptr noundef %7)
          to label %12 unwind label %9

9:                                                ; preds = %6
  %10 = landingpad { ptr, i32 }
          catch ptr null
  %11 = extractvalue { ptr, i32 } %10, 0
  tail call void @__clang_call_terminate(ptr %11) #36
  unreachable

12:                                               ; preds = %6
  tail call void @_ZdlPvm(ptr noundef nonnull %4, i64 noundef 16) #32
  br label %13

13:                                               ; preds = %12, %2
  ret ptr %0
}

; Function Attrs: mustprogress nounwind sspstrong uwtable
define linkonce_odr hidden void @_ZNSt10unique_ptrIN5osgeo4proj15SQLiteStatementESt14default_deleteIS2_EED2Ev(ptr noundef nonnull align 8 dereferenceable(8) %0) unnamed_addr #6 comdat align 2 personality ptr @__gxx_personality_v0 {
  %2 = load ptr, ptr %0, align 8, !tbaa !85
  %3 = icmp eq ptr %2, null
  br i1 %3, label %11, label %4

4:                                                ; preds = %1
  %5 = load ptr, ptr %2, align 8, !tbaa !87
  %6 = invoke i32 @sqlite3_finalize(ptr noundef %5)
          to label %10 unwind label %7

7:                                                ; preds = %4
  %8 = landingpad { ptr, i32 }
          catch ptr null
  %9 = extractvalue { ptr, i32 } %8, 0
  tail call void @__clang_call_terminate(ptr %9) #36
  unreachable

10:                                               ; preds = %4
  tail call void @_ZdlPvm(ptr noundef nonnull %2, i64 noundef 16) #32
  br label %11

11:                                               ; preds = %10, %1
  store ptr null, ptr %0, align 8, !tbaa !85
  ret void
}

; Function Attrs: mustprogress nounwind sspstrong uwtable
define linkonce_odr void @_ZNSt3setIxSt4lessIxESaIxEED2Ev(ptr noundef nonnull align 8 dereferenceable(48) %0) unnamed_addr #6 comdat align 2 personality ptr @__gxx_personality_v0 {
  %2 = getelementptr inbounds nuw i8, ptr %0, i64 16
  %3 = load ptr, ptr %2, align 8, !tbaa !94
  invoke void @_ZNSt8_Rb_treeIxxSt9_IdentityIxESt4lessIxESaIxEE8_M_eraseEPSt13_Rb_tree_nodeIxE(ptr noundef nonnull align 8 dereferenceable(48) %0, ptr noundef %3)
          to label %7 unwind label %4

4:                                                ; preds = %1
  %5 = landingpad { ptr, i32 }
          catch ptr null
  %6 = extractvalue { ptr, i32 } %5, 0
  tail call void @__clang_call_terminate(ptr %6) #36
  unreachable

7:                                                ; preds = %1
  ret void
}

; Function Attrs: mustprogress sspstrong uwtable
define hidden void @_ZN5osgeo4proj14DiskChunkCache14commitAndCloseEv(ptr noundef nonnull align 8 captures(none) dereferenceable(56) %0) local_unnamed_addr #3 align 2 {
  %2 = getelementptr inbounds nuw i8, ptr %0, i64 40
  %3 = load ptr, ptr %2, align 8, !tbaa !81
  %4 = icmp eq ptr %3, null
  br i1 %4, label %15, label %5

5:                                                ; preds = %1
  %6 = tail call i32 @sqlite3_exec(ptr noundef nonnull %3, ptr noundef nonnull @.str.32, ptr noundef null, ptr noundef null, ptr noundef null)
  %7 = icmp eq i32 %6, 0
  br i1 %7, label %12, label %8

8:                                                ; preds = %5
  %9 = load ptr, ptr %0, align 8, !tbaa !59
  %10 = load ptr, ptr %2, align 8, !tbaa !81
  %11 = tail call ptr @sqlite3_errmsg(ptr noundef %10)
  tail call void (ptr, i32, ptr, ...) @_Z6pj_logP6pj_ctxiPKcz(ptr noundef %9, i32 noundef 1, ptr noundef nonnull @.str.3, ptr noundef %11)
  br label %12

12:                                               ; preds = %8, %5
  %13 = load ptr, ptr %2, align 8, !tbaa !81
  %14 = tail call i32 @sqlite3_close(ptr noundef %13)
  store ptr null, ptr %2, align 8, !tbaa !81
  br label %15

15:                                               ; preds = %12, %1
  ret void
}

; Function Attrs: mustprogress nounwind sspstrong uwtable
define hidden void @_ZN5osgeo4proj14DiskChunkCacheD2Ev(ptr noundef nonnull align 8 captures(address) dereferenceable(56) %0) unnamed_addr #6 align 2 personality ptr @__gxx_personality_v0 {
  %2 = getelementptr inbounds nuw i8, ptr %0, i64 40
  %3 = load ptr, ptr %2, align 8, !tbaa !81
  %4 = icmp eq ptr %3, null
  br i1 %4, label %18, label %5

5:                                                ; preds = %1
  %6 = invoke i32 @sqlite3_exec(ptr noundef nonnull %3, ptr noundef nonnull @.str.32, ptr noundef null, ptr noundef null, ptr noundef null)
          to label %7 unwind label %36

7:                                                ; preds = %5
  %8 = icmp eq i32 %6, 0
  br i1 %8, label %14, label %9

9:                                                ; preds = %7
  %10 = load ptr, ptr %0, align 8, !tbaa !59
  %11 = load ptr, ptr %2, align 8, !tbaa !81
  %12 = invoke ptr @sqlite3_errmsg(ptr noundef %11)
          to label %13 unwind label %36

13:                                               ; preds = %9
  invoke void (ptr, i32, ptr, ...) @_Z6pj_logP6pj_ctxiPKcz(ptr noundef %10, i32 noundef 1, ptr noundef nonnull @.str.3, ptr noundef %12)
          to label %14 unwind label %36

14:                                               ; preds = %13, %7
  %15 = load ptr, ptr %2, align 8, !tbaa !81
  %16 = invoke i32 @sqlite3_close(ptr noundef %15)
          to label %17 unwind label %36

17:                                               ; preds = %14
  store ptr null, ptr %2, align 8, !tbaa !81
  br label %18

18:                                               ; preds = %17, %1
  %19 = getelementptr inbounds nuw i8, ptr %0, i64 48
  %20 = load ptr, ptr %19, align 8, !tbaa !80
  %21 = icmp eq ptr %20, null
  br i1 %21, label %23, label %22

22:                                               ; preds = %18
  tail call void @_ZN5osgeo4proj10SQLite3VFSD1Ev(ptr noundef nonnull align 8 dereferenceable(8) %20) #31
  tail call void @_ZdlPvm(ptr noundef nonnull %20, i64 noundef 8) #32
  br label %23

23:                                               ; preds = %22, %18
  store ptr null, ptr %19, align 8, !tbaa !80
  %24 = getelementptr inbounds nuw i8, ptr %0, i64 8
  %25 = load ptr, ptr %24, align 8, !tbaa !19
  %26 = getelementptr inbounds nuw i8, ptr %0, i64 24
  %27 = icmp eq ptr %25, %26
  br i1 %27, label %28, label %32

28:                                               ; preds = %23
  %29 = getelementptr inbounds nuw i8, ptr %0, i64 16
  %30 = load i64, ptr %29, align 8, !tbaa !23
  %31 = icmp ult i64 %30, 16
  tail call void @llvm.assume(i1 %31)
  br label %35

32:                                               ; preds = %23
  %33 = load i64, ptr %26, align 8, !tbaa !24
  %34 = add i64 %33, 1
  tail call void @_ZdlPvm(ptr noundef %25, i64 noundef %34) #32
  br label %35

35:                                               ; preds = %32, %28
  ret void

36:                                               ; preds = %14, %13, %9, %5
  %37 = landingpad { ptr, i32 }
          catch ptr null
  %38 = extractvalue { ptr, i32 } %37, 0
  tail call void @__clang_call_terminate(ptr %38) #36
  unreachable
}

; Function Attrs: noinline noreturn nounwind sspstrong uwtable
define linkonce_odr hidden void @__clang_call_terminate(ptr noundef %0) local_unnamed_addr #10 comdat {
  %2 = tail call ptr @__cxa_begin_catch(ptr %0) #31
  tail call void @_ZSt9terminatev() #36
  unreachable
}

declare ptr @__cxa_begin_catch(ptr) local_unnamed_addr

; Function Attrs: cold nofree noreturn
declare void @_ZSt9terminatev() local_unnamed_addr #11

; Function Attrs: mustprogress sspstrong uwtable
define hidden void @_ZN5osgeo4proj14DiskChunkCache14closeAndUnlinkEv(ptr noundef nonnull align 8 captures(none) dereferenceable(56) %0) local_unnamed_addr #3 align 2 {
  %2 = getelementptr inbounds nuw i8, ptr %0, i64 40
  %3 = load ptr, ptr %2, align 8, !tbaa !81
  %4 = icmp eq ptr %3, null
  br i1 %4, label %15, label %5

5:                                                ; preds = %1
  %6 = tail call i32 @sqlite3_exec(ptr noundef nonnull %3, ptr noundef nonnull @.str.32, ptr noundef null, ptr noundef null, ptr noundef null)
  %7 = icmp eq i32 %6, 0
  br i1 %7, label %12, label %8

8:                                                ; preds = %5
  %9 = load ptr, ptr %0, align 8, !tbaa !59
  %10 = load ptr, ptr %2, align 8, !tbaa !81
  %11 = tail call ptr @sqlite3_errmsg(ptr noundef %10)
  tail call void (ptr, i32, ptr, ...) @_Z6pj_logP6pj_ctxiPKcz(ptr noundef %9, i32 noundef 1, ptr noundef nonnull @.str.3, ptr noundef %11)
  br label %12

12:                                               ; preds = %8, %5
  %13 = load ptr, ptr %2, align 8, !tbaa !81
  %14 = tail call i32 @sqlite3_close(ptr noundef %13)
  store ptr null, ptr %2, align 8, !tbaa !81
  br label %15

15:                                               ; preds = %12, %1
  %16 = getelementptr inbounds nuw i8, ptr %0, i64 48
  %17 = load ptr, ptr %16, align 8, !tbaa !80
  %18 = icmp eq ptr %17, null
  br i1 %18, label %27, label %19

19:                                               ; preds = %15
  %20 = load ptr, ptr %17, align 8, !tbaa !104
  %21 = getelementptr inbounds nuw i8, ptr %20, i64 8
  %22 = getelementptr inbounds nuw i8, ptr %20, i64 56
  %23 = load ptr, ptr %22, align 8, !tbaa !107
  %24 = getelementptr inbounds nuw i8, ptr %0, i64 8
  %25 = load ptr, ptr %24, align 8, !tbaa !19
  %26 = tail call noundef i32 %23(ptr noundef nonnull %21, ptr noundef %25, i32 noundef 0)
  br label %27

27:                                               ; preds = %19, %15
  ret void
}

declare i32 @sqlite3_prepare_v2(ptr noundef, ptr noundef, i32 noundef, ptr noundef, ptr noundef) local_unnamed_addr #7

declare void @_ZN5osgeo4proj15SQLiteStatementC1EP12sqlite3_stmt(ptr noundef nonnull align 8 dereferenceable(16), ptr noundef) unnamed_addr #7

; Function Attrs: mustprogress sspstrong uwtable
define hidden noundef zeroext i1 @_ZN5osgeo4proj14DiskChunkCache9get_linksExRxS2_S2_S2_S2_(ptr noundef nonnull readonly align 8 captures(none) dereferenceable(56) %0, i64 noundef %1, ptr noundef nonnull writeonly align 8 captures(none) dereferenceable(8) %2, ptr noundef nonnull writeonly align 8 captures(none) dereferenceable(8) %3, ptr noundef nonnull writeonly align 8 captures(none) dereferenceable(8) %4, ptr noundef nonnull writeonly align 8 captures(none) dereferenceable(8) %5, ptr noundef nonnull writeonly align 8 captures(none) dereferenceable(8) %6) local_unnamed_addr #3 align 2 personality ptr @__gxx_personality_v0 {
  %8 = alloca %"class.std::unique_ptr.32", align 8
  %9 = alloca %"class.std::unique_ptr.32", align 8
  call void @llvm.lifetime.start.p0(ptr %8)
  call void @_ZN5osgeo4proj14DiskChunkCache7prepareEPKc(ptr dead_on_unwind nonnull writable sret(%"class.std::unique_ptr.32") align 8 %8, ptr noundef nonnull align 8 dereferenceable(56) %0, ptr noundef nonnull @.str.33)
  %10 = load ptr, ptr %8, align 8, !tbaa !85
  %11 = icmp eq ptr %10, null
  br i1 %11, label %96, label %12

12:                                               ; preds = %7
  %13 = load ptr, ptr %10, align 8, !tbaa !87
  %14 = getelementptr inbounds nuw i8, ptr %10, i64 8
  %15 = load i32, ptr %14, align 8, !tbaa !101
  %16 = invoke i32 @sqlite3_bind_int64(ptr noundef %13, i32 noundef %15, i64 noundef %1)
          to label %17 unwind label %30

17:                                               ; preds = %12
  %18 = load i32, ptr %14, align 8, !tbaa !101
  %19 = add nsw i32 %18, 1
  store i32 %19, ptr %14, align 8, !tbaa !101
  %20 = load ptr, ptr %10, align 8, !tbaa !87
  %21 = invoke noundef i32 @sqlite3_step(ptr noundef %20)
          to label %22 unwind label %32

22:                                               ; preds = %17
  %23 = icmp eq i32 %21, 100
  br i1 %23, label %34, label %24

24:                                               ; preds = %22
  %25 = load ptr, ptr %0, align 8, !tbaa !59
  %26 = getelementptr inbounds nuw i8, ptr %0, i64 40
  %27 = load ptr, ptr %26, align 8, !tbaa !81
  %28 = invoke ptr @sqlite3_errmsg(ptr noundef %27)
          to label %29 unwind label %32

29:                                               ; preds = %24
  invoke void (ptr, i32, ptr, ...) @_Z6pj_logP6pj_ctxiPKcz(ptr noundef %25, i32 noundef 1, ptr noundef nonnull @.str.3, ptr noundef %28)
          to label %87 unwind label %32

30:                                               ; preds = %79, %74, %44, %39, %34, %12
  %31 = landingpad { ptr, i32 }
          cleanup
  br label %98

32:                                               ; preds = %29, %24, %17
  %33 = landingpad { ptr, i32 }
          cleanup
  br label %98

34:                                               ; preds = %22
  %35 = load ptr, ptr %10, align 8, !tbaa !87
  %36 = getelementptr inbounds nuw i8, ptr %10, i64 12
  %37 = load i32, ptr %36, align 4, !tbaa !92
  %38 = invoke noundef i64 @sqlite3_column_int64(ptr noundef %35, i32 noundef %37)
          to label %39 unwind label %30

39:                                               ; preds = %34
  %40 = load i32, ptr %36, align 4, !tbaa !92
  %41 = add nsw i32 %40, 1
  store i32 %41, ptr %36, align 4, !tbaa !92
  store i64 %38, ptr %2, align 8, !tbaa !99
  %42 = load ptr, ptr %10, align 8, !tbaa !87
  %43 = invoke noundef i64 @sqlite3_column_int64(ptr noundef %42, i32 noundef %41)
          to label %44 unwind label %30

44:                                               ; preds = %39
  %45 = load i32, ptr %36, align 4, !tbaa !92
  %46 = add nsw i32 %45, 1
  store i32 %46, ptr %36, align 4, !tbaa !92
  store i64 %43, ptr %3, align 8, !tbaa !99
  %47 = load ptr, ptr %10, align 8, !tbaa !87
  %48 = invoke noundef i64 @sqlite3_column_int64(ptr noundef %47, i32 noundef %46)
          to label %49 unwind label %30

49:                                               ; preds = %44
  %50 = load i32, ptr %36, align 4, !tbaa !92
  %51 = add nsw i32 %50, 1
  store i32 %51, ptr %36, align 4, !tbaa !92
  store i64 %48, ptr %4, align 8, !tbaa !99
  call void @llvm.lifetime.start.p0(ptr %9)
  invoke void @_ZN5osgeo4proj14DiskChunkCache7prepareEPKc(ptr dead_on_unwind nonnull writable sret(%"class.std::unique_ptr.32") align 8 %9, ptr noundef nonnull align 8 dereferenceable(56) %0, ptr noundef nonnull @.str.16)
          to label %52 unwind label %70

52:                                               ; preds = %49
  %53 = load ptr, ptr %9, align 8, !tbaa !85
  store ptr %53, ptr %8, align 8, !tbaa !85
  %54 = load ptr, ptr %10, align 8, !tbaa !87
  %55 = invoke i32 @sqlite3_finalize(ptr noundef %54)
          to label %59 unwind label %56

56:                                               ; preds = %52
  %57 = landingpad { ptr, i32 }
          catch ptr null
  %58 = extractvalue { ptr, i32 } %57, 0
  tail call void @__clang_call_terminate(ptr %58) #36
  unreachable

59:                                               ; preds = %52
  tail call void @_ZdlPvm(ptr noundef nonnull %10, i64 noundef 16) #32
  call void @llvm.lifetime.end.p0(ptr %9)
  %60 = load ptr, ptr %53, align 8, !tbaa !87
  %61 = invoke noundef i32 @sqlite3_step(ptr noundef %60)
          to label %62 unwind label %72

62:                                               ; preds = %59
  %63 = icmp eq i32 %61, 100
  br i1 %63, label %74, label %64

64:                                               ; preds = %62
  %65 = load ptr, ptr %0, align 8, !tbaa !59
  %66 = getelementptr inbounds nuw i8, ptr %0, i64 40
  %67 = load ptr, ptr %66, align 8, !tbaa !81
  %68 = invoke ptr @sqlite3_errmsg(ptr noundef %67)
          to label %69 unwind label %72

69:                                               ; preds = %64
  invoke void (ptr, i32, ptr, ...) @_Z6pj_logP6pj_ctxiPKcz(ptr noundef %65, i32 noundef 1, ptr noundef nonnull @.str.3, ptr noundef %68)
          to label %87 unwind label %72

70:                                               ; preds = %49
  %71 = landingpad { ptr, i32 }
          cleanup
  call void @llvm.lifetime.end.p0(ptr %9)
  br label %98

72:                                               ; preds = %69, %64, %59
  %73 = landingpad { ptr, i32 }
          cleanup
  br label %98

74:                                               ; preds = %62
  %75 = load ptr, ptr %53, align 8, !tbaa !87
  %76 = getelementptr inbounds nuw i8, ptr %53, i64 12
  %77 = load i32, ptr %76, align 4, !tbaa !92
  %78 = invoke noundef i64 @sqlite3_column_int64(ptr noundef %75, i32 noundef %77)
          to label %79 unwind label %30

79:                                               ; preds = %74
  %80 = load i32, ptr %76, align 4, !tbaa !92
  %81 = add nsw i32 %80, 1
  store i32 %81, ptr %76, align 4, !tbaa !92
  store i64 %78, ptr %5, align 8, !tbaa !99
  %82 = load ptr, ptr %53, align 8, !tbaa !87
  %83 = invoke noundef i64 @sqlite3_column_int64(ptr noundef %82, i32 noundef %81)
          to label %84 unwind label %30

84:                                               ; preds = %79
  %85 = load i32, ptr %76, align 4, !tbaa !92
  %86 = add nsw i32 %85, 1
  store i32 %86, ptr %76, align 4, !tbaa !92
  store i64 %83, ptr %6, align 8, !tbaa !99
  br label %87

87:                                               ; preds = %84, %69, %29
  %88 = phi ptr [ %53, %69 ], [ %10, %29 ], [ %53, %84 ]
  %89 = phi i1 [ false, %69 ], [ false, %29 ], [ true, %84 ]
  %90 = load ptr, ptr %88, align 8, !tbaa !87
  %91 = invoke i32 @sqlite3_finalize(ptr noundef %90)
          to label %95 unwind label %92

92:                                               ; preds = %87
  %93 = landingpad { ptr, i32 }
          catch ptr null
  %94 = extractvalue { ptr, i32 } %93, 0
  tail call void @__clang_call_terminate(ptr %94) #36
  unreachable

95:                                               ; preds = %87
  tail call void @_ZdlPvm(ptr noundef nonnull %88, i64 noundef 16) #32
  br label %96

96:                                               ; preds = %95, %7
  %97 = phi i1 [ %89, %95 ], [ false, %7 ]
  call void @llvm.lifetime.end.p0(ptr %8)
  ret i1 %97

98:                                               ; preds = %72, %70, %32, %30
  %99 = phi { ptr, i32 } [ %31, %30 ], [ %73, %72 ], [ %71, %70 ], [ %33, %32 ]
  call void @_ZNSt10unique_ptrIN5osgeo4proj15SQLiteStatementESt14default_deleteIS2_EED2Ev(ptr noundef nonnull align 8 dereferenceable(8) %8) #31
  call void @llvm.lifetime.end.p0(ptr %8)
  resume { ptr, i32 } %99
}

; Function Attrs: mustprogress sspstrong uwtable
define hidden noundef zeroext i1 @_ZN5osgeo4proj14DiskChunkCache35update_links_of_prev_and_next_linksExx(ptr noundef nonnull readonly align 8 captures(none) dereferenceable(56) %0, i64 noundef %1, i64 noundef %2) local_unnamed_addr #3 align 2 personality ptr @__gxx_personality_v0 {
  %4 = alloca %"class.std::unique_ptr.32", align 8
  %5 = alloca %"class.std::unique_ptr.32", align 8
  %6 = icmp eq i64 %1, 0
  br i1 %6, label %52, label %7

7:                                                ; preds = %3
  call void @llvm.lifetime.start.p0(ptr %4)
  call void @_ZN5osgeo4proj14DiskChunkCache7prepareEPKc(ptr dead_on_unwind nonnull writable sret(%"class.std::unique_ptr.32") align 8 %4, ptr noundef nonnull align 8 dereferenceable(56) %0, ptr noundef nonnull @.str.34)
  %8 = load ptr, ptr %4, align 8, !tbaa !85
  %9 = icmp eq ptr %8, null
  br i1 %9, label %10, label %11

10:                                               ; preds = %7
  call void @llvm.lifetime.end.p0(ptr %4)
  br label %99

11:                                               ; preds = %7
  %12 = icmp eq i64 %2, 0
  %13 = load ptr, ptr %8, align 8, !tbaa !87
  %14 = getelementptr inbounds nuw i8, ptr %8, i64 8
  %15 = load i32, ptr %14, align 8, !tbaa !101
  br i1 %12, label %20, label %16

16:                                               ; preds = %11
  %17 = invoke i32 @sqlite3_bind_int64(ptr noundef %13, i32 noundef %15, i64 noundef %2)
          to label %22 unwind label %18

18:                                               ; preds = %22, %20, %16
  %19 = landingpad { ptr, i32 }
          cleanup
  br label %50

20:                                               ; preds = %11
  %21 = invoke i32 @sqlite3_bind_null(ptr noundef %13, i32 noundef %15)
          to label %22 unwind label %18

22:                                               ; preds = %20, %16
  %23 = load i32, ptr %14, align 8, !tbaa !101
  %24 = add nsw i32 %23, 1
  store i32 %24, ptr %14, align 8, !tbaa !101
  %25 = load ptr, ptr %8, align 8, !tbaa !87
  %26 = invoke i32 @sqlite3_bind_int64(ptr noundef %25, i32 noundef %24, i64 noundef %1)
          to label %27 unwind label %18

27:                                               ; preds = %22
  %28 = getelementptr inbounds nuw i8, ptr %8, i64 8
  %29 = load i32, ptr %28, align 8, !tbaa !101
  %30 = add nsw i32 %29, 1
  store i32 %30, ptr %28, align 8, !tbaa !101
  %31 = load ptr, ptr %8, align 8, !tbaa !87
  %32 = invoke noundef i32 @sqlite3_step(ptr noundef %31)
          to label %33 unwind label %41

33:                                               ; preds = %27
  %34 = icmp eq i32 %32, 101
  br i1 %34, label %43, label %35

35:                                               ; preds = %33
  %36 = load ptr, ptr %0, align 8, !tbaa !59
  %37 = getelementptr inbounds nuw i8, ptr %0, i64 40
  %38 = load ptr, ptr %37, align 8, !tbaa !81
  %39 = invoke ptr @sqlite3_errmsg(ptr noundef %38)
          to label %40 unwind label %41

40:                                               ; preds = %35
  invoke void (ptr, i32, ptr, ...) @_Z6pj_logP6pj_ctxiPKcz(ptr noundef %36, i32 noundef 1, ptr noundef nonnull @.str.3, ptr noundef %39)
          to label %43 unwind label %41

41:                                               ; preds = %40, %35, %27
  %42 = landingpad { ptr, i32 }
          cleanup
  br label %50

43:                                               ; preds = %40, %33
  %44 = load ptr, ptr %8, align 8, !tbaa !87
  %45 = invoke i32 @sqlite3_finalize(ptr noundef %44)
          to label %49 unwind label %46

46:                                               ; preds = %43
  %47 = landingpad { ptr, i32 }
          catch ptr null
  %48 = extractvalue { ptr, i32 } %47, 0
  tail call void @__clang_call_terminate(ptr %48) #36
  unreachable

49:                                               ; preds = %43
  tail call void @_ZdlPvm(ptr noundef nonnull %8, i64 noundef 16) #32
  call void @llvm.lifetime.end.p0(ptr %4)
  br i1 %34, label %52, label %99

50:                                               ; preds = %41, %18
  %51 = phi { ptr, i32 } [ %42, %41 ], [ %19, %18 ]
  call void @_ZNSt10unique_ptrIN5osgeo4proj15SQLiteStatementESt14default_deleteIS2_EED2Ev(ptr noundef nonnull align 8 dereferenceable(8) %4) #31
  call void @llvm.lifetime.end.p0(ptr %4)
  br label %101

52:                                               ; preds = %49, %3
  %53 = icmp eq i64 %2, 0
  br i1 %53, label %98, label %54

54:                                               ; preds = %52
  call void @llvm.lifetime.start.p0(ptr %5)
  call void @_ZN5osgeo4proj14DiskChunkCache7prepareEPKc(ptr dead_on_unwind nonnull writable sret(%"class.std::unique_ptr.32") align 8 %5, ptr noundef nonnull align 8 dereferenceable(56) %0, ptr noundef nonnull @.str.35)
  %55 = load ptr, ptr %5, align 8, !tbaa !85
  %56 = icmp eq ptr %55, null
  br i1 %56, label %57, label %58

57:                                               ; preds = %54
  call void @llvm.lifetime.end.p0(ptr %5)
  br label %99

58:                                               ; preds = %54
  %59 = load ptr, ptr %55, align 8, !tbaa !87
  %60 = getelementptr inbounds nuw i8, ptr %55, i64 8
  %61 = load i32, ptr %60, align 8, !tbaa !101
  br i1 %6, label %66, label %62

62:                                               ; preds = %58
  %63 = invoke i32 @sqlite3_bind_int64(ptr noundef %59, i32 noundef %61, i64 noundef %1)
          to label %68 unwind label %64

64:                                               ; preds = %68, %66, %62
  %65 = landingpad { ptr, i32 }
          cleanup
  br label %96

66:                                               ; preds = %58
  %67 = invoke i32 @sqlite3_bind_null(ptr noundef %59, i32 noundef %61)
          to label %68 unwind label %64

68:                                               ; preds = %66, %62
  %69 = load i32, ptr %60, align 8, !tbaa !101
  %70 = add nsw i32 %69, 1
  store i32 %70, ptr %60, align 8, !tbaa !101
  %71 = load ptr, ptr %55, align 8, !tbaa !87
  %72 = invoke i32 @sqlite3_bind_int64(ptr noundef %71, i32 noundef %70, i64 noundef %2)
          to label %73 unwind label %64

73:                                               ; preds = %68
  %74 = getelementptr inbounds nuw i8, ptr %55, i64 8
  %75 = load i32, ptr %74, align 8, !tbaa !101
  %76 = add nsw i32 %75, 1
  store i32 %76, ptr %74, align 8, !tbaa !101
  %77 = load ptr, ptr %55, align 8, !tbaa !87
  %78 = invoke noundef i32 @sqlite3_step(ptr noundef %77)
          to label %79 unwind label %87

79:                                               ; preds = %73
  %80 = icmp eq i32 %78, 101
  br i1 %80, label %89, label %81

81:                                               ; preds = %79
  %82 = load ptr, ptr %0, align 8, !tbaa !59
  %83 = getelementptr inbounds nuw i8, ptr %0, i64 40
  %84 = load ptr, ptr %83, align 8, !tbaa !81
  %85 = invoke ptr @sqlite3_errmsg(ptr noundef %84)
          to label %86 unwind label %87

86:                                               ; preds = %81
  invoke void (ptr, i32, ptr, ...) @_Z6pj_logP6pj_ctxiPKcz(ptr noundef %82, i32 noundef 1, ptr noundef nonnull @.str.3, ptr noundef %85)
          to label %89 unwind label %87

87:                                               ; preds = %86, %81, %73
  %88 = landingpad { ptr, i32 }
          cleanup
  br label %96

89:                                               ; preds = %86, %79
  %90 = load ptr, ptr %55, align 8, !tbaa !87
  %91 = invoke i32 @sqlite3_finalize(ptr noundef %90)
          to label %95 unwind label %92

92:                                               ; preds = %89
  %93 = landingpad { ptr, i32 }
          catch ptr null
  %94 = extractvalue { ptr, i32 } %93, 0
  tail call void @__clang_call_terminate(ptr %94) #36
  unreachable

95:                                               ; preds = %89
  tail call void @_ZdlPvm(ptr noundef nonnull %55, i64 noundef 16) #32
  call void @llvm.lifetime.end.p0(ptr %5)
  br i1 %80, label %98, label %99

96:                                               ; preds = %87, %64
  %97 = phi { ptr, i32 } [ %88, %87 ], [ %65, %64 ]
  call void @_ZNSt10unique_ptrIN5osgeo4proj15SQLiteStatementESt14default_deleteIS2_EED2Ev(ptr noundef nonnull align 8 dereferenceable(8) %5) #31
  call void @llvm.lifetime.end.p0(ptr %5)
  br label %101

98:                                               ; preds = %95, %52
  br label %99

99:                                               ; preds = %98, %95, %57, %49, %10
  %100 = phi i1 [ true, %98 ], [ false, %95 ], [ false, %49 ], [ false, %10 ], [ false, %57 ]
  ret i1 %100

101:                                              ; preds = %96, %50
  %102 = phi { ptr, i32 } [ %97, %96 ], [ %51, %50 ]
  resume { ptr, i32 } %102
}

; Function Attrs: mustprogress sspstrong uwtable
define hidden noundef zeroext i1 @_ZN5osgeo4proj14DiskChunkCache20update_linked_chunksExxx(ptr noundef nonnull readonly align 8 captures(none) dereferenceable(56) %0, i64 noundef %1, i64 noundef %2, i64 noundef %3) local_unnamed_addr #3 align 2 personality ptr @__gxx_personality_v0 {
  %5 = alloca %"class.std::unique_ptr.32", align 8
  call void @llvm.lifetime.start.p0(ptr %5)
  call void @_ZN5osgeo4proj14DiskChunkCache7prepareEPKc(ptr dead_on_unwind nonnull writable sret(%"class.std::unique_ptr.32") align 8 %5, ptr noundef nonnull align 8 dereferenceable(56) %0, ptr noundef nonnull @.str.36)
  %6 = load ptr, ptr %5, align 8, !tbaa !85
  %7 = icmp eq ptr %6, null
  br i1 %7, label %57, label %8

8:                                                ; preds = %4
  %9 = icmp eq i64 %2, 0
  %10 = load ptr, ptr %6, align 8, !tbaa !87
  %11 = getelementptr inbounds nuw i8, ptr %6, i64 8
  %12 = load i32, ptr %11, align 8, !tbaa !101
  br i1 %9, label %17, label %13

13:                                               ; preds = %8
  %14 = invoke i32 @sqlite3_bind_int64(ptr noundef %10, i32 noundef %12, i64 noundef %2)
          to label %19 unwind label %15

15:                                               ; preds = %28, %26, %24, %17, %13
  %16 = landingpad { ptr, i32 }
          cleanup
  br label %59

17:                                               ; preds = %8
  %18 = invoke i32 @sqlite3_bind_null(ptr noundef %10, i32 noundef %12)
          to label %19 unwind label %15

19:                                               ; preds = %17, %13
  %20 = load i32, ptr %11, align 8, !tbaa !101
  %21 = add nsw i32 %20, 1
  store i32 %21, ptr %11, align 8, !tbaa !101
  %22 = icmp eq i64 %3, 0
  %23 = load ptr, ptr %6, align 8, !tbaa !87
  br i1 %22, label %26, label %24

24:                                               ; preds = %19
  %25 = invoke i32 @sqlite3_bind_int64(ptr noundef %23, i32 noundef %21, i64 noundef %3)
          to label %28 unwind label %15

26:                                               ; preds = %19
  %27 = invoke i32 @sqlite3_bind_null(ptr noundef %23, i32 noundef %21)
          to label %28 unwind label %15

28:                                               ; preds = %26, %24
  %29 = getelementptr inbounds nuw i8, ptr %6, i64 8
  %30 = load i32, ptr %29, align 8, !tbaa !101
  %31 = add nsw i32 %30, 1
  store i32 %31, ptr %29, align 8, !tbaa !101
  %32 = load ptr, ptr %6, align 8, !tbaa !87
  %33 = invoke i32 @sqlite3_bind_int64(ptr noundef %32, i32 noundef %31, i64 noundef %1)
          to label %34 unwind label %15

34:                                               ; preds = %28
  %35 = getelementptr inbounds nuw i8, ptr %6, i64 8
  %36 = load i32, ptr %35, align 8, !tbaa !101
  %37 = add nsw i32 %36, 1
  store i32 %37, ptr %35, align 8, !tbaa !101
  %38 = load ptr, ptr %6, align 8, !tbaa !87
  %39 = invoke noundef i32 @sqlite3_step(ptr noundef %38)
          to label %40 unwind label %48

40:                                               ; preds = %34
  %41 = icmp eq i32 %39, 101
  br i1 %41, label %50, label %42

42:                                               ; preds = %40
  %43 = load ptr, ptr %0, align 8, !tbaa !59
  %44 = getelementptr inbounds nuw i8, ptr %0, i64 40
  %45 = load ptr, ptr %44, align 8, !tbaa !81
  %46 = invoke ptr @sqlite3_errmsg(ptr noundef %45)
          to label %47 unwind label %48

47:                                               ; preds = %42
  invoke void (ptr, i32, ptr, ...) @_Z6pj_logP6pj_ctxiPKcz(ptr noundef %43, i32 noundef 1, ptr noundef nonnull @.str.3, ptr noundef %46)
          to label %50 unwind label %48

48:                                               ; preds = %47, %42, %34
  %49 = landingpad { ptr, i32 }
          cleanup
  br label %59

50:                                               ; preds = %47, %40
  %51 = load ptr, ptr %6, align 8, !tbaa !87
  %52 = invoke i32 @sqlite3_finalize(ptr noundef %51)
          to label %56 unwind label %53

53:                                               ; preds = %50
  %54 = landingpad { ptr, i32 }
          catch ptr null
  %55 = extractvalue { ptr, i32 } %54, 0
  tail call void @__clang_call_terminate(ptr %55) #36
  unreachable

56:                                               ; preds = %50
  tail call void @_ZdlPvm(ptr noundef nonnull %6, i64 noundef 16) #32
  br label %57

57:                                               ; preds = %56, %4
  %58 = phi i1 [ %41, %56 ], [ false, %4 ]
  call void @llvm.lifetime.end.p0(ptr %5)
  ret i1 %58

59:                                               ; preds = %48, %15
  %60 = phi { ptr, i32 } [ %49, %48 ], [ %16, %15 ]
  call void @_ZNSt10unique_ptrIN5osgeo4proj15SQLiteStatementESt14default_deleteIS2_EED2Ev(ptr noundef nonnull align 8 dereferenceable(8) %5) #31
  call void @llvm.lifetime.end.p0(ptr %5)
  resume { ptr, i32 } %60
}

; Function Attrs: mustprogress sspstrong uwtable
define hidden noundef zeroext i1 @_ZN5osgeo4proj14DiskChunkCache30update_linked_chunks_head_tailExx(ptr noundef nonnull readonly align 8 captures(none) dereferenceable(56) %0, i64 noundef %1, i64 noundef %2) local_unnamed_addr #3 align 2 personality ptr @__gxx_personality_v0 {
  %4 = alloca %"class.std::unique_ptr.32", align 8
  call void @llvm.lifetime.start.p0(ptr %4)
  call void @_ZN5osgeo4proj14DiskChunkCache7prepareEPKc(ptr dead_on_unwind nonnull writable sret(%"class.std::unique_ptr.32") align 8 %4, ptr noundef nonnull align 8 dereferenceable(56) %0, ptr noundef nonnull @.str.37)
  %5 = load ptr, ptr %4, align 8, !tbaa !85
  %6 = icmp eq ptr %5, null
  br i1 %6, label %50, label %7

7:                                                ; preds = %3
  %8 = icmp eq i64 %1, 0
  %9 = load ptr, ptr %5, align 8, !tbaa !87
  %10 = getelementptr inbounds nuw i8, ptr %5, i64 8
  %11 = load i32, ptr %10, align 8, !tbaa !101
  br i1 %8, label %16, label %12

12:                                               ; preds = %7
  %13 = invoke i32 @sqlite3_bind_int64(ptr noundef %9, i32 noundef %11, i64 noundef %1)
          to label %18 unwind label %14

14:                                               ; preds = %25, %23, %16, %12
  %15 = landingpad { ptr, i32 }
          cleanup
  br label %52

16:                                               ; preds = %7
  %17 = invoke i32 @sqlite3_bind_null(ptr noundef %9, i32 noundef %11)
          to label %18 unwind label %14

18:                                               ; preds = %16, %12
  %19 = load i32, ptr %10, align 8, !tbaa !101
  %20 = add nsw i32 %19, 1
  store i32 %20, ptr %10, align 8, !tbaa !101
  %21 = icmp eq i64 %2, 0
  %22 = load ptr, ptr %5, align 8, !tbaa !87
  br i1 %21, label %25, label %23

23:                                               ; preds = %18
  %24 = invoke i32 @sqlite3_bind_int64(ptr noundef %22, i32 noundef %20, i64 noundef %2)
          to label %27 unwind label %14

25:                                               ; preds = %18
  %26 = invoke i32 @sqlite3_bind_null(ptr noundef %22, i32 noundef %20)
          to label %27 unwind label %14

27:                                               ; preds = %25, %23
  %28 = getelementptr inbounds nuw i8, ptr %5, i64 8
  %29 = load i32, ptr %28, align 8, !tbaa !101
  %30 = add nsw i32 %29, 1
  store i32 %30, ptr %28, align 8, !tbaa !101
  %31 = load ptr, ptr %5, align 8, !tbaa !87
  %32 = invoke noundef i32 @sqlite3_step(ptr noundef %31)
          to label %33 unwind label %41

33:                                               ; preds = %27
  %34 = icmp eq i32 %32, 101
  br i1 %34, label %43, label %35

35:                                               ; preds = %33
  %36 = load ptr, ptr %0, align 8, !tbaa !59
  %37 = getelementptr inbounds nuw i8, ptr %0, i64 40
  %38 = load ptr, ptr %37, align 8, !tbaa !81
  %39 = invoke ptr @sqlite3_errmsg(ptr noundef %38)
          to label %40 unwind label %41

40:                                               ; preds = %35
  invoke void (ptr, i32, ptr, ...) @_Z6pj_logP6pj_ctxiPKcz(ptr noundef %36, i32 noundef 1, ptr noundef nonnull @.str.3, ptr noundef %39)
          to label %43 unwind label %41

41:                                               ; preds = %40, %35, %27
  %42 = landingpad { ptr, i32 }
          cleanup
  br label %52

43:                                               ; preds = %40, %33
  %44 = load ptr, ptr %5, align 8, !tbaa !87
  %45 = invoke i32 @sqlite3_finalize(ptr noundef %44)
          to label %49 unwind label %46

46:                                               ; preds = %43
  %47 = landingpad { ptr, i32 }
          catch ptr null
  %48 = extractvalue { ptr, i32 } %47, 0
  tail call void @__clang_call_terminate(ptr %48) #36
  unreachable

49:                                               ; preds = %43
  tail call void @_ZdlPvm(ptr noundef nonnull %5, i64 noundef 16) #32
  br label %50

50:                                               ; preds = %49, %3
  %51 = phi i1 [ %34, %49 ], [ false, %3 ]
  call void @llvm.lifetime.end.p0(ptr %4)
  ret i1 %51

52:                                               ; preds = %41, %14
  %53 = phi { ptr, i32 } [ %42, %41 ], [ %15, %14 ]
  call void @_ZNSt10unique_ptrIN5osgeo4proj15SQLiteStatementESt14default_deleteIS2_EED2Ev(ptr noundef nonnull align 8 dereferenceable(8) %4) #31
  call void @llvm.lifetime.end.p0(ptr %4)
  resume { ptr, i32 } %53
}

; Function Attrs: mustprogress sspstrong uwtable
define hidden noundef zeroext i1 @_ZN5osgeo4proj14DiskChunkCache12move_to_headEx(ptr noundef nonnull readonly align 8 captures(none) dereferenceable(56) %0, i64 noundef %1) local_unnamed_addr #3 align 2 personality ptr @__gxx_personality_v0 {
  %3 = alloca i64, align 8
  %4 = alloca i64, align 8
  %5 = alloca i64, align 8
  %6 = alloca i64, align 8
  %7 = alloca i64, align 8
  %8 = alloca %"class.std::unique_ptr.32", align 8
  call void @llvm.lifetime.start.p0(ptr %3)
  store i64 0, ptr %3, align 8, !tbaa !99
  call void @llvm.lifetime.start.p0(ptr %4)
  store i64 0, ptr %4, align 8, !tbaa !99
  call void @llvm.lifetime.start.p0(ptr %5)
  store i64 0, ptr %5, align 8, !tbaa !99
  call void @llvm.lifetime.start.p0(ptr %6)
  store i64 0, ptr %6, align 8, !tbaa !99
  call void @llvm.lifetime.start.p0(ptr %7)
  store i64 0, ptr %7, align 8, !tbaa !99
  %9 = call noundef zeroext i1 @_ZN5osgeo4proj14DiskChunkCache9get_linksExRxS2_S2_S2_S2_(ptr noundef nonnull align 8 dereferenceable(56) %0, i64 noundef %1, ptr noundef nonnull align 8 dereferenceable(8) %3, ptr noundef nonnull align 8 dereferenceable(8) %4, ptr noundef nonnull align 8 dereferenceable(8) %5, ptr noundef nonnull align 8 dereferenceable(8) %6, ptr noundef nonnull align 8 dereferenceable(8) %7)
  br i1 %9, label %10, label %63

10:                                               ; preds = %2
  %11 = load i64, ptr %3, align 8, !tbaa !99
  %12 = load i64, ptr %6, align 8, !tbaa !99
  %13 = icmp eq i64 %11, %12
  br i1 %13, label %63, label %14

14:                                               ; preds = %10
  %15 = load i64, ptr %4, align 8, !tbaa !99
  %16 = load i64, ptr %5, align 8, !tbaa !99
  %17 = tail call noundef zeroext i1 @_ZN5osgeo4proj14DiskChunkCache35update_links_of_prev_and_next_linksExx(ptr noundef nonnull align 8 dereferenceable(56) %0, i64 noundef %15, i64 noundef %16)
  br i1 %17, label %18, label %63

18:                                               ; preds = %14
  %19 = icmp eq i64 %12, 0
  br i1 %19, label %55, label %20

20:                                               ; preds = %18
  call void @llvm.lifetime.start.p0(ptr %8)
  call void @_ZN5osgeo4proj14DiskChunkCache7prepareEPKc(ptr dead_on_unwind nonnull writable sret(%"class.std::unique_ptr.32") align 8 %8, ptr noundef nonnull align 8 dereferenceable(56) %0, ptr noundef nonnull @.str.35)
  %21 = load ptr, ptr %8, align 8, !tbaa !85
  %22 = icmp eq ptr %21, null
  br i1 %22, label %62, label %23

23:                                               ; preds = %20
  %24 = load ptr, ptr %21, align 8, !tbaa !87
  %25 = getelementptr inbounds nuw i8, ptr %21, i64 8
  %26 = load i32, ptr %25, align 8, !tbaa !101
  %27 = invoke i32 @sqlite3_bind_int64(ptr noundef %24, i32 noundef %26, i64 noundef %11)
          to label %28 unwind label %47

28:                                               ; preds = %23
  %29 = load i32, ptr %25, align 8, !tbaa !101
  %30 = add nsw i32 %29, 1
  store i32 %30, ptr %25, align 8, !tbaa !101
  %31 = load ptr, ptr %21, align 8, !tbaa !87
  %32 = invoke i32 @sqlite3_bind_int64(ptr noundef %31, i32 noundef %30, i64 noundef %12)
          to label %33 unwind label %47

33:                                               ; preds = %28
  %34 = load i32, ptr %25, align 8, !tbaa !101
  %35 = add nsw i32 %34, 1
  store i32 %35, ptr %25, align 8, !tbaa !101
  %36 = load ptr, ptr %8, align 8, !tbaa !85
  %37 = load ptr, ptr %36, align 8, !tbaa !87
  %38 = invoke noundef i32 @sqlite3_step(ptr noundef %37)
          to label %39 unwind label %49

39:                                               ; preds = %33
  %40 = icmp eq i32 %38, 101
  br i1 %40, label %54, label %41

41:                                               ; preds = %39
  %42 = load ptr, ptr %0, align 8, !tbaa !59
  %43 = getelementptr inbounds nuw i8, ptr %0, i64 40
  %44 = load ptr, ptr %43, align 8, !tbaa !81
  %45 = invoke ptr @sqlite3_errmsg(ptr noundef %44)
          to label %46 unwind label %49

46:                                               ; preds = %41
  invoke void (ptr, i32, ptr, ...) @_Z6pj_logP6pj_ctxiPKcz(ptr noundef %42, i32 noundef 1, ptr noundef nonnull @.str.3, ptr noundef %45)
          to label %51 unwind label %49

47:                                               ; preds = %28, %23
  %48 = landingpad { ptr, i32 }
          cleanup
  br label %52

49:                                               ; preds = %46, %41, %33
  %50 = landingpad { ptr, i32 }
          cleanup
  br label %52

51:                                               ; preds = %46
  call void @_ZNSt10unique_ptrIN5osgeo4proj15SQLiteStatementESt14default_deleteIS2_EED2Ev(ptr noundef nonnull align 8 dereferenceable(8) %8) #31
  call void @llvm.lifetime.end.p0(ptr %8)
  br label %63

52:                                               ; preds = %49, %47
  %53 = phi { ptr, i32 } [ %50, %49 ], [ %48, %47 ]
  call void @_ZNSt10unique_ptrIN5osgeo4proj15SQLiteStatementESt14default_deleteIS2_EED2Ev(ptr noundef nonnull align 8 dereferenceable(8) %8) #31
  call void @llvm.lifetime.end.p0(ptr %8)
  call void @llvm.lifetime.end.p0(ptr %7)
  call void @llvm.lifetime.end.p0(ptr %6)
  call void @llvm.lifetime.end.p0(ptr %5)
  call void @llvm.lifetime.end.p0(ptr %4)
  call void @llvm.lifetime.end.p0(ptr %3)
  resume { ptr, i32 } %53

54:                                               ; preds = %39
  call void @_ZNSt10unique_ptrIN5osgeo4proj15SQLiteStatementESt14default_deleteIS2_EED2Ev(ptr noundef nonnull align 8 dereferenceable(8) %8) #31
  call void @llvm.lifetime.end.p0(ptr %8)
  br label %55

55:                                               ; preds = %54, %18
  %56 = call noundef zeroext i1 @_ZN5osgeo4proj14DiskChunkCache20update_linked_chunksExxx(ptr noundef nonnull align 8 dereferenceable(56) %0, i64 noundef %11, i64 noundef 0, i64 noundef %12)
  br i1 %56, label %57, label %63

57:                                               ; preds = %55
  %58 = load i64, ptr %7, align 8, !tbaa !99
  %59 = icmp eq i64 %11, %58
  %60 = select i1 %59, i64 %15, i64 %58
  %61 = call noundef zeroext i1 @_ZN5osgeo4proj14DiskChunkCache30update_linked_chunks_head_tailExx(ptr noundef nonnull align 8 dereferenceable(56) %0, i64 noundef %11, i64 noundef %60)
  br label %63

62:                                               ; preds = %20
  call void @llvm.lifetime.end.p0(ptr %8)
  br label %63

63:                                               ; preds = %62, %57, %55, %51, %14, %10, %2
  %64 = phi i1 [ false, %51 ], [ false, %2 ], [ true, %10 ], [ false, %14 ], [ false, %62 ], [ false, %55 ], [ %61, %57 ]
  call void @llvm.lifetime.end.p0(ptr %7)
  call void @llvm.lifetime.end.p0(ptr %6)
  call void @llvm.lifetime.end.p0(ptr %5)
  call void @llvm.lifetime.end.p0(ptr %4)
  call void @llvm.lifetime.end.p0(ptr %3)
  ret i1 %64
}

; Function Attrs: mustprogress sspstrong uwtable
define hidden noundef zeroext i1 @_ZN5osgeo4proj14DiskChunkCache12move_to_tailEx(ptr noundef nonnull readonly align 8 captures(none) dereferenceable(56) %0, i64 noundef %1) local_unnamed_addr #3 align 2 personality ptr @__gxx_personality_v0 {
  %3 = alloca i64, align 8
  %4 = alloca i64, align 8
  %5 = alloca i64, align 8
  %6 = alloca i64, align 8
  %7 = alloca i64, align 8
  %8 = alloca %"class.std::unique_ptr.32", align 8
  call void @llvm.lifetime.start.p0(ptr %3)
  store i64 0, ptr %3, align 8, !tbaa !99
  call void @llvm.lifetime.start.p0(ptr %4)
  store i64 0, ptr %4, align 8, !tbaa !99
  call void @llvm.lifetime.start.p0(ptr %5)
  store i64 0, ptr %5, align 8, !tbaa !99
  call void @llvm.lifetime.start.p0(ptr %6)
  store i64 0, ptr %6, align 8, !tbaa !99
  call void @llvm.lifetime.start.p0(ptr %7)
  store i64 0, ptr %7, align 8, !tbaa !99
  %9 = call noundef zeroext i1 @_ZN5osgeo4proj14DiskChunkCache9get_linksExRxS2_S2_S2_S2_(ptr noundef nonnull align 8 dereferenceable(56) %0, i64 noundef %1, ptr noundef nonnull align 8 dereferenceable(8) %3, ptr noundef nonnull align 8 dereferenceable(8) %4, ptr noundef nonnull align 8 dereferenceable(8) %5, ptr noundef nonnull align 8 dereferenceable(8) %6, ptr noundef nonnull align 8 dereferenceable(8) %7)
  br i1 %9, label %10, label %63

10:                                               ; preds = %2
  %11 = load i64, ptr %3, align 8, !tbaa !99
  %12 = load i64, ptr %7, align 8, !tbaa !99
  %13 = icmp eq i64 %11, %12
  br i1 %13, label %63, label %14

14:                                               ; preds = %10
  %15 = load i64, ptr %4, align 8, !tbaa !99
  %16 = load i64, ptr %5, align 8, !tbaa !99
  %17 = tail call noundef zeroext i1 @_ZN5osgeo4proj14DiskChunkCache35update_links_of_prev_and_next_linksExx(ptr noundef nonnull align 8 dereferenceable(56) %0, i64 noundef %15, i64 noundef %16)
  br i1 %17, label %18, label %63

18:                                               ; preds = %14
  %19 = icmp eq i64 %12, 0
  br i1 %19, label %55, label %20

20:                                               ; preds = %18
  call void @llvm.lifetime.start.p0(ptr %8)
  call void @_ZN5osgeo4proj14DiskChunkCache7prepareEPKc(ptr dead_on_unwind nonnull writable sret(%"class.std::unique_ptr.32") align 8 %8, ptr noundef nonnull align 8 dereferenceable(56) %0, ptr noundef nonnull @.str.34)
  %21 = load ptr, ptr %8, align 8, !tbaa !85
  %22 = icmp eq ptr %21, null
  br i1 %22, label %62, label %23

23:                                               ; preds = %20
  %24 = load ptr, ptr %21, align 8, !tbaa !87
  %25 = getelementptr inbounds nuw i8, ptr %21, i64 8
  %26 = load i32, ptr %25, align 8, !tbaa !101
  %27 = invoke i32 @sqlite3_bind_int64(ptr noundef %24, i32 noundef %26, i64 noundef %11)
          to label %28 unwind label %47

28:                                               ; preds = %23
  %29 = load i32, ptr %25, align 8, !tbaa !101
  %30 = add nsw i32 %29, 1
  store i32 %30, ptr %25, align 8, !tbaa !101
  %31 = load ptr, ptr %21, align 8, !tbaa !87
  %32 = invoke i32 @sqlite3_bind_int64(ptr noundef %31, i32 noundef %30, i64 noundef %12)
          to label %33 unwind label %47

33:                                               ; preds = %28
  %34 = load i32, ptr %25, align 8, !tbaa !101
  %35 = add nsw i32 %34, 1
  store i32 %35, ptr %25, align 8, !tbaa !101
  %36 = load ptr, ptr %8, align 8, !tbaa !85
  %37 = load ptr, ptr %36, align 8, !tbaa !87
  %38 = invoke noundef i32 @sqlite3_step(ptr noundef %37)
          to label %39 unwind label %49

39:                                               ; preds = %33
  %40 = icmp eq i32 %38, 101
  br i1 %40, label %54, label %41

41:                                               ; preds = %39
  %42 = load ptr, ptr %0, align 8, !tbaa !59
  %43 = getelementptr inbounds nuw i8, ptr %0, i64 40
  %44 = load ptr, ptr %43, align 8, !tbaa !81
  %45 = invoke ptr @sqlite3_errmsg(ptr noundef %44)
          to label %46 unwind label %49

46:                                               ; preds = %41
  invoke void (ptr, i32, ptr, ...) @_Z6pj_logP6pj_ctxiPKcz(ptr noundef %42, i32 noundef 1, ptr noundef nonnull @.str.3, ptr noundef %45)
          to label %51 unwind label %49

47:                                               ; preds = %28, %23
  %48 = landingpad { ptr, i32 }
          cleanup
  br label %52

49:                                               ; preds = %46, %41, %33
  %50 = landingpad { ptr, i32 }
          cleanup
  br label %52

51:                                               ; preds = %46
  call void @_ZNSt10unique_ptrIN5osgeo4proj15SQLiteStatementESt14default_deleteIS2_EED2Ev(ptr noundef nonnull align 8 dereferenceable(8) %8) #31
  call void @llvm.lifetime.end.p0(ptr %8)
  br label %63

52:                                               ; preds = %49, %47
  %53 = phi { ptr, i32 } [ %50, %49 ], [ %48, %47 ]
  call void @_ZNSt10unique_ptrIN5osgeo4proj15SQLiteStatementESt14default_deleteIS2_EED2Ev(ptr noundef nonnull align 8 dereferenceable(8) %8) #31
  call void @llvm.lifetime.end.p0(ptr %8)
  call void @llvm.lifetime.end.p0(ptr %7)
  call void @llvm.lifetime.end.p0(ptr %6)
  call void @llvm.lifetime.end.p0(ptr %5)
  call void @llvm.lifetime.end.p0(ptr %4)
  call void @llvm.lifetime.end.p0(ptr %3)
  resume { ptr, i32 } %53

54:                                               ; preds = %39
  call void @_ZNSt10unique_ptrIN5osgeo4proj15SQLiteStatementESt14default_deleteIS2_EED2Ev(ptr noundef nonnull align 8 dereferenceable(8) %8) #31
  call void @llvm.lifetime.end.p0(ptr %8)
  br label %55

55:                                               ; preds = %54, %18
  %56 = call noundef zeroext i1 @_ZN5osgeo4proj14DiskChunkCache20update_linked_chunksExxx(ptr noundef nonnull align 8 dereferenceable(56) %0, i64 noundef %11, i64 noundef %12, i64 noundef 0)
  br i1 %56, label %57, label %63

57:                                               ; preds = %55
  %58 = load i64, ptr %6, align 8, !tbaa !99
  %59 = icmp eq i64 %11, %58
  %60 = select i1 %59, i64 %16, i64 %58
  %61 = call noundef zeroext i1 @_ZN5osgeo4proj14DiskChunkCache30update_linked_chunks_head_tailExx(ptr noundef nonnull align 8 dereferenceable(56) %0, i64 noundef %60, i64 noundef %11)
  br label %63

62:                                               ; preds = %20
  call void @llvm.lifetime.end.p0(ptr %8)
  br label %63

63:                                               ; preds = %62, %57, %55, %51, %14, %10, %2
  %64 = phi i1 [ false, %51 ], [ false, %2 ], [ true, %10 ], [ false, %14 ], [ false, %62 ], [ false, %55 ], [ %61, %57 ]
  call void @llvm.lifetime.end.p0(ptr %7)
  call void @llvm.lifetime.end.p0(ptr %6)
  call void @llvm.lifetime.end.p0(ptr %5)
  call void @llvm.lifetime.end.p0(ptr %4)
  call void @llvm.lifetime.end.p0(ptr %3)
  ret i1 %64
}

; Function Attrs: mustprogress sspstrong uwtable
define hidden void @_ZN5osgeo4proj17NetworkChunkCache6insertEP6pj_ctxRKNSt7__cxx1112basic_stringIcSt11char_traitsIcESaIcEEEyOSt6vectorIhSaIhEE(ptr noundef nonnull align 8 dereferenceable(144) %0, ptr noundef %1, ptr noundef nonnull align 8 dereferenceable(32) %2, i64 noundef %3, ptr noundef nonnull align 8 captures(none) dereferenceable(24) %4) local_unnamed_addr #3 align 2 personality ptr @__gxx_personality_v0 {
  %6 = alloca i64, align 8
  %7 = alloca %"class.std::shared_ptr", align 8
  %8 = alloca %"struct.osgeo::proj::NetworkChunkCache::Key", align 8
  %9 = alloca %"class.std::unique_ptr", align 8
  %10 = alloca %"class.std::vector.45", align 8
  %11 = alloca %"class.std::unique_ptr.32", align 8
  %12 = alloca %"class.std::unique_ptr.32", align 8
  %13 = alloca %class.anon, align 8
  %14 = alloca %"class.std::unique_ptr.32", align 8
  %15 = alloca %"class.std::unique_ptr.32", align 8
  %16 = alloca %"class.std::unique_ptr.32", align 8
  %17 = alloca %"class.std::unique_ptr.32", align 8
  %18 = alloca %"class.std::unique_ptr.32", align 8
  %19 = alloca %"class.std::unique_ptr.32", align 8
  %20 = alloca %"class.std::unique_ptr.32", align 8
  %21 = alloca %"class.std::unique_ptr.32", align 8
  call void @llvm.lifetime.start.p0(ptr %7)
  tail call void @llvm.experimental.noalias.scope.decl(metadata !110)
  %22 = getelementptr inbounds nuw i8, ptr %7, i64 8
  %23 = tail call noalias noundef nonnull dereferenceable(40) ptr @_Znwm(i64 noundef 40) #33, !noalias !110
  %24 = getelementptr inbounds nuw i8, ptr %23, i64 8
  store i32 1, ptr %24, align 8, !tbaa !113, !noalias !110
  %25 = getelementptr inbounds nuw i8, ptr %23, i64 12
  store i32 1, ptr %25, align 4, !tbaa !115, !noalias !110
  store ptr getelementptr inbounds nuw inrange(-16, 40) (i8, ptr @_ZTVSt23_Sp_counted_ptr_inplaceISt6vectorIhSaIhEESaIvELN9__gnu_cxx12_Lock_policyE2EE, i64 16), ptr %23, align 8, !tbaa !4, !noalias !110
  %26 = getelementptr inbounds nuw i8, ptr %23, i64 16
  %27 = load ptr, ptr %4, align 8, !tbaa !116, !noalias !110
  store ptr %27, ptr %26, align 8, !tbaa !116, !noalias !110
  %28 = getelementptr inbounds nuw i8, ptr %23, i64 24
  %29 = getelementptr inbounds nuw i8, ptr %4, i64 8
  %30 = load ptr, ptr %29, align 8, !tbaa !118, !noalias !110
  store ptr %30, ptr %28, align 8, !tbaa !118, !noalias !110
  %31 = getelementptr inbounds nuw i8, ptr %23, i64 32
  %32 = getelementptr inbounds nuw i8, ptr %4, i64 16
  %33 = load ptr, ptr %32, align 8, !tbaa !119, !noalias !110
  store ptr %33, ptr %31, align 8, !tbaa !119, !noalias !110
  tail call void @llvm.memset.p0.i64(ptr noundef nonnull align 8 dereferenceable(24) %4, i8 0, i64 24, i1 false), !noalias !110
  store ptr %23, ptr %22, align 8, !tbaa !120, !alias.scope !110
  store ptr %26, ptr %7, align 8, !tbaa !123, !alias.scope !110
  call void @llvm.lifetime.start.p0(ptr %8)
  %34 = getelementptr inbounds nuw i8, ptr %8, i64 16
  store ptr %34, ptr %8, align 8, !tbaa !70
  %35 = load ptr, ptr %2, align 8, !tbaa !19
  %36 = getelementptr inbounds nuw i8, ptr %2, i64 8
  %37 = load i64, ptr %36, align 8, !tbaa !23
  %38 = icmp ult i64 %37, 9223372036854775807
  call void @llvm.assume(i1 %38)
  call void @llvm.lifetime.start.p0(ptr %6)
  store i64 %37, ptr %6, align 8, !tbaa !71
  %39 = icmp samesign ugt i64 %37, 15
  br i1 %39, label %40, label %44

40:                                               ; preds = %5
  %41 = invoke noundef ptr @_ZNSt7__cxx1112basic_stringIcSt11char_traitsIcESaIcEE9_M_createERmm(ptr noundef nonnull align 8 dereferenceable(40) %8, ptr noundef nonnull align 8 dereferenceable(8) %6, i64 noundef 0)
          to label %42 unwind label %68

42:                                               ; preds = %40
  store ptr %41, ptr %8, align 8, !tbaa !19
  %43 = load i64, ptr %6, align 8, !tbaa !71
  store i64 %43, ptr %34, align 8, !tbaa !24
  br label %44

44:                                               ; preds = %42, %5
  %45 = phi i64 [ %43, %42 ], [ %37, %5 ]
  %46 = phi ptr [ %41, %42 ], [ %34, %5 ]
  switch i64 %45, label %49 [
    i64 0, label %47
    i64 -1, label %51
  ]

47:                                               ; preds = %44
  %48 = load i8, ptr %35, align 1, !tbaa !24
  store i8 %48, ptr %46, align 1, !tbaa !24
  br label %51

49:                                               ; preds = %44
  %50 = add nuw i64 %45, 1
  call void @llvm.memcpy.p0.p0.i64(ptr noundef nonnull align 1 dereferenceable(1) %46, ptr noundef nonnull align 1 dereferenceable(1) %35, i64 %50, i1 false)
  br label %51

51:                                               ; preds = %49, %47, %44
  %52 = load i64, ptr %6, align 8, !tbaa !71
  %53 = getelementptr inbounds nuw i8, ptr %8, i64 8
  store i64 %52, ptr %53, align 8, !tbaa !23
  call void @llvm.lifetime.end.p0(ptr %6)
  %54 = getelementptr inbounds nuw i8, ptr %8, i64 32
  store i64 %3, ptr %54, align 8, !tbaa !125
  invoke void @_ZN5osgeo4proj5lru115CacheINS0_17NetworkChunkCache3KeyESt10shared_ptrISt6vectorIhSaIhEEESt5mutexSt13unordered_mapIS4_St14_List_iteratorINS1_12KeyValuePairIS4_S9_EEENS3_9KeyHasherESt8equal_toIS4_ESaISt4pairIKS4_SF_EEEE6insertERSK_RKS9_(ptr noundef nonnull align 8 dereferenceable(144) %0, ptr noundef nonnull align 8 dereferenceable(40) %8, ptr noundef nonnull align 8 dereferenceable(16) %7)
          to label %55 unwind label %70

55:                                               ; preds = %51
  %56 = load ptr, ptr %8, align 8, !tbaa !19
  %57 = icmp eq ptr %56, %34
  br i1 %57, label %58, label %61

58:                                               ; preds = %55
  %59 = load i64, ptr %53, align 8, !tbaa !23
  %60 = icmp ult i64 %59, 16
  call void @llvm.assume(i1 %60)
  br label %64

61:                                               ; preds = %55
  %62 = load i64, ptr %34, align 8, !tbaa !24
  %63 = add i64 %62, 1
  call void @_ZdlPvm(ptr noundef %56, i64 noundef %63) #32
  br label %64

64:                                               ; preds = %61, %58
  call void @llvm.lifetime.end.p0(ptr %8)
  call void @llvm.lifetime.start.p0(ptr %9)
  invoke void @_ZN5osgeo4proj14DiskChunkCache4openEP6pj_ctx(ptr dead_on_unwind nonnull writable sret(%"class.std::unique_ptr") align 8 %9, ptr noundef %1)
          to label %65 unwind label %82

65:                                               ; preds = %64
  %66 = load ptr, ptr %9, align 8, !tbaa !72
  %67 = icmp eq ptr %66, null
  br i1 %67, label %559, label %84

68:                                               ; preds = %40
  %69 = landingpad { ptr, i32 }
          cleanup
  br label %80

70:                                               ; preds = %51
  %71 = landingpad { ptr, i32 }
          cleanup
  %72 = load ptr, ptr %8, align 8, !tbaa !19
  %73 = icmp eq ptr %72, %34
  br i1 %73, label %74, label %77

74:                                               ; preds = %70
  %75 = load i64, ptr %53, align 8, !tbaa !23
  %76 = icmp ult i64 %75, 16
  call void @llvm.assume(i1 %76)
  br label %80

77:                                               ; preds = %70
  %78 = load i64, ptr %34, align 8, !tbaa !24
  %79 = add i64 %78, 1
  call void @_ZdlPvm(ptr noundef %72, i64 noundef %79) #32
  br label %80

80:                                               ; preds = %77, %74, %68
  %81 = phi { ptr, i32 } [ %69, %68 ], [ %71, %74 ], [ %71, %77 ]
  call void @llvm.lifetime.end.p0(ptr %8)
  br label %607

82:                                               ; preds = %64
  %83 = landingpad { ptr, i32 }
          cleanup
  br label %605

84:                                               ; preds = %65
  %85 = getelementptr inbounds nuw i8, ptr %66, i64 40
  %86 = load ptr, ptr %85, align 8, !tbaa !81
  call void @llvm.lifetime.start.p0(ptr %10)
  %87 = load ptr, ptr %7, align 8, !tbaa !127
  %88 = getelementptr inbounds nuw i8, ptr %87, i64 8
  %89 = load ptr, ptr %88, align 8, !tbaa !118
  %90 = load ptr, ptr %87, align 8, !tbaa !116
  %91 = ptrtoint ptr %89 to i64
  %92 = ptrtoint ptr %90 to i64
  %93 = sub i64 %91, %92
  %94 = icmp sgt i64 %93, -1
  call void @llvm.assume(i1 %94)
  %95 = icmp eq ptr %89, %90
  br i1 %95, label %98, label %96

96:                                               ; preds = %84
  %97 = invoke noalias noundef nonnull ptr @_Znwm(i64 noundef %93) #33
          to label %98 unwind label %157

98:                                               ; preds = %96, %84
  %99 = phi ptr [ null, %84 ], [ %97, %96 ]
  store ptr %99, ptr %10, align 8, !tbaa !116
  %100 = getelementptr inbounds nuw i8, ptr %10, i64 8
  store ptr %99, ptr %100, align 8, !tbaa !118
  %101 = getelementptr inbounds nuw i8, ptr %99, i64 %93
  %102 = getelementptr inbounds nuw i8, ptr %10, i64 16
  store ptr %101, ptr %102, align 8, !tbaa !119
  %103 = load ptr, ptr %87, align 8, !tbaa !129
  %104 = load ptr, ptr %88, align 8, !tbaa !129
  %105 = ptrtoint ptr %104 to i64
  %106 = ptrtoint ptr %103 to i64
  %107 = sub i64 %105, %106
  %108 = icmp sgt i64 %107, 0
  br i1 %108, label %109, label %112, !prof !130

109:                                              ; preds = %98
  call void @llvm.memcpy.p0.p0.i64(ptr align 1 %99, ptr align 1 %103, i64 %107, i1 false)
  %110 = getelementptr inbounds nuw i8, ptr %99, i64 %107
  store ptr %110, ptr %100, align 8, !tbaa !118
  %111 = icmp samesign ult i64 %107, 16384
  br i1 %111, label %112, label %148

112:                                              ; preds = %109, %98
  %113 = phi ptr [ %110, %109 ], [ %99, %98 ]
  %114 = phi i64 [ %107, %109 ], [ 0, %98 ]
  %115 = sub nuw nsw i64 16384, %114
  %116 = sub nsw i64 %93, %114
  %117 = xor i64 %114, 9223372036854775807
  %118 = icmp ule i64 %116, %117
  call void @llvm.assume(i1 %118)
  %119 = icmp ult i64 %116, %115
  br i1 %119, label %128, label %120

120:                                              ; preds = %112
  store i8 0, ptr %113, align 1, !tbaa !24
  %121 = getelementptr inbounds nuw i8, ptr %113, i64 1
  %122 = icmp eq i64 %114, 16383
  br i1 %122, label %126, label %123

123:                                              ; preds = %120
  %124 = getelementptr i8, ptr %99, i64 16384
  %125 = xor i64 %114, 16383
  call void @llvm.memset.p0.i64(ptr nonnull align 1 %121, i8 0, i64 %125, i1 false)
  br label %126

126:                                              ; preds = %123, %120
  %127 = phi ptr [ %121, %120 ], [ %124, %123 ]
  store ptr %127, ptr %100, align 8, !tbaa !118
  br label %152

128:                                              ; preds = %112
  %129 = call i64 @llvm.umax.i64(i64 %114, i64 %115)
  %130 = add nuw nsw i64 %129, %114
  %131 = invoke noalias noundef nonnull ptr @_Znwm(i64 noundef %130) #33
          to label %132 unwind label %159

132:                                              ; preds = %128
  %133 = getelementptr inbounds nuw i8, ptr %131, i64 %114
  store i8 0, ptr %133, align 1, !tbaa !24
  %134 = icmp eq i64 %114, 16383
  br i1 %134, label %139, label %135

135:                                              ; preds = %132
  %136 = getelementptr inbounds nuw i8, ptr %133, i64 1
  %137 = xor i64 %114, 16383
  call void @llvm.memset.p0.i64(ptr nonnull align 1 %136, i8 0, i64 %137, i1 false)
  %138 = icmp samesign eq i64 %114, 0
  br i1 %138, label %140, label %139

139:                                              ; preds = %135, %132
  call void @llvm.memcpy.p0.p0.i64(ptr nonnull align 1 %131, ptr align 1 %99, i64 %114, i1 false)
  br label %140

140:                                              ; preds = %139, %135
  %141 = icmp eq ptr %99, null
  br i1 %141, label %144, label %142

142:                                              ; preds = %140
  call void @_ZdlPvm(ptr noundef nonnull %99, i64 noundef %93) #32
  %143 = load ptr, ptr %9, align 8, !tbaa !72
  br label %144

144:                                              ; preds = %142, %140
  %145 = phi ptr [ %143, %142 ], [ %66, %140 ]
  store ptr %131, ptr %10, align 8, !tbaa !116
  %146 = getelementptr inbounds nuw i8, ptr %131, i64 16384
  store ptr %146, ptr %100, align 8, !tbaa !118
  %147 = getelementptr inbounds nuw i8, ptr %131, i64 %130
  store ptr %147, ptr %102, align 8, !tbaa !119
  br label %152

148:                                              ; preds = %109
  %149 = icmp eq i64 %107, 16384
  br i1 %149, label %152, label %150

150:                                              ; preds = %148
  %151 = getelementptr inbounds nuw i8, ptr %99, i64 16384
  store ptr %151, ptr %100, align 8, !tbaa !118
  br label %152

152:                                              ; preds = %150, %148, %144, %126
  %153 = phi ptr [ %66, %150 ], [ %66, %148 ], [ %145, %144 ], [ %66, %126 ]
  call void @llvm.lifetime.start.p0(ptr %11)
  invoke void @_ZN5osgeo4proj14DiskChunkCache7prepareEPKc(ptr dead_on_unwind nonnull writable sret(%"class.std::unique_ptr.32") align 8 %11, ptr noundef nonnull align 8 dereferenceable(56) %153, ptr noundef nonnull @.str.38)
          to label %154 unwind label %161

154:                                              ; preds = %152
  %155 = load ptr, ptr %11, align 8, !tbaa !85
  %156 = icmp eq ptr %155, null
  br i1 %156, label %547, label %163

157:                                              ; preds = %96
  %158 = landingpad { ptr, i32 }
          cleanup
  br label %603

159:                                              ; preds = %128
  %160 = landingpad { ptr, i32 }
          cleanup
  br label %594

161:                                              ; preds = %152
  %162 = landingpad { ptr, i32 }
          cleanup
  br label %591

163:                                              ; preds = %154
  %164 = load ptr, ptr %2, align 8, !tbaa !19
  %165 = load ptr, ptr %155, align 8, !tbaa !87
  %166 = getelementptr inbounds nuw i8, ptr %155, i64 8
  %167 = load i32, ptr %166, align 8, !tbaa !101
  %168 = invoke i32 @sqlite3_bind_text(ptr noundef %165, i32 noundef %167, ptr noundef %164, i32 noundef -1, ptr noundef null)
          to label %169 unwind label %218

169:                                              ; preds = %163
  %170 = load i32, ptr %166, align 8, !tbaa !101
  %171 = add nsw i32 %170, 1
  store i32 %171, ptr %166, align 8, !tbaa !101
  %172 = load ptr, ptr %11, align 8, !tbaa !85
  %173 = shl i64 %3, 14
  %174 = load ptr, ptr %172, align 8, !tbaa !87
  %175 = getelementptr inbounds nuw i8, ptr %172, i64 8
  %176 = load i32, ptr %175, align 8, !tbaa !101
  %177 = invoke i32 @sqlite3_bind_int64(ptr noundef %174, i32 noundef %176, i64 noundef %173)
          to label %178 unwind label %218

178:                                              ; preds = %169
  %179 = load i32, ptr %175, align 8, !tbaa !101
  %180 = add nsw i32 %179, 1
  store i32 %180, ptr %175, align 8, !tbaa !101
  %181 = load ptr, ptr %11, align 8, !tbaa !85
  %182 = load ptr, ptr %181, align 8, !tbaa !87
  %183 = invoke noundef i32 @sqlite3_step(ptr noundef %182)
          to label %184 unwind label %220

184:                                              ; preds = %178
  switch i32 %183, label %264 [
    i32 100, label %185
    i32 101, label %267
  ]

185:                                              ; preds = %184
  %186 = load ptr, ptr %11, align 8, !tbaa !85
  %187 = load ptr, ptr %186, align 8, !tbaa !87
  %188 = getelementptr inbounds nuw i8, ptr %186, i64 12
  %189 = load i32, ptr %188, align 4, !tbaa !92
  %190 = invoke noundef i64 @sqlite3_column_int64(ptr noundef %187, i32 noundef %189)
          to label %191 unwind label %222

191:                                              ; preds = %185
  %192 = load i32, ptr %188, align 4, !tbaa !92
  %193 = add nsw i32 %192, 1
  store i32 %193, ptr %188, align 4, !tbaa !92
  %194 = load ptr, ptr %11, align 8, !tbaa !85
  %195 = load ptr, ptr %194, align 8, !tbaa !87
  %196 = getelementptr inbounds nuw i8, ptr %194, i64 12
  %197 = load i32, ptr %196, align 4, !tbaa !92
  %198 = invoke noundef i64 @sqlite3_column_int64(ptr noundef %195, i32 noundef %197)
          to label %199 unwind label %224

199:                                              ; preds = %191
  %200 = load i32, ptr %196, align 4, !tbaa !92
  %201 = add nsw i32 %200, 1
  store i32 %201, ptr %196, align 4, !tbaa !92
  call void @llvm.lifetime.start.p0(ptr %12)
  %202 = load ptr, ptr %9, align 8, !tbaa !72
  invoke void @_ZN5osgeo4proj14DiskChunkCache7prepareEPKc(ptr dead_on_unwind nonnull writable sret(%"class.std::unique_ptr.32") align 8 %12, ptr noundef nonnull align 8 dereferenceable(56) %202, ptr noundef nonnull @.str.39)
          to label %203 unwind label %226

203:                                              ; preds = %199
  %204 = load ptr, ptr %12, align 8, !tbaa !85
  %205 = load ptr, ptr %11, align 8, !tbaa !85
  store ptr %204, ptr %11, align 8, !tbaa !85
  %206 = icmp eq ptr %205, null
  br i1 %206, label %215, label %207

207:                                              ; preds = %203
  %208 = load ptr, ptr %205, align 8, !tbaa !87
  %209 = invoke i32 @sqlite3_finalize(ptr noundef %208)
          to label %213 unwind label %210

210:                                              ; preds = %207
  %211 = landingpad { ptr, i32 }
          catch ptr null
  %212 = extractvalue { ptr, i32 } %211, 0
  call void @__clang_call_terminate(ptr %212) #36
  unreachable

213:                                              ; preds = %207
  call void @_ZdlPvm(ptr noundef nonnull %205, i64 noundef 16) #32
  %214 = load ptr, ptr %11, align 8, !tbaa !85
  br label %215

215:                                              ; preds = %213, %203
  %216 = phi ptr [ %214, %213 ], [ %204, %203 ]
  call void @llvm.lifetime.end.p0(ptr %12)
  %217 = icmp eq ptr %216, null
  br i1 %217, label %537, label %228

218:                                              ; preds = %169, %163
  %219 = landingpad { ptr, i32 }
          cleanup
  br label %589

220:                                              ; preds = %266, %264, %178
  %221 = landingpad { ptr, i32 }
          cleanup
  br label %589

222:                                              ; preds = %185
  %223 = landingpad { ptr, i32 }
          cleanup
  br label %589

224:                                              ; preds = %261, %240, %228, %191
  %225 = landingpad { ptr, i32 }
          cleanup
  br label %589

226:                                              ; preds = %199
  %227 = landingpad { ptr, i32 }
          cleanup
  call void @llvm.lifetime.end.p0(ptr %12)
  br label %589

228:                                              ; preds = %215
  %229 = load ptr, ptr %10, align 8, !tbaa !116
  %230 = load ptr, ptr %100, align 8, !tbaa !118
  %231 = ptrtoint ptr %230 to i64
  %232 = ptrtoint ptr %229 to i64
  %233 = sub i64 %231, %232
  %234 = icmp sgt i64 %233, -1
  call void @llvm.assume(i1 %234)
  %235 = load ptr, ptr %216, align 8, !tbaa !87
  %236 = getelementptr inbounds nuw i8, ptr %216, i64 8
  %237 = load i32, ptr %236, align 8, !tbaa !101
  %238 = trunc i64 %233 to i32
  %239 = invoke i32 @sqlite3_bind_blob(ptr noundef %235, i32 noundef %237, ptr noundef %229, i32 noundef %238, ptr noundef null)
          to label %240 unwind label %224

240:                                              ; preds = %228
  %241 = load i32, ptr %236, align 8, !tbaa !101
  %242 = add nsw i32 %241, 1
  store i32 %242, ptr %236, align 8, !tbaa !101
  %243 = load ptr, ptr %11, align 8, !tbaa !85
  %244 = load ptr, ptr %243, align 8, !tbaa !87
  %245 = getelementptr inbounds nuw i8, ptr %243, i64 8
  %246 = load i32, ptr %245, align 8, !tbaa !101
  %247 = invoke i32 @sqlite3_bind_int64(ptr noundef %244, i32 noundef %246, i64 noundef %198)
          to label %248 unwind label %224

248:                                              ; preds = %240
  %249 = load i32, ptr %245, align 8, !tbaa !101
  %250 = add nsw i32 %249, 1
  store i32 %250, ptr %245, align 8, !tbaa !101
  %251 = load ptr, ptr %11, align 8, !tbaa !85
  %252 = load ptr, ptr %251, align 8, !tbaa !87
  %253 = invoke noundef i32 @sqlite3_step(ptr noundef %252)
          to label %254 unwind label %259

254:                                              ; preds = %248
  %255 = icmp eq i32 %253, 101
  br i1 %255, label %261, label %256

256:                                              ; preds = %254
  %257 = invoke ptr @sqlite3_errmsg(ptr noundef %86)
          to label %258 unwind label %259

258:                                              ; preds = %256
  invoke void (ptr, i32, ptr, ...) @_Z6pj_logP6pj_ctxiPKcz(ptr noundef %1, i32 noundef 1, ptr noundef nonnull @.str.3, ptr noundef %257)
          to label %537 unwind label %259

259:                                              ; preds = %258, %256, %248
  %260 = landingpad { ptr, i32 }
          cleanup
  br label %589

261:                                              ; preds = %254
  %262 = load ptr, ptr %9, align 8, !tbaa !72
  %263 = invoke noundef zeroext i1 @_ZN5osgeo4proj14DiskChunkCache12move_to_headEx(ptr noundef nonnull align 8 dereferenceable(56) %262, i64 noundef %190)
          to label %537 unwind label %224

264:                                              ; preds = %184
  %265 = invoke ptr @sqlite3_errmsg(ptr noundef %86)
          to label %266 unwind label %220

266:                                              ; preds = %264
  invoke void (ptr, i32, ptr, ...) @_Z6pj_logP6pj_ctxiPKcz(ptr noundef %1, i32 noundef 1, ptr noundef nonnull @.str.3, ptr noundef %265)
          to label %537 unwind label %220

267:                                              ; preds = %184
  call void @llvm.lifetime.start.p0(ptr %13)
  store ptr %1, ptr %13, align 8, !tbaa !131
  %268 = getelementptr inbounds nuw i8, ptr %13, i64 8
  store ptr %10, ptr %268, align 8, !tbaa !123
  %269 = getelementptr inbounds nuw i8, ptr %13, i64 16
  store ptr %9, ptr %269, align 8, !tbaa !135
  %270 = getelementptr inbounds nuw i8, ptr %13, i64 24
  store ptr %86, ptr %270, align 8, !tbaa !136
  %271 = getelementptr inbounds nuw i8, ptr %13, i64 32
  store ptr %2, ptr %271, align 8, !tbaa !137
  %272 = getelementptr inbounds nuw i8, ptr %13, i64 40
  store i64 %3, ptr %272, align 8, !tbaa !138
  %273 = getelementptr inbounds nuw i8, ptr %13, i64 48
  store ptr %7, ptr %273, align 8, !tbaa !139
  call void @llvm.lifetime.start.p0(ptr %14)
  %274 = load ptr, ptr %9, align 8, !tbaa !72
  invoke void @_ZN5osgeo4proj14DiskChunkCache7prepareEPKc(ptr dead_on_unwind nonnull writable sret(%"class.std::unique_ptr.32") align 8 %14, ptr noundef nonnull align 8 dereferenceable(56) %274, ptr noundef nonnull @.str.40)
          to label %275 unwind label %290

275:                                              ; preds = %267
  %276 = load ptr, ptr %14, align 8, !tbaa !85
  %277 = load ptr, ptr %11, align 8, !tbaa !85
  store ptr %276, ptr %11, align 8, !tbaa !85
  %278 = icmp eq ptr %277, null
  br i1 %278, label %287, label %279

279:                                              ; preds = %275
  %280 = load ptr, ptr %277, align 8, !tbaa !87
  %281 = invoke i32 @sqlite3_finalize(ptr noundef %280)
          to label %285 unwind label %282

282:                                              ; preds = %279
  %283 = landingpad { ptr, i32 }
          catch ptr null
  %284 = extractvalue { ptr, i32 } %283, 0
  call void @__clang_call_terminate(ptr %284) #36
  unreachable

285:                                              ; preds = %279
  call void @_ZdlPvm(ptr noundef nonnull %277, i64 noundef 16) #32
  %286 = load ptr, ptr %11, align 8, !tbaa !85
  br label %287

287:                                              ; preds = %285, %275
  %288 = phi ptr [ %286, %285 ], [ %276, %275 ]
  call void @llvm.lifetime.end.p0(ptr %14)
  %289 = icmp eq ptr %288, null
  br i1 %289, label %536, label %292

290:                                              ; preds = %267
  %291 = landingpad { ptr, i32 }
          cleanup
  call void @llvm.lifetime.end.p0(ptr %14)
  br label %587

292:                                              ; preds = %287
  %293 = load ptr, ptr %288, align 8, !tbaa !87
  %294 = invoke noundef i32 @sqlite3_step(ptr noundef %293)
          to label %295 unwind label %297

295:                                              ; preds = %292
  switch i32 %294, label %299 [
    i32 100, label %296
    i32 101, label %302
  ]

296:                                              ; preds = %295
  invoke fastcc void @"_ZZN5osgeo4proj17NetworkChunkCache6insertEP6pj_ctxRKNSt7__cxx1112basic_stringIcSt11char_traitsIcESaIcEEEyOSt6vectorIhSaIhEEENK3$_0clERSt10unique_ptrINS0_15SQLiteStatementESt14default_deleteISI_EE"(ptr noundef nonnull align 8 dereferenceable(56) %13, ptr noundef nonnull align 8 dereferenceable(8) %11)
          to label %536 unwind label %297

297:                                              ; preds = %301, %299, %296, %292
  %298 = landingpad { ptr, i32 }
          cleanup
  br label %587

299:                                              ; preds = %295
  %300 = invoke ptr @sqlite3_errmsg(ptr noundef %86)
          to label %301 unwind label %297

301:                                              ; preds = %299
  invoke void (ptr, i32, ptr, ...) @_Z6pj_logP6pj_ctxiPKcz(ptr noundef %1, i32 noundef 1, ptr noundef nonnull @.str.3, ptr noundef %300)
          to label %536 unwind label %297

302:                                              ; preds = %295
  call void @llvm.lifetime.start.p0(ptr %15)
  %303 = load ptr, ptr %9, align 8, !tbaa !72
  invoke void @_ZN5osgeo4proj14DiskChunkCache7prepareEPKc(ptr dead_on_unwind nonnull writable sret(%"class.std::unique_ptr.32") align 8 %15, ptr noundef nonnull align 8 dereferenceable(56) %303, ptr noundef nonnull @.str.41)
          to label %304 unwind label %308

304:                                              ; preds = %302
  %305 = call noundef nonnull align 8 dereferenceable(8) ptr @_ZNSt10unique_ptrIN5osgeo4proj15SQLiteStatementESt14default_deleteIS2_EEaSEOS5_(ptr noundef nonnull align 8 dereferenceable(8) %11, ptr noundef nonnull align 8 dereferenceable(8) %15) #31
  call void @_ZNSt10unique_ptrIN5osgeo4proj15SQLiteStatementESt14default_deleteIS2_EED2Ev(ptr noundef nonnull align 8 dereferenceable(8) %15) #31
  call void @llvm.lifetime.end.p0(ptr %15)
  %306 = load ptr, ptr %11, align 8, !tbaa !85
  %307 = icmp eq ptr %306, null
  br i1 %307, label %536, label %310

308:                                              ; preds = %302
  %309 = landingpad { ptr, i32 }
          cleanup
  call void @llvm.lifetime.end.p0(ptr %15)
  br label %587

310:                                              ; preds = %304
  %311 = load ptr, ptr %306, align 8, !tbaa !87
  %312 = invoke noundef i32 @sqlite3_step(ptr noundef %311)
          to label %313 unwind label %318

313:                                              ; preds = %310
  %314 = icmp eq i32 %312, 100
  br i1 %314, label %320, label %315

315:                                              ; preds = %313
  %316 = invoke ptr @sqlite3_errmsg(ptr noundef %86)
          to label %317 unwind label %318

317:                                              ; preds = %315
  invoke void (ptr, i32, ptr, ...) @_Z6pj_logP6pj_ctxiPKcz(ptr noundef %1, i32 noundef 1, ptr noundef nonnull @.str.3, ptr noundef %316)
          to label %536 unwind label %318

318:                                              ; preds = %317, %315, %310
  %319 = landingpad { ptr, i32 }
          cleanup
  br label %587

320:                                              ; preds = %313
  invoke void @_Z11pj_load_iniP6pj_ctx(ptr noundef %1)
          to label %321 unwind label %342

321:                                              ; preds = %320
  %322 = getelementptr inbounds nuw i8, ptr %1, i64 544
  %323 = load i64, ptr %322, align 8, !tbaa !140
  %324 = icmp sgt i64 %323, 0
  br i1 %324, label %325, label %357

325:                                              ; preds = %321
  %326 = load ptr, ptr %11, align 8, !tbaa !85
  %327 = load ptr, ptr %326, align 8, !tbaa !87
  %328 = getelementptr inbounds nuw i8, ptr %326, i64 12
  %329 = load i32, ptr %328, align 4, !tbaa !92
  %330 = invoke noundef i64 @sqlite3_column_int64(ptr noundef %327, i32 noundef %329)
          to label %331 unwind label %342

331:                                              ; preds = %325
  %332 = load i32, ptr %328, align 4, !tbaa !92
  %333 = add nsw i32 %332, 1
  store i32 %333, ptr %328, align 4, !tbaa !92
  %334 = shl i64 %330, 14
  %335 = icmp slt i64 %334, %323
  br i1 %335, label %357, label %336

336:                                              ; preds = %331
  call void @llvm.lifetime.start.p0(ptr %16)
  %337 = load ptr, ptr %9, align 8, !tbaa !72
  invoke void @_ZN5osgeo4proj14DiskChunkCache7prepareEPKc(ptr dead_on_unwind nonnull writable sret(%"class.std::unique_ptr.32") align 8 %16, ptr noundef nonnull align 8 dereferenceable(56) %337, ptr noundef nonnull @.str.42)
          to label %338 unwind label %344

338:                                              ; preds = %336
  %339 = call noundef nonnull align 8 dereferenceable(8) ptr @_ZNSt10unique_ptrIN5osgeo4proj15SQLiteStatementESt14default_deleteIS2_EEaSEOS5_(ptr noundef nonnull align 8 dereferenceable(8) %11, ptr noundef nonnull align 8 dereferenceable(8) %16) #31
  call void @_ZNSt10unique_ptrIN5osgeo4proj15SQLiteStatementESt14default_deleteIS2_EED2Ev(ptr noundef nonnull align 8 dereferenceable(8) %16) #31
  call void @llvm.lifetime.end.p0(ptr %16)
  %340 = load ptr, ptr %11, align 8, !tbaa !85
  %341 = icmp eq ptr %340, null
  br i1 %341, label %536, label %346

342:                                              ; preds = %365, %325, %320
  %343 = landingpad { ptr, i32 }
          cleanup
  br label %587

344:                                              ; preds = %336
  %345 = landingpad { ptr, i32 }
          cleanup
  call void @llvm.lifetime.end.p0(ptr %16)
  br label %587

346:                                              ; preds = %338
  %347 = load ptr, ptr %340, align 8, !tbaa !87
  %348 = invoke noundef i32 @sqlite3_step(ptr noundef %347)
          to label %349 unwind label %354

349:                                              ; preds = %346
  %350 = icmp eq i32 %348, 100
  br i1 %350, label %356, label %351

351:                                              ; preds = %349
  %352 = invoke ptr @sqlite3_errmsg(ptr noundef %86)
          to label %353 unwind label %354

353:                                              ; preds = %351
  invoke void (ptr, i32, ptr, ...) @_Z6pj_logP6pj_ctxiPKcz(ptr noundef nonnull %1, i32 noundef 1, ptr noundef nonnull @.str.3, ptr noundef %352)
          to label %536 unwind label %354

354:                                              ; preds = %356, %353, %351, %346
  %355 = landingpad { ptr, i32 }
          cleanup
  br label %587

356:                                              ; preds = %349
  invoke fastcc void @"_ZZN5osgeo4proj17NetworkChunkCache6insertEP6pj_ctxRKNSt7__cxx1112basic_stringIcSt11char_traitsIcESaIcEEEyOSt6vectorIhSaIhEEENK3$_0clERSt10unique_ptrINS0_15SQLiteStatementESt14default_deleteISI_EE"(ptr noundef nonnull align 8 dereferenceable(56) %13, ptr noundef nonnull align 8 dereferenceable(8) %11)
          to label %536 unwind label %354

357:                                              ; preds = %331, %321
  call void @llvm.lifetime.start.p0(ptr %17)
  %358 = load ptr, ptr %9, align 8, !tbaa !72
  invoke void @_ZN5osgeo4proj14DiskChunkCache7prepareEPKc(ptr dead_on_unwind nonnull writable sret(%"class.std::unique_ptr.32") align 8 %17, ptr noundef nonnull align 8 dereferenceable(56) %358, ptr noundef nonnull @.str.43)
          to label %359 unwind label %363

359:                                              ; preds = %357
  %360 = call noundef nonnull align 8 dereferenceable(8) ptr @_ZNSt10unique_ptrIN5osgeo4proj15SQLiteStatementESt14default_deleteIS2_EEaSEOS5_(ptr noundef nonnull align 8 dereferenceable(8) %11, ptr noundef nonnull align 8 dereferenceable(8) %17) #31
  call void @_ZNSt10unique_ptrIN5osgeo4proj15SQLiteStatementESt14default_deleteIS2_EED2Ev(ptr noundef nonnull align 8 dereferenceable(8) %17) #31
  call void @llvm.lifetime.end.p0(ptr %17)
  %361 = load ptr, ptr %11, align 8, !tbaa !85
  %362 = icmp eq ptr %361, null
  br i1 %362, label %536, label %365

363:                                              ; preds = %357
  %364 = landingpad { ptr, i32 }
          cleanup
  call void @llvm.lifetime.end.p0(ptr %17)
  br label %587

365:                                              ; preds = %359
  %366 = load ptr, ptr %10, align 8, !tbaa !116
  %367 = load ptr, ptr %100, align 8, !tbaa !118
  %368 = ptrtoint ptr %367 to i64
  %369 = ptrtoint ptr %366 to i64
  %370 = sub i64 %368, %369
  %371 = icmp sgt i64 %370, -1
  call void @llvm.assume(i1 %371)
  %372 = load ptr, ptr %361, align 8, !tbaa !87
  %373 = getelementptr inbounds nuw i8, ptr %361, i64 8
  %374 = load i32, ptr %373, align 8, !tbaa !101
  %375 = trunc i64 %370 to i32
  %376 = invoke i32 @sqlite3_bind_blob(ptr noundef %372, i32 noundef %374, ptr noundef %366, i32 noundef %375, ptr noundef null)
          to label %377 unwind label %342

377:                                              ; preds = %365
  %378 = load i32, ptr %373, align 8, !tbaa !101
  %379 = add nsw i32 %378, 1
  store i32 %379, ptr %373, align 8, !tbaa !101
  %380 = load ptr, ptr %11, align 8, !tbaa !85
  %381 = load ptr, ptr %380, align 8, !tbaa !87
  %382 = invoke noundef i32 @sqlite3_step(ptr noundef %381)
          to label %383 unwind label %388

383:                                              ; preds = %377
  %384 = icmp eq i32 %382, 101
  br i1 %384, label %390, label %385

385:                                              ; preds = %383
  %386 = invoke ptr @sqlite3_errmsg(ptr noundef %86)
          to label %387 unwind label %388

387:                                              ; preds = %385
  invoke void (ptr, i32, ptr, ...) @_Z6pj_logP6pj_ctxiPKcz(ptr noundef nonnull %1, i32 noundef 1, ptr noundef nonnull @.str.3, ptr noundef %386)
          to label %536 unwind label %388

388:                                              ; preds = %387, %385, %377
  %389 = landingpad { ptr, i32 }
          cleanup
  br label %587

390:                                              ; preds = %383
  %391 = invoke i64 @sqlite3_last_insert_rowid(ptr noundef %86)
          to label %392 unwind label %398

392:                                              ; preds = %390
  call void @llvm.lifetime.start.p0(ptr %18)
  %393 = load ptr, ptr %9, align 8, !tbaa !72
  invoke void @_ZN5osgeo4proj14DiskChunkCache7prepareEPKc(ptr dead_on_unwind nonnull writable sret(%"class.std::unique_ptr.32") align 8 %18, ptr noundef nonnull align 8 dereferenceable(56) %393, ptr noundef nonnull @.str.44)
          to label %394 unwind label %400

394:                                              ; preds = %392
  %395 = call noundef nonnull align 8 dereferenceable(8) ptr @_ZNSt10unique_ptrIN5osgeo4proj15SQLiteStatementESt14default_deleteIS2_EEaSEOS5_(ptr noundef nonnull align 8 dereferenceable(8) %11, ptr noundef nonnull align 8 dereferenceable(8) %18) #31
  call void @_ZNSt10unique_ptrIN5osgeo4proj15SQLiteStatementESt14default_deleteIS2_EED2Ev(ptr noundef nonnull align 8 dereferenceable(8) %18) #31
  call void @llvm.lifetime.end.p0(ptr %18)
  %396 = load ptr, ptr %11, align 8, !tbaa !85
  %397 = icmp eq ptr %396, null
  br i1 %397, label %536, label %402

398:                                              ; preds = %424, %416, %408, %402, %390
  %399 = landingpad { ptr, i32 }
          cleanup
  br label %587

400:                                              ; preds = %392
  %401 = landingpad { ptr, i32 }
          cleanup
  call void @llvm.lifetime.end.p0(ptr %18)
  br label %587

402:                                              ; preds = %394
  %403 = load ptr, ptr %2, align 8, !tbaa !19
  %404 = load ptr, ptr %396, align 8, !tbaa !87
  %405 = getelementptr inbounds nuw i8, ptr %396, i64 8
  %406 = load i32, ptr %405, align 8, !tbaa !101
  %407 = invoke i32 @sqlite3_bind_text(ptr noundef %404, i32 noundef %406, ptr noundef %403, i32 noundef -1, ptr noundef null)
          to label %408 unwind label %398

408:                                              ; preds = %402
  %409 = load i32, ptr %405, align 8, !tbaa !101
  %410 = add nsw i32 %409, 1
  store i32 %410, ptr %405, align 8, !tbaa !101
  %411 = load ptr, ptr %11, align 8, !tbaa !85
  %412 = load ptr, ptr %411, align 8, !tbaa !87
  %413 = getelementptr inbounds nuw i8, ptr %411, i64 8
  %414 = load i32, ptr %413, align 8, !tbaa !101
  %415 = invoke i32 @sqlite3_bind_int64(ptr noundef %412, i32 noundef %414, i64 noundef %173)
          to label %416 unwind label %398

416:                                              ; preds = %408
  %417 = load i32, ptr %413, align 8, !tbaa !101
  %418 = add nsw i32 %417, 1
  store i32 %418, ptr %413, align 8, !tbaa !101
  %419 = load ptr, ptr %11, align 8, !tbaa !85
  %420 = load ptr, ptr %419, align 8, !tbaa !87
  %421 = getelementptr inbounds nuw i8, ptr %419, i64 8
  %422 = load i32, ptr %421, align 8, !tbaa !101
  %423 = invoke i32 @sqlite3_bind_int64(ptr noundef %420, i32 noundef %422, i64 noundef %391)
          to label %424 unwind label %398

424:                                              ; preds = %416
  %425 = load i32, ptr %421, align 8, !tbaa !101
  %426 = add nsw i32 %425, 1
  store i32 %426, ptr %421, align 8, !tbaa !101
  %427 = load ptr, ptr %11, align 8, !tbaa !85
  %428 = load ptr, ptr %7, align 8, !tbaa !127
  %429 = getelementptr inbounds nuw i8, ptr %428, i64 8
  %430 = load ptr, ptr %429, align 8, !tbaa !118
  %431 = load ptr, ptr %428, align 8, !tbaa !116
  %432 = ptrtoint ptr %430 to i64
  %433 = ptrtoint ptr %431 to i64
  %434 = sub i64 %432, %433
  %435 = icmp sgt i64 %434, -1
  call void @llvm.assume(i1 %435)
  %436 = load ptr, ptr %427, align 8, !tbaa !87
  %437 = getelementptr inbounds nuw i8, ptr %427, i64 8
  %438 = load i32, ptr %437, align 8, !tbaa !101
  %439 = invoke i32 @sqlite3_bind_int64(ptr noundef %436, i32 noundef %438, i64 noundef %434)
          to label %440 unwind label %398

440:                                              ; preds = %424
  %441 = load i32, ptr %437, align 8, !tbaa !101
  %442 = add nsw i32 %441, 1
  store i32 %442, ptr %437, align 8, !tbaa !101
  %443 = load ptr, ptr %11, align 8, !tbaa !85
  %444 = load ptr, ptr %443, align 8, !tbaa !87
  %445 = invoke noundef i32 @sqlite3_step(ptr noundef %444)
          to label %446 unwind label %451

446:                                              ; preds = %440
  %447 = icmp eq i32 %445, 101
  br i1 %447, label %453, label %448

448:                                              ; preds = %446
  %449 = invoke ptr @sqlite3_errmsg(ptr noundef %86)
          to label %450 unwind label %451

450:                                              ; preds = %448
  invoke void (ptr, i32, ptr, ...) @_Z6pj_logP6pj_ctxiPKcz(ptr noundef nonnull %1, i32 noundef 1, ptr noundef nonnull @.str.3, ptr noundef %449)
          to label %536 unwind label %451

451:                                              ; preds = %450, %448, %440
  %452 = landingpad { ptr, i32 }
          cleanup
  br label %587

453:                                              ; preds = %446
  %454 = invoke i64 @sqlite3_last_insert_rowid(ptr noundef %86)
          to label %455 unwind label %461

455:                                              ; preds = %453
  call void @llvm.lifetime.start.p0(ptr %19)
  %456 = load ptr, ptr %9, align 8, !tbaa !72
  invoke void @_ZN5osgeo4proj14DiskChunkCache7prepareEPKc(ptr dead_on_unwind nonnull writable sret(%"class.std::unique_ptr.32") align 8 %19, ptr noundef nonnull align 8 dereferenceable(56) %456, ptr noundef nonnull @.str.45)
          to label %457 unwind label %463

457:                                              ; preds = %455
  %458 = call noundef nonnull align 8 dereferenceable(8) ptr @_ZNSt10unique_ptrIN5osgeo4proj15SQLiteStatementESt14default_deleteIS2_EEaSEOS5_(ptr noundef nonnull align 8 dereferenceable(8) %11, ptr noundef nonnull align 8 dereferenceable(8) %19) #31
  call void @_ZNSt10unique_ptrIN5osgeo4proj15SQLiteStatementESt14default_deleteIS2_EED2Ev(ptr noundef nonnull align 8 dereferenceable(8) %19) #31
  call void @llvm.lifetime.end.p0(ptr %19)
  %459 = load ptr, ptr %11, align 8, !tbaa !85
  %460 = icmp eq ptr %459, null
  br i1 %460, label %536, label %465

461:                                              ; preds = %533, %532, %530, %522, %514, %509, %491, %486, %470, %465, %453
  %462 = landingpad { ptr, i32 }
          cleanup
  br label %587

463:                                              ; preds = %455
  %464 = landingpad { ptr, i32 }
          cleanup
  call void @llvm.lifetime.end.p0(ptr %19)
  br label %587

465:                                              ; preds = %457
  %466 = load ptr, ptr %459, align 8, !tbaa !87
  %467 = getelementptr inbounds nuw i8, ptr %459, i64 8
  %468 = load i32, ptr %467, align 8, !tbaa !101
  %469 = invoke i32 @sqlite3_bind_int64(ptr noundef %466, i32 noundef %468, i64 noundef %454)
          to label %470 unwind label %461

470:                                              ; preds = %465
  %471 = load i32, ptr %467, align 8, !tbaa !101
  %472 = add nsw i32 %471, 1
  store i32 %472, ptr %467, align 8, !tbaa !101
  %473 = load ptr, ptr %11, align 8, !tbaa !85
  %474 = load ptr, ptr %473, align 8, !tbaa !87
  %475 = invoke noundef i32 @sqlite3_step(ptr noundef %474)
          to label %476 unwind label %461

476:                                              ; preds = %470
  %477 = icmp eq i32 %475, 101
  br i1 %477, label %478, label %530

478:                                              ; preds = %476
  call void @llvm.lifetime.start.p0(ptr %20)
  %479 = load ptr, ptr %9, align 8, !tbaa !72
  invoke void @_ZN5osgeo4proj14DiskChunkCache7prepareEPKc(ptr dead_on_unwind nonnull writable sret(%"class.std::unique_ptr.32") align 8 %20, ptr noundef nonnull align 8 dereferenceable(56) %479, ptr noundef nonnull @.str.46)
          to label %480 unwind label %484

480:                                              ; preds = %478
  %481 = call noundef nonnull align 8 dereferenceable(8) ptr @_ZNSt10unique_ptrIN5osgeo4proj15SQLiteStatementESt14default_deleteIS2_EEaSEOS5_(ptr noundef nonnull align 8 dereferenceable(8) %11, ptr noundef nonnull align 8 dereferenceable(8) %20) #31
  call void @_ZNSt10unique_ptrIN5osgeo4proj15SQLiteStatementESt14default_deleteIS2_EED2Ev(ptr noundef nonnull align 8 dereferenceable(8) %20) #31
  call void @llvm.lifetime.end.p0(ptr %20)
  %482 = load ptr, ptr %11, align 8, !tbaa !85
  %483 = icmp eq ptr %482, null
  br i1 %483, label %536, label %486

484:                                              ; preds = %478
  %485 = landingpad { ptr, i32 }
          cleanup
  call void @llvm.lifetime.end.p0(ptr %20)
  br label %587

486:                                              ; preds = %480
  %487 = load ptr, ptr %482, align 8, !tbaa !87
  %488 = invoke noundef i32 @sqlite3_step(ptr noundef %487)
          to label %489 unwind label %461

489:                                              ; preds = %486
  %490 = icmp eq i32 %488, 100
  br i1 %490, label %491, label %530

491:                                              ; preds = %489
  %492 = load ptr, ptr %11, align 8, !tbaa !85
  %493 = load ptr, ptr %492, align 8, !tbaa !87
  %494 = getelementptr inbounds nuw i8, ptr %492, i64 12
  %495 = load i32, ptr %494, align 4, !tbaa !92
  %496 = invoke noundef i64 @sqlite3_column_int64(ptr noundef %493, i32 noundef %495)
          to label %497 unwind label %461

497:                                              ; preds = %491
  %498 = load i32, ptr %494, align 4, !tbaa !92
  %499 = add nsw i32 %498, 1
  store i32 %499, ptr %494, align 4, !tbaa !92
  %500 = icmp eq i64 %496, 0
  br i1 %500, label %501, label %533

501:                                              ; preds = %497
  call void @llvm.lifetime.start.p0(ptr %21)
  %502 = load ptr, ptr %9, align 8, !tbaa !72
  invoke void @_ZN5osgeo4proj14DiskChunkCache7prepareEPKc(ptr dead_on_unwind nonnull writable sret(%"class.std::unique_ptr.32") align 8 %21, ptr noundef nonnull align 8 dereferenceable(56) %502, ptr noundef nonnull @.str.37)
          to label %503 unwind label %507

503:                                              ; preds = %501
  %504 = call noundef nonnull align 8 dereferenceable(8) ptr @_ZNSt10unique_ptrIN5osgeo4proj15SQLiteStatementESt14default_deleteIS2_EEaSEOS5_(ptr noundef nonnull align 8 dereferenceable(8) %11, ptr noundef nonnull align 8 dereferenceable(8) %21) #31
  call void @_ZNSt10unique_ptrIN5osgeo4proj15SQLiteStatementESt14default_deleteIS2_EED2Ev(ptr noundef nonnull align 8 dereferenceable(8) %21) #31
  call void @llvm.lifetime.end.p0(ptr %21)
  %505 = load ptr, ptr %11, align 8, !tbaa !85
  %506 = icmp eq ptr %505, null
  br i1 %506, label %536, label %509

507:                                              ; preds = %501
  %508 = landingpad { ptr, i32 }
          cleanup
  call void @llvm.lifetime.end.p0(ptr %21)
  br label %587

509:                                              ; preds = %503
  %510 = load ptr, ptr %505, align 8, !tbaa !87
  %511 = getelementptr inbounds nuw i8, ptr %505, i64 8
  %512 = load i32, ptr %511, align 8, !tbaa !101
  %513 = invoke i32 @sqlite3_bind_int64(ptr noundef %510, i32 noundef %512, i64 noundef %454)
          to label %514 unwind label %461

514:                                              ; preds = %509
  %515 = load i32, ptr %511, align 8, !tbaa !101
  %516 = add nsw i32 %515, 1
  store i32 %516, ptr %511, align 8, !tbaa !101
  %517 = load ptr, ptr %11, align 8, !tbaa !85
  %518 = load ptr, ptr %517, align 8, !tbaa !87
  %519 = getelementptr inbounds nuw i8, ptr %517, i64 8
  %520 = load i32, ptr %519, align 8, !tbaa !101
  %521 = invoke i32 @sqlite3_bind_int64(ptr noundef %518, i32 noundef %520, i64 noundef %454)
          to label %522 unwind label %461

522:                                              ; preds = %514
  %523 = load i32, ptr %519, align 8, !tbaa !101
  %524 = add nsw i32 %523, 1
  store i32 %524, ptr %519, align 8, !tbaa !101
  %525 = load ptr, ptr %11, align 8, !tbaa !85
  %526 = load ptr, ptr %525, align 8, !tbaa !87
  %527 = invoke noundef i32 @sqlite3_step(ptr noundef %526)
          to label %528 unwind label %461

528:                                              ; preds = %522
  %529 = icmp eq i32 %527, 101
  br i1 %529, label %533, label %530

530:                                              ; preds = %528, %489, %476
  %531 = invoke ptr @sqlite3_errmsg(ptr noundef %86)
          to label %532 unwind label %461

532:                                              ; preds = %530
  invoke void (ptr, i32, ptr, ...) @_Z6pj_logP6pj_ctxiPKcz(ptr noundef nonnull %1, i32 noundef 1, ptr noundef nonnull @.str.3, ptr noundef %531)
          to label %536 unwind label %461

533:                                              ; preds = %528, %497
  %534 = load ptr, ptr %9, align 8, !tbaa !72
  %535 = invoke noundef zeroext i1 @_ZN5osgeo4proj14DiskChunkCache12move_to_headEx(ptr noundef nonnull align 8 dereferenceable(56) %534, i64 noundef %454)
          to label %536 unwind label %461

536:                                              ; preds = %533, %532, %503, %480, %457, %450, %394, %387, %359, %356, %353, %338, %317, %304, %301, %296, %287
  call void @llvm.lifetime.end.p0(ptr %13)
  br label %537

537:                                              ; preds = %536, %266, %261, %258, %215
  %538 = load ptr, ptr %11, align 8, !tbaa !85
  %539 = icmp eq ptr %538, null
  br i1 %539, label %547, label %540

540:                                              ; preds = %537
  %541 = load ptr, ptr %538, align 8, !tbaa !87
  %542 = invoke i32 @sqlite3_finalize(ptr noundef %541)
          to label %546 unwind label %543

543:                                              ; preds = %540
  %544 = landingpad { ptr, i32 }
          catch ptr null
  %545 = extractvalue { ptr, i32 } %544, 0
  call void @__clang_call_terminate(ptr %545) #36
  unreachable

546:                                              ; preds = %540
  call void @_ZdlPvm(ptr noundef nonnull %538, i64 noundef 16) #32
  br label %547

547:                                              ; preds = %546, %537, %154
  call void @llvm.lifetime.end.p0(ptr %11)
  %548 = load ptr, ptr %10, align 8, !tbaa !116
  %549 = icmp eq ptr %548, null
  br i1 %549, label %555, label %550

550:                                              ; preds = %547
  %551 = load ptr, ptr %102, align 8, !tbaa !119
  %552 = ptrtoint ptr %551 to i64
  %553 = ptrtoint ptr %548 to i64
  %554 = sub i64 %552, %553
  call void @_ZdlPvm(ptr noundef nonnull %548, i64 noundef %554) #32
  br label %555

555:                                              ; preds = %550, %547
  call void @llvm.lifetime.end.p0(ptr %10)
  %556 = load ptr, ptr %9, align 8, !tbaa !72
  %557 = icmp eq ptr %556, null
  br i1 %557, label %559, label %558

558:                                              ; preds = %555
  call void @_ZN5osgeo4proj14DiskChunkCacheD2Ev(ptr noundef nonnull align 8 dereferenceable(56) %556) #31
  call void @_ZdlPvm(ptr noundef nonnull %556, i64 noundef 56) #32
  br label %559

559:                                              ; preds = %558, %555, %65
  call void @llvm.lifetime.end.p0(ptr %9)
  %560 = load ptr, ptr %22, align 8, !tbaa !120
  %561 = icmp eq ptr %560, null
  br i1 %561, label %586, label %562

562:                                              ; preds = %559
  %563 = getelementptr inbounds nuw i8, ptr %560, i64 8
  %564 = load atomic i64, ptr %563 acquire, align 8
  %565 = icmp eq i64 %564, 4294967297
  %566 = trunc i64 %564 to i32
  br i1 %565, label %567, label %575

567:                                              ; preds = %562
  store i32 0, ptr %563, align 8, !tbaa !113
  %568 = getelementptr inbounds nuw i8, ptr %560, i64 12
  store i32 0, ptr %568, align 4, !tbaa !115
  %569 = load ptr, ptr %560, align 8, !tbaa !4
  %570 = getelementptr inbounds nuw i8, ptr %569, i64 16
  %571 = load ptr, ptr %570, align 8
  call void %571(ptr noundef nonnull align 8 dereferenceable(16) %560) #31
  %572 = load ptr, ptr %560, align 8, !tbaa !4
  %573 = getelementptr inbounds nuw i8, ptr %572, i64 24
  %574 = load ptr, ptr %573, align 8
  call void %574(ptr noundef nonnull align 8 dereferenceable(16) %560) #31
  br label %586

575:                                              ; preds = %562
  %576 = load i8, ptr @__libc_single_threaded, align 1, !tbaa !24
  %577 = icmp eq i8 %576, 0
  br i1 %577, label %580, label %578

578:                                              ; preds = %575
  %579 = add nsw i32 %566, -1
  store i32 %579, ptr %563, align 4, !tbaa !84
  br label %582

580:                                              ; preds = %575
  %581 = atomicrmw volatile add ptr %563, i32 -1 acq_rel, align 4
  br label %582

582:                                              ; preds = %580, %578
  %583 = phi i32 [ %566, %578 ], [ %581, %580 ]
  %584 = icmp eq i32 %583, 1
  br i1 %584, label %585, label %586, !prof !79

585:                                              ; preds = %582
  call void @_ZNSt16_Sp_counted_baseILN9__gnu_cxx12_Lock_policyE2EE24_M_release_last_use_coldEv(ptr noundef nonnull align 8 dereferenceable(16) %560) #31
  br label %586

586:                                              ; preds = %585, %582, %567, %559
  call void @llvm.lifetime.end.p0(ptr %7)
  ret void

587:                                              ; preds = %507, %484, %463, %461, %451, %400, %398, %388, %363, %354, %344, %342, %318, %308, %297, %290
  %588 = phi { ptr, i32 } [ %319, %318 ], [ %309, %308 ], [ %298, %297 ], [ %291, %290 ], [ %355, %354 ], [ %345, %344 ], [ %389, %388 ], [ %343, %342 ], [ %364, %363 ], [ %452, %451 ], [ %399, %398 ], [ %401, %400 ], [ %462, %461 ], [ %508, %507 ], [ %485, %484 ], [ %464, %463 ]
  call void @llvm.lifetime.end.p0(ptr %13)
  br label %589

589:                                              ; preds = %587, %259, %226, %224, %222, %220, %218
  %590 = phi { ptr, i32 } [ %219, %218 ], [ %221, %220 ], [ %588, %587 ], [ %223, %222 ], [ %225, %224 ], [ %260, %259 ], [ %227, %226 ]
  call void @_ZNSt10unique_ptrIN5osgeo4proj15SQLiteStatementESt14default_deleteIS2_EED2Ev(ptr noundef nonnull align 8 dereferenceable(8) %11) #31
  br label %591

591:                                              ; preds = %589, %161
  %592 = phi { ptr, i32 } [ %590, %589 ], [ %162, %161 ]
  call void @llvm.lifetime.end.p0(ptr %11)
  %593 = load ptr, ptr %10, align 8, !tbaa !116
  br label %594

594:                                              ; preds = %591, %159
  %595 = phi ptr [ %593, %591 ], [ %99, %159 ]
  %596 = phi { ptr, i32 } [ %592, %591 ], [ %160, %159 ]
  %597 = icmp eq ptr %595, null
  br i1 %597, label %603, label %598

598:                                              ; preds = %594
  %599 = load ptr, ptr %102, align 8, !tbaa !119
  %600 = ptrtoint ptr %599 to i64
  %601 = ptrtoint ptr %595 to i64
  %602 = sub i64 %600, %601
  call void @_ZdlPvm(ptr noundef nonnull %595, i64 noundef %602) #32
  br label %603

603:                                              ; preds = %598, %594, %157
  %604 = phi { ptr, i32 } [ %158, %157 ], [ %596, %594 ], [ %596, %598 ]
  call void @llvm.lifetime.end.p0(ptr %10)
  call void @_ZNSt10unique_ptrIN5osgeo4proj14DiskChunkCacheESt14default_deleteIS2_EED2Ev(ptr noundef nonnull align 8 dereferenceable(8) %9) #31
  br label %605

605:                                              ; preds = %603, %82
  %606 = phi { ptr, i32 } [ %604, %603 ], [ %83, %82 ]
  call void @llvm.lifetime.end.p0(ptr %9)
  br label %607

607:                                              ; preds = %605, %80
  %608 = phi { ptr, i32 } [ %606, %605 ], [ %81, %80 ]
  call void @_ZNSt12__shared_ptrISt6vectorIhSaIhEELN9__gnu_cxx12_Lock_policyE2EED2Ev(ptr noundef nonnull align 8 dereferenceable(16) %7) #31
  call void @llvm.lifetime.end.p0(ptr %7)
  resume { ptr, i32 } %608
}

; Function Attrs: mustprogress sspstrong uwtable
define linkonce_odr hidden void @_ZN5osgeo4proj5lru115CacheINS0_17NetworkChunkCache3KeyESt10shared_ptrISt6vectorIhSaIhEEESt5mutexSt13unordered_mapIS4_St14_List_iteratorINS1_12KeyValuePairIS4_S9_EEENS3_9KeyHasherESt8equal_toIS4_ESaISt4pairIKS4_SF_EEEE6insertERSK_RKS9_(ptr noundef nonnull align 8 dereferenceable(144) %0, ptr noundef nonnull align 8 dereferenceable(40) %1, ptr noundef nonnull align 8 dereferenceable(16) %2) local_unnamed_addr #3 comdat align 2 personality ptr @__gxx_personality_v0 {
  %4 = alloca %"struct.std::_Hashtable<osgeo::proj::NetworkChunkCache::Key, std::pair<const osgeo::proj::NetworkChunkCache::Key, std::_List_iterator<osgeo::proj::lru11::KeyValuePair<osgeo::proj::NetworkChunkCache::Key, std::shared_ptr<std::vector<unsigned char>>>>>, std::allocator<std::pair<const osgeo::proj::NetworkChunkCache::Key, std::_List_iterator<osgeo::proj::lru11::KeyValuePair<osgeo::proj::NetworkChunkCache::Key, std::shared_ptr<std::vector<unsigned char>>>>>>, std::__detail::_Select1st, std::equal_to<osgeo::proj::NetworkChunkCache::Key>, osgeo::proj::NetworkChunkCache::KeyHasher, std::__detail::_Mod_range_hashing, std::__detail::_Default_ranged_hash, std::__detail::_Prime_rehash_policy, std::__detail::_Hashtable_traits<true, false, true>>::__location_type", align 8
  %5 = getelementptr inbounds nuw i8, ptr %0, i64 8
  %6 = tail call i32 @pthread_mutex_lock(ptr noundef nonnull align 8 dereferenceable(40) %5) #31
  %7 = icmp eq i32 %6, 0
  br i1 %7, label %9, label %8

8:                                                ; preds = %3
  tail call void @_ZSt20__throw_system_errori(i32 noundef %6) #34
  unreachable

9:                                                ; preds = %3
  %10 = getelementptr inbounds nuw i8, ptr %0, i64 48
  call void @llvm.lifetime.start.p0(ptr %4)
  invoke void @_ZNKSt10_HashtableIN5osgeo4proj17NetworkChunkCache3KeyESt4pairIKS3_St14_List_iteratorINS1_5lru1112KeyValuePairIS3_St10shared_ptrISt6vectorIhSaIhEEEEEEESaISG_ENSt8__detail10_Select1stESt8equal_toIS3_ENS2_9KeyHasherENSI_18_Mod_range_hashingENSI_20_Default_ranged_hashENSI_20_Prime_rehash_policyENSI_17_Hashtable_traitsILb1ELb0ELb1EEEE9_M_locateERS5_(ptr dead_on_unwind nonnull writable sret(%"struct.std::_Hashtable<osgeo::proj::NetworkChunkCache::Key, std::pair<const osgeo::proj::NetworkChunkCache::Key, std::_List_iterator<osgeo::proj::lru11::KeyValuePair<osgeo::proj::NetworkChunkCache::Key, std::shared_ptr<std::vector<unsigned char>>>>>, std::allocator<std::pair<const osgeo::proj::NetworkChunkCache::Key, std::_List_iterator<osgeo::proj::lru11::KeyValuePair<osgeo::proj::NetworkChunkCache::Key, std::shared_ptr<std::vector<unsigned char>>>>>>, std::__detail::_Select1st, std::equal_to<osgeo::proj::NetworkChunkCache::Key>, osgeo::proj::NetworkChunkCache::KeyHasher, std::__detail::_Mod_range_hashing, std::__detail::_Default_ranged_hash, std::__detail::_Prime_rehash_policy, std::__detail::_Hashtable_traits<true, false, true>>::__location_type") align 8 %4, ptr noundef nonnull align 8 dereferenceable(56) %10, ptr noundef nonnull align 8 dereferenceable(40) %1)
          to label %11 unwind label %80

11:                                               ; preds = %9
  %12 = load ptr, ptr %4, align 8, !tbaa !141
  %13 = icmp eq ptr %12, null
  br i1 %13, label %14, label %15

14:                                               ; preds = %11
  call void @llvm.lifetime.end.p0(ptr %4)
  br label %82

15:                                               ; preds = %11
  %16 = load ptr, ptr %12, align 8, !tbaa !18
  call void @llvm.lifetime.end.p0(ptr %4)
  %17 = icmp eq ptr %16, null
  br i1 %17, label %82, label %18

18:                                               ; preds = %15
  %19 = getelementptr inbounds nuw i8, ptr %16, i64 48
  %20 = load ptr, ptr %19, align 8, !tbaa !143
  %21 = getelementptr inbounds nuw i8, ptr %20, i64 56
  %22 = load ptr, ptr %2, align 8, !tbaa !127
  store ptr %22, ptr %21, align 8, !tbaa !127
  %23 = getelementptr inbounds nuw i8, ptr %20, i64 64
  %24 = getelementptr inbounds nuw i8, ptr %2, i64 8
  %25 = load ptr, ptr %24, align 8, !tbaa !120
  %26 = load ptr, ptr %23, align 8, !tbaa !120
  %27 = icmp eq ptr %25, %26
  br i1 %27, label %69, label %28

28:                                               ; preds = %18
  %29 = icmp eq ptr %25, null
  br i1 %29, label %40, label %30

30:                                               ; preds = %28
  %31 = getelementptr inbounds nuw i8, ptr %25, i64 8
  %32 = load i8, ptr @__libc_single_threaded, align 1, !tbaa !24
  %33 = icmp eq i8 %32, 0
  br i1 %33, label %37, label %34

34:                                               ; preds = %30
  %35 = load i32, ptr %31, align 4, !tbaa !84
  %36 = add nsw i32 %35, 1
  store i32 %36, ptr %31, align 4, !tbaa !84
  br label %40

37:                                               ; preds = %30
  %38 = atomicrmw volatile add ptr %31, i32 1 acq_rel, align 4
  %39 = load ptr, ptr %23, align 8, !tbaa !120
  br label %40

40:                                               ; preds = %37, %34, %28
  %41 = phi ptr [ %26, %28 ], [ %26, %34 ], [ %39, %37 ]
  %42 = icmp eq ptr %41, null
  br i1 %42, label %67, label %43

43:                                               ; preds = %40
  %44 = getelementptr inbounds nuw i8, ptr %41, i64 8
  %45 = load atomic i64, ptr %44 acquire, align 8
  %46 = icmp eq i64 %45, 4294967297
  %47 = trunc i64 %45 to i32
  br i1 %46, label %48, label %56

48:                                               ; preds = %43
  store i32 0, ptr %44, align 8, !tbaa !113
  %49 = getelementptr inbounds nuw i8, ptr %41, i64 12
  store i32 0, ptr %49, align 4, !tbaa !115
  %50 = load ptr, ptr %41, align 8, !tbaa !4
  %51 = getelementptr inbounds nuw i8, ptr %50, i64 16
  %52 = load ptr, ptr %51, align 8
  call void %52(ptr noundef nonnull align 8 dereferenceable(16) %41) #31
  %53 = load ptr, ptr %41, align 8, !tbaa !4
  %54 = getelementptr inbounds nuw i8, ptr %53, i64 24
  %55 = load ptr, ptr %54, align 8
  call void %55(ptr noundef nonnull align 8 dereferenceable(16) %41) #31
  br label %67

56:                                               ; preds = %43
  %57 = load i8, ptr @__libc_single_threaded, align 1, !tbaa !24
  %58 = icmp eq i8 %57, 0
  br i1 %58, label %61, label %59

59:                                               ; preds = %56
  %60 = add nsw i32 %47, -1
  store i32 %60, ptr %44, align 4, !tbaa !84
  br label %63

61:                                               ; preds = %56
  %62 = atomicrmw volatile add ptr %44, i32 -1 acq_rel, align 4
  br label %63

63:                                               ; preds = %61, %59
  %64 = phi i32 [ %47, %59 ], [ %62, %61 ]
  %65 = icmp eq i32 %64, 1
  br i1 %65, label %66, label %67, !prof !79

66:                                               ; preds = %63
  call void @_ZNSt16_Sp_counted_baseILN9__gnu_cxx12_Lock_policyE2EE24_M_release_last_use_coldEv(ptr noundef nonnull align 8 dereferenceable(16) %41) #31
  br label %67

67:                                               ; preds = %66, %63, %48, %40
  store ptr %25, ptr %23, align 8, !tbaa !120
  %68 = load ptr, ptr %19, align 8, !tbaa !143
  br label %69

69:                                               ; preds = %67, %18
  %70 = phi ptr [ %20, %18 ], [ %68, %67 ]
  %71 = getelementptr inbounds nuw i8, ptr %0, i64 104
  %72 = load ptr, ptr %71, align 8, !tbaa !146
  %73 = load ptr, ptr %70, align 8, !tbaa !146
  %74 = icmp eq ptr %72, %70
  %75 = icmp eq ptr %72, %73
  %76 = select i1 %74, i1 true, i1 %75
  br i1 %76, label %116, label %77

77:                                               ; preds = %69
  call void @_ZNSt8__detail15_List_node_base11_M_transferEPS0_S1_(ptr noundef nonnull align 8 dereferenceable(16) %72, ptr noundef nonnull %70, ptr noundef %73) #31
  br label %116

78:                                               ; preds = %107
  %79 = landingpad { ptr, i32 }
          cleanup
  br label %120

80:                                               ; preds = %82, %9
  %81 = landingpad { ptr, i32 }
          cleanup
  br label %120

82:                                               ; preds = %15, %14
  %83 = getelementptr inbounds nuw i8, ptr %0, i64 104
  %84 = load ptr, ptr %83, align 8, !tbaa !146
  %85 = invoke noundef ptr @_ZNSt7__cxx114listIN5osgeo4proj5lru1112KeyValuePairINS2_17NetworkChunkCache3KeyESt10shared_ptrISt6vectorIhSaIhEEEEESaISC_EE14_M_create_nodeIJRKS6_RKSB_EEEPSt10_List_nodeISC_EDpOT_(ptr noundef nonnull align 8 dereferenceable(24) %83, ptr noundef nonnull align 8 dereferenceable(40) %1, ptr noundef nonnull align 8 dereferenceable(16) %2)
          to label %86 unwind label %80

86:                                               ; preds = %82
  call void @_ZNSt8__detail15_List_node_base7_M_hookEPS0_(ptr noundef nonnull align 8 dereferenceable(16) %85, ptr noundef %84) #31
  %87 = getelementptr inbounds nuw i8, ptr %0, i64 120
  %88 = load i64, ptr %87, align 8, !tbaa !148
  %89 = add i64 %88, 1
  store i64 %89, ptr %87, align 8, !tbaa !148
  %90 = load ptr, ptr %83, align 8, !tbaa !146
  %91 = invoke noundef nonnull align 8 dereferenceable(8) ptr @_ZNSt8__detail9_Map_baseIN5osgeo4proj17NetworkChunkCache3KeyESt4pairIKS4_St14_List_iteratorINS2_5lru1112KeyValuePairIS4_St10shared_ptrISt6vectorIhSaIhEEEEEEESaISH_ENS_10_Select1stESt8equal_toIS4_ENS3_9KeyHasherENS_18_Mod_range_hashingENS_20_Default_ranged_hashENS_20_Prime_rehash_policyENS_17_Hashtable_traitsILb1ELb0ELb1EEELb1EEixERS6_(ptr noundef nonnull align 8 dereferenceable(56) %10, ptr noundef nonnull align 8 dereferenceable(40) %1)
          to label %92 unwind label %118

92:                                               ; preds = %86
  store ptr %90, ptr %91, align 8, !tbaa !150
  %93 = getelementptr inbounds nuw i8, ptr %0, i64 128
  %94 = load i64, ptr %93, align 8, !tbaa !151
  %95 = icmp eq i64 %94, 0
  br i1 %95, label %116, label %96

96:                                               ; preds = %92
  %97 = getelementptr inbounds nuw i8, ptr %0, i64 136
  %98 = load i64, ptr %97, align 8, !tbaa !160
  %99 = add i64 %98, %94
  %100 = getelementptr inbounds nuw i8, ptr %0, i64 72
  %101 = load i64, ptr %100, align 8, !tbaa !161
  %102 = icmp ugt i64 %101, %99
  %103 = icmp ugt i64 %101, %94
  %104 = and i1 %102, %103
  br i1 %104, label %105, label %116

105:                                              ; preds = %96
  %106 = getelementptr inbounds nuw i8, ptr %0, i64 112
  br label %107

107:                                              ; preds = %111, %105
  %108 = load ptr, ptr %106, align 8, !tbaa !162
  %109 = getelementptr inbounds nuw i8, ptr %108, i64 16
  %110 = invoke noundef i64 @_ZNSt10_HashtableIN5osgeo4proj17NetworkChunkCache3KeyESt4pairIKS3_St14_List_iteratorINS1_5lru1112KeyValuePairIS3_St10shared_ptrISt6vectorIhSaIhEEEEEEESaISG_ENSt8__detail10_Select1stESt8equal_toIS3_ENS2_9KeyHasherENSI_18_Mod_range_hashingENSI_20_Default_ranged_hashENSI_20_Prime_rehash_policyENSI_17_Hashtable_traitsILb1ELb0ELb1EEEE5eraseERS5_(ptr noundef nonnull align 8 dereferenceable(56) %10, ptr noundef nonnull align 8 dereferenceable(40) %109)
          to label %111 unwind label %78

111:                                              ; preds = %107
  %112 = load ptr, ptr %106, align 8, !tbaa !162
  call void @_ZNSt7__cxx114listIN5osgeo4proj5lru1112KeyValuePairINS2_17NetworkChunkCache3KeyESt10shared_ptrISt6vectorIhSaIhEEEEESaISC_EE8_M_eraseESt14_List_iteratorISC_E(ptr noundef nonnull align 8 dereferenceable(24) %83, ptr %112) #31
  %113 = load i64, ptr %100, align 8, !tbaa !161
  %114 = load i64, ptr %93, align 8, !tbaa !151
  %115 = icmp ugt i64 %113, %114
  br i1 %115, label %107, label %116, !llvm.loop !163

116:                                              ; preds = %111, %96, %92, %77, %69
  %117 = call i32 @pthread_mutex_unlock(ptr noundef nonnull align 8 dereferenceable(40) %5) #31
  ret void

118:                                              ; preds = %86
  %119 = landingpad { ptr, i32 }
          cleanup
  br label %120

120:                                              ; preds = %118, %80, %78
  %121 = phi { ptr, i32 } [ %119, %118 ], [ %79, %78 ], [ %81, %80 ]
  %122 = call i32 @pthread_mutex_unlock(ptr noundef nonnull align 8 dereferenceable(40) %5) #31
  resume { ptr, i32 } %121
}

; Function Attrs: mustprogress sspstrong uwtable
define linkonce_odr hidden void @_ZN5osgeo4proj17NetworkChunkCache3KeyC2ERKNSt7__cxx1112basic_stringIcSt11char_traitsIcESaIcEEEy(ptr noundef nonnull align 8 dereferenceable(40) %0, ptr noundef nonnull align 8 dereferenceable(32) %1, i64 noundef %2) unnamed_addr #3 comdat align 2 personality ptr @__gxx_personality_v0 {
  %4 = alloca i64, align 8
  %5 = getelementptr inbounds nuw i8, ptr %0, i64 16
  store ptr %5, ptr %0, align 8, !tbaa !70
  %6 = load ptr, ptr %1, align 8, !tbaa !19
  %7 = getelementptr inbounds nuw i8, ptr %1, i64 8
  %8 = load i64, ptr %7, align 8, !tbaa !23
  %9 = icmp ult i64 %8, 9223372036854775807
  tail call void @llvm.assume(i1 %9)
  call void @llvm.lifetime.start.p0(ptr %4)
  store i64 %8, ptr %4, align 8, !tbaa !71
  %10 = icmp samesign ugt i64 %8, 15
  br i1 %10, label %11, label %14

11:                                               ; preds = %3
  %12 = call noundef ptr @_ZNSt7__cxx1112basic_stringIcSt11char_traitsIcESaIcEE9_M_createERmm(ptr noundef nonnull align 8 dereferenceable(32) %0, ptr noundef nonnull align 8 dereferenceable(8) %4, i64 noundef 0)
  store ptr %12, ptr %0, align 8, !tbaa !19
  %13 = load i64, ptr %4, align 8, !tbaa !71
  store i64 %13, ptr %5, align 8, !tbaa !24
  br label %14

14:                                               ; preds = %11, %3
  %15 = phi i64 [ %13, %11 ], [ %8, %3 ]
  %16 = phi ptr [ %12, %11 ], [ %5, %3 ]
  switch i64 %15, label %19 [
    i64 0, label %17
    i64 -1, label %21
  ]

17:                                               ; preds = %14
  %18 = load i8, ptr %6, align 1, !tbaa !24
  store i8 %18, ptr %16, align 1, !tbaa !24
  br label %21

19:                                               ; preds = %14
  %20 = add nuw i64 %15, 1
  call void @llvm.memcpy.p0.p0.i64(ptr noundef nonnull align 1 dereferenceable(1) %16, ptr noundef nonnull align 1 dereferenceable(1) %6, i64 %20, i1 false)
  br label %21

21:                                               ; preds = %19, %17, %14
  %22 = load i64, ptr %4, align 8, !tbaa !71
  %23 = getelementptr inbounds nuw i8, ptr %0, i64 8
  store i64 %22, ptr %23, align 8, !tbaa !23
