; ModuleID = 'temp/PROJ/projinfo.cpp.ll'
source_filename = "/home/mitch/Documents/PROJ/src/apps/projinfo.cpp"
target datalayout = "e-m:e-p270:32:32-p271:32:32-p272:64:64-i64:64-i128:128-f80:128-n8:16:32:64-S128"
target triple = "x86_64-pc-linux-gnu"

module asm ".globl _ZSt21ios_base_library_initv"

%"class.std::basic_ostream" = type { ptr, %"class.std::basic_ios" }
%"class.std::basic_ios" = type { %"class.std::ios_base", ptr, i8, i8, ptr, ptr, ptr, ptr }
%"class.std::ios_base" = type { ptr, i64, i64, i32, i32, i32, ptr, %"struct.std::ios_base::_Words", [8 x %"struct.std::ios_base::_Words"], i32, ptr, %"class.std::locale" }
%"struct.std::ios_base::_Words" = type { ptr, i64 }
%"class.std::locale" = type { ptr }
%"struct.osgeo::proj::util::BaseObjectNNPtr" = type { %"class.dropbox::oxygen::nn.51" }
%"class.dropbox::oxygen::nn.51" = type { %"class.std::shared_ptr.52" }
%"class.std::shared_ptr.52" = type { %"class.std::__shared_ptr.53" }
%"class.std::__shared_ptr.53" = type { ptr, %"class.std::__shared_count" }
%"class.std::__shared_count" = type { ptr }
%"class.std::shared_ptr" = type { %"class.std::__shared_ptr" }
%"class.std::__shared_ptr" = type { ptr, %"class.std::__shared_count" }
%"class.std::__cxx11::basic_string" = type { %"struct.std::__cxx11::basic_string<char>::_Alloc_hider", i64, %union.anon }
%"struct.std::__cxx11::basic_string<char>::_Alloc_hider" = type { ptr }
%union.anon = type { i64, [8 x i8] }
%"class.std::shared_ptr.95" = type { %"class.std::__shared_ptr.96" }
%"class.std::__shared_ptr.96" = type { ptr, %"class.std::__shared_count" }
%"class.std::shared_ptr.221" = type { %"class.std::__shared_ptr.222" }
%"class.std::__shared_ptr.222" = type { ptr, %"class.std::__shared_count" }
%"class.dropbox::oxygen::nn.94" = type { %"class.std::shared_ptr.95" }
%"class.std::vector.338" = type { %"struct.std::_Vector_base.339" }
%"struct.std::_Vector_base.339" = type { %"struct.std::_Vector_base<dropbox::oxygen::nn<std::shared_ptr<osgeo::proj::operation::CoordinateOperation>>, std::allocator<dropbox::oxygen::nn<std::shared_ptr<osgeo::proj::operation::CoordinateOperation>>>>::_Vector_impl" }
%"struct.std::_Vector_base<dropbox::oxygen::nn<std::shared_ptr<osgeo::proj::operation::CoordinateOperation>>, std::allocator<dropbox::oxygen::nn<std::shared_ptr<osgeo::proj::operation::CoordinateOperation>>>>::_Vector_impl" = type { %"struct.std::_Vector_base<dropbox::oxygen::nn<std::shared_ptr<osgeo::proj::operation::CoordinateOperation>>, std::allocator<dropbox::oxygen::nn<std::shared_ptr<osgeo::proj::operation::CoordinateOperation>>>>::_Vector_impl_data" }
%"struct.std::_Vector_base<dropbox::oxygen::nn<std::shared_ptr<osgeo::proj::operation::CoordinateOperation>>, std::allocator<dropbox::oxygen::nn<std::shared_ptr<osgeo::proj::operation::CoordinateOperation>>>>::_Vector_impl_data" = type { ptr, ptr, ptr }
%"class.std::shared_ptr.20" = type { %"class.std::__shared_ptr.21" }
%"class.std::__shared_ptr.21" = type { ptr, %"class.std::__shared_count" }
%"class.dropbox::oxygen::nn.19" = type { %"class.std::shared_ptr.20" }
%"class.dropbox::oxygen::nn" = type { %"class.std::shared_ptr" }
%"class.dropbox::oxygen::nn.343" = type { %"class.std::unique_ptr.344" }
%"class.std::unique_ptr.344" = type { %"struct.std::__uniq_ptr_data.345" }
%"struct.std::__uniq_ptr_data.345" = type { %"class.std::__uniq_ptr_impl.346" }
%"class.std::__uniq_ptr_impl.346" = type { %"class.std::tuple.347" }
%"class.std::tuple.347" = type { %"struct.std::_Tuple_impl.348" }
%"struct.std::_Tuple_impl.348" = type { %"struct.std::_Head_base.351" }
%"struct.std::_Head_base.351" = type { ptr }
%class.anon.352 = type { ptr, ptr, ptr, ptr, ptr }
%"class.std::vector" = type { %"struct.std::_Vector_base" }
%"struct.std::_Vector_base" = type { %"struct.std::_Vector_base<std::__cxx11::basic_string<char>, std::allocator<std::__cxx11::basic_string<char>>>::_Vector_impl" }
%"struct.std::_Vector_base<std::__cxx11::basic_string<char>, std::allocator<std::__cxx11::basic_string<char>>>::_Vector_impl" = type { %"struct.std::_Vector_base<std::__cxx11::basic_string<char>, std::allocator<std::__cxx11::basic_string<char>>>::_Vector_impl_data" }
%"struct.std::_Vector_base<std::__cxx11::basic_string<char>, std::allocator<std::__cxx11::basic_string<char>>>::_Vector_impl_data" = type { ptr, ptr, ptr }
%"struct.(anonymous namespace)::OutputOptions" = type { i8, i8, i8, i8, i8, i8, i8, i8, i8, i8, i8, i8, i8, i8, i8, %"class.std::__cxx11::basic_string", %"class.std::__cxx11::basic_string", %"class.std::vector" }
%"class.std::vector.3" = type { %"struct.std::_Vector_base.4" }
%"struct.std::_Vector_base.4" = type { %"struct.std::_Vector_base<std::pair<std::__cxx11::basic_string<char>, std::__cxx11::basic_string<char>>, std::allocator<std::pair<std::__cxx11::basic_string<char>, std::__cxx11::basic_string<char>>>>::_Vector_impl" }
%"struct.std::_Vector_base<std::pair<std::__cxx11::basic_string<char>, std::__cxx11::basic_string<char>>, std::allocator<std::pair<std::__cxx11::basic_string<char>, std::__cxx11::basic_string<char>>>>::_Vector_impl" = type { %"struct.std::_Vector_base<std::pair<std::__cxx11::basic_string<char>, std::__cxx11::basic_string<char>>, std::allocator<std::pair<std::__cxx11::basic_string<char>, std::__cxx11::basic_string<char>>>>::_Vector_impl_data" }
%"struct.std::_Vector_base<std::pair<std::__cxx11::basic_string<char>, std::__cxx11::basic_string<char>>, std::allocator<std::pair<std::__cxx11::basic_string<char>, std::__cxx11::basic_string<char>>>>::_Vector_impl_data" = type { ptr, ptr, ptr }
%"class.std::allocator.0" = type { i8 }
%"struct.std::pair" = type { %"class.std::__cxx11::basic_string", %"class.std::__cxx11::basic_string" }
%struct.PJ_INFO = type { i32, i32, i32, ptr, ptr, ptr, ptr, i64 }
%"class.std::set" = type { %"class.std::_Rb_tree" }
%"class.std::_Rb_tree" = type { %"struct.std::_Rb_tree<osgeo::proj::io::AuthorityFactory::ObjectType, osgeo::proj::io::AuthorityFactory::ObjectType, std::_Identity<osgeo::proj::io::AuthorityFactory::ObjectType>, std::less<osgeo::proj::io::AuthorityFactory::ObjectType>>::_Rb_tree_impl" }
%"struct.std::_Rb_tree<osgeo::proj::io::AuthorityFactory::ObjectType, osgeo::proj::io::AuthorityFactory::ObjectType, std::_Identity<osgeo::proj::io::AuthorityFactory::ObjectType>, std::less<osgeo::proj::io::AuthorityFactory::ObjectType>>::_Rb_tree_impl" = type { [8 x i8], %"struct.std::_Rb_tree_header" }
%"struct.std::_Rb_tree_header" = type { %"struct.std::_Rb_tree_node_base", i64 }
%"struct.std::_Rb_tree_node_base" = type { i32, ptr, ptr, ptr }
%"class.std::shared_ptr.16" = type { %"class.std::__shared_ptr.17" }
%"class.std::__shared_ptr.17" = type { ptr, %"class.std::__shared_count" }
%"class.std::__cxx11::list" = type { %"class.std::__cxx11::_List_base" }
%"class.std::__cxx11::_List_base" = type { %"struct.std::__cxx11::_List_base<osgeo::proj::io::AuthorityFactory::CRSInfo, std::allocator<osgeo::proj::io::AuthorityFactory::CRSInfo>>::_List_impl" }
%"struct.std::__cxx11::_List_base<osgeo::proj::io::AuthorityFactory::CRSInfo, std::allocator<osgeo::proj::io::AuthorityFactory::CRSInfo>>::_List_impl" = type { %"struct.std::__detail::_List_node_header" }
%"struct.std::__detail::_List_node_header" = type { %"struct.std::__detail::_List_node_base", %"struct.std::__detail::_List_size" }
%"struct.std::__detail::_List_node_base" = type { ptr, ptr }
%"struct.std::__detail::_List_size" = type { i64 }
%"class.dropbox::oxygen::nn.34" = type { %"class.std::shared_ptr.16" }
%"class.osgeo::proj::util::optional" = type { i8, %"class.std::__cxx11::basic_string" }
%"class.osgeo::proj::io::WKTParser" = type { %"class.std::unique_ptr.55" }
%"class.std::unique_ptr.55" = type { %"struct.std::__uniq_ptr_data.56" }
%"struct.std::__uniq_ptr_data.56" = type { %"class.std::__uniq_ptr_impl.57" }
%"class.std::__uniq_ptr_impl.57" = type { %"class.std::tuple.58" }
%"class.std::tuple.58" = type { %"struct.std::_Tuple_impl.59" }
%"struct.std::_Tuple_impl.59" = type { %"struct.std::_Head_base.62" }
%"struct.std::_Head_base.62" = type { ptr }
%"class.std::__cxx11::list.63" = type { %"class.std::__cxx11::_List_base.64" }
%"class.std::__cxx11::_List_base.64" = type { %"struct.std::__cxx11::_List_base<std::pair<dropbox::oxygen::nn<std::shared_ptr<osgeo::proj::crs::CRS>>, int>, std::allocator<std::pair<dropbox::oxygen::nn<std::shared_ptr<osgeo::proj::crs::CRS>>, int>>>::_List_impl" }
%"struct.std::__cxx11::_List_base<std::pair<dropbox::oxygen::nn<std::shared_ptr<osgeo::proj::crs::CRS>>, int>, std::allocator<std::pair<dropbox::oxygen::nn<std::shared_ptr<osgeo::proj::crs::CRS>>, int>>>::_List_impl" = type { %"struct.std::__detail::_List_node_header" }
%"class.dropbox::oxygen::nn.361" = type { %"class.std::shared_ptr.362" }
%"class.std::shared_ptr.362" = type { %"class.std::__shared_ptr.363" }
%"class.std::__shared_ptr.363" = type { ptr, %"class.std::__shared_count" }
%"class.std::set.137" = type { %"class.std::_Rb_tree.138" }
%"class.std::_Rb_tree.138" = type { %"struct.std::_Rb_tree<std::__cxx11::basic_string<char>, std::__cxx11::basic_string<char>, std::_Identity<std::__cxx11::basic_string<char>>, std::less<std::__cxx11::basic_string<char>>>::_Rb_tree_impl" }
%"struct.std::_Rb_tree<std::__cxx11::basic_string<char>, std::__cxx11::basic_string<char>, std::_Identity<std::__cxx11::basic_string<char>>, std::less<std::__cxx11::basic_string<char>>>::_Rb_tree_impl" = type { [8 x i8], %"struct.std::_Rb_tree_header" }
%"class.std::__cxx11::list.144" = type { %"class.std::__cxx11::_List_base.145" }
%"class.std::__cxx11::_List_base.145" = type { %"struct.std::__cxx11::_List_base<dropbox::oxygen::nn<std::shared_ptr<osgeo::proj::common::IdentifiedObject>>, std::allocator<dropbox::oxygen::nn<std::shared_ptr<osgeo::proj::common::IdentifiedObject>>>>::_List_impl" }
%"struct.std::__cxx11::_List_base<dropbox::oxygen::nn<std::shared_ptr<osgeo::proj::common::IdentifiedObject>>, std::allocator<dropbox::oxygen::nn<std::shared_ptr<osgeo::proj::common::IdentifiedObject>>>>::_List_impl" = type { %"struct.std::__detail::_List_node_header" }
%"class.std::vector.149" = type { %"struct.std::_Vector_base.150" }
%"struct.std::_Vector_base.150" = type { %"struct.std::_Vector_base<osgeo::proj::io::AuthorityFactory::ObjectType, std::allocator<osgeo::proj::io::AuthorityFactory::ObjectType>>::_Vector_impl" }
%"struct.std::_Vector_base<osgeo::proj::io::AuthorityFactory::ObjectType, std::allocator<osgeo::proj::io::AuthorityFactory::ObjectType>>::_Vector_impl" = type { %"struct.std::_Vector_base<osgeo::proj::io::AuthorityFactory::ObjectType, std::allocator<osgeo::proj::io::AuthorityFactory::ObjectType>>::_Vector_impl_data" }
%"struct.std::_Vector_base<osgeo::proj::io::AuthorityFactory::ObjectType, std::allocator<osgeo::proj::io::AuthorityFactory::ObjectType>>::_Vector_impl_data" = type { ptr, ptr, ptr }
%"class.std::allocator.151" = type { i8 }
%"class.std::__cxx11::list.201" = type { %"class.std::__cxx11::_List_base.202" }
%"class.std::__cxx11::_List_base.202" = type { %"struct.std::__cxx11::_List_base<std::pair<std::__cxx11::basic_string<char>, std::__cxx11::basic_string<char>>, std::allocator<std::pair<std::__cxx11::basic_string<char>, std::__cxx11::basic_string<char>>>>::_List_impl" }
%"struct.std::__cxx11::_List_base<std::pair<std::__cxx11::basic_string<char>, std::__cxx11::basic_string<char>>, std::allocator<std::pair<std::__cxx11::basic_string<char>, std::__cxx11::basic_string<char>>>>::_List_impl" = type { %"struct.std::__detail::_List_node_header" }
%"struct.std::_UninitDestroyGuard.462" = type { ptr, ptr }
%"class.std::basic_ifstream" = type { %"class.std::basic_istream.base", %"class.std::basic_filebuf", %"class.std::basic_ios" }
%"class.std::basic_istream.base" = type { ptr, i64 }
%"class.std::basic_filebuf" = type { %"class.std::basic_streambuf", %union.pthread_mutex_t, %"class.std::__basic_file", i32, %struct.__mbstate_t, %struct.__mbstate_t, %struct.__mbstate_t, ptr, i64, i8, i8, i8, i8, ptr, ptr, i8, ptr, ptr, i64, ptr, ptr }
%"class.std::basic_streambuf" = type { ptr, ptr, ptr, ptr, ptr, ptr, ptr, %"class.std::locale" }
%union.pthread_mutex_t = type { %struct.__pthread_mutex_s }
%struct.__pthread_mutex_s = type { i32, i32, i32, i32, i32, i16, i16, %struct.__pthread_internal_list }
%struct.__pthread_internal_list = type { ptr, ptr }
%"class.std::__basic_file" = type <{ ptr, i8, [7 x i8] }>
%struct.__mbstate_t = type { i32, %union.anon.213 }
%union.anon.213 = type { i32 }
%"class.std::__cxx11::list.214" = type { %"class.std::__cxx11::_List_base.215" }
%"class.std::__cxx11::_List_base.215" = type { %"struct.std::__cxx11::_List_base<std::__cxx11::basic_string<char>, std::allocator<std::__cxx11::basic_string<char>>>::_List_impl" }
%"struct.std::__cxx11::_List_base<std::__cxx11::basic_string<char>, std::allocator<std::__cxx11::basic_string<char>>>::_List_impl" = type { %"struct.std::__detail::_List_node_header" }
%"class.dropbox::oxygen::nn.224" = type { %"class.std::shared_ptr.221" }
%"class.std::shared_ptr.156" = type { %"class.std::__shared_ptr.157" }
%"class.std::__shared_ptr.157" = type { ptr, %"class.std::__shared_count" }
%"class.std::__cxx11::list.235" = type { %"class.std::__cxx11::_List_base.236" }
%"class.std::__cxx11::_List_base.236" = type { %"struct.std::__cxx11::_List_base<dropbox::oxygen::nn<std::shared_ptr<osgeo::proj::crs::CRS>>, std::allocator<dropbox::oxygen::nn<std::shared_ptr<osgeo::proj::crs::CRS>>>>::_List_impl" }
%"struct.std::__cxx11::_List_base<dropbox::oxygen::nn<std::shared_ptr<osgeo::proj::crs::CRS>>, std::allocator<dropbox::oxygen::nn<std::shared_ptr<osgeo::proj::crs::CRS>>>>::_List_impl" = type { %"struct.std::__detail::_List_node_header" }
%"class.std::shared_ptr.241" = type { %"class.std::__shared_ptr.242" }
%"class.std::__shared_ptr.242" = type { ptr, %"class.std::__shared_count" }
%"class.dropbox::oxygen::nn.244" = type { %"class.std::unique_ptr.245" }
%"class.std::unique_ptr.245" = type { %"struct.std::__uniq_ptr_data.246" }
%"struct.std::__uniq_ptr_data.246" = type { %"class.std::__uniq_ptr_impl.247" }
%"class.std::__uniq_ptr_impl.247" = type { %"class.std::tuple.248" }
%"class.std::tuple.248" = type { %"struct.std::_Tuple_impl.249" }
%"struct.std::_Tuple_impl.249" = type { %"struct.std::_Head_base.252" }
%"struct.std::_Head_base.252" = type { ptr }
%"class.std::shared_ptr.261" = type { %"class.std::__shared_ptr.262" }
%"class.std::__shared_ptr.262" = type { ptr, %"class.std::__shared_count" }
%"class.dropbox::oxygen::nn.264" = type { %"class.std::unique_ptr.265" }
%"class.std::unique_ptr.265" = type { %"struct.std::__uniq_ptr_data.266" }
%"struct.std::__uniq_ptr_data.266" = type { %"class.std::__uniq_ptr_impl.267" }
%"class.std::__uniq_ptr_impl.267" = type { %"class.std::tuple.268" }
%"class.std::tuple.268" = type { %"struct.std::_Tuple_impl.269" }
%"struct.std::_Tuple_impl.269" = type { %"struct.std::_Head_base.272" }
%"struct.std::_Head_base.272" = type { ptr }
%"class.std::shared_ptr.284" = type { %"class.std::__shared_ptr.285" }
%"class.std::__shared_ptr.285" = type { ptr, %"class.std::__shared_count" }
%"class.dropbox::oxygen::nn.287" = type { %"class.std::unique_ptr.288" }
%"class.std::unique_ptr.288" = type { %"struct.std::__uniq_ptr_data.289" }
%"struct.std::__uniq_ptr_data.289" = type { %"class.std::__uniq_ptr_impl.290" }
%"class.std::__uniq_ptr_impl.290" = type { %"class.std::tuple.291" }
%"class.std::tuple.291" = type { %"struct.std::_Tuple_impl.292" }
%"struct.std::_Tuple_impl.292" = type { %"struct.std::_Head_base.295" }
%"struct.std::_Head_base.295" = type { ptr }
%"class.dropbox::oxygen::nn.155" = type { %"class.std::shared_ptr.156" }
%"class.std::set.304" = type { %"class.std::_Rb_tree.305" }
%"class.std::_Rb_tree.305" = type { %"struct.std::_Rb_tree<osgeo::proj::operation::GridDescription, osgeo::proj::operation::GridDescription, std::_Identity<osgeo::proj::operation::GridDescription>, std::less<osgeo::proj::operation::GridDescription>>::_Rb_tree_impl" }
%"struct.std::_Rb_tree<osgeo::proj::operation::GridDescription, osgeo::proj::operation::GridDescription, std::_Identity<osgeo::proj::operation::GridDescription>, std::less<osgeo::proj::operation::GridDescription>>::_Rb_tree_impl" = type { [8 x i8], %"struct.std::_Rb_tree_header" }
%"class.dropbox::oxygen::nn.419" = type { %"class.std::unique_ptr.420" }
%"class.std::unique_ptr.420" = type { %"struct.std::__uniq_ptr_data.421" }
%"struct.std::__uniq_ptr_data.421" = type { %"class.std::__uniq_ptr_impl.422" }
%"class.std::__uniq_ptr_impl.422" = type { %"class.std::tuple.423" }
%"class.std::tuple.423" = type { %"struct.std::_Tuple_impl.424" }
%"struct.std::_Tuple_impl.424" = type { %"struct.std::_Head_base.427" }
%"struct.std::_Head_base.427" = type { ptr }
%"class.std::vector.99" = type { %"struct.std::_Vector_base.100" }
%"struct.std::_Vector_base.100" = type { %"struct.std::_Vector_base<dropbox::oxygen::nn<std::shared_ptr<osgeo::proj::metadata::Identifier>>, std::allocator<dropbox::oxygen::nn<std::shared_ptr<osgeo::proj::metadata::Identifier>>>>::_Vector_impl" }
%"struct.std::_Vector_base<dropbox::oxygen::nn<std::shared_ptr<osgeo::proj::metadata::Identifier>>, std::allocator<dropbox::oxygen::nn<std::shared_ptr<osgeo::proj::metadata::Identifier>>>>::_Vector_impl" = type { %"struct.std::_Vector_base<dropbox::oxygen::nn<std::shared_ptr<osgeo::proj::metadata::Identifier>>, std::allocator<dropbox::oxygen::nn<std::shared_ptr<osgeo::proj::metadata::Identifier>>>>::_Vector_impl_data" }
%"struct.std::_Vector_base<dropbox::oxygen::nn<std::shared_ptr<osgeo::proj::metadata::Identifier>>, std::allocator<dropbox::oxygen::nn<std::shared_ptr<osgeo::proj::metadata::Identifier>>>>::_Vector_impl_data" = type { ptr, ptr, ptr }

$_ZNSt6vectorINSt7__cxx1112basic_stringIcSt11char_traitsIcESaIcEEESaIS5_EED2Ev = comdat any

$_ZNSt7__cxx1112basic_stringIcSt11char_traitsIcESaIcEEC2IS3_EEPKcRKS3_ = comdat any

$_ZSteqIcSt11char_traitsIcESaIcEEbRKNSt7__cxx1112basic_stringIT_T0_T1_EEPKS5_ = comdat any

$__clang_call_terminate = comdat any

$_ZNSt6vectorISt4pairINSt7__cxx1112basic_stringIcSt11char_traitsIcESaIcEEES6_ESaIS7_EE12emplace_backIJS7_EEERS7_DpOT_ = comdat any

$_ZNSt4pairINSt7__cxx1112basic_stringIcSt11char_traitsIcESaIcEEES5_ED2Ev = comdat any

$_ZNSt6vectorINSt7__cxx1112basic_stringIcSt11char_traitsIcESaIcEEESaIS5_EE9push_backEOS5_ = comdat any

$_ZNSt6vectorINSt7__cxx1112basic_stringIcSt11char_traitsIcESaIcEEESaIS5_EEaSEOS7_ = comdat any

$_ZN7dropbox6oxygen2nnISt10shared_ptrIN5osgeo4proj2io15DatabaseContextEEED2Ev = comdat any

$_ZNSt6vectorINSt7__cxx1112basic_stringIcSt11char_traitsIcESaIcEEESaIS5_EE5clearEv = comdat any

$_ZNSt6vectorINSt7__cxx1112basic_stringIcSt11char_traitsIcESaIcEEESaIS5_EEC2ERKS7_ = comdat any

$_ZNSt6vectorINSt7__cxx1112basic_stringIcSt11char_traitsIcESaIcEEESaIS5_EE9push_backERKS5_ = comdat any

$_ZN7dropbox6oxygen2nnISt10shared_ptrIN5osgeo4proj8metadata6ExtentEEED2Ev = comdat any

$_ZNSt7__cxx1110_List_baseIN5osgeo4proj2io16AuthorityFactory7CRSInfoESaIS5_EED2Ev = comdat any

$_ZN7dropbox6oxygen2nnISt10shared_ptrIN5osgeo4proj2io16AuthorityFactoryEEED2Ev = comdat any

$_ZNSt12__shared_ptrIN5osgeo4proj8metadata6ExtentELN9__gnu_cxx12_Lock_policyE2EED2Ev = comdat any

$_ZNSt12__shared_ptrIN5osgeo4proj2io16AuthorityFactoryELN9__gnu_cxx12_Lock_policyE2EED2Ev = comdat any

$_ZNSt7__cxx1110_List_baseISt4pairIN7dropbox6oxygen2nnISt10shared_ptrIN5osgeo4proj3crs3CRSEEEEiESaISC_EED2Ev = comdat any

$_ZNSt3setINSt7__cxx1112basic_stringIcSt11char_traitsIcESaIcEEESt4lessIS5_ESaIS5_EED2Ev = comdat any

$_ZN5osgeo4proj8internal11starts_withERKNSt7__cxx1112basic_stringIcSt11char_traitsIcESaIcEEEPKc = comdat any

$_ZNSt6vectorIN5osgeo4proj2io16AuthorityFactory10ObjectTypeESaIS4_EEC2ESt16initializer_listIS4_ERKS5_ = comdat any

$_ZNSt7__cxx1110_List_baseIN7dropbox6oxygen2nnISt10shared_ptrIN5osgeo4proj6common16IdentifiedObjectEEEESaISA_EED2Ev = comdat any

$_ZNSt8_Rb_treeINSt7__cxx1112basic_stringIcSt11char_traitsIcESaIcEEES5_St9_IdentityIS5_ESt4lessIS5_ESaIS5_EE8_M_eraseEPSt13_Rb_tree_nodeIS5_E = comdat any

$_ZN7dropbox6oxygen2nnISt10shared_ptrIN5osgeo4proj6common16IdentifiedObjectEEED2Ev = comdat any

$_ZNSt12__shared_ptrIN5osgeo4proj6common16IdentifiedObjectELN9__gnu_cxx12_Lock_policyE2EED2Ev = comdat any

$_ZNSt16_Sp_counted_baseILN9__gnu_cxx12_Lock_policyE2EE24_M_release_last_use_coldEv = comdat any

$_ZNSt4pairINSt7__cxx1112basic_stringIcSt11char_traitsIcESaIcEEES5_EC2IRS5_S8_TnNSt9enable_ifIXaaclsr5_PCCPE22_MoveConstructiblePairIT_T0_EEclsr5_PCCPE30_ImplicitlyMoveConvertiblePairISA_SB_EEEbE4typeELb1EEEOSA_OSB_ = comdat any

$_ZNSt7__cxx1110_List_baseISt4pairINS_12basic_stringIcSt11char_traitsIcESaIcEEES6_ESaIS7_EED2Ev = comdat any

$_ZN5osgeo4proj2io16AuthorityFactory7CRSInfoD2Ev = comdat any

$_ZNSt8_Rb_treeIN5osgeo4proj2io16AuthorityFactory10ObjectTypeES4_St9_IdentityIS4_ESt4lessIS4_ESaIS4_EE8_M_eraseEPSt13_Rb_tree_nodeIS4_E = comdat any

$_ZNSt10shared_ptrIN5osgeo4proj4util10BaseObjectEEaSEOS4_ = comdat any

$_ZNSt7__cxx1110_List_baseINS_12basic_stringIcSt11char_traitsIcESaIcEEESaIS5_EED2Ev = comdat any

$_ZNSt6vectorIN5osgeo4proj2io16AuthorityFactory10ObjectTypeESaIS4_EE9push_backEOS4_ = comdat any

$_ZNSt10shared_ptrIN5osgeo4proj4util10BaseObjectEEaSINS1_6common16IdentifiedObjectEEENSt9enable_ifIXsr13is_assignableIRSt12__shared_ptrIS3_LN9__gnu_cxx12_Lock_policyE2EERKS_IT_EEE5valueERS4_E4typeESH_ = comdat any

$_ZNSt7__cxx114listIN7dropbox6oxygen2nnISt10shared_ptrIN5osgeo4proj6common16IdentifiedObjectEEEESaISA_EEaSEOSC_ = comdat any

$_ZNSt12__shared_ptrIN5osgeo4proj4util10BaseObjectELN9__gnu_cxx12_Lock_policyE2EED2Ev = comdat any

$_ZN7dropbox6oxygen2nnISt10shared_ptrIN5osgeo4proj3crs3CRSEEED2Ev = comdat any

$_ZN7dropbox6oxygen2nnISt10shared_ptrIN5osgeo4proj11coordinates18CoordinateMetadataEEED2Ev = comdat any

$_ZNSt7__cxx1110_List_baseIN7dropbox6oxygen2nnISt10shared_ptrIN5osgeo4proj3crs3CRSEEEESaISA_EED2Ev = comdat any

$_ZNSt12__shared_ptrIN5osgeo4proj2io21IPROJStringExportableELN9__gnu_cxx12_Lock_policyE2EED2Ev = comdat any

$_ZN7dropbox6oxygen2nnISt10unique_ptrIN5osgeo4proj2io19PROJStringFormatterESt14default_deleteIS6_EEED2Ev = comdat any

$_ZN7dropbox6oxygen2nnISt10unique_ptrIN5osgeo4proj2io12WKTFormatterESt14default_deleteIS6_EEED2Ev = comdat any

$_ZN7dropbox6oxygen2nnISt10unique_ptrIN5osgeo4proj2io13JSONFormatterESt14default_deleteIS6_EEED2Ev = comdat any

$_ZNSt3setIN5osgeo4proj9operation15GridDescriptionESt4lessIS3_ESaIS3_EED2Ev = comdat any

$_ZNSt12__shared_ptrIN5osgeo4proj2io15IJSONExportableELN9__gnu_cxx12_Lock_policyE2EED2Ev = comdat any

$_ZNSt12__shared_ptrIN5osgeo4proj2io14IWKTExportableELN9__gnu_cxx12_Lock_policyE2EED2Ev = comdat any

$_ZNSt6vectorINSt7__cxx1112basic_stringIcSt11char_traitsIcESaIcEEESaIS5_EE17_M_realloc_appendIJRA5_KcEEEvDpOT_ = comdat any

$_ZNSt8_Rb_treeIN5osgeo4proj9operation15GridDescriptionES3_St9_IdentityIS3_ESt4lessIS3_ESaIS3_EE8_M_eraseEPSt13_Rb_tree_nodeIS3_E = comdat any

$_ZNSt10shared_ptrIN5osgeo4proj3crs3CRSEEaSEOS4_ = comdat any

$_ZNSt6vectorIN7dropbox6oxygen2nnISt10shared_ptrIN5osgeo4proj9operation19CoordinateOperationEEEESaIS9_EED2Ev = comdat any

$_ZNSt12__shared_ptrIN5osgeo4proj11coordinates18CoordinateMetadataELN9__gnu_cxx12_Lock_policyE2EED2Ev = comdat any

$_ZNSt12__shared_ptrIN5osgeo4proj3crs3CRSELN9__gnu_cxx12_Lock_policyE2EED2Ev = comdat any

$_ZNSt6vectorIN7dropbox6oxygen2nnISt10shared_ptrIN5osgeo4proj8metadata10IdentifierEEEESaIS9_EED2Ev = comdat any

$_ZSt8_DestroyIPNSt7__cxx1112basic_stringIcSt11char_traitsIcESaIcEEEEvT_S7_ = comdat any

$_ZNSt19_UninitDestroyGuardIPNSt7__cxx1112basic_stringIcSt11char_traitsIcESaIcEEEvED2Ev = comdat any

$_ZNSt6vectorINSt7__cxx1112basic_stringIcSt11char_traitsIcESaIcEEESaIS5_EE17_M_realloc_appendIJRKS5_EEEvDpOT_ = comdat any

$_ZSt16__do_uninit_copyIPPcS1_PNSt7__cxx1112basic_stringIcSt11char_traitsIcESaIcEEEET1_T_T0_S9_ = comdat any

$_ZNSt6vectorISt4pairINSt7__cxx1112basic_stringIcSt11char_traitsIcESaIcEEES6_ESaIS7_EE17_M_realloc_appendIJS7_EEEvDpOT_ = comdat any

$_ZNSt12__shared_ptrIN5osgeo4proj2io15DatabaseContextELN9__gnu_cxx12_Lock_policyE2EED2Ev = comdat any

$_ZNSt6vectorINSt7__cxx1112basic_stringIcSt11char_traitsIcESaIcEEESaIS5_EE17_M_realloc_appendIJS5_EEEvDpOT_ = comdat any

@_ZSt4cerr = external global %"class.std::basic_ostream", align 8
@.str = private unnamed_addr constant [11 x i8] c"completion\00", align 1
@.str.1 = private unnamed_addr constant [3 x i8] c"-o\00", align 1
@.str.2 = private unnamed_addr constant [4 x i8] c"all\00", align 1
@.str.3 = private unnamed_addr constant [8 x i8] c"default\00", align 1
@.str.4 = private unnamed_addr constant [5 x i8] c"PROJ\00", align 1
@.str.5 = private unnamed_addr constant [6 x i8] c"-PROJ\00", align 1
@.str.6 = private unnamed_addr constant [8 x i8] c"WKT_ALL\00", align 1
@.str.7 = private unnamed_addr constant [8 x i8] c"WKT-ALL\00", align 1
@.str.8 = private unnamed_addr constant [9 x i8] c"-WKT_ALL\00", align 1
@.str.9 = private unnamed_addr constant [9 x i8] c"-WKT-ALL\00", align 1
@.str.10 = private unnamed_addr constant [10 x i8] c"WKT2_2019\00", align 1
@.str.11 = private unnamed_addr constant [10 x i8] c"WKT2-2019\00", align 1
@.str.12 = private unnamed_addr constant [10 x i8] c"WKT2:2019\00", align 1
@.str.13 = private unnamed_addr constant [10 x i8] c"WKT2_2018\00", align 1
@.str.14 = private unnamed_addr constant [10 x i8] c"WKT2-2018\00", align 1
@.str.15 = private unnamed_addr constant [10 x i8] c"WKT2:2018\00", align 1
@.str.16 = private unnamed_addr constant [21 x i8] c"WKT2_2019_SIMPLIFIED\00", align 1
@.str.17 = private unnamed_addr constant [21 x i8] c"WKT2-2019_SIMPLIFIED\00", align 1
@.str.18 = private unnamed_addr constant [21 x i8] c"WKT2:2019_SIMPLIFIED\00", align 1
@.str.19 = private unnamed_addr constant [21 x i8] c"WKT2_2018_SIMPLIFIED\00", align 1
@.str.20 = private unnamed_addr constant [21 x i8] c"WKT2-2018_SIMPLIFIED\00", align 1
@.str.21 = private unnamed_addr constant [21 x i8] c"WKT2:2018_SIMPLIFIED\00", align 1
@.str.22 = private unnamed_addr constant [11 x i8] c"-WKT2_2019\00", align 1
@.str.23 = private unnamed_addr constant [11 x i8] c"-WKT2-2019\00", align 1
@.str.24 = private unnamed_addr constant [11 x i8] c"-WKT2:2019\00", align 1
@.str.25 = private unnamed_addr constant [11 x i8] c"-WKT2_2018\00", align 1
@.str.26 = private unnamed_addr constant [11 x i8] c"-WKT2-2018\00", align 1
@.str.27 = private unnamed_addr constant [11 x i8] c"-WKT2:2018\00", align 1
@.str.28 = private unnamed_addr constant [10 x i8] c"WKT2_2015\00", align 1
@.str.29 = private unnamed_addr constant [10 x i8] c"WKT2-2015\00", align 1
@.str.30 = private unnamed_addr constant [10 x i8] c"WKT2:2015\00", align 1
@.str.31 = private unnamed_addr constant [21 x i8] c"WKT2_2015_SIMPLIFIED\00", align 1
@.str.32 = private unnamed_addr constant [21 x i8] c"WKT2-2015_SIMPLIFIED\00", align 1
@.str.33 = private unnamed_addr constant [21 x i8] c"WKT2:2015_SIMPLIFIED\00", align 1
@.str.34 = private unnamed_addr constant [11 x i8] c"-WKT2_2015\00", align 1
@.str.35 = private unnamed_addr constant [11 x i8] c"-WKT2-2015\00", align 1
@.str.36 = private unnamed_addr constant [11 x i8] c"-WKT2:2015\00", align 1
@.str.37 = private unnamed_addr constant [10 x i8] c"WKT1_GDAL\00", align 1
@.str.38 = private unnamed_addr constant [10 x i8] c"WKT1-GDAL\00", align 1
@.str.39 = private unnamed_addr constant [10 x i8] c"WKT1:GDAL\00", align 1
@.str.40 = private unnamed_addr constant [11 x i8] c"-WKT1_GDAL\00", align 1
@.str.41 = private unnamed_addr constant [11 x i8] c"-WKT1-GDAL\00", align 1
@.str.42 = private unnamed_addr constant [11 x i8] c"-WKT1:GDAL\00", align 1
@.str.43 = private unnamed_addr constant [10 x i8] c"WKT1_ESRI\00", align 1
@.str.44 = private unnamed_addr constant [10 x i8] c"WKT1-ESRI\00", align 1
@.str.45 = private unnamed_addr constant [10 x i8] c"WKT1:ESRI\00", align 1
@.str.46 = private unnamed_addr constant [11 x i8] c"-WKT1_ESRI\00", align 1
@.str.47 = private unnamed_addr constant [11 x i8] c"-WKT1-ESRI\00", align 1
@.str.48 = private unnamed_addr constant [11 x i8] c"-WKT1:ESRI\00", align 1
@.str.49 = private unnamed_addr constant [9 x i8] c"PROJJSON\00", align 1
@.str.50 = private unnamed_addr constant [10 x i8] c"-PROJJSON\00", align 1
@.str.51 = private unnamed_addr constant [4 x i8] c"SQL\00", align 1
@.str.52 = private unnamed_addr constant [5 x i8] c"-SQL\00", align 1
@.str.53 = private unnamed_addr constant [35 x i8] c"Unrecognized value for option -o: \00", align 1
@.str.54 = private unnamed_addr constant [7 x i8] c"--bbox\00", align 1
@.str.55 = private unnamed_addr constant [11 x i8] c"--accuracy\00", align 1
@_ZTISt9exception = external constant ptr
@.str.56 = private unnamed_addr constant [38 x i8] c"Invalid value for option --accuracy: \00", align 1
@.str.57 = private unnamed_addr constant [7 x i8] c"--area\00", align 1
@.str.58 = private unnamed_addr constant [3 x i8] c"-k\00", align 1
@.str.59 = private unnamed_addr constant [4 x i8] c"crs\00", align 1
@.str.60 = private unnamed_addr constant [4 x i8] c"srs\00", align 1
@.str.61 = private unnamed_addr constant [10 x i8] c"operation\00", align 1
@.str.62 = private unnamed_addr constant [10 x i8] c"ellipsoid\00", align 1
@.str.63 = private unnamed_addr constant [6 x i8] c"datum\00", align 1
@.str.64 = private unnamed_addr constant [9 x i8] c"ensemble\00", align 1
@.str.65 = private unnamed_addr constant [35 x i8] c"Unrecognized value for option -k: \00", align 1
@.str.66 = private unnamed_addr constant [3 x i8] c"-s\00", align 1
@.str.67 = private unnamed_addr constant [13 x i8] c"--source-crs\00", align 1
@.str.68 = private unnamed_addr constant [10 x i8] c"--s_epoch\00", align 1
@.str.69 = private unnamed_addr constant [3 x i8] c"-t\00", align 1
@.str.70 = private unnamed_addr constant [13 x i8] c"--target-crs\00", align 1
@.str.71 = private unnamed_addr constant [10 x i8] c"--t_epoch\00", align 1
@.str.72 = private unnamed_addr constant [3 x i8] c"-q\00", align 1
@.str.73 = private unnamed_addr constant [8 x i8] c"--quiet\00", align 1
@.str.74 = private unnamed_addr constant [8 x i8] c"--c-ify\00", align 1
@.str.75 = private unnamed_addr constant [14 x i8] c"--single-line\00", align 1
@.str.76 = private unnamed_addr constant [10 x i8] c"--summary\00", align 1
@.str.77 = private unnamed_addr constant [20 x i8] c"--boundcrs-to-wgs84\00", align 1
@.str.78 = private unnamed_addr constant [28 x i8] c"--no-proj-grid-alternatives\00", align 1
@.str.79 = private unnamed_addr constant [15 x i8] c"--spatial-test\00", align 1
@.str.80 = private unnamed_addr constant [9 x i8] c"contains\00", align 1
@.str.81 = private unnamed_addr constant [11 x i8] c"intersects\00", align 1
@.str.82 = private unnamed_addr constant [47 x i8] c"Unrecognized value for option --spatial-test: \00", align 1
@.str.83 = private unnamed_addr constant [17 x i8] c"--crs-extent-use\00", align 1
@.str.84 = private unnamed_addr constant [5 x i8] c"NONE\00", align 1
@.str.85 = private unnamed_addr constant [5 x i8] c"BOTH\00", align 1
@.str.86 = private unnamed_addr constant [13 x i8] c"INTERSECTION\00", align 1
@.str.87 = private unnamed_addr constant [9 x i8] c"SMALLEST\00", align 1
@.str.88 = private unnamed_addr constant [49 x i8] c"Unrecognized value for option --crs-extent-use: \00", align 1
@.str.89 = private unnamed_addr constant [13 x i8] c"--grid-check\00", align 1
@.str.90 = private unnamed_addr constant [5 x i8] c"none\00", align 1
@.str.91 = private unnamed_addr constant [16 x i8] c"discard_missing\00", align 1
@.str.92 = private unnamed_addr constant [5 x i8] c"sort\00", align 1
@.str.93 = private unnamed_addr constant [16 x i8] c"known_available\00", align 1
@.str.94 = private unnamed_addr constant [45 x i8] c"Unrecognized value for option --grid-check: \00", align 1
@.str.95 = private unnamed_addr constant [12 x i8] c"--pivot-crs\00", align 1
@.str.96 = private unnamed_addr constant [7 x i8] c"always\00", align 1
@.str.97 = private unnamed_addr constant [28 x i8] c"if_no_direct_transformation\00", align 1
@.str.98 = private unnamed_addr constant [6 x i8] c"never\00", align 1
@.str.99 = private unnamed_addr constant [15 x i8] c"--main-db-path\00", align 1
@.str.100 = private unnamed_addr constant [14 x i8] c"--aux-db-path\00", align 1
@.str.101 = private unnamed_addr constant [16 x i8] c"--guess-dialect\00", align 1
@.str.102 = private unnamed_addr constant [12 x i8] c"--authority\00", align 1
@.str.103 = private unnamed_addr constant [11 x i8] c"--identify\00", align 1
@.str.104 = private unnamed_addr constant [18 x i8] c"--show-superseded\00", align 1
@.str.105 = private unnamed_addr constant [6 x i8] c"--lax\00", align 1
@.str.106 = private unnamed_addr constant [43 x i8] c"--allow-ellipsoidal-height-as-vertical-crs\00", align 1
@.str.107 = private unnamed_addr constant [16 x i8] c"--hide-ballpark\00", align 1
@.str.108 = private unnamed_addr constant [5 x i8] c"--3d\00", align 1
@.str.109 = private unnamed_addr constant [23 x i8] c"--normalize-axis-order\00", align 1
@.str.110 = private unnamed_addr constant [12 x i8] c"--output-id\00", align 1
@.str.111 = private unnamed_addr constant [37 x i8] c"Invalid value for option --output-id\00", align 1
@.str.112 = private unnamed_addr constant [20 x i8] c"--dump-db-structure\00", align 1
@.str.113 = private unnamed_addr constant [11 x i8] c"--list-crs\00", align 1
@.str.114 = private unnamed_addr constant [14 x i8] c"--searchpaths\00", align 1
@_ZSt4cout = external global %"class.std::basic_ostream", align 8
@.str.115 = private unnamed_addr constant [14 x i8] c"--remote-data\00", align 1
@.str.116 = private unnamed_addr constant [16 x i8] c"Status: enabled\00", align 1
@.str.117 = private unnamed_addr constant [6 x i8] c"URL: \00", align 1
@.str.118 = private unnamed_addr constant [17 x i8] c"Status: disabled\00", align 1
@.str.119 = private unnamed_addr constant [65 x i8] c"Reason: not enabled in proj.ini or PROJ_NETWORK=ON not specified\00", align 1
@.str.120 = private unnamed_addr constant [3 x i8] c"-?\00", align 1
@.str.121 = private unnamed_addr constant [7 x i8] c"--help\00", align 1
@.str.122 = private unnamed_addr constant [22 x i8] c"Unrecognized option: \00", align 1
@.str.123 = private unnamed_addr constant [39 x i8] c"ERROR: --bbox and --area are exclusive\00", align 1
@.str.124 = private unnamed_addr constant [80 x i8] c"WARNING: SQL output disable since --output-id AUTH:CODE has not been specified.\00", align 1
@.str.125 = private unnamed_addr constant [75 x i8] c"ERROR: --output-id AUTH:CODE must be specified when SQL output is enabled.\00", align 1
@.str.126 = private unnamed_addr constant [43 x i8] c"ERROR: Cannot create database connection: \00", align 1
@.str.127 = private unnamed_addr constant [45 x i8] c"WARNING: Cannot create database connection: \00", align 1
@.str.128 = private unnamed_addr constant [39 x i8] c"ERROR: getDatabaseStructure() failed: \00", align 1
@.str.129 = private unnamed_addr constant [17 x i8] c"allow_deprecated\00", align 1
@.str.130 = private unnamed_addr constant [9 x i8] c"geodetic\00", align 1
@.str.131 = private unnamed_addr constant [11 x i8] c"geocentric\00", align 1
@.str.132 = private unnamed_addr constant [11 x i8] c"geographic\00", align 1
@.str.133 = private unnamed_addr constant [14 x i8] c"geographic_2d\00", align 1
@.str.134 = private unnamed_addr constant [14 x i8] c"geographic_3d\00", align 1
@.str.135 = private unnamed_addr constant [9 x i8] c"vertical\00", align 1
@.str.136 = private unnamed_addr constant [10 x i8] c"projected\00", align 1
@.str.137 = private unnamed_addr constant [9 x i8] c"compound\00", align 1
@.str.138 = private unnamed_addr constant [12 x i8] c"engineering\00", align 1
@.str.139 = private unnamed_addr constant [43 x i8] c"Unrecognized value for option --list-crs: \00", align 1
@.str.140 = private unnamed_addr constant [2 x i8] c":\00", align 1
@.str.141 = private unnamed_addr constant [3 x i8] c" \22\00", align 1
@.str.142 = private unnamed_addr constant [2 x i8] c"\22\00", align 1
@.str.143 = private unnamed_addr constant [14 x i8] c" [deprecated]\00", align 1
@.str.144 = private unnamed_addr constant [1 x i8] zeroinitializer, align 1
@.str.145 = private unnamed_addr constant [30 x i8] c"ERROR: list-crs failed with: \00", align 1
@.str.146 = private unnamed_addr constant [22 x i8] c"Too many parameters: \00", align 1
@.str.147 = private unnamed_addr constant [45 x i8] c"Source CRS specified, but missing target CRS\00", align 1
@.str.148 = private unnamed_addr constant [45 x i8] c"Target CRS specified, but missing source CRS\00", align 1
@.str.149 = private unnamed_addr constant [19 x i8] c"Unused extra value\00", align 1
@.str.150 = private unnamed_addr constant [20 x i8] c"Missing user string\00", align 1
@.str.151 = private unnamed_addr constant [48 x i8] c"-q can only be used with a single output format\00", align 1
@.str.152 = private unnamed_addr constant [13 x i8] c"input string\00", align 1
@.str.153 = private unnamed_addr constant [22 x i8] c"Guessed WKT dialect: \00", align 1
@.str.154 = private unnamed_addr constant [18 x i8] c"Not WKT / unknown\00", align 1
@_ZTIN5osgeo4proj4util10BaseObjectE = external constant ptr
@_ZTIN5osgeo4proj3crs3CRSE = external constant ptr
@.str.155 = private unnamed_addr constant [29 x i8] c"Identification match count: \00", align 1
@.str.156 = private unnamed_addr constant [3 x i8] c": \00", align 1
@.str.157 = private unnamed_addr constant [3 x i8] c" %\00", align 1
@_ZTVN5osgeo4proj3crs8BoundCRSE = external unnamed_addr constant { [11 x ptr], [5 x ptr], [5 x ptr], [5 x ptr], [5 x ptr] }, align 8
@.str.158 = private unnamed_addr constant [13 x i8] c"BoundCRS of \00", align 1
@_ZTVN5osgeo4proj3crs11CompoundCRSE = external unnamed_addr constant { [11 x ptr], [5 x ptr], [5 x ptr], [5 x ptr], [5 x ptr] }, align 8
@.str.159 = private unnamed_addr constant [20 x i8] c"un-identified CRS: \00", align 1
@.str.160 = private unnamed_addr constant [24 x i8] c"Identification failed: \00", align 1
@.str.161 = private unnamed_addr constant [21 x i8] c"buildObject failed: \00", align 1
@.str.162 = private unnamed_addr constant [33 x i8] c"outputOperations() failed with: \00", align 1
@.str.163 = private unnamed_addr constant [90 x i8] c"usage: projinfo [-o formats] [-k crs|operation|datum|ensemble|ellipsoid] [--summary] [-q]\00", align 1
@.str.164 = private unnamed_addr constant [92 x i8] c"                ([--area name_or_code] | [--bbox west_long,south_lat,east_long,north_lat]) \00", align 1
@.str.165 = private unnamed_addr constant [53 x i8] c"                [--spatial-test contains|intersects]\00", align 1
@.str.166 = private unnamed_addr constant [67 x i8] c"                [--crs-extent-use none|both|intersection|smallest]\00", align 1
@.str.167 = private unnamed_addr constant [74 x i8] c"                [--grid-check none|discard_missing|sort|known_available] \00", align 1
@.str.168 = private unnamed_addr constant [65 x i8] c"                [--pivot-crs always|if_no_direct_transformation|\00", align 1
@.str.169 = private unnamed_addr constant [32 x i8] c"never|{auth:code[,auth:code]*}]\00", align 1
@.str.170 = private unnamed_addr constant [78 x i8] c"                [--show-superseded] [--hide-ballpark] [--accuracy {accuracy}]\00", align 1
@.str.171 = private unnamed_addr constant [61 x i8] c"                [--allow-ellipsoidal-height-as-vertical-crs]\00", align 1
@.str.172 = private unnamed_addr constant [38 x i8] c"                [--boundcrs-to-wgs84]\00", align 1
@.str.173 = private unnamed_addr constant [35 x i8] c"                [--authority name]\00", align 1
@.str.174 = private unnamed_addr constant [60 x i8] c"                [--main-db-path path] [--aux-db-path path]*\00", align 1
@.str.175 = private unnamed_addr constant [36 x i8] c"                [--identify] [--3d]\00", align 1
@.str.176 = private unnamed_addr constant [40 x i8] c"                [--output-id AUTH:CODE]\00", align 1
@.str.177 = private unnamed_addr constant [42 x i8] c"                [--c-ify] [--single-line]\00", align 1
@.str.178 = private unnamed_addr constant [48 x i8] c"                --searchpaths | --remote-data |\00", align 1
@.str.179 = private unnamed_addr constant [47 x i8] c"                --list-crs [list-crs-filter] |\00", align 1
@.str.180 = private unnamed_addr constant [81 x i8] c"                --dump-db-structure [{object_definition} | {object_reference}] |\00", align 1
@.str.181 = private unnamed_addr constant [59 x i8] c"                {object_definition} | {object_reference} |\00", align 1
@.str.182 = private unnamed_addr constant [86 x i8] c"                (-s {srs_def} [--s_epoch {epoch}] -t {srs_def} [--t_epoch {epoch}]) |\00", align 1
@.str.183 = private unnamed_addr constant [38 x i8] c"                ({srs_def} {srs_def})\00", align 1
@.str.184 = private unnamed_addr constant [127 x i8] c"-o: formats is a comma separated combination of: all,default,PROJ,WKT_ALL,WKT2:2015,WKT2:2019,WKT1:GDAL,WKT1:ESRI,PROJJSON,SQL\00", align 1
@.str.185 = private unnamed_addr constant [84 x i8] c"    Except 'all' and 'default', other format can be preceded by '-' to disable them\00", align 1
@.str.186 = private unnamed_addr constant [91 x i8] c"list-crs-filter is a comma separated combination of: allow_deprecated,geodetic,geocentric,\00", align 1
@.str.187 = private unnamed_addr constant [67 x i8] c"geographic,geographic_2d,geographic_3d,vertical,projected,compound\00", align 1
@.str.188 = private unnamed_addr constant [119 x i8] c"{object_definition} might be a PROJ string, a WKT string, a AUTHORITY:CODE, or urn:ogc:def:OBJECT_TYPE:AUTHORITY::CODE\00", align 1
@.str.189 = private unnamed_addr constant [2 x i8] c" \00", align 1
@.str.190 = private unnamed_addr constant [4 x i8] c"%s:\00", align 1
@.str.193 = private unnamed_addr constant [6 x i8] c"WKT1:\00", align 1
@.str.195 = private unnamed_addr constant [6 x i8] c"WKT2:\00", align 1
@.str.201 = private unnamed_addr constant [41 x i8] c"always if_no_direct_transformation never\00", align 1
@.str.202 = private unnamed_addr constant [5 x i8] c" %s:\00", align 1
@__const._ZL17suggestCompletionRKSt6vectorINSt7__cxx1112basic_stringIcSt11char_traitsIcESaIcEEESaIS5_EE.knownOptions = private unnamed_addr constant [31 x ptr] [ptr @.str.1, ptr @.str.58, ptr @.str.76, ptr @.str.72, ptr @.str.57, ptr @.str.54, ptr @.str.79, ptr @.str.83, ptr @.str.89, ptr @.str.95, ptr @.str.104, ptr @.str.107, ptr @.str.55, ptr @.str.106, ptr @.str.77, ptr @.str.102, ptr @.str.99, ptr @.str.100, ptr @.str.103, ptr @.str.108, ptr @.str.110, ptr @.str.74, ptr @.str.75, ptr @.str.114, ptr @.str.115, ptr @.str.113, ptr @.str.112, ptr @.str.66, ptr @.str.68, ptr @.str.69, ptr @.str.71], align 16
@.str.203 = private unnamed_addr constant [3 x i8] c"%s\00", align 1
@.str.204 = private unnamed_addr constant [5 x i8] c" -- \00", align 1
@.str.205 = private unnamed_addr constant [3 x i8] c"\\ \00", align 1
@.str.206 = private unnamed_addr constant [5 x i8] c"EPSG\00", align 1
@.str.209 = private unnamed_addr constant [3 x i8] c" +\00", align 1
@_ZTIN5osgeo4proj6common16IdentifiedObjectE = external constant ptr
@_ZTIN5osgeo4proj6common11ObjectUsageE = external constant ptr
@_ZTIN5osgeo4proj8metadata16GeographicExtentE = external constant ptr
@_ZTIN5osgeo4proj8metadata21GeographicBoundingBoxE = external constant ptr
@.str.210 = private unnamed_addr constant [3 x i8] c" -\00", align 1
@.str.211 = private unnamed_addr constant [13 x i8] c"EPSG example\00", align 1
@.str.212 = private unnamed_addr constant [7 x i8] c"World.\00", align 1
@.str.213 = private unnamed_addr constant [21 x i8] c"basic_string::substr\00", align 1
@.str.214 = private unnamed_addr constant [55 x i8] c"%s: __pos (which is %zu) > this->size() (which is %zu)\00", align 1
@.str.216 = private unnamed_addr constant [21 x i8] c"basic_string::append\00", align 1
@.str.217 = private unnamed_addr constant [49 x i8] c"cannot create std::vector larger than max_size()\00", align 1
@__libc_single_threaded = external local_unnamed_addr global i8, align 1
@.str.218 = private unnamed_addr constant [47 x i8] c"Incorrect number of values for option --bbox: \00", align 1
@.str.219 = private unnamed_addr constant [37 x i8] c"Warning: suspicious south latitude: \00", align 1
@.str.220 = private unnamed_addr constant [37 x i8] c"Warning: suspicious north latitude: \00", align 1
@.str.221 = private unnamed_addr constant [34 x i8] c"Invalid value for option --bbox: \00", align 1
@.str.222 = private unnamed_addr constant [3 x i8] c", \00", align 1
@.str.223 = private unnamed_addr constant [38 x i8] c"No area of use matching provided name\00", align 1
@.str.224 = private unnamed_addr constant [56 x i8] c"Several candidates area of use matching provided name :\00", align 1
@.str.225 = private unnamed_addr constant [3 x i8] c"  \00", align 1
@.str.226 = private unnamed_addr constant [4 x i8] c" : \00", align 1
@.str.227 = private unnamed_addr constant [31 x i8] c"Area of use retrieval failed: \00", align 1
@.str.228 = private unnamed_addr constant [15 x i8] c": cannot open \00", align 1
@.str.229 = private unnamed_addr constant [15 x i8] c": too big file\00", align 1
@.str.230 = private unnamed_addr constant [33 x i8] c"urn:ogc:def:coordinateOperation:\00", align 1
@.str.231 = private unnamed_addr constant [3 x i8] c"::\00", align 1
@.str.232 = private unnamed_addr constant [13 x i8] c"urn:ogc:def:\00", align 1
@.str.233 = private unnamed_addr constant [3 x i8] c"\\\22\00", align 1
@.str.234 = private unnamed_addr constant [10 x i8] c"Warning: \00", align 1
@.str.235 = private unnamed_addr constant [16 x i8] c"Grammar error: \00", align 1
@.str.236 = private unnamed_addr constant [14 x i8] c"crs_preferred\00", align 1
@.str.237 = private unnamed_addr constant [37 x i8] c"several objects matching this name: \00", align 1
@.str.238 = private unnamed_addr constant [6 x i8] c", ...\00", align 1
@.str.239 = private unnamed_addr constant [15 x i8] c": parsing of '\00", align 1
@.str.240 = private unnamed_addr constant [11 x i8] c"' failed: \00", align 1
@.str.241 = private unnamed_addr constant [37 x i8] c": applying epoch to a non-CRS object\00", align 1
@.str.242 = private unnamed_addr constant [23 x i8] c"{ESCAPED_DOUBLE_QUOTE}\00", align 1
@.str.243 = private unnamed_addr constant [4 x i8] c"\\n\22\00", align 1
@.str.244 = private unnamed_addr constant [26 x i8] c"vector::_M_realloc_append\00", align 1
@_ZTIN5osgeo4proj11coordinates18CoordinateMetadataE = external constant ptr
@.str.245 = private unnamed_addr constant [5 x i8] c"stod\00", align 1
@.str.246 = private unnamed_addr constant [30 x i8] c"Warning: object is deprecated\00", align 1
@.str.247 = private unnamed_addr constant [32 x i8] c"Alternative non-deprecated CRS:\00", align 1
@.str.248 = private unnamed_addr constant [15 x i8] c"PROJ.4 string:\00", align 1
@.str.249 = private unnamed_addr constant [13 x i8] c"PROJ string:\00", align 1
@.str.250 = private unnamed_addr constant [38 x i8] c"Error when exporting to PROJ string: \00", align 1
@.str.251 = private unnamed_addr constant [18 x i8] c"WKT2:2015 string:\00", align 1
@.str.252 = private unnamed_addr constant [36 x i8] c"Error when exporting to WKT2:2015: \00", align 1
@.str.253 = private unnamed_addr constant [29 x i8] c"WKT2:2015_SIMPLIFIED string:\00", align 1
@.str.254 = private unnamed_addr constant [47 x i8] c"Error when exporting to WKT2:2015_SIMPLIFIED: \00", align 1
@.str.255 = private unnamed_addr constant [18 x i8] c"WKT2:2019 string:\00", align 1
@.str.256 = private unnamed_addr constant [36 x i8] c"Error when exporting to WKT2:2019: \00", align 1
@.str.257 = private unnamed_addr constant [29 x i8] c"WKT2:2019_SIMPLIFIED string:\00", align 1
@.str.258 = private unnamed_addr constant [47 x i8] c"Error when exporting to WKT2:2019_SIMPLIFIED: \00", align 1
@.str.259 = private unnamed_addr constant [18 x i8] c"WKT1:GDAL string:\00", align 1
@.str.260 = private unnamed_addr constant [36 x i8] c"Error when exporting to WKT1:GDAL: \00", align 1
@.str.261 = private unnamed_addr constant [18 x i8] c"WKT1:ESRI string:\00", align 1
@.str.262 = private unnamed_addr constant [36 x i8] c"Error when exporting to WKT1:ESRI: \00", align 1
@.str.263 = private unnamed_addr constant [10 x i8] c"PROJJSON:\00", align 1
@.str.264 = private unnamed_addr constant [35 x i8] c"Error when exporting to PROJJSON: \00", align 1
@.str.265 = private unnamed_addr constant [5 x i8] c"SQL:\00", align 1
@.str.266 = private unnamed_addr constant [30 x i8] c"Error when exporting to SQL: \00", align 1
@_ZTIN5osgeo4proj9operation19CoordinateOperationE = external constant ptr
@.str.267 = private unnamed_addr constant [23 x i8] c"PROJINFO_NO_GRID_CHECK\00", align 1
@.str.268 = private unnamed_addr constant [6 x i8] c"Grid \00", align 1
@.str.269 = private unnamed_addr constant [37 x i8] c" needed but not found on the system.\00", align 1
@.str.270 = private unnamed_addr constant [27 x i8] c" Can be obtained from the \00", align 1
@.str.271 = private unnamed_addr constant [9 x i8] c" package\00", align 1
@.str.272 = private unnamed_addr constant [5 x i8] c" at \00", align 1
@.str.273 = private unnamed_addr constant [12 x i8] c", or on CDN\00", align 1
@.str.274 = private unnamed_addr constant [21 x i8] c" Can be obtained at \00", align 1
@.str.275 = private unnamed_addr constant [25 x i8] c"Error in gridsNeeded(): \00", align 1
@_ZTIN5osgeo4proj2io21IPROJStringExportableE = external constant ptr
@_ZTIN5osgeo4proj2io14IWKTExportableE = external constant ptr
@.str.276 = private unnamed_addr constant [15 x i8] c"{DOUBLE_QUOTE}\00", align 1
@.str.277 = private unnamed_addr constant [6 x i8] c"\\n\22\0A\22\00", align 1
@_ZTIN5osgeo4proj9operation10ConversionE = external constant ptr
@_ZTIN5osgeo4proj2io15IJSONExportableE = external constant ptr
@.str.278 = private unnamed_addr constant [11 x i8] c"source CRS\00", align 1
@.str.279 = private unnamed_addr constant [55 x i8] c"source CRS string is not a CRS or a CoordinateMetadata\00", align 1
@.str.280 = private unnamed_addr constant [11 x i8] c"target CRS\00", align 1
@.str.281 = private unnamed_addr constant [55 x i8] c"target CRS string is not a CRS or a CoordinateMetadata\00", align 1
@.str.282 = private unnamed_addr constant [33 x i8] c"createOperations() failed with: \00", align 1
@.str.283 = private unnamed_addr constant [29 x i8] c"Candidate operations found: \00", align 1
@.str.284 = private unnamed_addr constant [67 x i8] c"Note: using '--spatial-test intersects' would bring more results (\00", align 1
@.str.285 = private unnamed_addr constant [2 x i8] c")\00", align 1
@.str.286 = private unnamed_addr constant [75 x i8] c"Note: using '--spatial-test intersects' would bring more relevant results.\00", align 1
@.str.287 = private unnamed_addr constant [38 x i8] c"-------------------------------------\00", align 1
@.str.288 = private unnamed_addr constant [15 x i8] c"Operation No. \00", align 1
@_ZTIN5osgeo4proj3crs11GeodeticCRSE = external constant ptr
@_ZTVN5osgeo4proj3crs12ProjectedCRSE = external unnamed_addr constant { [12 x ptr], [5 x ptr], [15 x ptr], [5 x ptr], [5 x ptr], [5 x ptr] }, align 8
@.str.289 = private unnamed_addr constant [11 x i8] c"unknown id\00", align 1
@.str.290 = private unnamed_addr constant [13 x i8] c"unknown name\00", align 1
@.str.291 = private unnamed_addr constant [3 x i8] c" m\00", align 1
@.str.292 = private unnamed_addr constant [4 x i8] c"0 m\00", align 1
@.str.293 = private unnamed_addr constant [17 x i8] c"unknown accuracy\00", align 1
@.str.294 = private unnamed_addr constant [27 x i8] c"unknown domain of validity\00", align 1
@.str.295 = private unnamed_addr constant [30 x i8] c", has ballpark transformation\00", align 1
@.str.296 = private unnamed_addr constant [28 x i8] c", at least one grid missing\00", align 1
@.str.297 = private unnamed_addr constant [37 x i8] c" on the system, but available on CDN\00", align 1
@.str.298 = private unnamed_addr constant [27 x i8] c", time-dependent operation\00", align 1
@.str.299 = private unnamed_addr constant [50 x i8] c"basic_string: construction from null is not valid\00", align 1
@str = private unnamed_addr constant [42 x i8] c"none discard_missing sort known_available\00", align 1
@str.301 = private unnamed_addr constant [32 x i8] c"none both intersection smallest\00", align 1
@str.302 = private unnamed_addr constant [20 x i8] c"contains intersects\00", align 1
@str.303 = private unnamed_addr constant [62 x i8] c"all PROJ WKT2:2019 WKT2:2015 WKT1:GDAL WKT1:ESRI PROJJSON SQL\00", align 1
@str.304 = private unnamed_addr constant [10 x i8] c"2019 2015\00", align 1
@str.305 = private unnamed_addr constant [10 x i8] c"GDAL ESRI\00", align 1
@str.306 = private unnamed_addr constant [39 x i8] c"crs operation datum ensemble ellipsoid\00", align 1
@switch.table.main.rel = private unnamed_addr constant [4 x i32] [i32 trunc (i64 sub (i64 ptrtoint (ptr @.str.10 to i64), i64 ptrtoint (ptr @switch.table.main.rel to i64)) to i32), i32 trunc (i64 sub (i64 ptrtoint (ptr @.str.28 to i64), i64 ptrtoint (ptr @switch.table.main.rel to i64)) to i32), i32 trunc (i64 sub (i64 ptrtoint (ptr @.str.37 to i64), i64 ptrtoint (ptr @switch.table.main.rel to i64)) to i32), i32 trunc (i64 sub (i64 ptrtoint (ptr @.str.43 to i64), i64 ptrtoint (ptr @switch.table.main.rel to i64)) to i32)], align 4

; Function Attrs: mustprogress norecurse sspstrong uwtable
define hidden noundef i32 @main(i32 noundef %0, ptr noundef %1) local_unnamed_addr #0 personality ptr @__gxx_personality_v0 {
  %3 = alloca %"struct.osgeo::proj::util::BaseObjectNNPtr", align 8
  %4 = alloca %"class.std::shared_ptr", align 8
  %5 = alloca %"class.std::__cxx11::basic_string", align 8
  %6 = alloca %"class.std::__cxx11::basic_string", align 8
  %7 = alloca %"class.std::shared_ptr.95", align 8
  %8 = alloca %"class.std::shared_ptr.221", align 8
  %9 = alloca %"struct.osgeo::proj::util::BaseObjectNNPtr", align 8
  %10 = alloca %"class.std::shared_ptr", align 8
  %11 = alloca %"class.std::__cxx11::basic_string", align 8
  %12 = alloca %"class.std::__cxx11::basic_string", align 8
  %13 = alloca %"class.std::shared_ptr.95", align 8
  %14 = alloca %"class.std::shared_ptr.221", align 8
  %15 = alloca %"class.std::shared_ptr.95", align 8
  %16 = alloca %"class.dropbox::oxygen::nn.94", align 8
  %17 = alloca %"class.std::__cxx11::basic_string", align 8
  %18 = alloca %"class.std::shared_ptr.95", align 8
  %19 = alloca %"class.dropbox::oxygen::nn.94", align 8
  %20 = alloca %"class.std::__cxx11::basic_string", align 8
  %21 = alloca %"class.std::vector.338", align 8
  %22 = alloca %"class.std::shared_ptr.20", align 8
  %23 = alloca %"class.dropbox::oxygen::nn.19", align 8
  %24 = alloca %"class.dropbox::oxygen::nn", align 8
  %25 = alloca %"class.dropbox::oxygen::nn.343", align 8
  %26 = alloca %class.anon.352, align 8
  %27 = alloca %"class.std::vector.338", align 8
  %28 = alloca %"class.std::vector.338", align 8
  %29 = alloca %"class.std::shared_ptr", align 8
  %30 = alloca %"struct.osgeo::proj::util::BaseObjectNNPtr", align 8
  %31 = alloca %"class.std::shared_ptr", align 8
  %32 = alloca %"struct.osgeo::proj::util::BaseObjectNNPtr", align 8
  %33 = alloca i8, align 1
  %34 = alloca i64, align 8
  %35 = alloca i64, align 8
  %36 = alloca i64, align 8
  %37 = alloca i64, align 8
  %38 = alloca i64, align 8
  %39 = alloca %"class.std::vector", align 8
  %40 = alloca %"class.std::vector", align 8
  %41 = alloca %"class.std::__cxx11::basic_string", align 8
  %42 = alloca %"class.std::__cxx11::basic_string", align 8
  %43 = alloca %"class.std::__cxx11::basic_string", align 8
  %44 = alloca %"class.std::__cxx11::basic_string", align 8
  %45 = alloca %"struct.(anonymous namespace)::OutputOptions", align 8
  %46 = alloca %"class.std::__cxx11::basic_string", align 8
  %47 = alloca %"class.std::__cxx11::basic_string", align 8
  %48 = alloca %"class.std::__cxx11::basic_string", align 8
  %49 = alloca %"class.std::vector.3", align 8
  %50 = alloca %"class.std::__cxx11::basic_string", align 8
  %51 = alloca %"class.std::vector", align 8
  %52 = alloca %"class.std::__cxx11::basic_string", align 8
  %53 = alloca %"class.std::__cxx11::basic_string", align 8
  %54 = alloca %"class.std::__cxx11::basic_string", align 8
  %55 = alloca %"class.std::vector", align 8
  %56 = alloca %"class.std::__cxx11::basic_string", align 8
  %57 = alloca %"class.std::__cxx11::basic_string", align 8
  %58 = alloca %"class.std::__cxx11::basic_string", align 8
  %59 = alloca %"class.std::__cxx11::basic_string", align 8
  %60 = alloca %"class.std::allocator.0", align 1
  %61 = alloca %"class.std::__cxx11::basic_string", align 8
  %62 = alloca %"class.std::allocator.0", align 1
  %63 = alloca %"class.std::__cxx11::basic_string", align 8
  %64 = alloca %"class.std::allocator.0", align 1
  %65 = alloca %"class.std::__cxx11::basic_string", align 8
  %66 = alloca %"class.std::allocator.0", align 1
  %67 = alloca %"class.std::__cxx11::basic_string", align 8
  %68 = alloca %"class.std::allocator.0", align 1
  %69 = alloca %"class.std::__cxx11::basic_string", align 8
  %70 = alloca %"class.std::allocator.0", align 1
  %71 = alloca %"class.std::vector", align 8
  %72 = alloca %"class.std::__cxx11::basic_string", align 8
  %73 = alloca %"class.std::allocator.0", align 1
  %74 = alloca %"class.std::vector", align 8
  %75 = alloca %"struct.std::pair", align 8
  %76 = alloca %"class.std::__cxx11::basic_string", align 8
  %77 = alloca %"class.std::allocator.0", align 1
  %78 = alloca %"class.std::vector", align 8
  %79 = alloca %"class.std::vector", align 8
  %80 = alloca %"class.std::__cxx11::basic_string", align 8
  %81 = alloca %"class.std::allocator.0", align 1
  %82 = alloca %"class.std::vector", align 8
  %83 = alloca %"class.std::__cxx11::basic_string", align 8
  %84 = alloca %struct.PJ_INFO, align 8
  %85 = alloca %"class.std::allocator.0", align 1
  %86 = alloca %"class.std::shared_ptr", align 8
  %87 = alloca %"class.dropbox::oxygen::nn", align 8
  %88 = alloca %"class.std::vector", align 8
  %89 = alloca %"class.std::set", align 8
  %90 = alloca %"class.std::vector", align 8
  %91 = alloca %"class.std::__cxx11::basic_string", align 8
  %92 = alloca %"class.std::shared_ptr.16", align 8
  %93 = alloca %"class.std::shared_ptr", align 8
  %94 = alloca %"class.std::vector", align 8
  %95 = alloca %"class.std::__cxx11::basic_string", align 8
  %96 = alloca %"class.std::vector", align 8
  %97 = alloca %"class.dropbox::oxygen::nn.19", align 8
  %98 = alloca %"class.dropbox::oxygen::nn", align 8
  %99 = alloca %"class.std::__cxx11::list", align 8
  %100 = alloca %"class.dropbox::oxygen::nn.34", align 8
  %101 = alloca %"class.osgeo::proj::util::optional", align 8
  %102 = alloca %"class.std::__cxx11::basic_string", align 8
  %103 = alloca %"class.std::__cxx11::basic_string", align 8
  %104 = alloca %"struct.osgeo::proj::util::BaseObjectNNPtr", align 8
  %105 = alloca %"class.std::shared_ptr", align 8
  %106 = alloca %"class.std::__cxx11::basic_string", align 8
  %107 = alloca %"class.std::__cxx11::basic_string", align 8
  %108 = alloca %"class.osgeo::proj::io::WKTParser", align 8
  %109 = alloca %"class.std::shared_ptr", align 8
  %110 = alloca %"struct.osgeo::proj::util::BaseObjectNNPtr", align 8
  %111 = alloca %"class.std::__cxx11::list.63", align 8
  %112 = alloca %"class.std::shared_ptr.20", align 8
  %113 = alloca %"class.dropbox::oxygen::nn.19", align 8
  %114 = alloca %"class.dropbox::oxygen::nn", align 8
  %115 = alloca %"class.std::shared_ptr.16", align 8
  %116 = alloca %"class.std::shared_ptr", align 8
  tail call void @_Z38pj_stderr_proj_lib_deprecation_warningv()
  %117 = icmp eq i32 %0, 1
  br i1 %117, label %118, label %122

118:                                              ; preds = %2
  %119 = tail call noundef ptr @_Z14pj_get_releasev()
  %120 = tail call noundef nonnull align 8 dereferenceable(8) ptr @_ZStlsISt11char_traitsIcEERSt13basic_ostreamIcT_ES5_PKc(ptr noundef nonnull align 8 dereferenceable(8) @_ZSt4cerr, ptr noundef %119)
  %121 = tail call noundef nonnull align 8 dereferenceable(8) ptr @_ZSt4endlIcSt11char_traitsIcEERSt13basic_ostreamIT_T0_ES6_(ptr noundef nonnull align 8 dereferenceable(8) %120)
  tail call fastcc void @_ZL5usagev() #34
  unreachable

122:                                              ; preds = %2
  %123 = icmp sgt i32 %0, 2
  br i1 %123, label %124, label %180

124:                                              ; preds = %122
  %125 = getelementptr inbounds nuw i8, ptr %1, i64 8
  %126 = load ptr, ptr %125, align 8, !tbaa !5
  %127 = tail call i32 @strcmp(ptr noundef nonnull dereferenceable(1) %126, ptr noundef nonnull dereferenceable(11) @.str) #35
  %128 = icmp eq i32 %127, 0
  br i1 %128, label %129, label %180

129:                                              ; preds = %124
  call void @llvm.lifetime.start.p0(ptr %39)
  %130 = getelementptr inbounds nuw i8, ptr %1, i64 24
  %131 = zext nneg i32 %0 to i64
  %132 = shl nuw nsw i64 %131, 3
  %133 = getelementptr inbounds nuw i8, ptr %1, i64 %132
  %134 = add nsw i64 %132, -24
  %135 = lshr exact i64 %134, 3
  %136 = icmp eq i32 %0, 3
  br i1 %136, label %140, label %137

137:                                              ; preds = %129
  %138 = shl nuw nsw i64 %134, 2
  %139 = invoke noalias noundef nonnull ptr @_Znwm(i64 noundef %138) #36
          to label %140 unwind label %145

140:                                              ; preds = %137, %129
  %141 = phi ptr [ null, %129 ], [ %139, %137 ]
  store ptr %141, ptr %39, align 8, !tbaa !10
  %142 = getelementptr inbounds nuw %"class.std::__cxx11::basic_string", ptr %141, i64 %135
  %143 = getelementptr inbounds nuw i8, ptr %39, i64 16
  store ptr %142, ptr %143, align 8, !tbaa !13
  %144 = invoke noundef ptr @_ZSt16__do_uninit_copyIPPcS1_PNSt7__cxx1112basic_stringIcSt11char_traitsIcESaIcEEEET1_T_T0_S9_(ptr noundef nonnull %130, ptr noundef nonnull %133, ptr noundef %141)
          to label %152 unwind label %147

145:                                              ; preds = %137
  %146 = landingpad { ptr, i32 }
          cleanup
  br label %178

147:                                              ; preds = %140
  %148 = landingpad { ptr, i32 }
          cleanup
  %149 = icmp eq ptr %141, null
  br i1 %149, label %178, label %150

150:                                              ; preds = %147
  %151 = shl nuw nsw i64 %134, 2
  tail call void @_ZdlPvm(ptr noundef nonnull %141, i64 noundef %151) #37
  br label %178

152:                                              ; preds = %140
  %153 = getelementptr inbounds nuw i8, ptr %39, i64 8
  store ptr %144, ptr %153, align 8, !tbaa !14
  invoke fastcc void @_ZL17suggestCompletionRKSt6vectorINSt7__cxx1112basic_stringIcSt11char_traitsIcESaIcEEESaIS5_EE(ptr noundef nonnull align 8 dereferenceable(24) %39)
          to label %154 unwind label %176

154:                                              ; preds = %152
  %155 = icmp eq ptr %141, %144
  br i1 %155, label %171, label %156

156:                                              ; preds = %168, %154
  %157 = phi ptr [ %169, %168 ], [ %141, %154 ]
  %158 = load ptr, ptr %157, align 8, !tbaa !15
  %159 = getelementptr inbounds nuw i8, ptr %157, i64 16
  %160 = icmp eq ptr %158, %159
  br i1 %160, label %161, label %165

161:                                              ; preds = %156
  %162 = getelementptr inbounds nuw i8, ptr %157, i64 8
  %163 = load i64, ptr %162, align 8, !tbaa !19
  %164 = icmp ult i64 %163, 16
  tail call void @llvm.assume(i1 %164)
  br label %168

165:                                              ; preds = %156
  %166 = load i64, ptr %159, align 8, !tbaa !20
  %167 = add i64 %166, 1
  tail call void @_ZdlPvm(ptr noundef %158, i64 noundef %167) #37
  br label %168

168:                                              ; preds = %165, %161
  %169 = getelementptr inbounds nuw i8, ptr %157, i64 32
  %170 = icmp eq ptr %169, %144
  br i1 %170, label %171, label %156, !llvm.loop !21

171:                                              ; preds = %168, %154
  %172 = icmp eq ptr %141, null
  br i1 %172, label %175, label %173

173:                                              ; preds = %171
  %174 = shl nuw nsw i64 %134, 2
  tail call void @_ZdlPvm(ptr noundef nonnull %141, i64 noundef %174) #37
  br label %175

175:                                              ; preds = %173, %171
  call void @llvm.lifetime.end.p0(ptr %39)
  br label %6481

176:                                              ; preds = %152
  %177 = landingpad { ptr, i32 }
          cleanup
  call void @_ZNSt6vectorINSt7__cxx1112basic_stringIcSt11char_traitsIcESaIcEEESaIS5_EED2Ev(ptr noundef nonnull align 8 dereferenceable(24) %39) #38
  br label %178

178:                                              ; preds = %176, %150, %147, %145
  %179 = phi { ptr, i32 } [ %177, %176 ], [ %148, %150 ], [ %148, %147 ], [ %146, %145 ]
  call void @llvm.lifetime.end.p0(ptr %39)
  br label %6482

180:                                              ; preds = %124, %122
  call void @llvm.lifetime.start.p0(ptr %40)
  call void @llvm.memset.p0.i64(ptr noundef nonnull align 8 dereferenceable(24) %40, i8 0, i64 24, i1 false)
  call void @llvm.lifetime.start.p0(ptr %41)
  %181 = getelementptr inbounds nuw i8, ptr %41, i64 16
  store ptr %181, ptr %41, align 8, !tbaa !23
  %182 = getelementptr inbounds nuw i8, ptr %41, i64 8
  store i64 0, ptr %182, align 8, !tbaa !19
  store i8 0, ptr %181, align 8, !tbaa !20
  call void @llvm.lifetime.start.p0(ptr %42)
  %183 = getelementptr inbounds nuw i8, ptr %42, i64 16
  store ptr %183, ptr %42, align 8, !tbaa !23
  %184 = getelementptr inbounds nuw i8, ptr %42, i64 8
  store i64 0, ptr %184, align 8, !tbaa !19
  store i8 0, ptr %183, align 8, !tbaa !20
  call void @llvm.lifetime.start.p0(ptr %43)
  %185 = getelementptr inbounds nuw i8, ptr %43, i64 16
  store ptr %185, ptr %43, align 8, !tbaa !23
  %186 = getelementptr inbounds nuw i8, ptr %43, i64 8
  store i64 0, ptr %186, align 8, !tbaa !19
  store i8 0, ptr %185, align 8, !tbaa !20
  call void @llvm.lifetime.start.p0(ptr %44)
  %187 = getelementptr inbounds nuw i8, ptr %44, i64 16
  store ptr %187, ptr %44, align 8, !tbaa !23
  %188 = getelementptr inbounds nuw i8, ptr %44, i64 8
  store i64 0, ptr %188, align 8, !tbaa !19
  store i8 0, ptr %187, align 8, !tbaa !20
  call void @llvm.lifetime.start.p0(ptr %45)
  %189 = getelementptr inbounds nuw i8, ptr %45, i64 12
  call void @llvm.memset.p0.i64(ptr noundef nonnull align 8 dereferenceable(104) %45, i8 0, i64 12, i1 false)
  store i8 1, ptr %189, align 4, !tbaa !24
  %190 = getelementptr inbounds nuw i8, ptr %45, i64 13
  store i8 1, ptr %190, align 1, !tbaa !30
  %191 = getelementptr inbounds nuw i8, ptr %45, i64 14
  store i8 0, ptr %191, align 2, !tbaa !31
  %192 = getelementptr inbounds nuw i8, ptr %45, i64 16
  %193 = getelementptr inbounds nuw i8, ptr %45, i64 32
  store ptr %193, ptr %192, align 8, !tbaa !23
  %194 = getelementptr inbounds nuw i8, ptr %45, i64 24
  store i64 0, ptr %194, align 8, !tbaa !19
  store i8 0, ptr %193, align 8, !tbaa !20
  %195 = getelementptr inbounds nuw i8, ptr %45, i64 48
  %196 = getelementptr inbounds nuw i8, ptr %45, i64 64
  store ptr %196, ptr %195, align 8, !tbaa !23
  %197 = getelementptr inbounds nuw i8, ptr %45, i64 56
  store i64 0, ptr %197, align 8, !tbaa !19
  store i8 0, ptr %196, align 8, !tbaa !20
  %198 = getelementptr inbounds nuw i8, ptr %45, i64 80
  call void @llvm.memset.p0.i64(ptr noundef nonnull align 8 dereferenceable(24) %198, i8 0, i64 24, i1 false)
  call void @llvm.lifetime.start.p0(ptr %46)
  %199 = getelementptr inbounds nuw i8, ptr %46, i64 16
  store ptr %199, ptr %46, align 8, !tbaa !23
  %200 = getelementptr inbounds nuw i8, ptr %46, i64 8
  store i64 0, ptr %200, align 8, !tbaa !19
  store i8 0, ptr %199, align 8, !tbaa !20
  call void @llvm.lifetime.start.p0(ptr %47)
  %201 = getelementptr inbounds nuw i8, ptr %47, i64 16
  store ptr %201, ptr %47, align 8, !tbaa !23
  %202 = getelementptr inbounds nuw i8, ptr %47, i64 8
  store i64 0, ptr %202, align 8, !tbaa !19
  store i8 0, ptr %201, align 8, !tbaa !20
  call void @llvm.lifetime.start.p0(ptr %48)
  %203 = getelementptr inbounds nuw i8, ptr %48, i64 16
  store ptr %203, ptr %48, align 8, !tbaa !23
  %204 = getelementptr inbounds nuw i8, ptr %48, i64 8
  store i64 0, ptr %204, align 8, !tbaa !19
  store i8 0, ptr %203, align 8, !tbaa !20
  %205 = invoke i32 @proj_context_is_network_enabled(ptr noundef null)
          to label %206 unwind label %287

206:                                              ; preds = %180
  %207 = icmp eq i32 %205, 0
  %208 = select i1 %207, i32 0, i32 3
  call void @llvm.lifetime.start.p0(ptr %49)
  call void @llvm.memset.p0.i64(ptr noundef nonnull align 8 dereferenceable(24) %49, i8 0, i64 24, i1 false)
  call void @llvm.lifetime.start.p0(ptr %50)
  %209 = getelementptr inbounds nuw i8, ptr %50, i64 16
  store ptr %209, ptr %50, align 8, !tbaa !23
  %210 = getelementptr inbounds nuw i8, ptr %50, i64 8
  store i64 0, ptr %210, align 8, !tbaa !19
  store i8 0, ptr %209, align 8, !tbaa !20
  call void @llvm.lifetime.start.p0(ptr %51)
  call void @llvm.memset.p0.i64(ptr noundef nonnull align 8 dereferenceable(24) %51, i8 0, i64 24, i1 false)
  call void @llvm.lifetime.start.p0(ptr %52)
  %211 = getelementptr inbounds nuw i8, ptr %52, i64 16
  store ptr %211, ptr %52, align 8, !tbaa !23
  %212 = getelementptr inbounds nuw i8, ptr %52, i64 8
  store i64 0, ptr %212, align 8, !tbaa !19
  store i8 0, ptr %211, align 8, !tbaa !20
  call void @llvm.lifetime.start.p0(ptr %53)
  %213 = getelementptr inbounds nuw i8, ptr %53, i64 16
  store ptr %213, ptr %53, align 8, !tbaa !23
  %214 = getelementptr inbounds nuw i8, ptr %53, i64 8
  store i64 0, ptr %214, align 8, !tbaa !19
  store i8 0, ptr %213, align 8, !tbaa !20
  %215 = icmp sgt i32 %0, 1
  br i1 %215, label %216, label %263

216:                                              ; preds = %206
  %217 = getelementptr inbounds nuw i8, ptr %54, i64 16
  %218 = getelementptr inbounds nuw i8, ptr %54, i64 8
  %219 = getelementptr inbounds nuw i8, ptr %45, i64 11
  %220 = getelementptr inbounds nuw i8, ptr %45, i64 10
  %221 = getelementptr inbounds nuw i8, ptr %58, i64 16
  %222 = getelementptr inbounds nuw i8, ptr %58, i64 8
  %223 = getelementptr inbounds nuw i8, ptr %57, i64 16
  %224 = getelementptr inbounds nuw i8, ptr %57, i64 8
  %225 = getelementptr inbounds nuw i8, ptr %56, i64 16
  %226 = getelementptr inbounds nuw i8, ptr %56, i64 8
  %227 = getelementptr inbounds nuw i8, ptr %55, i64 8
  %228 = getelementptr inbounds nuw i8, ptr %45, i64 9
  %229 = getelementptr inbounds nuw i8, ptr %45, i64 8
  %230 = getelementptr inbounds nuw i8, ptr %45, i64 7
  %231 = getelementptr inbounds nuw i8, ptr %45, i64 6
  %232 = getelementptr inbounds nuw i8, ptr %45, i64 4
  %233 = getelementptr inbounds nuw i8, ptr %45, i64 5
  %234 = getelementptr inbounds nuw i8, ptr %45, i64 2
  %235 = getelementptr inbounds nuw i8, ptr %45, i64 3
  %236 = getelementptr inbounds nuw i8, ptr %45, i64 1
  %237 = getelementptr inbounds nuw i8, ptr %55, i64 16
  %238 = getelementptr inbounds nuw i8, ptr %80, i64 16
  %239 = getelementptr inbounds nuw i8, ptr %80, i64 8
  %240 = getelementptr inbounds nuw i8, ptr %79, i64 8
  %241 = getelementptr inbounds nuw i8, ptr %76, i64 16
  %242 = getelementptr inbounds nuw i8, ptr %76, i64 8
  %243 = getelementptr inbounds nuw i8, ptr %65, i64 16
  %244 = getelementptr inbounds nuw i8, ptr %65, i64 8
  %245 = getelementptr inbounds nuw i8, ptr %67, i64 16
  %246 = getelementptr inbounds nuw i8, ptr %67, i64 8
  %247 = getelementptr inbounds nuw i8, ptr %69, i64 16
  %248 = getelementptr inbounds nuw i8, ptr %69, i64 8
  %249 = getelementptr inbounds nuw i8, ptr %72, i64 16
  %250 = getelementptr inbounds nuw i8, ptr %72, i64 8
  %251 = getelementptr inbounds nuw i8, ptr %71, i64 8
  %252 = getelementptr inbounds nuw i8, ptr %74, i64 8
  %253 = getelementptr inbounds nuw i8, ptr %63, i64 16
  %254 = getelementptr inbounds nuw i8, ptr %63, i64 8
  %255 = getelementptr inbounds nuw i8, ptr %61, i64 16
  %256 = getelementptr inbounds nuw i8, ptr %61, i64 8
  %257 = getelementptr inbounds nuw i8, ptr %59, i64 16
  %258 = getelementptr inbounds nuw i8, ptr %59, i64 8
  br label %289

259:                                              ; preds = %1430
  %260 = trunc nuw i8 %1409 to i1
  %261 = trunc nuw i8 %1408 to i1
  %262 = xor i1 %1410, true
  br label %263

263:                                              ; preds = %259, %206
  %264 = phi i8 [ 0, %206 ], [ %1404, %259 ]
  %265 = phi i8 [ 0, %206 ], [ %1405, %259 ]
  %266 = phi i1 [ false, %206 ], [ %1406, %259 ]
  %267 = phi double [ -1.000000e+00, %206 ], [ %1407, %259 ]
  %268 = phi i1 [ false, %206 ], [ %261, %259 ]
  %269 = phi i1 [ false, %206 ], [ %260, %259 ]
  %270 = phi i1 [ true, %206 ], [ %262, %259 ]
  %271 = phi i1 [ false, %206 ], [ %1411, %259 ]
  %272 = phi i1 [ false, %206 ], [ %1412, %259 ]
  %273 = phi i1 [ true, %206 ], [ %1413, %259 ]
  %274 = phi i32 [ 1, %206 ], [ %1414, %259 ]
  %275 = phi i32 [ %208, %206 ], [ %1415, %259 ]
  %276 = phi i1 [ false, %206 ], [ %1416, %259 ]
  %277 = phi i32 [ 3, %206 ], [ %1417, %259 ]
  %278 = phi i32 [ 0, %206 ], [ %1418, %259 ]
  %279 = phi i1 [ false, %206 ], [ %1419, %259 ]
  %280 = phi i1 [ false, %206 ], [ %1420, %259 ]
  %281 = phi i8 [ 0, %206 ], [ %1421, %259 ]
  %282 = load i64, ptr %202, align 8, !tbaa !19
  %283 = icmp eq i64 %282, 0
  %284 = load i64, ptr %204, align 8
  %285 = icmp eq i64 %284, 0
  %286 = select i1 %283, i1 true, i1 %285
  br i1 %286, label %1452, label %1445

287:                                              ; preds = %180
  %288 = landingpad { ptr, i32 }
          cleanup
  br label %6336

289:                                              ; preds = %1430, %216
  %290 = phi i8 [ 0, %216 ], [ %1421, %1430 ]
  %291 = phi i1 [ false, %216 ], [ %1420, %1430 ]
  %292 = phi i1 [ false, %216 ], [ %1419, %1430 ]
  %293 = phi i32 [ 0, %216 ], [ %1418, %1430 ]
  %294 = phi i32 [ 3, %216 ], [ %1417, %1430 ]
  %295 = phi i1 [ false, %216 ], [ %1416, %1430 ]
  %296 = phi i32 [ %208, %216 ], [ %1415, %1430 ]
  %297 = phi i32 [ 1, %216 ], [ %1414, %1430 ]
  %298 = phi i1 [ true, %216 ], [ %1413, %1430 ]
  %299 = phi i1 [ false, %216 ], [ %1412, %1430 ]
  %300 = phi i1 [ false, %216 ], [ %1411, %1430 ]
  %301 = phi i1 [ false, %216 ], [ %1410, %1430 ]
  %302 = phi i8 [ 0, %216 ], [ %1409, %1430 ]
  %303 = phi i8 [ 0, %216 ], [ %1408, %1430 ]
  %304 = phi double [ -1.000000e+00, %216 ], [ %1407, %1430 ]
  %305 = phi i1 [ false, %216 ], [ %1406, %1430 ]
  %306 = phi i8 [ 0, %216 ], [ %1405, %1430 ]
  %307 = phi i8 [ 0, %216 ], [ %1404, %1430 ]
  %308 = phi i32 [ 1, %216 ], [ %1431, %1430 ]
  call void @llvm.lifetime.start.p0(ptr %54)
  %309 = sext i32 %308 to i64
  %310 = getelementptr inbounds ptr, ptr %1, i64 %309
  %311 = load ptr, ptr %310, align 8, !tbaa !5
  store ptr %217, ptr %54, align 8, !tbaa !23
  %312 = icmp eq ptr %311, null
  br i1 %312, label %313, label %315

313:                                              ; preds = %289
  invoke void @_ZSt19__throw_logic_errorPKc(ptr noundef nonnull @.str.299) #39
          to label %314 unwind label %417

314:                                              ; preds = %313
  unreachable

315:                                              ; preds = %289
  %316 = call noundef i64 @strlen(ptr noundef nonnull dereferenceable(1) %311) #38
  call void @llvm.lifetime.start.p0(ptr %38)
  store i64 %316, ptr %38, align 8, !tbaa !32
  %317 = icmp ugt i64 %316, 15
  br i1 %317, label %318, label %322

318:                                              ; preds = %315
  %319 = invoke noundef ptr @_ZNSt7__cxx1112basic_stringIcSt11char_traitsIcESaIcEE9_M_createERmm(ptr noundef nonnull align 8 dereferenceable(32) %54, ptr noundef nonnull align 8 dereferenceable(8) %38, i64 noundef 0)
          to label %320 unwind label %415

320:                                              ; preds = %318
  store ptr %319, ptr %54, align 8, !tbaa !15
  %321 = load i64, ptr %38, align 8, !tbaa !32
  store i64 %321, ptr %217, align 8, !tbaa !20
  br label %322

322:                                              ; preds = %320, %315
  %323 = phi ptr [ %319, %320 ], [ %217, %315 ]
  switch i64 %316, label %326 [
    i64 1, label %324
    i64 0, label %327
  ]

324:                                              ; preds = %322
  %325 = load i8, ptr %311, align 1, !tbaa !20
  store i8 %325, ptr %323, align 1, !tbaa !20
  br label %327

326:                                              ; preds = %322
  call void @llvm.memcpy.p0.p0.i64(ptr align 1 %323, ptr nonnull align 1 %311, i64 %316, i1 false)
  br label %327

327:                                              ; preds = %326, %324, %322
  %328 = load i64, ptr %38, align 8, !tbaa !32
  store i64 %328, ptr %218, align 8, !tbaa !19
  %329 = load ptr, ptr %54, align 8, !tbaa !15
  %330 = getelementptr inbounds nuw i8, ptr %329, i64 %328
  store i8 0, ptr %330, align 1, !tbaa !20
  call void @llvm.lifetime.end.p0(ptr %38)
  %331 = load i64, ptr %218, align 8, !tbaa !19
  %332 = icmp ult i64 %331, 9223372036854775807
  call void @llvm.assume(i1 %332)
  switch i64 %331, label %863 [
    i64 2, label %341
    i64 6, label %583
    i64 10, label %598
    i64 12, label %778
    i64 9, label %339
    i64 7, label %337
    i64 13, label %333
  ]

333:                                              ; preds = %327
  %334 = load ptr, ptr %54, align 8, !tbaa !15
  %335 = call i32 @bcmp(ptr %334, ptr nonnull @.str.75, i64 %331)
  %336 = icmp eq i32 %335, 0
  br i1 %336, label %859, label %863

337:                                              ; preds = %327
  %338 = load ptr, ptr %54, align 8, !tbaa !15
  br label %850

339:                                              ; preds = %327
  %340 = load ptr, ptr %54, align 8, !tbaa !15
  br label %795

341:                                              ; preds = %327
  %342 = load ptr, ptr %54, align 8, !tbaa !15
  %343 = call i32 @bcmp(ptr noundef nonnull dereferenceable(2) %342, ptr noundef nonnull dereferenceable(2) @.str.1, i64 2)
  %344 = icmp eq i32 %343, 0
  br i1 %344, label %345, label %688

345:                                              ; preds = %341
  %346 = add nsw i32 %308, 1
  %347 = icmp slt i32 %346, %0
  br i1 %347, label %348, label %688

348:                                              ; preds = %345
  call void @llvm.lifetime.start.p0(ptr %55)
  call void @llvm.lifetime.start.p0(ptr %56)
  %349 = sext i32 %346 to i64
  %350 = getelementptr inbounds ptr, ptr %1, i64 %349
  %351 = load ptr, ptr %350, align 8, !tbaa !5
  store ptr %225, ptr %56, align 8, !tbaa !23
  %352 = icmp eq ptr %351, null
  br i1 %352, label %353, label %355

353:                                              ; preds = %348
  invoke void @_ZSt19__throw_logic_errorPKc(ptr noundef nonnull @.str.299) #39
          to label %354 unwind label %425

354:                                              ; preds = %353
  unreachable

355:                                              ; preds = %348
  %356 = call noundef i64 @strlen(ptr noundef nonnull dereferenceable(1) %351) #38
  call void @llvm.lifetime.start.p0(ptr %37)
  store i64 %356, ptr %37, align 8, !tbaa !32
  %357 = icmp ugt i64 %356, 15
  br i1 %357, label %358, label %362

358:                                              ; preds = %355
  %359 = invoke noundef ptr @_ZNSt7__cxx1112basic_stringIcSt11char_traitsIcESaIcEE9_M_createERmm(ptr noundef nonnull align 8 dereferenceable(32) %56, ptr noundef nonnull align 8 dereferenceable(8) %37, i64 noundef 0)
          to label %360 unwind label %423

360:                                              ; preds = %358
  store ptr %359, ptr %56, align 8, !tbaa !15
  %361 = load i64, ptr %37, align 8, !tbaa !32
  store i64 %361, ptr %225, align 8, !tbaa !20
  br label %362

362:                                              ; preds = %360, %355
  %363 = phi ptr [ %359, %360 ], [ %225, %355 ]
  switch i64 %356, label %366 [
    i64 1, label %364
    i64 0, label %367
  ]

364:                                              ; preds = %362
  %365 = load i8, ptr %351, align 1, !tbaa !20
  store i8 %365, ptr %363, align 1, !tbaa !20
  br label %367

366:                                              ; preds = %362
  call void @llvm.memcpy.p0.p0.i64(ptr align 1 %363, ptr nonnull align 1 %351, i64 %356, i1 false)
  br label %367

367:                                              ; preds = %366, %364, %362
  %368 = load i64, ptr %37, align 8, !tbaa !32
  store i64 %368, ptr %226, align 8, !tbaa !19
  %369 = load ptr, ptr %56, align 8, !tbaa !15
  %370 = getelementptr inbounds nuw i8, ptr %369, i64 %368
  store i8 0, ptr %370, align 1, !tbaa !20
  call void @llvm.lifetime.end.p0(ptr %37)
  invoke void @_ZN5osgeo4proj8internal5splitERKNSt7__cxx1112basic_stringIcSt11char_traitsIcESaIcEEEc(ptr dead_on_unwind nonnull writable sret(%"class.std::vector") align 8 %55, ptr noundef nonnull align 8 dereferenceable(32) %56, i8 noundef signext 44)
          to label %371 unwind label %427

371:                                              ; preds = %367
  %372 = load ptr, ptr %56, align 8, !tbaa !15
  %373 = icmp eq ptr %372, %225
  br i1 %373, label %374, label %377

374:                                              ; preds = %371
  %375 = load i64, ptr %226, align 8, !tbaa !19
  %376 = icmp ult i64 %375, 16
  call void @llvm.assume(i1 %376)
  br label %380

377:                                              ; preds = %371
  %378 = load i64, ptr %225, align 8, !tbaa !20
  %379 = add i64 %378, 1
  call void @_ZdlPvm(ptr noundef %372, i64 noundef %379) #37
  br label %380

380:                                              ; preds = %377, %374
  call void @llvm.lifetime.end.p0(ptr %56)
  %381 = load ptr, ptr %55, align 8, !tbaa !33
  %382 = load ptr, ptr %227, align 8, !tbaa !33
  %383 = icmp eq ptr %381, %382
  br i1 %383, label %405, label %439

384:                                              ; preds = %577
  %385 = load ptr, ptr %55, align 8, !tbaa !10
  %386 = load ptr, ptr %227, align 8, !tbaa !14
  %387 = icmp eq ptr %385, %386
  br i1 %387, label %405, label %388

388:                                              ; preds = %400, %384
  %389 = phi ptr [ %401, %400 ], [ %385, %384 ]
  %390 = load ptr, ptr %389, align 8, !tbaa !15
  %391 = getelementptr inbounds nuw i8, ptr %389, i64 16
  %392 = icmp eq ptr %390, %391
  br i1 %392, label %393, label %397

393:                                              ; preds = %388
  %394 = getelementptr inbounds nuw i8, ptr %389, i64 8
  %395 = load i64, ptr %394, align 8, !tbaa !19
  %396 = icmp ult i64 %395, 16
  call void @llvm.assume(i1 %396)
  br label %400

397:                                              ; preds = %388
  %398 = load i64, ptr %391, align 8, !tbaa !20
  %399 = add i64 %398, 1
  call void @_ZdlPvm(ptr noundef %390, i64 noundef %399) #37
  br label %400

400:                                              ; preds = %397, %393
  %401 = getelementptr inbounds nuw i8, ptr %389, i64 32
  %402 = icmp eq ptr %401, %386
  br i1 %402, label %403, label %388, !llvm.loop !21

403:                                              ; preds = %400
  %404 = load ptr, ptr %55, align 8, !tbaa !10
  br label %405

405:                                              ; preds = %403, %384, %380
  %406 = phi i1 [ %578, %403 ], [ %578, %384 ], [ %305, %380 ]
  %407 = phi ptr [ %404, %403 ], [ %385, %384 ], [ %381, %380 ]
  %408 = icmp eq ptr %407, null
  br i1 %408, label %414, label %409

409:                                              ; preds = %405
  %410 = load ptr, ptr %237, align 8, !tbaa !13
  %411 = ptrtoint ptr %410 to i64
  %412 = ptrtoint ptr %407 to i64
  %413 = sub i64 %411, %412
  call void @_ZdlPvm(ptr noundef nonnull %407, i64 noundef %413) #37
  br label %414

414:                                              ; preds = %409, %405
  call void @llvm.lifetime.end.p0(ptr %55)
  br label %1402

415:                                              ; preds = %318
  %416 = landingpad { ptr, i32 }
          cleanup
  br label %1443

417:                                              ; preds = %313
  %418 = landingpad { ptr, i32 }
          cleanup
  br label %1443

419:                                              ; preds = %1401, %1294, %1194, %1148, %838, %822, %802, %786, %680, %590
  %420 = landingpad { ptr, i32 }
          cleanup
  br label %1433

421:                                              ; preds = %1399, %1394, %1392, %1386, %1379, %1377, %1375, %1372, %1370, %1368, %1366, %1364, %1362, %1358
  %422 = landingpad { ptr, i32 }
          cleanup
  br label %1433

423:                                              ; preds = %358
  %424 = landingpad { ptr, i32 }
          cleanup
  br label %437

425:                                              ; preds = %353
  %426 = landingpad { ptr, i32 }
          cleanup
  br label %437

427:                                              ; preds = %367
  %428 = landingpad { ptr, i32 }
          cleanup
  %429 = load ptr, ptr %56, align 8, !tbaa !15
  %430 = icmp eq ptr %429, %225
  br i1 %430, label %431, label %434

431:                                              ; preds = %427
  %432 = load i64, ptr %226, align 8, !tbaa !19
  %433 = icmp ult i64 %432, 16
  call void @llvm.assume(i1 %433)
  br label %437

434:                                              ; preds = %427
  %435 = load i64, ptr %225, align 8, !tbaa !20
  %436 = add i64 %435, 1
  call void @_ZdlPvm(ptr noundef %429, i64 noundef %436) #37
  br label %437

437:                                              ; preds = %434, %431, %425, %423
  %438 = phi { ptr, i32 } [ %428, %431 ], [ %428, %434 ], [ %424, %423 ], [ %426, %425 ]
  call void @llvm.lifetime.end.p0(ptr %56)
  br label %581

439:                                              ; preds = %577, %380
  %440 = phi i1 [ %578, %577 ], [ %305, %380 ]
  %441 = phi ptr [ %579, %577 ], [ %381, %380 ]
  %442 = call noundef zeroext i1 @_ZN5osgeo4proj8internal8ci_equalERKNSt7__cxx1112basic_stringIcSt11char_traitsIcESaIcEEEPKc(ptr noundef nonnull align 8 dereferenceable(32) %441, ptr noundef nonnull @.str.2) #38
  br i1 %442, label %443, label %444

443:                                              ; preds = %439
  store i8 1, ptr %236, align 1, !tbaa !34
  store i8 1, ptr %234, align 2, !tbaa !35
  store i8 1, ptr %232, align 4, !tbaa !36
  store i32 16843009, ptr %231, align 2
  br label %577

444:                                              ; preds = %439
  %445 = call noundef zeroext i1 @_ZN5osgeo4proj8internal8ci_equalERKNSt7__cxx1112basic_stringIcSt11char_traitsIcESaIcEEEPKc(ptr noundef nonnull align 8 dereferenceable(32) %441, ptr noundef nonnull @.str.3) #38
  br i1 %445, label %446, label %447

446:                                              ; preds = %444
  store i8 1, ptr %236, align 1, !tbaa !34
  store i8 1, ptr %234, align 2, !tbaa !35
  store i8 0, ptr %232, align 4, !tbaa !36
  store i8 0, ptr %231, align 2, !tbaa !37
  br label %577

447:                                              ; preds = %444
  %448 = call noundef zeroext i1 @_ZN5osgeo4proj8internal8ci_equalERKNSt7__cxx1112basic_stringIcSt11char_traitsIcESaIcEEEPKc(ptr noundef nonnull align 8 dereferenceable(32) %441, ptr noundef nonnull @.str.4) #38
  br i1 %448, label %449, label %450

449:                                              ; preds = %447
  store i8 1, ptr %236, align 1, !tbaa !34
  br label %577

450:                                              ; preds = %447
  %451 = call noundef zeroext i1 @_ZN5osgeo4proj8internal8ci_equalERKNSt7__cxx1112basic_stringIcSt11char_traitsIcESaIcEEEPKc(ptr noundef nonnull align 8 dereferenceable(32) %441, ptr noundef nonnull @.str.5) #38
  br i1 %451, label %452, label %453

452:                                              ; preds = %450
  store i8 0, ptr %236, align 1, !tbaa !34
  br label %577

453:                                              ; preds = %450
  %454 = call noundef zeroext i1 @_ZN5osgeo4proj8internal8ci_equalERKNSt7__cxx1112basic_stringIcSt11char_traitsIcESaIcEEEPKc(ptr noundef nonnull align 8 dereferenceable(32) %441, ptr noundef nonnull @.str.6) #38
  br i1 %454, label %457, label %455

455:                                              ; preds = %453
  %456 = call noundef zeroext i1 @_ZN5osgeo4proj8internal8ci_equalERKNSt7__cxx1112basic_stringIcSt11char_traitsIcESaIcEEEPKc(ptr noundef nonnull align 8 dereferenceable(32) %441, ptr noundef nonnull @.str.7) #38
  br i1 %456, label %457, label %458

457:                                              ; preds = %455, %453
  store i8 1, ptr %234, align 2, !tbaa !35
  store i8 1, ptr %232, align 4, !tbaa !36
  store i8 1, ptr %231, align 2, !tbaa !37
  br label %577

458:                                              ; preds = %455
  %459 = call noundef zeroext i1 @_ZN5osgeo4proj8internal8ci_equalERKNSt7__cxx1112basic_stringIcSt11char_traitsIcESaIcEEEPKc(ptr noundef nonnull align 8 dereferenceable(32) %441, ptr noundef nonnull @.str.8) #38
  br i1 %459, label %462, label %460

460:                                              ; preds = %458
  %461 = call noundef zeroext i1 @_ZN5osgeo4proj8internal8ci_equalERKNSt7__cxx1112basic_stringIcSt11char_traitsIcESaIcEEEPKc(ptr noundef nonnull align 8 dereferenceable(32) %441, ptr noundef nonnull @.str.9) #38
  br i1 %461, label %462, label %463

462:                                              ; preds = %460, %458
  store i8 0, ptr %234, align 2, !tbaa !35
  store i8 0, ptr %232, align 4, !tbaa !36
  store i8 0, ptr %231, align 2, !tbaa !37
  br label %577

463:                                              ; preds = %460
  %464 = call noundef zeroext i1 @_ZN5osgeo4proj8internal8ci_equalERKNSt7__cxx1112basic_stringIcSt11char_traitsIcESaIcEEEPKc(ptr noundef nonnull align 8 dereferenceable(32) %441, ptr noundef nonnull @.str.10) #38
  br i1 %464, label %475, label %465

465:                                              ; preds = %463
  %466 = call noundef zeroext i1 @_ZN5osgeo4proj8internal8ci_equalERKNSt7__cxx1112basic_stringIcSt11char_traitsIcESaIcEEEPKc(ptr noundef nonnull align 8 dereferenceable(32) %441, ptr noundef nonnull @.str.11) #38
  br i1 %466, label %475, label %467

467:                                              ; preds = %465
  %468 = call noundef zeroext i1 @_ZN5osgeo4proj8internal8ci_equalERKNSt7__cxx1112basic_stringIcSt11char_traitsIcESaIcEEEPKc(ptr noundef nonnull align 8 dereferenceable(32) %441, ptr noundef nonnull @.str.12) #38
  br i1 %468, label %475, label %469

469:                                              ; preds = %467
  %470 = call noundef zeroext i1 @_ZN5osgeo4proj8internal8ci_equalERKNSt7__cxx1112basic_stringIcSt11char_traitsIcESaIcEEEPKc(ptr noundef nonnull align 8 dereferenceable(32) %441, ptr noundef nonnull @.str.13) #38
  br i1 %470, label %475, label %471

471:                                              ; preds = %469
  %472 = call noundef zeroext i1 @_ZN5osgeo4proj8internal8ci_equalERKNSt7__cxx1112basic_stringIcSt11char_traitsIcESaIcEEEPKc(ptr noundef nonnull align 8 dereferenceable(32) %441, ptr noundef nonnull @.str.14) #38
  br i1 %472, label %475, label %473

473:                                              ; preds = %471
  %474 = call noundef zeroext i1 @_ZN5osgeo4proj8internal8ci_equalERKNSt7__cxx1112basic_stringIcSt11char_traitsIcESaIcEEEPKc(ptr noundef nonnull align 8 dereferenceable(32) %441, ptr noundef nonnull @.str.15) #38
  br i1 %474, label %475, label %476

475:                                              ; preds = %473, %471, %469, %467, %465, %463
  store i8 1, ptr %234, align 2, !tbaa !35
  br label %577

476:                                              ; preds = %473
  %477 = call noundef zeroext i1 @_ZN5osgeo4proj8internal8ci_equalERKNSt7__cxx1112basic_stringIcSt11char_traitsIcESaIcEEEPKc(ptr noundef nonnull align 8 dereferenceable(32) %441, ptr noundef nonnull @.str.16) #38
  br i1 %477, label %488, label %478

478:                                              ; preds = %476
  %479 = call noundef zeroext i1 @_ZN5osgeo4proj8internal8ci_equalERKNSt7__cxx1112basic_stringIcSt11char_traitsIcESaIcEEEPKc(ptr noundef nonnull align 8 dereferenceable(32) %441, ptr noundef nonnull @.str.17) #38
  br i1 %479, label %488, label %480

480:                                              ; preds = %478
  %481 = call noundef zeroext i1 @_ZN5osgeo4proj8internal8ci_equalERKNSt7__cxx1112basic_stringIcSt11char_traitsIcESaIcEEEPKc(ptr noundef nonnull align 8 dereferenceable(32) %441, ptr noundef nonnull @.str.18) #38
  br i1 %481, label %488, label %482

482:                                              ; preds = %480
  %483 = call noundef zeroext i1 @_ZN5osgeo4proj8internal8ci_equalERKNSt7__cxx1112basic_stringIcSt11char_traitsIcESaIcEEEPKc(ptr noundef nonnull align 8 dereferenceable(32) %441, ptr noundef nonnull @.str.19) #38
  br i1 %483, label %488, label %484

484:                                              ; preds = %482
  %485 = call noundef zeroext i1 @_ZN5osgeo4proj8internal8ci_equalERKNSt7__cxx1112basic_stringIcSt11char_traitsIcESaIcEEEPKc(ptr noundef nonnull align 8 dereferenceable(32) %441, ptr noundef nonnull @.str.20) #38
  br i1 %485, label %488, label %486

486:                                              ; preds = %484
  %487 = call noundef zeroext i1 @_ZN5osgeo4proj8internal8ci_equalERKNSt7__cxx1112basic_stringIcSt11char_traitsIcESaIcEEEPKc(ptr noundef nonnull align 8 dereferenceable(32) %441, ptr noundef nonnull @.str.21) #38
  br i1 %487, label %488, label %489

488:                                              ; preds = %486, %484, %482, %480, %478, %476
  store i8 1, ptr %235, align 1, !tbaa !38
  br label %577

489:                                              ; preds = %486
  %490 = call noundef zeroext i1 @_ZN5osgeo4proj8internal8ci_equalERKNSt7__cxx1112basic_stringIcSt11char_traitsIcESaIcEEEPKc(ptr noundef nonnull align 8 dereferenceable(32) %441, ptr noundef nonnull @.str.22) #38
  br i1 %490, label %501, label %491

491:                                              ; preds = %489
  %492 = call noundef zeroext i1 @_ZN5osgeo4proj8internal8ci_equalERKNSt7__cxx1112basic_stringIcSt11char_traitsIcESaIcEEEPKc(ptr noundef nonnull align 8 dereferenceable(32) %441, ptr noundef nonnull @.str.23) #38
  br i1 %492, label %501, label %493

493:                                              ; preds = %491
  %494 = call noundef zeroext i1 @_ZN5osgeo4proj8internal8ci_equalERKNSt7__cxx1112basic_stringIcSt11char_traitsIcESaIcEEEPKc(ptr noundef nonnull align 8 dereferenceable(32) %441, ptr noundef nonnull @.str.24) #38
  br i1 %494, label %501, label %495

495:                                              ; preds = %493
  %496 = call noundef zeroext i1 @_ZN5osgeo4proj8internal8ci_equalERKNSt7__cxx1112basic_stringIcSt11char_traitsIcESaIcEEEPKc(ptr noundef nonnull align 8 dereferenceable(32) %441, ptr noundef nonnull @.str.25) #38
  br i1 %496, label %501, label %497

497:                                              ; preds = %495
  %498 = call noundef zeroext i1 @_ZN5osgeo4proj8internal8ci_equalERKNSt7__cxx1112basic_stringIcSt11char_traitsIcESaIcEEEPKc(ptr noundef nonnull align 8 dereferenceable(32) %441, ptr noundef nonnull @.str.26) #38
  br i1 %498, label %501, label %499

499:                                              ; preds = %497
  %500 = call noundef zeroext i1 @_ZN5osgeo4proj8internal8ci_equalERKNSt7__cxx1112basic_stringIcSt11char_traitsIcESaIcEEEPKc(ptr noundef nonnull align 8 dereferenceable(32) %441, ptr noundef nonnull @.str.27) #38
  br i1 %500, label %501, label %502

501:                                              ; preds = %499, %497, %495, %493, %491, %489
  store i8 0, ptr %234, align 2, !tbaa !35
  br label %577

502:                                              ; preds = %499
  %503 = call noundef zeroext i1 @_ZN5osgeo4proj8internal8ci_equalERKNSt7__cxx1112basic_stringIcSt11char_traitsIcESaIcEEEPKc(ptr noundef nonnull align 8 dereferenceable(32) %441, ptr noundef nonnull @.str.28) #38
  br i1 %503, label %508, label %504

504:                                              ; preds = %502
  %505 = call noundef zeroext i1 @_ZN5osgeo4proj8internal8ci_equalERKNSt7__cxx1112basic_stringIcSt11char_traitsIcESaIcEEEPKc(ptr noundef nonnull align 8 dereferenceable(32) %441, ptr noundef nonnull @.str.29) #38
  br i1 %505, label %508, label %506

506:                                              ; preds = %504
  %507 = call noundef zeroext i1 @_ZN5osgeo4proj8internal8ci_equalERKNSt7__cxx1112basic_stringIcSt11char_traitsIcESaIcEEEPKc(ptr noundef nonnull align 8 dereferenceable(32) %441, ptr noundef nonnull @.str.30) #38
  br i1 %507, label %508, label %509

508:                                              ; preds = %506, %504, %502
  store i8 1, ptr %232, align 4, !tbaa !36
  br label %577

509:                                              ; preds = %506
  %510 = call noundef zeroext i1 @_ZN5osgeo4proj8internal8ci_equalERKNSt7__cxx1112basic_stringIcSt11char_traitsIcESaIcEEEPKc(ptr noundef nonnull align 8 dereferenceable(32) %441, ptr noundef nonnull @.str.31) #38
  br i1 %510, label %515, label %511

511:                                              ; preds = %509
  %512 = call noundef zeroext i1 @_ZN5osgeo4proj8internal8ci_equalERKNSt7__cxx1112basic_stringIcSt11char_traitsIcESaIcEEEPKc(ptr noundef nonnull align 8 dereferenceable(32) %441, ptr noundef nonnull @.str.32) #38
  br i1 %512, label %515, label %513

513:                                              ; preds = %511
  %514 = call noundef zeroext i1 @_ZN5osgeo4proj8internal8ci_equalERKNSt7__cxx1112basic_stringIcSt11char_traitsIcESaIcEEEPKc(ptr noundef nonnull align 8 dereferenceable(32) %441, ptr noundef nonnull @.str.33) #38
  br i1 %514, label %515, label %516

515:                                              ; preds = %513, %511, %509
  store i8 1, ptr %233, align 1, !tbaa !39
  br label %577

516:                                              ; preds = %513
  %517 = call noundef zeroext i1 @_ZN5osgeo4proj8internal8ci_equalERKNSt7__cxx1112basic_stringIcSt11char_traitsIcESaIcEEEPKc(ptr noundef nonnull align 8 dereferenceable(32) %441, ptr noundef nonnull @.str.34) #38
  br i1 %517, label %522, label %518

518:                                              ; preds = %516
  %519 = call noundef zeroext i1 @_ZN5osgeo4proj8internal8ci_equalERKNSt7__cxx1112basic_stringIcSt11char_traitsIcESaIcEEEPKc(ptr noundef nonnull align 8 dereferenceable(32) %441, ptr noundef nonnull @.str.35) #38
  br i1 %519, label %522, label %520

520:                                              ; preds = %518
  %521 = call noundef zeroext i1 @_ZN5osgeo4proj8internal8ci_equalERKNSt7__cxx1112basic_stringIcSt11char_traitsIcESaIcEEEPKc(ptr noundef nonnull align 8 dereferenceable(32) %441, ptr noundef nonnull @.str.36) #38
  br i1 %521, label %522, label %523

522:                                              ; preds = %520, %518, %516
  store i8 0, ptr %232, align 4, !tbaa !36
  br label %577

523:                                              ; preds = %520
  %524 = call noundef zeroext i1 @_ZN5osgeo4proj8internal8ci_equalERKNSt7__cxx1112basic_stringIcSt11char_traitsIcESaIcEEEPKc(ptr noundef nonnull align 8 dereferenceable(32) %441, ptr noundef nonnull @.str.37) #38
  br i1 %524, label %529, label %525

525:                                              ; preds = %523
  %526 = call noundef zeroext i1 @_ZN5osgeo4proj8internal8ci_equalERKNSt7__cxx1112basic_stringIcSt11char_traitsIcESaIcEEEPKc(ptr noundef nonnull align 8 dereferenceable(32) %441, ptr noundef nonnull @.str.38) #38
  br i1 %526, label %529, label %527

527:                                              ; preds = %525
  %528 = call noundef zeroext i1 @_ZN5osgeo4proj8internal8ci_equalERKNSt7__cxx1112basic_stringIcSt11char_traitsIcESaIcEEEPKc(ptr noundef nonnull align 8 dereferenceable(32) %441, ptr noundef nonnull @.str.39) #38
  br i1 %528, label %529, label %530

529:                                              ; preds = %527, %525, %523
  store i8 1, ptr %231, align 2, !tbaa !37
  br label %577

530:                                              ; preds = %527
  %531 = call noundef zeroext i1 @_ZN5osgeo4proj8internal8ci_equalERKNSt7__cxx1112basic_stringIcSt11char_traitsIcESaIcEEEPKc(ptr noundef nonnull align 8 dereferenceable(32) %441, ptr noundef nonnull @.str.40) #38
  br i1 %531, label %536, label %532

532:                                              ; preds = %530
  %533 = call noundef zeroext i1 @_ZN5osgeo4proj8internal8ci_equalERKNSt7__cxx1112basic_stringIcSt11char_traitsIcESaIcEEEPKc(ptr noundef nonnull align 8 dereferenceable(32) %441, ptr noundef nonnull @.str.41) #38
  br i1 %533, label %536, label %534

534:                                              ; preds = %532
  %535 = call noundef zeroext i1 @_ZN5osgeo4proj8internal8ci_equalERKNSt7__cxx1112basic_stringIcSt11char_traitsIcESaIcEEEPKc(ptr noundef nonnull align 8 dereferenceable(32) %441, ptr noundef nonnull @.str.42) #38
  br i1 %535, label %536, label %537

536:                                              ; preds = %534, %532, %530
  store i8 0, ptr %231, align 2, !tbaa !37
  br label %577

537:                                              ; preds = %534
  %538 = call noundef zeroext i1 @_ZN5osgeo4proj8internal8ci_equalERKNSt7__cxx1112basic_stringIcSt11char_traitsIcESaIcEEEPKc(ptr noundef nonnull align 8 dereferenceable(32) %441, ptr noundef nonnull @.str.43) #38
  br i1 %538, label %543, label %539

539:                                              ; preds = %537
  %540 = call noundef zeroext i1 @_ZN5osgeo4proj8internal8ci_equalERKNSt7__cxx1112basic_stringIcSt11char_traitsIcESaIcEEEPKc(ptr noundef nonnull align 8 dereferenceable(32) %441, ptr noundef nonnull @.str.44) #38
  br i1 %540, label %543, label %541

541:                                              ; preds = %539
  %542 = call noundef zeroext i1 @_ZN5osgeo4proj8internal8ci_equalERKNSt7__cxx1112basic_stringIcSt11char_traitsIcESaIcEEEPKc(ptr noundef nonnull align 8 dereferenceable(32) %441, ptr noundef nonnull @.str.45) #38
  br i1 %542, label %543, label %544

543:                                              ; preds = %541, %539, %537
  store i8 1, ptr %230, align 1, !tbaa !40
  br label %577

544:                                              ; preds = %541
  %545 = call noundef zeroext i1 @_ZN5osgeo4proj8internal8ci_equalERKNSt7__cxx1112basic_stringIcSt11char_traitsIcESaIcEEEPKc(ptr noundef nonnull align 8 dereferenceable(32) %441, ptr noundef nonnull @.str.46) #38
  br i1 %545, label %550, label %546

546:                                              ; preds = %544
  %547 = call noundef zeroext i1 @_ZN5osgeo4proj8internal8ci_equalERKNSt7__cxx1112basic_stringIcSt11char_traitsIcESaIcEEEPKc(ptr noundef nonnull align 8 dereferenceable(32) %441, ptr noundef nonnull @.str.47) #38
  br i1 %547, label %550, label %548

548:                                              ; preds = %546
  %549 = call noundef zeroext i1 @_ZN5osgeo4proj8internal8ci_equalERKNSt7__cxx1112basic_stringIcSt11char_traitsIcESaIcEEEPKc(ptr noundef nonnull align 8 dereferenceable(32) %441, ptr noundef nonnull @.str.48) #38
  br i1 %549, label %550, label %551

550:                                              ; preds = %548, %546, %544
  store i8 0, ptr %230, align 1, !tbaa !40
  br label %577

551:                                              ; preds = %548
  %552 = call noundef zeroext i1 @_ZN5osgeo4proj8internal8ci_equalERKNSt7__cxx1112basic_stringIcSt11char_traitsIcESaIcEEEPKc(ptr noundef nonnull align 8 dereferenceable(32) %441, ptr noundef nonnull @.str.49) #38
  br i1 %552, label %553, label %554

553:                                              ; preds = %551
  store i8 1, ptr %229, align 8, !tbaa !41
  br label %577

554:                                              ; preds = %551
  %555 = call noundef zeroext i1 @_ZN5osgeo4proj8internal8ci_equalERKNSt7__cxx1112basic_stringIcSt11char_traitsIcESaIcEEEPKc(ptr noundef nonnull align 8 dereferenceable(32) %441, ptr noundef nonnull @.str.50) #38
  br i1 %555, label %556, label %557

556:                                              ; preds = %554
  store i8 0, ptr %229, align 8, !tbaa !41
  br label %577

557:                                              ; preds = %554
  %558 = call noundef zeroext i1 @_ZN5osgeo4proj8internal8ci_equalERKNSt7__cxx1112basic_stringIcSt11char_traitsIcESaIcEEEPKc(ptr noundef nonnull align 8 dereferenceable(32) %441, ptr noundef nonnull @.str.51) #38
  br i1 %558, label %559, label %560

559:                                              ; preds = %557
  store i8 1, ptr %228, align 1, !tbaa !42
  br label %577

560:                                              ; preds = %557
  %561 = call noundef zeroext i1 @_ZN5osgeo4proj8internal8ci_equalERKNSt7__cxx1112basic_stringIcSt11char_traitsIcESaIcEEEPKc(ptr noundef nonnull align 8 dereferenceable(32) %441, ptr noundef nonnull @.str.52) #38
  br i1 %561, label %562, label %563

562:                                              ; preds = %560
  store i8 0, ptr %228, align 1, !tbaa !42
  br label %577

563:                                              ; preds = %560
  %564 = invoke noundef nonnull align 8 dereferenceable(8) ptr @_ZSt16__ostream_insertIcSt11char_traitsIcEERSt13basic_ostreamIT_T0_ES6_PKS3_l(ptr noundef nonnull align 8 dereferenceable(8) @_ZSt4cerr, ptr noundef nonnull @.str.53, i64 noundef 34)
          to label %565 unwind label %575

565:                                              ; preds = %563
  %566 = load ptr, ptr %441, align 8, !tbaa !15
  %567 = getelementptr inbounds nuw i8, ptr %441, i64 8
  %568 = load i64, ptr %567, align 8, !tbaa !19
  %569 = icmp ult i64 %568, 9223372036854775807
  call void @llvm.assume(i1 %569)
  %570 = invoke noundef nonnull align 8 dereferenceable(8) ptr @_ZSt16__ostream_insertIcSt11char_traitsIcEERSt13basic_ostreamIT_T0_ES6_PKS3_l(ptr noundef nonnull align 8 dereferenceable(8) @_ZSt4cerr, ptr noundef %566, i64 noundef %568)
          to label %571 unwind label %575

571:                                              ; preds = %565
  %572 = invoke noundef nonnull align 8 dereferenceable(8) ptr @_ZSt4endlIcSt11char_traitsIcEERSt13basic_ostreamIT_T0_ES6_(ptr noundef nonnull align 8 dereferenceable(8) %570)
          to label %573 unwind label %575

573:                                              ; preds = %571
  invoke fastcc void @_ZL5usagev() #34
          to label %574 unwind label %575

574:                                              ; preds = %573
  unreachable

575:                                              ; preds = %573, %571, %565, %563
  %576 = landingpad { ptr, i32 }
          cleanup
  call void @_ZNSt6vectorINSt7__cxx1112basic_stringIcSt11char_traitsIcESaIcEEESaIS5_EED2Ev(ptr noundef nonnull align 8 dereferenceable(24) %55) #38
  br label %581

577:                                              ; preds = %562, %559, %556, %553, %550, %543, %536, %529, %522, %515, %508, %501, %488, %475, %462, %457, %452, %449, %446, %443
  %578 = phi i1 [ true, %443 ], [ %440, %446 ], [ %440, %449 ], [ %440, %452 ], [ %440, %457 ], [ %440, %462 ], [ %440, %475 ], [ %440, %488 ], [ %440, %501 ], [ %440, %508 ], [ %440, %515 ], [ %440, %522 ], [ %440, %529 ], [ %440, %536 ], [ %440, %543 ], [ %440, %550 ], [ %440, %553 ], [ %440, %556 ], [ %440, %559 ], [ %440, %562 ]
  %579 = getelementptr inbounds nuw i8, ptr %441, i64 32
  %580 = icmp eq ptr %579, %382
  br i1 %580, label %384, label %439

581:                                              ; preds = %575, %437
  %582 = phi { ptr, i32 } [ %576, %575 ], [ %438, %437 ]
  call void @llvm.lifetime.end.p0(ptr %55)
  br label %1433

583:                                              ; preds = %327
  %584 = load ptr, ptr %54, align 8, !tbaa !15
  %585 = call i32 @bcmp(ptr %584, ptr nonnull @.str.54, i64 %331)
  %586 = icmp eq i32 %585, 0
  br i1 %586, label %587, label %674

587:                                              ; preds = %583
  %588 = add nsw i32 %308, 1
  %589 = icmp slt i32 %588, %0
  br i1 %589, label %590, label %674

590:                                              ; preds = %587
  %591 = sext i32 %588 to i64
  %592 = getelementptr inbounds ptr, ptr %1, i64 %591
  %593 = load ptr, ptr %592, align 8, !tbaa !5
  %594 = load i64, ptr %202, align 8, !tbaa !19
  %595 = icmp ult i64 %594, 9223372036854775807
  call void @llvm.assume(i1 %595)
  %596 = call noundef i64 @strlen(ptr noundef nonnull dereferenceable(1) %593) #38
  %597 = invoke noundef nonnull align 8 dereferenceable(32) ptr @_ZNSt7__cxx1112basic_stringIcSt11char_traitsIcESaIcEE10_M_replaceEmmPKcm(ptr noundef nonnull align 8 dereferenceable(32) %47, i64 noundef 0, i64 noundef %594, ptr noundef nonnull %593, i64 noundef %596)
          to label %1402 unwind label %419

598:                                              ; preds = %327
  %599 = load ptr, ptr %54, align 8, !tbaa !15
  %600 = call i32 @bcmp(ptr %599, ptr nonnull @.str.55, i64 %331)
  %601 = icmp eq i32 %600, 0
  br i1 %601, label %602, label %863

602:                                              ; preds = %598
  %603 = add nsw i32 %308, 1
  %604 = icmp slt i32 %603, %0
  br i1 %604, label %605, label %863

605:                                              ; preds = %602
  call void @llvm.lifetime.start.p0(ptr %57)
  %606 = sext i32 %603 to i64
  %607 = getelementptr inbounds ptr, ptr %1, i64 %606
  %608 = load ptr, ptr %607, align 8, !tbaa !5
  store ptr %223, ptr %57, align 8, !tbaa !23
  %609 = icmp eq ptr %608, null
  br i1 %609, label %610, label %612

610:                                              ; preds = %605
  invoke void @_ZSt19__throw_logic_errorPKc(ptr noundef nonnull @.str.299) #39
          to label %611 unwind label %641

611:                                              ; preds = %610
  unreachable

612:                                              ; preds = %605
  %613 = call noundef i64 @strlen(ptr noundef nonnull dereferenceable(1) %608) #38
  call void @llvm.lifetime.start.p0(ptr %36)
  store i64 %613, ptr %36, align 8, !tbaa !32
  %614 = icmp ugt i64 %613, 15
  br i1 %614, label %615, label %619

615:                                              ; preds = %612
  %616 = invoke noundef ptr @_ZNSt7__cxx1112basic_stringIcSt11char_traitsIcESaIcEE9_M_createERmm(ptr noundef nonnull align 8 dereferenceable(32) %57, ptr noundef nonnull align 8 dereferenceable(8) %36, i64 noundef 0)
          to label %617 unwind label %639

617:                                              ; preds = %615
  store ptr %616, ptr %57, align 8, !tbaa !15
  %618 = load i64, ptr %36, align 8, !tbaa !32
  store i64 %618, ptr %223, align 8, !tbaa !20
  br label %619

619:                                              ; preds = %617, %612
  %620 = phi ptr [ %616, %617 ], [ %223, %612 ]
  switch i64 %613, label %623 [
    i64 1, label %621
    i64 0, label %624
  ]

621:                                              ; preds = %619
  %622 = load i8, ptr %608, align 1, !tbaa !20
  store i8 %622, ptr %620, align 1, !tbaa !20
  br label %624

623:                                              ; preds = %619
  call void @llvm.memcpy.p0.p0.i64(ptr align 1 %620, ptr nonnull align 1 %608, i64 %613, i1 false)
  br label %624

624:                                              ; preds = %623, %621, %619
  %625 = load i64, ptr %36, align 8, !tbaa !32
  store i64 %625, ptr %224, align 8, !tbaa !19
  %626 = load ptr, ptr %57, align 8, !tbaa !15
  %627 = getelementptr inbounds nuw i8, ptr %626, i64 %625
  store i8 0, ptr %627, align 1, !tbaa !20
  call void @llvm.lifetime.end.p0(ptr %36)
  %628 = invoke noundef double @_ZN5osgeo4proj8internal13c_locale_stodERKNSt7__cxx1112basic_stringIcSt11char_traitsIcESaIcEEE(ptr noundef nonnull align 8 dereferenceable(32) %57)
          to label %629 unwind label %643

629:                                              ; preds = %624
  %630 = load ptr, ptr %57, align 8, !tbaa !15
  %631 = icmp eq ptr %630, %223
  br i1 %631, label %632, label %635

632:                                              ; preds = %629
  %633 = load i64, ptr %224, align 8, !tbaa !19
  %634 = icmp ult i64 %633, 16
  call void @llvm.assume(i1 %634)
  br label %638

635:                                              ; preds = %629
  %636 = load i64, ptr %223, align 8, !tbaa !20
  %637 = add i64 %636, 1
  call void @_ZdlPvm(ptr noundef %630, i64 noundef %637) #37
  br label %638

638:                                              ; preds = %635, %632
  call void @llvm.lifetime.end.p0(ptr %57)
  br label %1402

639:                                              ; preds = %615
  %640 = landingpad { ptr, i32 }
          cleanup
          catch ptr @_ZTISt9exception
  br label %653

641:                                              ; preds = %610
  %642 = landingpad { ptr, i32 }
          cleanup
          catch ptr @_ZTISt9exception
  br label %653

643:                                              ; preds = %624
  %644 = landingpad { ptr, i32 }
          cleanup
          catch ptr @_ZTISt9exception
  %645 = load ptr, ptr %57, align 8, !tbaa !15
  %646 = icmp eq ptr %645, %223
  br i1 %646, label %647, label %650

647:                                              ; preds = %643
  %648 = load i64, ptr %224, align 8, !tbaa !19
  %649 = icmp ult i64 %648, 16
  call void @llvm.assume(i1 %649)
  br label %653

650:                                              ; preds = %643
  %651 = load i64, ptr %223, align 8, !tbaa !20
  %652 = add i64 %651, 1
  call void @_ZdlPvm(ptr noundef %645, i64 noundef %652) #37
  br label %653

653:                                              ; preds = %650, %647, %641, %639
  %654 = phi { ptr, i32 } [ %644, %647 ], [ %644, %650 ], [ %640, %639 ], [ %642, %641 ]
  %655 = extractvalue { ptr, i32 } %654, 1
  call void @llvm.lifetime.end.p0(ptr %57)
  %656 = call i32 @llvm.eh.typeid.for.p0(ptr nonnull @_ZTISt9exception) #38
  %657 = icmp eq i32 %655, %656
  br i1 %657, label %658, label %1433

658:                                              ; preds = %653
  %659 = extractvalue { ptr, i32 } %654, 0
  %660 = call ptr @__cxa_begin_catch(ptr %659) #38
  %661 = invoke noundef nonnull align 8 dereferenceable(8) ptr @_ZSt16__ostream_insertIcSt11char_traitsIcEERSt13basic_ostreamIT_T0_ES6_PKS3_l(ptr noundef nonnull align 8 dereferenceable(8) @_ZSt4cerr, ptr noundef nonnull @.str.56, i64 noundef 37)
          to label %662 unwind label %672

662:                                              ; preds = %658
  %663 = load ptr, ptr %660, align 8, !tbaa !43
  %664 = getelementptr inbounds nuw i8, ptr %663, i64 16
  %665 = load ptr, ptr %664, align 8
  %666 = call noundef ptr %665(ptr noundef nonnull align 8 dereferenceable(8) %660) #38
  %667 = invoke noundef nonnull align 8 dereferenceable(8) ptr @_ZStlsISt11char_traitsIcEERSt13basic_ostreamIcT_ES5_PKc(ptr noundef nonnull align 8 dereferenceable(8) @_ZSt4cerr, ptr noundef %666)
          to label %668 unwind label %672

668:                                              ; preds = %662
  %669 = invoke noundef nonnull align 8 dereferenceable(8) ptr @_ZSt4endlIcSt11char_traitsIcEERSt13basic_ostreamIT_T0_ES6_(ptr noundef nonnull align 8 dereferenceable(8) %667)
          to label %670 unwind label %672

670:                                              ; preds = %668
  invoke fastcc void @_ZL5usagev() #34
          to label %671 unwind label %672

671:                                              ; preds = %670
  unreachable

672:                                              ; preds = %670, %668, %662, %658
  %673 = landingpad { ptr, i32 }
          cleanup
  invoke void @__cxa_end_catch()
          to label %1433 unwind label %6484

674:                                              ; preds = %587, %583
  %675 = call i32 @bcmp(ptr %584, ptr nonnull @.str.57, i64 %331)
  %676 = icmp eq i32 %675, 0
  br i1 %676, label %677, label %863

677:                                              ; preds = %674
  %678 = add nsw i32 %308, 1
  %679 = icmp slt i32 %678, %0
  br i1 %679, label %680, label %863

680:                                              ; preds = %677
  %681 = sext i32 %678 to i64
  %682 = getelementptr inbounds ptr, ptr %1, i64 %681
  %683 = load ptr, ptr %682, align 8, !tbaa !5
  %684 = load i64, ptr %204, align 8, !tbaa !19
  %685 = icmp ult i64 %684, 9223372036854775807
  call void @llvm.assume(i1 %685)
  %686 = call noundef i64 @strlen(ptr noundef nonnull dereferenceable(1) %683) #38
  %687 = invoke noundef nonnull align 8 dereferenceable(32) ptr @_ZNSt7__cxx1112basic_stringIcSt11char_traitsIcESaIcEE10_M_replaceEmmPKcm(ptr noundef nonnull align 8 dereferenceable(32) %48, i64 noundef 0, i64 noundef %684, ptr noundef nonnull %683, i64 noundef %686)
          to label %1402 unwind label %419

688:                                              ; preds = %345, %341
  %689 = call i32 @bcmp(ptr nonnull %342, ptr nonnull @.str.58, i64 %331)
  %690 = icmp eq i32 %689, 0
  br i1 %690, label %691, label %775

691:                                              ; preds = %688
  %692 = add nsw i32 %308, 1
  %693 = icmp slt i32 %692, %0
  br i1 %693, label %694, label %775

694:                                              ; preds = %691
  call void @llvm.lifetime.start.p0(ptr %58)
  %695 = sext i32 %692 to i64
  %696 = getelementptr inbounds ptr, ptr %1, i64 %695
  %697 = load ptr, ptr %696, align 8, !tbaa !5
  store ptr %221, ptr %58, align 8, !tbaa !23
  %698 = icmp eq ptr %697, null
  br i1 %698, label %699, label %701

699:                                              ; preds = %694
  invoke void @_ZSt19__throw_logic_errorPKc(ptr noundef nonnull @.str.299) #39
          to label %700 unwind label %728

700:                                              ; preds = %699
  unreachable

701:                                              ; preds = %694
  %702 = call noundef i64 @strlen(ptr noundef nonnull dereferenceable(1) %697) #38
  call void @llvm.lifetime.start.p0(ptr %35)
  store i64 %702, ptr %35, align 8, !tbaa !32
  %703 = icmp ugt i64 %702, 15
  br i1 %703, label %704, label %708

704:                                              ; preds = %701
  %705 = invoke noundef ptr @_ZNSt7__cxx1112basic_stringIcSt11char_traitsIcESaIcEE9_M_createERmm(ptr noundef nonnull align 8 dereferenceable(32) %58, ptr noundef nonnull align 8 dereferenceable(8) %35, i64 noundef 0)
          to label %706 unwind label %726

706:                                              ; preds = %704
  store ptr %705, ptr %58, align 8, !tbaa !15
  %707 = load i64, ptr %35, align 8, !tbaa !32
  store i64 %707, ptr %221, align 8, !tbaa !20
  br label %708

708:                                              ; preds = %706, %701
  %709 = phi ptr [ %705, %706 ], [ %221, %701 ]
  switch i64 %702, label %712 [
    i64 1, label %710
    i64 0, label %713
  ]

710:                                              ; preds = %708
  %711 = load i8, ptr %697, align 1, !tbaa !20
  store i8 %711, ptr %709, align 1, !tbaa !20
  br label %713

712:                                              ; preds = %708
  call void @llvm.memcpy.p0.p0.i64(ptr align 1 %709, ptr nonnull align 1 %697, i64 %702, i1 false)
  br label %713

713:                                              ; preds = %712, %710, %708
  %714 = load i64, ptr %35, align 8, !tbaa !32
  store i64 %714, ptr %222, align 8, !tbaa !19
  %715 = load ptr, ptr %58, align 8, !tbaa !15
  %716 = getelementptr inbounds nuw i8, ptr %715, i64 %714
  store i8 0, ptr %716, align 1, !tbaa !20
  call void @llvm.lifetime.end.p0(ptr %35)
  %717 = call noundef zeroext i1 @_ZN5osgeo4proj8internal8ci_equalERKNSt7__cxx1112basic_stringIcSt11char_traitsIcESaIcEEEPKc(ptr noundef nonnull align 8 dereferenceable(32) %58, ptr noundef nonnull @.str.59) #38
  br i1 %717, label %720, label %718

718:                                              ; preds = %713
  %719 = call noundef zeroext i1 @_ZN5osgeo4proj8internal8ci_equalERKNSt7__cxx1112basic_stringIcSt11char_traitsIcESaIcEEEPKc(ptr noundef nonnull align 8 dereferenceable(32) %58, ptr noundef nonnull @.str.60) #38
  br i1 %719, label %720, label %744

720:                                              ; preds = %750, %748, %746, %744, %718, %713
  %721 = phi ptr [ @.str.61, %744 ], [ @.str.62, %746 ], [ @.str.63, %748 ], [ @.str.64, %750 ], [ @.str.59, %718 ], [ @.str.59, %713 ]
  %722 = phi i64 [ 9, %744 ], [ 9, %746 ], [ 5, %748 ], [ 8, %750 ], [ 3, %718 ], [ 3, %713 ]
  %723 = load i64, ptr %200, align 8, !tbaa !19
  %724 = icmp ult i64 %723, 9223372036854775807
  call void @llvm.assume(i1 %724)
  %725 = invoke noundef nonnull align 8 dereferenceable(32) ptr @_ZNSt7__cxx1112basic_stringIcSt11char_traitsIcESaIcEE10_M_replaceEmmPKcm(ptr noundef nonnull align 8 dereferenceable(32) %46, i64 noundef 0, i64 noundef %723, ptr noundef nonnull %721, i64 noundef %722)
          to label %763 unwind label %730

726:                                              ; preds = %704
  %727 = landingpad { ptr, i32 }
          cleanup
  br label %773

728:                                              ; preds = %699
  %729 = landingpad { ptr, i32 }
          cleanup
  br label %773

730:                                              ; preds = %720
  %731 = landingpad { ptr, i32 }
          cleanup
  br label %734

732:                                              ; preds = %761, %759, %754, %752
  %733 = landingpad { ptr, i32 }
          cleanup
  br label %734

734:                                              ; preds = %732, %730
  %735 = phi { ptr, i32 } [ %731, %730 ], [ %733, %732 ]
  %736 = load ptr, ptr %58, align 8, !tbaa !15
  %737 = icmp eq ptr %736, %221
  br i1 %737, label %738, label %741

738:                                              ; preds = %734
  %739 = load i64, ptr %222, align 8, !tbaa !19
  %740 = icmp ult i64 %739, 16
  call void @llvm.assume(i1 %740)
  br label %773

741:                                              ; preds = %734
  %742 = load i64, ptr %221, align 8, !tbaa !20
  %743 = add i64 %742, 1
  call void @_ZdlPvm(ptr noundef %736, i64 noundef %743) #37
  br label %773

744:                                              ; preds = %718
  %745 = call noundef zeroext i1 @_ZN5osgeo4proj8internal8ci_equalERKNSt7__cxx1112basic_stringIcSt11char_traitsIcESaIcEEEPKc(ptr noundef nonnull align 8 dereferenceable(32) %58, ptr noundef nonnull @.str.61) #38
  br i1 %745, label %720, label %746

746:                                              ; preds = %744
  %747 = call noundef zeroext i1 @_ZN5osgeo4proj8internal8ci_equalERKNSt7__cxx1112basic_stringIcSt11char_traitsIcESaIcEEEPKc(ptr noundef nonnull align 8 dereferenceable(32) %58, ptr noundef nonnull @.str.62) #38
  br i1 %747, label %720, label %748

748:                                              ; preds = %746
  %749 = call noundef zeroext i1 @_ZN5osgeo4proj8internal8ci_equalERKNSt7__cxx1112basic_stringIcSt11char_traitsIcESaIcEEEPKc(ptr noundef nonnull align 8 dereferenceable(32) %58, ptr noundef nonnull @.str.63) #38
  br i1 %749, label %720, label %750

750:                                              ; preds = %748
  %751 = call noundef zeroext i1 @_ZN5osgeo4proj8internal8ci_equalERKNSt7__cxx1112basic_stringIcSt11char_traitsIcESaIcEEEPKc(ptr noundef nonnull align 8 dereferenceable(32) %58, ptr noundef nonnull @.str.64) #38
  br i1 %751, label %720, label %752

752:                                              ; preds = %750
  %753 = invoke noundef nonnull align 8 dereferenceable(8) ptr @_ZSt16__ostream_insertIcSt11char_traitsIcEERSt13basic_ostreamIT_T0_ES6_PKS3_l(ptr noundef nonnull align 8 dereferenceable(8) @_ZSt4cerr, ptr noundef nonnull @.str.65, i64 noundef 34)
          to label %754 unwind label %732

754:                                              ; preds = %752
  %755 = load ptr, ptr %58, align 8, !tbaa !15
  %756 = load i64, ptr %222, align 8, !tbaa !19
  %757 = icmp ult i64 %756, 9223372036854775807
  call void @llvm.assume(i1 %757)
  %758 = invoke noundef nonnull align 8 dereferenceable(8) ptr @_ZSt16__ostream_insertIcSt11char_traitsIcEERSt13basic_ostreamIT_T0_ES6_PKS3_l(ptr noundef nonnull align 8 dereferenceable(8) @_ZSt4cerr, ptr noundef %755, i64 noundef %756)
          to label %759 unwind label %732

759:                                              ; preds = %754
  %760 = invoke noundef nonnull align 8 dereferenceable(8) ptr @_ZSt4endlIcSt11char_traitsIcEERSt13basic_ostreamIT_T0_ES6_(ptr noundef nonnull align 8 dereferenceable(8) %758)
          to label %761 unwind label %732

761:                                              ; preds = %759
  invoke fastcc void @_ZL5usagev() #34
          to label %762 unwind label %732

762:                                              ; preds = %761
  unreachable

763:                                              ; preds = %720
  %764 = load ptr, ptr %58, align 8, !tbaa !15
  %765 = icmp eq ptr %764, %221
  br i1 %765, label %766, label %769

766:                                              ; preds = %763
  %767 = load i64, ptr %222, align 8, !tbaa !19
  %768 = icmp ult i64 %767, 16
  call void @llvm.assume(i1 %768)
  br label %772

769:                                              ; preds = %763
  %770 = load i64, ptr %221, align 8, !tbaa !20
  %771 = add i64 %770, 1
  call void @_ZdlPvm(ptr noundef %764, i64 noundef %771) #37
  br label %772

772:                                              ; preds = %769, %766
  call void @llvm.lifetime.end.p0(ptr %58)
  br label %1402

773:                                              ; preds = %741, %738, %728, %726
  %774 = phi { ptr, i32 } [ %735, %738 ], [ %735, %741 ], [ %727, %726 ], [ %729, %728 ]
  call void @llvm.lifetime.end.p0(ptr %58)
  br label %1433

775:                                              ; preds = %691, %688
  %776 = call i32 @bcmp(ptr noundef nonnull dereferenceable(2) %342, ptr noundef nonnull dereferenceable(2) @.str.66, i64 2)
  %777 = icmp eq i32 %776, 0
  br i1 %777, label %782, label %810

778:                                              ; preds = %327
  %779 = load ptr, ptr %54, align 8, !tbaa !15
  %780 = call i32 @bcmp(ptr %779, ptr nonnull @.str.67, i64 %331)
  %781 = icmp eq i32 %780, 0
  br i1 %781, label %782, label %814

782:                                              ; preds = %778, %775
  %783 = phi ptr [ %779, %778 ], [ %342, %775 ]
  %784 = add nsw i32 %308, 1
  %785 = icmp slt i32 %784, %0
  br i1 %785, label %786, label %794

786:                                              ; preds = %782
  %787 = sext i32 %784 to i64
  %788 = getelementptr inbounds ptr, ptr %1, i64 %787
  %789 = load ptr, ptr %788, align 8, !tbaa !5
  %790 = load i64, ptr %182, align 8, !tbaa !19
  %791 = icmp ult i64 %790, 9223372036854775807
  call void @llvm.assume(i1 %791)
  %792 = call noundef i64 @strlen(ptr noundef nonnull dereferenceable(1) %789) #38
  %793 = invoke noundef nonnull align 8 dereferenceable(32) ptr @_ZNSt7__cxx1112basic_stringIcSt11char_traitsIcESaIcEE10_M_replaceEmmPKcm(ptr noundef nonnull align 8 dereferenceable(32) %41, i64 noundef 0, i64 noundef %790, ptr noundef nonnull %789, i64 noundef %792)
          to label %1402 unwind label %419

794:                                              ; preds = %782
  switch i64 %331, label %863 [
    i64 9, label %795
    i64 2, label %810
    i64 12, label %814
    i64 7, label %850
  ]

795:                                              ; preds = %794, %339
  %796 = phi ptr [ %340, %339 ], [ %783, %794 ]
  %797 = call i32 @bcmp(ptr %796, ptr nonnull @.str.68, i64 %331)
  %798 = icmp eq i32 %797, 0
  br i1 %798, label %799, label %831

799:                                              ; preds = %795
  %800 = add nsw i32 %308, 1
  %801 = icmp slt i32 %800, %0
  br i1 %801, label %802, label %831

802:                                              ; preds = %799
  %803 = sext i32 %800 to i64
  %804 = getelementptr inbounds ptr, ptr %1, i64 %803
  %805 = load ptr, ptr %804, align 8, !tbaa !5
  %806 = load i64, ptr %184, align 8, !tbaa !19
  %807 = icmp ult i64 %806, 9223372036854775807
  call void @llvm.assume(i1 %807)
  %808 = call noundef i64 @strlen(ptr noundef nonnull dereferenceable(1) %805) #38
  %809 = invoke noundef nonnull align 8 dereferenceable(32) ptr @_ZNSt7__cxx1112basic_stringIcSt11char_traitsIcESaIcEE10_M_replaceEmmPKcm(ptr noundef nonnull align 8 dereferenceable(32) %42, i64 noundef 0, i64 noundef %806, ptr noundef nonnull %805, i64 noundef %808)
          to label %1402 unwind label %419

810:                                              ; preds = %794, %775
  %811 = phi ptr [ %783, %794 ], [ %342, %775 ]
  %812 = call i32 @bcmp(ptr %811, ptr nonnull @.str.69, i64 %331)
  %813 = icmp eq i32 %812, 0
  br i1 %813, label %818, label %846

814:                                              ; preds = %794, %778
  %815 = phi ptr [ %783, %794 ], [ %779, %778 ]
  %816 = call i32 @bcmp(ptr %815, ptr nonnull @.str.70, i64 %331)
  %817 = icmp eq i32 %816, 0
  br i1 %817, label %818, label %863

818:                                              ; preds = %814, %810
  %819 = phi ptr [ %815, %814 ], [ %811, %810 ]
  %820 = add nsw i32 %308, 1
  %821 = icmp slt i32 %820, %0
  br i1 %821, label %822, label %830

822:                                              ; preds = %818
  %823 = sext i32 %820 to i64
  %824 = getelementptr inbounds ptr, ptr %1, i64 %823
  %825 = load ptr, ptr %824, align 8, !tbaa !5
  %826 = load i64, ptr %186, align 8, !tbaa !19
  %827 = icmp ult i64 %826, 9223372036854775807
  call void @llvm.assume(i1 %827)
  %828 = call noundef i64 @strlen(ptr noundef nonnull dereferenceable(1) %825) #38
  %829 = invoke noundef nonnull align 8 dereferenceable(32) ptr @_ZNSt7__cxx1112basic_stringIcSt11char_traitsIcESaIcEE10_M_replaceEmmPKcm(ptr noundef nonnull align 8 dereferenceable(32) %43, i64 noundef 0, i64 noundef %826, ptr noundef nonnull %825, i64 noundef %828)
          to label %1402 unwind label %419

830:                                              ; preds = %818
  switch i64 %331, label %863 [
    i64 9, label %831
    i64 2, label %846
    i64 7, label %850
  ]

831:                                              ; preds = %830, %799, %795
  %832 = phi ptr [ %819, %830 ], [ %796, %799 ], [ %796, %795 ]
  %833 = call i32 @bcmp(ptr %832, ptr nonnull @.str.71, i64 %331)
  %834 = icmp eq i32 %833, 0
  br i1 %834, label %835, label %860

835:                                              ; preds = %831
  %836 = add nsw i32 %308, 1
  %837 = icmp slt i32 %836, %0
  br i1 %837, label %838, label %860

838:                                              ; preds = %835
  %839 = sext i32 %836 to i64
  %840 = getelementptr inbounds ptr, ptr %1, i64 %839
  %841 = load ptr, ptr %840, align 8, !tbaa !5
  %842 = load i64, ptr %188, align 8, !tbaa !19
  %843 = icmp ult i64 %842, 9223372036854775807
  call void @llvm.assume(i1 %843)
  %844 = call noundef i64 @strlen(ptr noundef nonnull dereferenceable(1) %841) #38
  %845 = invoke noundef nonnull align 8 dereferenceable(32) ptr @_ZNSt7__cxx1112basic_stringIcSt11char_traitsIcESaIcEE10_M_replaceEmmPKcm(ptr noundef nonnull align 8 dereferenceable(32) %44, i64 noundef 0, i64 noundef %842, ptr noundef nonnull %841, i64 noundef %844)
          to label %1402 unwind label %419

846:                                              ; preds = %830, %810
  %847 = phi ptr [ %819, %830 ], [ %811, %810 ]
  %848 = call i32 @bcmp(ptr %847, ptr nonnull @.str.72, i64 %331)
  %849 = icmp eq i32 %848, 0
  br i1 %849, label %854, label %863

850:                                              ; preds = %830, %794, %337
  %851 = phi ptr [ %338, %337 ], [ %783, %794 ], [ %819, %830 ]
  %852 = call i32 @bcmp(ptr %851, ptr nonnull @.str.73, i64 %331)
  %853 = icmp eq i32 %852, 0
  br i1 %853, label %854, label %855

854:                                              ; preds = %850, %846
  store i8 1, ptr %45, align 8, !tbaa !45
  br label %1402

855:                                              ; preds = %850
  %856 = call i32 @bcmp(ptr noundef nonnull dereferenceable(7) %851, ptr noundef nonnull dereferenceable(7) @.str.74, i64 7)
  %857 = icmp eq i32 %856, 0
  br i1 %857, label %858, label %863

858:                                              ; preds = %855
  store i8 1, ptr %220, align 2, !tbaa !46
  br label %1402

859:                                              ; preds = %333
  store i8 1, ptr %219, align 1, !tbaa !47
  br label %1402

860:                                              ; preds = %835, %831
  %861 = call i32 @bcmp(ptr %832, ptr nonnull @.str.76, i64 %331)
  %862 = icmp eq i32 %861, 0
  br i1 %862, label %1402, label %863

863:                                              ; preds = %860, %855, %846, %830, %814, %794, %677, %674, %602, %598, %333, %327
  %864 = call noundef zeroext i1 @_ZN5osgeo4proj8internal8ci_equalERKNSt7__cxx1112basic_stringIcSt11char_traitsIcESaIcEEEPKc(ptr noundef nonnull align 8 dereferenceable(32) %54, ptr noundef nonnull @.str.77) #38
  br i1 %864, label %1402, label %865

865:                                              ; preds = %863
  %866 = call noundef zeroext i1 @_ZN5osgeo4proj8internal8ci_equalERKNSt7__cxx1112basic_stringIcSt11char_traitsIcESaIcEEEPKc(ptr noundef nonnull align 8 dereferenceable(32) %54, ptr noundef nonnull @.str.78) #38
  br i1 %866, label %1402, label %867

867:                                              ; preds = %865
  %868 = call noundef zeroext i1 @_ZSteqIcSt11char_traitsIcESaIcEEbRKNSt7__cxx1112basic_stringIT_T0_T1_EEPKS5_(ptr noundef nonnull align 8 dereferenceable(32) %54, ptr noundef nonnull @.str.79)
  br i1 %868, label %869, label %916

869:                                              ; preds = %867
  %870 = add nsw i32 %308, 1
  %871 = icmp slt i32 %870, %0
  br i1 %871, label %872, label %916

872:                                              ; preds = %869
  call void @llvm.lifetime.start.p0(ptr %59)
  %873 = sext i32 %870 to i64
  %874 = getelementptr inbounds ptr, ptr %1, i64 %873
  %875 = load ptr, ptr %874, align 8, !tbaa !5
  call void @llvm.lifetime.start.p0(ptr %60)
  invoke void @_ZNSt7__cxx1112basic_stringIcSt11char_traitsIcESaIcEEC2IS3_EEPKcRKS3_(ptr noundef nonnull align 8 dereferenceable(32) %59, ptr noundef %875, ptr noundef nonnull align 1 dereferenceable(1) %60)
          to label %876 unwind label %878

876:                                              ; preds = %872
  call void @llvm.lifetime.end.p0(ptr %60)
  %877 = call noundef zeroext i1 @_ZN5osgeo4proj8internal8ci_equalERKNSt7__cxx1112basic_stringIcSt11char_traitsIcESaIcEEEPKc(ptr noundef nonnull align 8 dereferenceable(32) %59, ptr noundef nonnull @.str.80) #38
  br i1 %877, label %903, label %880

878:                                              ; preds = %872
  %879 = landingpad { ptr, i32 }
          cleanup
  call void @llvm.lifetime.end.p0(ptr %60)
  br label %914

880:                                              ; preds = %876
  %881 = call noundef zeroext i1 @_ZN5osgeo4proj8internal8ci_equalERKNSt7__cxx1112basic_stringIcSt11char_traitsIcESaIcEEEPKc(ptr noundef nonnull align 8 dereferenceable(32) %59, ptr noundef nonnull @.str.81) #38
  br i1 %881, label %903, label %882

882:                                              ; preds = %880
  %883 = invoke noundef nonnull align 8 dereferenceable(8) ptr @_ZSt16__ostream_insertIcSt11char_traitsIcEERSt13basic_ostreamIT_T0_ES6_PKS3_l(ptr noundef nonnull align 8 dereferenceable(8) @_ZSt4cerr, ptr noundef nonnull @.str.82, i64 noundef 46)
          to label %884 unwind label %893

884:                                              ; preds = %882
  %885 = load ptr, ptr %59, align 8, !tbaa !15
  %886 = load i64, ptr %258, align 8, !tbaa !19
  %887 = icmp ult i64 %886, 9223372036854775807
  call void @llvm.assume(i1 %887)
  %888 = invoke noundef nonnull align 8 dereferenceable(8) ptr @_ZSt16__ostream_insertIcSt11char_traitsIcEERSt13basic_ostreamIT_T0_ES6_PKS3_l(ptr noundef nonnull align 8 dereferenceable(8) @_ZSt4cerr, ptr noundef %885, i64 noundef %886)
          to label %889 unwind label %893

889:                                              ; preds = %884
  %890 = invoke noundef nonnull align 8 dereferenceable(8) ptr @_ZSt4endlIcSt11char_traitsIcEERSt13basic_ostreamIT_T0_ES6_(ptr noundef nonnull align 8 dereferenceable(8) %888)
          to label %891 unwind label %893

891:                                              ; preds = %889
  invoke fastcc void @_ZL5usagev() #34
          to label %892 unwind label %893

892:                                              ; preds = %891
  unreachable

893:                                              ; preds = %891, %889, %884, %882
  %894 = landingpad { ptr, i32 }
          cleanup
  %895 = load ptr, ptr %59, align 8, !tbaa !15
  %896 = icmp eq ptr %895, %257
  br i1 %896, label %897, label %900

897:                                              ; preds = %893
  %898 = load i64, ptr %258, align 8, !tbaa !19
  %899 = icmp ult i64 %898, 16
  call void @llvm.assume(i1 %899)
  br label %914

900:                                              ; preds = %893
  %901 = load i64, ptr %257, align 8, !tbaa !20
  %902 = add i64 %901, 1
  call void @_ZdlPvm(ptr noundef %895, i64 noundef %902) #37
  br label %914

903:                                              ; preds = %880, %876
  %904 = phi i32 [ 0, %876 ], [ 1, %880 ]
  %905 = load ptr, ptr %59, align 8, !tbaa !15
  %906 = icmp eq ptr %905, %257
  br i1 %906, label %907, label %910

907:                                              ; preds = %903
  %908 = load i64, ptr %258, align 8, !tbaa !19
  %909 = icmp ult i64 %908, 16
  call void @llvm.assume(i1 %909)
  br label %913

910:                                              ; preds = %903
  %911 = load i64, ptr %257, align 8, !tbaa !20
  %912 = add i64 %911, 1
  call void @_ZdlPvm(ptr noundef %905, i64 noundef %912) #37
  br label %913

913:                                              ; preds = %910, %907
  call void @llvm.lifetime.end.p0(ptr %59)
  br label %1402

914:                                              ; preds = %900, %897, %878
  %915 = phi { ptr, i32 } [ %879, %878 ], [ %894, %897 ], [ %894, %900 ]
  call void @llvm.lifetime.end.p0(ptr %59)
  br label %1433

916:                                              ; preds = %869, %867
  %917 = call noundef zeroext i1 @_ZSteqIcSt11char_traitsIcESaIcEEbRKNSt7__cxx1112basic_stringIT_T0_T1_EEPKS5_(ptr noundef nonnull align 8 dereferenceable(32) %54, ptr noundef nonnull @.str.83)
  br i1 %917, label %918, label %969

918:                                              ; preds = %916
  %919 = add nsw i32 %308, 1
  %920 = icmp slt i32 %919, %0
  br i1 %920, label %921, label %969

921:                                              ; preds = %918
  call void @llvm.lifetime.start.p0(ptr %61)
  %922 = sext i32 %919 to i64
  %923 = getelementptr inbounds ptr, ptr %1, i64 %922
  %924 = load ptr, ptr %923, align 8, !tbaa !5
  call void @llvm.lifetime.start.p0(ptr %62)
  invoke void @_ZNSt7__cxx1112basic_stringIcSt11char_traitsIcESaIcEEC2IS3_EEPKcRKS3_(ptr noundef nonnull align 8 dereferenceable(32) %61, ptr noundef %924, ptr noundef nonnull align 1 dereferenceable(1) %62)
          to label %925 unwind label %927

925:                                              ; preds = %921
  call void @llvm.lifetime.end.p0(ptr %62)
  %926 = call noundef zeroext i1 @_ZN5osgeo4proj8internal8ci_equalERKNSt7__cxx1112basic_stringIcSt11char_traitsIcESaIcEEEPKc(ptr noundef nonnull align 8 dereferenceable(32) %61, ptr noundef nonnull @.str.84) #38
  br i1 %926, label %956, label %929

927:                                              ; preds = %921
  %928 = landingpad { ptr, i32 }
          cleanup
  call void @llvm.lifetime.end.p0(ptr %62)
  br label %967

929:                                              ; preds = %925
  %930 = call noundef zeroext i1 @_ZN5osgeo4proj8internal8ci_equalERKNSt7__cxx1112basic_stringIcSt11char_traitsIcESaIcEEEPKc(ptr noundef nonnull align 8 dereferenceable(32) %61, ptr noundef nonnull @.str.85) #38
  br i1 %930, label %956, label %931

931:                                              ; preds = %929
  %932 = call noundef zeroext i1 @_ZN5osgeo4proj8internal8ci_equalERKNSt7__cxx1112basic_stringIcSt11char_traitsIcESaIcEEEPKc(ptr noundef nonnull align 8 dereferenceable(32) %61, ptr noundef nonnull @.str.86) #38
  br i1 %932, label %956, label %933

933:                                              ; preds = %931
  %934 = call noundef zeroext i1 @_ZN5osgeo4proj8internal8ci_equalERKNSt7__cxx1112basic_stringIcSt11char_traitsIcESaIcEEEPKc(ptr noundef nonnull align 8 dereferenceable(32) %61, ptr noundef nonnull @.str.87) #38
  br i1 %934, label %956, label %935

935:                                              ; preds = %933
  %936 = invoke noundef nonnull align 8 dereferenceable(8) ptr @_ZSt16__ostream_insertIcSt11char_traitsIcEERSt13basic_ostreamIT_T0_ES6_PKS3_l(ptr noundef nonnull align 8 dereferenceable(8) @_ZSt4cerr, ptr noundef nonnull @.str.88, i64 noundef 48)
          to label %937 unwind label %946

937:                                              ; preds = %935
  %938 = load ptr, ptr %61, align 8, !tbaa !15
  %939 = load i64, ptr %256, align 8, !tbaa !19
  %940 = icmp ult i64 %939, 9223372036854775807
  call void @llvm.assume(i1 %940)
  %941 = invoke noundef nonnull align 8 dereferenceable(8) ptr @_ZSt16__ostream_insertIcSt11char_traitsIcEERSt13basic_ostreamIT_T0_ES6_PKS3_l(ptr noundef nonnull align 8 dereferenceable(8) @_ZSt4cerr, ptr noundef %938, i64 noundef %939)
          to label %942 unwind label %946

942:                                              ; preds = %937
  %943 = invoke noundef nonnull align 8 dereferenceable(8) ptr @_ZSt4endlIcSt11char_traitsIcEERSt13basic_ostreamIT_T0_ES6_(ptr noundef nonnull align 8 dereferenceable(8) %941)
          to label %944 unwind label %946

944:                                              ; preds = %942
  invoke fastcc void @_ZL5usagev() #34
          to label %945 unwind label %946

945:                                              ; preds = %944
  unreachable

946:                                              ; preds = %944, %942, %937, %935
  %947 = landingpad { ptr, i32 }
          cleanup
  %948 = load ptr, ptr %61, align 8, !tbaa !15
  %949 = icmp eq ptr %948, %255
  br i1 %949, label %950, label %953

950:                                              ; preds = %946
  %951 = load i64, ptr %256, align 8, !tbaa !19
  %952 = icmp ult i64 %951, 16
  call void @llvm.assume(i1 %952)
  br label %967

953:                                              ; preds = %946
  %954 = load i64, ptr %255, align 8, !tbaa !20
  %955 = add i64 %954, 1
  call void @_ZdlPvm(ptr noundef %948, i64 noundef %955) #37
  br label %967

956:                                              ; preds = %933, %931, %929, %925
  %957 = phi i32 [ 0, %925 ], [ 1, %929 ], [ 2, %931 ], [ 3, %933 ]
  %958 = load ptr, ptr %61, align 8, !tbaa !15
  %959 = icmp eq ptr %958, %255
  br i1 %959, label %960, label %963

960:                                              ; preds = %956
  %961 = load i64, ptr %256, align 8, !tbaa !19
  %962 = icmp ult i64 %961, 16
  call void @llvm.assume(i1 %962)
  br label %966

963:                                              ; preds = %956
  %964 = load i64, ptr %255, align 8, !tbaa !20
  %965 = add i64 %964, 1
  call void @_ZdlPvm(ptr noundef %958, i64 noundef %965) #37
  br label %966

966:                                              ; preds = %963, %960
  call void @llvm.lifetime.end.p0(ptr %61)
  br label %1402

967:                                              ; preds = %953, %950, %927
  %968 = phi { ptr, i32 } [ %928, %927 ], [ %947, %950 ], [ %947, %953 ]
  call void @llvm.lifetime.end.p0(ptr %61)
  br label %1433

969:                                              ; preds = %918, %916
  %970 = call noundef zeroext i1 @_ZSteqIcSt11char_traitsIcESaIcEEbRKNSt7__cxx1112basic_stringIT_T0_T1_EEPKS5_(ptr noundef nonnull align 8 dereferenceable(32) %54, ptr noundef nonnull @.str.89)
  br i1 %970, label %971, label %1022

971:                                              ; preds = %969
  %972 = add nsw i32 %308, 1
  %973 = icmp slt i32 %972, %0
  br i1 %973, label %974, label %1022

974:                                              ; preds = %971
  call void @llvm.lifetime.start.p0(ptr %63)
  %975 = sext i32 %972 to i64
  %976 = getelementptr inbounds ptr, ptr %1, i64 %975
  %977 = load ptr, ptr %976, align 8, !tbaa !5
  call void @llvm.lifetime.start.p0(ptr %64)
  invoke void @_ZNSt7__cxx1112basic_stringIcSt11char_traitsIcESaIcEEC2IS3_EEPKcRKS3_(ptr noundef nonnull align 8 dereferenceable(32) %63, ptr noundef %977, ptr noundef nonnull align 1 dereferenceable(1) %64)
          to label %978 unwind label %980

978:                                              ; preds = %974
  call void @llvm.lifetime.end.p0(ptr %64)
  %979 = call noundef zeroext i1 @_ZN5osgeo4proj8internal8ci_equalERKNSt7__cxx1112basic_stringIcSt11char_traitsIcESaIcEEEPKc(ptr noundef nonnull align 8 dereferenceable(32) %63, ptr noundef nonnull @.str.90) #38
  br i1 %979, label %1009, label %982

980:                                              ; preds = %974
  %981 = landingpad { ptr, i32 }
          cleanup
  call void @llvm.lifetime.end.p0(ptr %64)
  br label %1020

982:                                              ; preds = %978
  %983 = call noundef zeroext i1 @_ZN5osgeo4proj8internal8ci_equalERKNSt7__cxx1112basic_stringIcSt11char_traitsIcESaIcEEEPKc(ptr noundef nonnull align 8 dereferenceable(32) %63, ptr noundef nonnull @.str.91) #38
  br i1 %983, label %1009, label %984

984:                                              ; preds = %982
  %985 = call noundef zeroext i1 @_ZN5osgeo4proj8internal8ci_equalERKNSt7__cxx1112basic_stringIcSt11char_traitsIcESaIcEEEPKc(ptr noundef nonnull align 8 dereferenceable(32) %63, ptr noundef nonnull @.str.92) #38
  br i1 %985, label %1009, label %986

986:                                              ; preds = %984
  %987 = call noundef zeroext i1 @_ZN5osgeo4proj8internal8ci_equalERKNSt7__cxx1112basic_stringIcSt11char_traitsIcESaIcEEEPKc(ptr noundef nonnull align 8 dereferenceable(32) %63, ptr noundef nonnull @.str.93) #38
  br i1 %987, label %1009, label %988

988:                                              ; preds = %986
  %989 = invoke noundef nonnull align 8 dereferenceable(8) ptr @_ZSt16__ostream_insertIcSt11char_traitsIcEERSt13basic_ostreamIT_T0_ES6_PKS3_l(ptr noundef nonnull align 8 dereferenceable(8) @_ZSt4cerr, ptr noundef nonnull @.str.94, i64 noundef 44)
          to label %990 unwind label %999

990:                                              ; preds = %988
  %991 = load ptr, ptr %63, align 8, !tbaa !15
  %992 = load i64, ptr %254, align 8, !tbaa !19
  %993 = icmp ult i64 %992, 9223372036854775807
  call void @llvm.assume(i1 %993)
  %994 = invoke noundef nonnull align 8 dereferenceable(8) ptr @_ZSt16__ostream_insertIcSt11char_traitsIcEERSt13basic_ostreamIT_T0_ES6_PKS3_l(ptr noundef nonnull align 8 dereferenceable(8) @_ZSt4cerr, ptr noundef %991, i64 noundef %992)
          to label %995 unwind label %999

995:                                              ; preds = %990
  %996 = invoke noundef nonnull align 8 dereferenceable(8) ptr @_ZSt4endlIcSt11char_traitsIcEERSt13basic_ostreamIT_T0_ES6_(ptr noundef nonnull align 8 dereferenceable(8) %994)
          to label %997 unwind label %999

997:                                              ; preds = %995
  invoke fastcc void @_ZL5usagev() #34
          to label %998 unwind label %999

998:                                              ; preds = %997
  unreachable

999:                                              ; preds = %997, %995, %990, %988
  %1000 = landingpad { ptr, i32 }
          cleanup
  %1001 = load ptr, ptr %63, align 8, !tbaa !15
  %1002 = icmp eq ptr %1001, %253
  br i1 %1002, label %1003, label %1006

1003:                                             ; preds = %999
  %1004 = load i64, ptr %254, align 8, !tbaa !19
  %1005 = icmp ult i64 %1004, 16
  call void @llvm.assume(i1 %1005)
  br label %1020

1006:                                             ; preds = %999
  %1007 = load i64, ptr %253, align 8, !tbaa !20
  %1008 = add i64 %1007, 1
  call void @_ZdlPvm(ptr noundef %1001, i64 noundef %1008) #37
  br label %1020

1009:                                             ; preds = %986, %984, %982, %978
  %1010 = phi i32 [ 2, %978 ], [ 1, %982 ], [ 0, %984 ], [ 3, %986 ]
  %1011 = load ptr, ptr %63, align 8, !tbaa !15
  %1012 = icmp eq ptr %1011, %253
  br i1 %1012, label %1013, label %1016

1013:                                             ; preds = %1009
  %1014 = load i64, ptr %254, align 8, !tbaa !19
  %1015 = icmp ult i64 %1014, 16
  call void @llvm.assume(i1 %1015)
  br label %1019

1016:                                             ; preds = %1009
  %1017 = load i64, ptr %253, align 8, !tbaa !20
  %1018 = add i64 %1017, 1
  call void @_ZdlPvm(ptr noundef %1011, i64 noundef %1018) #37
  br label %1019

1019:                                             ; preds = %1016, %1013
  call void @llvm.lifetime.end.p0(ptr %63)
  br label %1402

1020:                                             ; preds = %1006, %1003, %980
  %1021 = phi { ptr, i32 } [ %981, %980 ], [ %1000, %1003 ], [ %1000, %1006 ]
  call void @llvm.lifetime.end.p0(ptr %63)
  br label %1433

1022:                                             ; preds = %971, %969
  %1023 = call noundef zeroext i1 @_ZSteqIcSt11char_traitsIcESaIcEEbRKNSt7__cxx1112basic_stringIT_T0_T1_EEPKS5_(ptr noundef nonnull align 8 dereferenceable(32) %54, ptr noundef nonnull @.str.95)
  br i1 %1023, label %1024, label %1143

1024:                                             ; preds = %1022
  %1025 = add nsw i32 %308, 1
  %1026 = icmp slt i32 %1025, %0
  br i1 %1026, label %1027, label %1143

1027:                                             ; preds = %1024
  %1028 = sext i32 %1025 to i64
  %1029 = getelementptr inbounds ptr, ptr %1, i64 %1028
  %1030 = load ptr, ptr %1029, align 8, !tbaa !5
  call void @llvm.lifetime.start.p0(ptr %65)
  call void @llvm.lifetime.start.p0(ptr %66)
  invoke void @_ZNSt7__cxx1112basic_stringIcSt11char_traitsIcESaIcEEC2IS3_EEPKcRKS3_(ptr noundef nonnull align 8 dereferenceable(32) %65, ptr noundef %1030, ptr noundef nonnull align 1 dereferenceable(1) %66)
          to label %1031 unwind label %1042

1031:                                             ; preds = %1027
  %1032 = call noundef zeroext i1 @_ZN5osgeo4proj8internal8ci_equalERKNSt7__cxx1112basic_stringIcSt11char_traitsIcESaIcEEEPKc(ptr noundef nonnull align 8 dereferenceable(32) %65, ptr noundef nonnull @.str.96) #38
  %1033 = load ptr, ptr %65, align 8, !tbaa !15
  %1034 = icmp eq ptr %1033, %243
  br i1 %1034, label %1035, label %1038

1035:                                             ; preds = %1031
  %1036 = load i64, ptr %244, align 8, !tbaa !19
  %1037 = icmp ult i64 %1036, 16
  call void @llvm.assume(i1 %1037)
  br label %1041

1038:                                             ; preds = %1031
  %1039 = load i64, ptr %243, align 8, !tbaa !20
  %1040 = add i64 %1039, 1
  call void @_ZdlPvm(ptr noundef %1033, i64 noundef %1040) #37
  br label %1041

1041:                                             ; preds = %1038, %1035
  call void @llvm.lifetime.end.p0(ptr %66)
  call void @llvm.lifetime.end.p0(ptr %65)
  br i1 %1032, label %1402, label %1044

1042:                                             ; preds = %1027
  %1043 = landingpad { ptr, i32 }
          cleanup
  call void @llvm.lifetime.end.p0(ptr %66)
  call void @llvm.lifetime.end.p0(ptr %65)
  br label %1433

1044:                                             ; preds = %1041
  call void @llvm.lifetime.start.p0(ptr %67)
  call void @llvm.lifetime.start.p0(ptr %68)
  invoke void @_ZNSt7__cxx1112basic_stringIcSt11char_traitsIcESaIcEEC2IS3_EEPKcRKS3_(ptr noundef nonnull align 8 dereferenceable(32) %67, ptr noundef %1030, ptr noundef nonnull align 1 dereferenceable(1) %68)
          to label %1045 unwind label %1056

1045:                                             ; preds = %1044
  %1046 = call noundef zeroext i1 @_ZN5osgeo4proj8internal8ci_equalERKNSt7__cxx1112basic_stringIcSt11char_traitsIcESaIcEEEPKc(ptr noundef nonnull align 8 dereferenceable(32) %67, ptr noundef nonnull @.str.97) #38
  %1047 = load ptr, ptr %67, align 8, !tbaa !15
  %1048 = icmp eq ptr %1047, %245
  br i1 %1048, label %1049, label %1052

1049:                                             ; preds = %1045
  %1050 = load i64, ptr %246, align 8, !tbaa !19
  %1051 = icmp ult i64 %1050, 16
  call void @llvm.assume(i1 %1051)
  br label %1055

1052:                                             ; preds = %1045
  %1053 = load i64, ptr %245, align 8, !tbaa !20
  %1054 = add i64 %1053, 1
  call void @_ZdlPvm(ptr noundef %1047, i64 noundef %1054) #37
  br label %1055

1055:                                             ; preds = %1052, %1049
  call void @llvm.lifetime.end.p0(ptr %68)
  call void @llvm.lifetime.end.p0(ptr %67)
  br i1 %1046, label %1402, label %1058

1056:                                             ; preds = %1044
  %1057 = landingpad { ptr, i32 }
          cleanup
  call void @llvm.lifetime.end.p0(ptr %68)
  call void @llvm.lifetime.end.p0(ptr %67)
  br label %1433

1058:                                             ; preds = %1055
  call void @llvm.lifetime.start.p0(ptr %69)
  call void @llvm.lifetime.start.p0(ptr %70)
  invoke void @_ZNSt7__cxx1112basic_stringIcSt11char_traitsIcESaIcEEC2IS3_EEPKcRKS3_(ptr noundef nonnull align 8 dereferenceable(32) %69, ptr noundef %1030, ptr noundef nonnull align 1 dereferenceable(1) %70)
          to label %1059 unwind label %1070

1059:                                             ; preds = %1058
  %1060 = call noundef zeroext i1 @_ZN5osgeo4proj8internal8ci_equalERKNSt7__cxx1112basic_stringIcSt11char_traitsIcESaIcEEEPKc(ptr noundef nonnull align 8 dereferenceable(32) %69, ptr noundef nonnull @.str.98) #38
  %1061 = load ptr, ptr %69, align 8, !tbaa !15
  %1062 = icmp eq ptr %1061, %247
  br i1 %1062, label %1063, label %1066

1063:                                             ; preds = %1059
  %1064 = load i64, ptr %248, align 8, !tbaa !19
  %1065 = icmp ult i64 %1064, 16
  call void @llvm.assume(i1 %1065)
  br label %1069

1066:                                             ; preds = %1059
  %1067 = load i64, ptr %247, align 8, !tbaa !20
  %1068 = add i64 %1067, 1
  call void @_ZdlPvm(ptr noundef %1061, i64 noundef %1068) #37
  br label %1069

1069:                                             ; preds = %1066, %1063
  call void @llvm.lifetime.end.p0(ptr %70)
  call void @llvm.lifetime.end.p0(ptr %69)
  br i1 %1060, label %1402, label %1072

1070:                                             ; preds = %1058
  %1071 = landingpad { ptr, i32 }
          cleanup
  call void @llvm.lifetime.end.p0(ptr %70)
  call void @llvm.lifetime.end.p0(ptr %69)
  br label %1433

1072:                                             ; preds = %1069
  call void @llvm.lifetime.start.p0(ptr %71)
  call void @llvm.lifetime.start.p0(ptr %72)
  call void @llvm.lifetime.start.p0(ptr %73)
  invoke void @_ZNSt7__cxx1112basic_stringIcSt11char_traitsIcESaIcEEC2IS3_EEPKcRKS3_(ptr noundef nonnull align 8 dereferenceable(32) %72, ptr noundef %1030, ptr noundef nonnull align 1 dereferenceable(1) %73)
          to label %1073 unwind label %1088

1073:                                             ; preds = %1072
  invoke void @_ZN5osgeo4proj8internal5splitERKNSt7__cxx1112basic_stringIcSt11char_traitsIcESaIcEEEc(ptr dead_on_unwind nonnull writable sret(%"class.std::vector") align 8 %71, ptr noundef nonnull align 8 dereferenceable(32) %72, i8 noundef signext 44)
          to label %1074 unwind label %1090

1074:                                             ; preds = %1073
  %1075 = load ptr, ptr %72, align 8, !tbaa !15
  %1076 = icmp eq ptr %1075, %249
  br i1 %1076, label %1077, label %1080

1077:                                             ; preds = %1074
  %1078 = load i64, ptr %250, align 8, !tbaa !19
  %1079 = icmp ult i64 %1078, 16
  call void @llvm.assume(i1 %1079)
  br label %1083

1080:                                             ; preds = %1074
  %1081 = load i64, ptr %249, align 8, !tbaa !20
  %1082 = add i64 %1081, 1
  call void @_ZdlPvm(ptr noundef %1075, i64 noundef %1082) #37
  br label %1083

1083:                                             ; preds = %1080, %1077
  call void @llvm.lifetime.end.p0(ptr %73)
  call void @llvm.lifetime.end.p0(ptr %72)
  %1084 = load ptr, ptr %71, align 8, !tbaa !33
  %1085 = load ptr, ptr %251, align 8, !tbaa !33
  %1086 = icmp eq ptr %1084, %1085
  br i1 %1086, label %1087, label %1102

1087:                                             ; preds = %1128, %1083
  call void @_ZNSt6vectorINSt7__cxx1112basic_stringIcSt11char_traitsIcESaIcEEESaIS5_EED2Ev(ptr noundef nonnull align 8 dereferenceable(24) %71) #38
  call void @llvm.lifetime.end.p0(ptr %71)
  br label %1402

1088:                                             ; preds = %1072
  %1089 = landingpad { ptr, i32 }
          cleanup
  br label %1100

1090:                                             ; preds = %1073
  %1091 = landingpad { ptr, i32 }
          cleanup
  %1092 = load ptr, ptr %72, align 8, !tbaa !15
  %1093 = icmp eq ptr %1092, %249
  br i1 %1093, label %1094, label %1097

1094:                                             ; preds = %1090
  %1095 = load i64, ptr %250, align 8, !tbaa !19
  %1096 = icmp ult i64 %1095, 16
  call void @llvm.assume(i1 %1096)
  br label %1100

1097:                                             ; preds = %1090
  %1098 = load i64, ptr %249, align 8, !tbaa !20
  %1099 = add i64 %1098, 1
  call void @_ZdlPvm(ptr noundef %1092, i64 noundef %1099) #37
  br label %1100

1100:                                             ; preds = %1097, %1094, %1088
  %1101 = phi { ptr, i32 } [ %1089, %1088 ], [ %1091, %1094 ], [ %1091, %1097 ]
  call void @llvm.lifetime.end.p0(ptr %73)
  call void @llvm.lifetime.end.p0(ptr %72)
  br label %1141

1102:                                             ; preds = %1128, %1083
  %1103 = phi ptr [ %1129, %1128 ], [ %1084, %1083 ]
  call void @llvm.lifetime.start.p0(ptr %74)
  invoke void @_ZN5osgeo4proj8internal5splitERKNSt7__cxx1112basic_stringIcSt11char_traitsIcESaIcEEEc(ptr dead_on_unwind nonnull writable sret(%"class.std::vector") align 8 %74, ptr noundef nonnull align 8 dereferenceable(32) %1103, i8 noundef signext 58)
          to label %1104 unwind label %1120

1104:                                             ; preds = %1102
  %1105 = load ptr, ptr %252, align 8, !tbaa !14
  %1106 = load ptr, ptr %74, align 8, !tbaa !10
  %1107 = ptrtoint ptr %1105 to i64
  %1108 = ptrtoint ptr %1106 to i64
  %1109 = sub i64 %1107, %1108
  %1110 = icmp sgt i64 %1109, -1
  call void @llvm.assume(i1 %1110)
  %1111 = icmp eq i64 %1109, 64
  br i1 %1111, label %1124, label %1112

1112:                                             ; preds = %1104
  %1113 = invoke noundef nonnull align 8 dereferenceable(8) ptr @_ZSt16__ostream_insertIcSt11char_traitsIcEERSt13basic_ostreamIT_T0_ES6_PKS3_l(ptr noundef nonnull align 8 dereferenceable(8) @_ZSt4cerr, ptr noundef nonnull @.str.94, i64 noundef 44)
          to label %1114 unwind label %1122

1114:                                             ; preds = %1112
  %1115 = invoke noundef nonnull align 8 dereferenceable(8) ptr @_ZStlsISt11char_traitsIcEERSt13basic_ostreamIcT_ES5_PKc(ptr noundef nonnull align 8 dereferenceable(8) @_ZSt4cerr, ptr noundef %1030)
          to label %1116 unwind label %1122

1116:                                             ; preds = %1114
  %1117 = invoke noundef nonnull align 8 dereferenceable(8) ptr @_ZSt4endlIcSt11char_traitsIcEERSt13basic_ostreamIT_T0_ES6_(ptr noundef nonnull align 8 dereferenceable(8) %1115)
          to label %1118 unwind label %1122

1118:                                             ; preds = %1116
  invoke fastcc void @_ZL5usagev() #34
          to label %1119 unwind label %1122

1119:                                             ; preds = %1118
  unreachable

1120:                                             ; preds = %1102
  %1121 = landingpad { ptr, i32 }
          cleanup
  br label %1139

1122:                                             ; preds = %1118, %1116, %1114, %1112
  %1123 = landingpad { ptr, i32 }
          cleanup
  br label %1137

1124:                                             ; preds = %1104
  call void @llvm.lifetime.start.p0(ptr %75)
  %1125 = getelementptr inbounds nuw i8, ptr %1106, i64 32
  invoke void @_ZNSt4pairINSt7__cxx1112basic_stringIcSt11char_traitsIcESaIcEEES5_EC2IRS5_S8_TnNSt9enable_ifIXaaclsr5_PCCPE22_MoveConstructiblePairIT_T0_EEclsr5_PCCPE30_ImplicitlyMoveConvertiblePairISA_SB_EEEbE4typeELb1EEEOSA_OSB_(ptr noundef nonnull align 8 dereferenceable(64) %75, ptr noundef nonnull align 8 dereferenceable(32) %1106, ptr noundef nonnull align 8 dereferenceable(32) %1125)
          to label %1126 unwind label %1131

1126:                                             ; preds = %1124
  %1127 = invoke noundef nonnull align 8 dereferenceable(64) ptr @_ZNSt6vectorISt4pairINSt7__cxx1112basic_stringIcSt11char_traitsIcESaIcEEES6_ESaIS7_EE12emplace_backIJS7_EEERS7_DpOT_(ptr noundef nonnull align 8 dereferenceable(24) %49, ptr noundef nonnull align 8 dereferenceable(64) %75)
          to label %1128 unwind label %1133

1128:                                             ; preds = %1126
  call void @_ZNSt4pairINSt7__cxx1112basic_stringIcSt11char_traitsIcESaIcEEES5_ED2Ev(ptr noundef nonnull align 8 dereferenceable(64) %75) #38
  call void @llvm.lifetime.end.p0(ptr %75)
  call void @_ZNSt6vectorINSt7__cxx1112basic_stringIcSt11char_traitsIcESaIcEEESaIS5_EED2Ev(ptr noundef nonnull align 8 dereferenceable(24) %74) #38
  call void @llvm.lifetime.end.p0(ptr %74)
  %1129 = getelementptr inbounds nuw i8, ptr %1103, i64 32
  %1130 = icmp eq ptr %1129, %1085
  br i1 %1130, label %1087, label %1102

1131:                                             ; preds = %1124
  %1132 = landingpad { ptr, i32 }
          cleanup
  br label %1135

1133:                                             ; preds = %1126
  %1134 = landingpad { ptr, i32 }
          cleanup
  call void @_ZNSt4pairINSt7__cxx1112basic_stringIcSt11char_traitsIcESaIcEEES5_ED2Ev(ptr noundef nonnull align 8 dereferenceable(64) %75) #38
  br label %1135

1135:                                             ; preds = %1133, %1131
  %1136 = phi { ptr, i32 } [ %1134, %1133 ], [ %1132, %1131 ]
  call void @llvm.lifetime.end.p0(ptr %75)
  br label %1137

1137:                                             ; preds = %1135, %1122
  %1138 = phi { ptr, i32 } [ %1123, %1122 ], [ %1136, %1135 ]
  call void @_ZNSt6vectorINSt7__cxx1112basic_stringIcSt11char_traitsIcESaIcEEESaIS5_EED2Ev(ptr noundef nonnull align 8 dereferenceable(24) %74) #38
  br label %1139

1139:                                             ; preds = %1137, %1120
  %1140 = phi { ptr, i32 } [ %1138, %1137 ], [ %1121, %1120 ]
  call void @llvm.lifetime.end.p0(ptr %74)
  call void @_ZNSt6vectorINSt7__cxx1112basic_stringIcSt11char_traitsIcESaIcEEESaIS5_EED2Ev(ptr noundef nonnull align 8 dereferenceable(24) %71) #38
  br label %1141

1141:                                             ; preds = %1139, %1100
  %1142 = phi { ptr, i32 } [ %1140, %1139 ], [ %1101, %1100 ]
  call void @llvm.lifetime.end.p0(ptr %71)
  br label %1433

1143:                                             ; preds = %1024, %1022
  %1144 = call noundef zeroext i1 @_ZSteqIcSt11char_traitsIcESaIcEEbRKNSt7__cxx1112basic_stringIT_T0_T1_EEPKS5_(ptr noundef nonnull align 8 dereferenceable(32) %54, ptr noundef nonnull @.str.99)
  br i1 %1144, label %1145, label %1153

1145:                                             ; preds = %1143
  %1146 = add nsw i32 %308, 1
  %1147 = icmp slt i32 %1146, %0
  br i1 %1147, label %1148, label %1153

1148:                                             ; preds = %1145
  %1149 = sext i32 %1146 to i64
  %1150 = getelementptr inbounds ptr, ptr %1, i64 %1149
  %1151 = load ptr, ptr %1150, align 8, !tbaa !5
  %1152 = invoke noundef nonnull align 8 dereferenceable(32) ptr @_ZNSt7__cxx1112basic_stringIcSt11char_traitsIcESaIcEEaSEPKc(ptr noundef nonnull align 8 dereferenceable(32) %50, ptr noundef %1151)
          to label %1402 unwind label %419

1153:                                             ; preds = %1145, %1143
  %1154 = call noundef zeroext i1 @_ZSteqIcSt11char_traitsIcESaIcEEbRKNSt7__cxx1112basic_stringIT_T0_T1_EEPKS5_(ptr noundef nonnull align 8 dereferenceable(32) %54, ptr noundef nonnull @.str.100)
  br i1 %1154, label %1155, label %1187

1155:                                             ; preds = %1153
  %1156 = add nsw i32 %308, 1
  %1157 = icmp slt i32 %1156, %0
  br i1 %1157, label %1158, label %1187

1158:                                             ; preds = %1155
  call void @llvm.lifetime.start.p0(ptr %76)
  %1159 = sext i32 %1156 to i64
  %1160 = getelementptr inbounds ptr, ptr %1, i64 %1159
  %1161 = load ptr, ptr %1160, align 8, !tbaa !5
  call void @llvm.lifetime.start.p0(ptr %77)
  invoke void @_ZNSt7__cxx1112basic_stringIcSt11char_traitsIcESaIcEEC2IS3_EEPKcRKS3_(ptr noundef nonnull align 8 dereferenceable(32) %76, ptr noundef %1161, ptr noundef nonnull align 1 dereferenceable(1) %77)
          to label %1162 unwind label %1173

1162:                                             ; preds = %1158
  invoke void @_ZNSt6vectorINSt7__cxx1112basic_stringIcSt11char_traitsIcESaIcEEESaIS5_EE9push_backEOS5_(ptr noundef nonnull align 8 dereferenceable(24) %51, ptr noundef nonnull align 8 dereferenceable(32) %76)
          to label %1163 unwind label %1175

1163:                                             ; preds = %1162
  %1164 = load ptr, ptr %76, align 8, !tbaa !15
  %1165 = icmp eq ptr %1164, %241
  br i1 %1165, label %1166, label %1169

1166:                                             ; preds = %1163
  %1167 = load i64, ptr %242, align 8, !tbaa !19
  %1168 = icmp ult i64 %1167, 16
  call void @llvm.assume(i1 %1168)
  br label %1172

1169:                                             ; preds = %1163
  %1170 = load i64, ptr %241, align 8, !tbaa !20
  %1171 = add i64 %1170, 1
  call void @_ZdlPvm(ptr noundef %1164, i64 noundef %1171) #37
  br label %1172

1172:                                             ; preds = %1169, %1166
  call void @llvm.lifetime.end.p0(ptr %77)
  call void @llvm.lifetime.end.p0(ptr %76)
  br label %1402

1173:                                             ; preds = %1158
  %1174 = landingpad { ptr, i32 }
          cleanup
  br label %1185

1175:                                             ; preds = %1162
  %1176 = landingpad { ptr, i32 }
          cleanup
  %1177 = load ptr, ptr %76, align 8, !tbaa !15
  %1178 = icmp eq ptr %1177, %241
  br i1 %1178, label %1179, label %1182

1179:                                             ; preds = %1175
  %1180 = load i64, ptr %242, align 8, !tbaa !19
  %1181 = icmp ult i64 %1180, 16
  call void @llvm.assume(i1 %1181)
  br label %1185

1182:                                             ; preds = %1175
  %1183 = load i64, ptr %241, align 8, !tbaa !20
  %1184 = add i64 %1183, 1
  call void @_ZdlPvm(ptr noundef %1177, i64 noundef %1184) #37
  br label %1185

1185:                                             ; preds = %1182, %1179, %1173
  %1186 = phi { ptr, i32 } [ %1174, %1173 ], [ %1176, %1179 ], [ %1176, %1182 ]
  call void @llvm.lifetime.end.p0(ptr %77)
  call void @llvm.lifetime.end.p0(ptr %76)
  br label %1433

1187:                                             ; preds = %1155, %1153
  %1188 = call noundef zeroext i1 @_ZSteqIcSt11char_traitsIcESaIcEEbRKNSt7__cxx1112basic_stringIT_T0_T1_EEPKS5_(ptr noundef nonnull align 8 dereferenceable(32) %54, ptr noundef nonnull @.str.101)
  br i1 %1188, label %1402, label %1189

1189:                                             ; preds = %1187
  %1190 = call noundef zeroext i1 @_ZSteqIcSt11char_traitsIcESaIcEEbRKNSt7__cxx1112basic_stringIT_T0_T1_EEPKS5_(ptr noundef nonnull align 8 dereferenceable(32) %54, ptr noundef nonnull @.str.102)
  br i1 %1190, label %1191, label %1204

1191:                                             ; preds = %1189
  %1192 = add nsw i32 %308, 1
  %1193 = icmp slt i32 %1192, %0
  br i1 %1193, label %1194, label %1204

1194:                                             ; preds = %1191
  %1195 = sext i32 %1192 to i64
  %1196 = getelementptr inbounds ptr, ptr %1, i64 %1195
  %1197 = load ptr, ptr %1196, align 8, !tbaa !5
  %1198 = invoke noundef nonnull align 8 dereferenceable(32) ptr @_ZNSt7__cxx1112basic_stringIcSt11char_traitsIcESaIcEEaSEPKc(ptr noundef nonnull align 8 dereferenceable(32) %52, ptr noundef %1197)
          to label %1199 unwind label %419

1199:                                             ; preds = %1194
  call void @llvm.lifetime.start.p0(ptr %78)
  invoke void @_ZN5osgeo4proj8internal5splitERKNSt7__cxx1112basic_stringIcSt11char_traitsIcESaIcEEEc(ptr dead_on_unwind nonnull writable sret(%"class.std::vector") align 8 %78, ptr noundef nonnull align 8 dereferenceable(32) %52, i8 noundef signext 44)
          to label %1200 unwind label %1202

1200:                                             ; preds = %1199
  %1201 = call noundef nonnull align 8 dereferenceable(24) ptr @_ZNSt6vectorINSt7__cxx1112basic_stringIcSt11char_traitsIcESaIcEEESaIS5_EEaSEOS7_(ptr noundef nonnull align 8 dereferenceable(24) %198, ptr noundef nonnull align 8 dereferenceable(24) %78) #38
  call void @_ZNSt6vectorINSt7__cxx1112basic_stringIcSt11char_traitsIcESaIcEEESaIS5_EED2Ev(ptr noundef nonnull align 8 dereferenceable(24) %78) #38
  call void @llvm.lifetime.end.p0(ptr %78)
  br label %1402

1202:                                             ; preds = %1199
  %1203 = landingpad { ptr, i32 }
          cleanup
  call void @llvm.lifetime.end.p0(ptr %78)
  br label %1433

1204:                                             ; preds = %1191, %1189
  %1205 = call noundef zeroext i1 @_ZSteqIcSt11char_traitsIcESaIcEEbRKNSt7__cxx1112basic_stringIT_T0_T1_EEPKS5_(ptr noundef nonnull align 8 dereferenceable(32) %54, ptr noundef nonnull @.str.103)
  br i1 %1205, label %1402, label %1206

1206:                                             ; preds = %1204
  %1207 = call noundef zeroext i1 @_ZSteqIcSt11char_traitsIcESaIcEEbRKNSt7__cxx1112basic_stringIT_T0_T1_EEPKS5_(ptr noundef nonnull align 8 dereferenceable(32) %54, ptr noundef nonnull @.str.104)
  br i1 %1207, label %1402, label %1208

1208:                                             ; preds = %1206
  %1209 = call noundef zeroext i1 @_ZSteqIcSt11char_traitsIcESaIcEEbRKNSt7__cxx1112basic_stringIT_T0_T1_EEPKS5_(ptr noundef nonnull align 8 dereferenceable(32) %54, ptr noundef nonnull @.str.105)
  br i1 %1209, label %1210, label %1211

1210:                                             ; preds = %1208
  store i8 0, ptr %189, align 4, !tbaa !24
  br label %1402

1211:                                             ; preds = %1208
  %1212 = call noundef zeroext i1 @_ZSteqIcSt11char_traitsIcESaIcEEbRKNSt7__cxx1112basic_stringIT_T0_T1_EEPKS5_(ptr noundef nonnull align 8 dereferenceable(32) %54, ptr noundef nonnull @.str.106)
  br i1 %1212, label %1213, label %1214

1213:                                             ; preds = %1211
  store i8 1, ptr %191, align 2, !tbaa !31
  br label %1402

1214:                                             ; preds = %1211
  %1215 = call noundef zeroext i1 @_ZSteqIcSt11char_traitsIcESaIcEEbRKNSt7__cxx1112basic_stringIT_T0_T1_EEPKS5_(ptr noundef nonnull align 8 dereferenceable(32) %54, ptr noundef nonnull @.str.107)
  br i1 %1215, label %1216, label %1217

1216:                                             ; preds = %1214
  store i8 0, ptr %190, align 1, !tbaa !30
  br label %1402

1217:                                             ; preds = %1214
  %1218 = call noundef zeroext i1 @_ZN5osgeo4proj8internal8ci_equalERKNSt7__cxx1112basic_stringIcSt11char_traitsIcESaIcEEEPKc(ptr noundef nonnull align 8 dereferenceable(32) %54, ptr noundef nonnull @.str.108) #38
  br i1 %1218, label %1402, label %1219

1219:                                             ; preds = %1217
  %1220 = call noundef zeroext i1 @_ZN5osgeo4proj8internal8ci_equalERKNSt7__cxx1112basic_stringIcSt11char_traitsIcESaIcEEEPKc(ptr noundef nonnull align 8 dereferenceable(32) %54, ptr noundef nonnull @.str.109) #38
  br i1 %1220, label %1402, label %1221

1221:                                             ; preds = %1219
  %1222 = call noundef zeroext i1 @_ZSteqIcSt11char_traitsIcESaIcEEbRKNSt7__cxx1112basic_stringIT_T0_T1_EEPKS5_(ptr noundef nonnull align 8 dereferenceable(32) %54, ptr noundef nonnull @.str.110)
  br i1 %1222, label %1223, label %1281

1223:                                             ; preds = %1221
  %1224 = add nsw i32 %308, 1
  %1225 = icmp slt i32 %1224, %0
  br i1 %1225, label %1226, label %1281

1226:                                             ; preds = %1223
  call void @llvm.lifetime.start.p0(ptr %79)
  call void @llvm.lifetime.start.p0(ptr %80)
  %1227 = sext i32 %1224 to i64
  %1228 = getelementptr inbounds ptr, ptr %1, i64 %1227
  %1229 = load ptr, ptr %1228, align 8, !tbaa !5
  call void @llvm.lifetime.start.p0(ptr %81)
  invoke void @_ZNSt7__cxx1112basic_stringIcSt11char_traitsIcESaIcEEC2IS3_EEPKcRKS3_(ptr noundef nonnull align 8 dereferenceable(32) %80, ptr noundef %1229, ptr noundef nonnull align 1 dereferenceable(1) %81)
          to label %1230 unwind label %1254

1230:                                             ; preds = %1226
  invoke void @_ZN5osgeo4proj8internal5splitERKNSt7__cxx1112basic_stringIcSt11char_traitsIcESaIcEEEc(ptr dead_on_unwind nonnull writable sret(%"class.std::vector") align 8 %79, ptr noundef nonnull align 8 dereferenceable(32) %80, i8 noundef signext 58)
          to label %1231 unwind label %1256

1231:                                             ; preds = %1230
  %1232 = load ptr, ptr %80, align 8, !tbaa !15
  %1233 = icmp eq ptr %1232, %238
  br i1 %1233, label %1234, label %1237

1234:                                             ; preds = %1231
  %1235 = load i64, ptr %239, align 8, !tbaa !19
  %1236 = icmp ult i64 %1235, 16
  call void @llvm.assume(i1 %1236)
  br label %1240

1237:                                             ; preds = %1231
  %1238 = load i64, ptr %238, align 8, !tbaa !20
  %1239 = add i64 %1238, 1
  call void @_ZdlPvm(ptr noundef %1232, i64 noundef %1239) #37
  br label %1240

1240:                                             ; preds = %1237, %1234
  call void @llvm.lifetime.end.p0(ptr %81)
  call void @llvm.lifetime.end.p0(ptr %80)
  %1241 = load ptr, ptr %240, align 8, !tbaa !14
  %1242 = load ptr, ptr %79, align 8, !tbaa !10
  %1243 = ptrtoint ptr %1241 to i64
  %1244 = ptrtoint ptr %1242 to i64
  %1245 = sub i64 %1243, %1244
  %1246 = icmp sgt i64 %1245, -1
  call void @llvm.assume(i1 %1246)
  %1247 = icmp eq i64 %1245, 64
  br i1 %1247, label %1274, label %1248

1248:                                             ; preds = %1240
  %1249 = invoke noundef nonnull align 8 dereferenceable(8) ptr @_ZSt16__ostream_insertIcSt11char_traitsIcEERSt13basic_ostreamIT_T0_ES6_PKS3_l(ptr noundef nonnull align 8 dereferenceable(8) @_ZSt4cerr, ptr noundef nonnull @.str.111, i64 noundef 36)
          to label %1250 unwind label %1270

1250:                                             ; preds = %1248
  %1251 = invoke noundef nonnull align 8 dereferenceable(8) ptr @_ZSt4endlIcSt11char_traitsIcEERSt13basic_ostreamIT_T0_ES6_(ptr noundef nonnull align 8 dereferenceable(8) @_ZSt4cerr)
          to label %1252 unwind label %1270

1252:                                             ; preds = %1250
  invoke fastcc void @_ZL5usagev() #34
          to label %1253 unwind label %1270

1253:                                             ; preds = %1252
  unreachable

1254:                                             ; preds = %1226
  %1255 = landingpad { ptr, i32 }
          cleanup
  br label %1266

1256:                                             ; preds = %1230
  %1257 = landingpad { ptr, i32 }
          cleanup
  %1258 = load ptr, ptr %80, align 8, !tbaa !15
  %1259 = icmp eq ptr %1258, %238
  br i1 %1259, label %1260, label %1263

1260:                                             ; preds = %1256
  %1261 = load i64, ptr %239, align 8, !tbaa !19
  %1262 = icmp ult i64 %1261, 16
  call void @llvm.assume(i1 %1262)
  br label %1266

1263:                                             ; preds = %1256
  %1264 = load i64, ptr %238, align 8, !tbaa !20
  %1265 = add i64 %1264, 1
  call void @_ZdlPvm(ptr noundef %1258, i64 noundef %1265) #37
  br label %1266

1266:                                             ; preds = %1263, %1260, %1254
  %1267 = phi { ptr, i32 } [ %1255, %1254 ], [ %1257, %1260 ], [ %1257, %1263 ]
  call void @llvm.lifetime.end.p0(ptr %81)
  call void @llvm.lifetime.end.p0(ptr %80)
  br label %1279

1268:                                             ; preds = %1275, %1274
  %1269 = landingpad { ptr, i32 }
          cleanup
  br label %1272

1270:                                             ; preds = %1252, %1250, %1248
  %1271 = landingpad { ptr, i32 }
          cleanup
  br label %1272

1272:                                             ; preds = %1270, %1268
  %1273 = phi { ptr, i32 } [ %1269, %1268 ], [ %1271, %1270 ]
  call void @_ZNSt6vectorINSt7__cxx1112basic_stringIcSt11char_traitsIcESaIcEEESaIS5_EED2Ev(ptr noundef nonnull align 8 dereferenceable(24) %79) #38
  br label %1279

1274:                                             ; preds = %1240
  invoke void @_ZNSt7__cxx1112basic_stringIcSt11char_traitsIcESaIcEE9_M_assignERKS4_(ptr noundef nonnull align 8 dereferenceable(32) %192, ptr noundef nonnull align 8 dereferenceable(32) %1242)
          to label %1275 unwind label %1268

1275:                                             ; preds = %1274
  %1276 = load ptr, ptr %79, align 8, !tbaa !10
  %1277 = getelementptr inbounds nuw i8, ptr %1276, i64 32
  invoke void @_ZNSt7__cxx1112basic_stringIcSt11char_traitsIcESaIcEE9_M_assignERKS4_(ptr noundef nonnull align 8 dereferenceable(32) %195, ptr noundef nonnull align 8 dereferenceable(32) %1277)
          to label %1278 unwind label %1268

1278:                                             ; preds = %1275
  call void @_ZNSt6vectorINSt7__cxx1112basic_stringIcSt11char_traitsIcESaIcEEESaIS5_EED2Ev(ptr noundef nonnull align 8 dereferenceable(24) %79) #38
  call void @llvm.lifetime.end.p0(ptr %79)
  br label %1402

1279:                                             ; preds = %1272, %1266
  %1280 = phi { ptr, i32 } [ %1273, %1272 ], [ %1267, %1266 ]
  call void @llvm.lifetime.end.p0(ptr %79)
  br label %1433

1281:                                             ; preds = %1223, %1221
  %1282 = call noundef zeroext i1 @_ZSteqIcSt11char_traitsIcESaIcEEbRKNSt7__cxx1112basic_stringIT_T0_T1_EEPKS5_(ptr noundef nonnull align 8 dereferenceable(32) %54, ptr noundef nonnull @.str.112)
  br i1 %1282, label %1402, label %1283

1283:                                             ; preds = %1281
  %1284 = call noundef zeroext i1 @_ZSteqIcSt11char_traitsIcESaIcEEbRKNSt7__cxx1112basic_stringIT_T0_T1_EEPKS5_(ptr noundef nonnull align 8 dereferenceable(32) %54, ptr noundef nonnull @.str.113)
  br i1 %1284, label %1285, label %1296

1285:                                             ; preds = %1283
  %1286 = add nsw i32 %308, 1
  %1287 = icmp slt i32 %1286, %0
  br i1 %1287, label %1288, label %1402

1288:                                             ; preds = %1285
  %1289 = sext i32 %1286 to i64
  %1290 = getelementptr inbounds ptr, ptr %1, i64 %1289
  %1291 = load ptr, ptr %1290, align 8, !tbaa !5
  %1292 = load i8, ptr %1291, align 1, !tbaa !20
  %1293 = icmp eq i8 %1292, 45
  br i1 %1293, label %1402, label %1294

1294:                                             ; preds = %1288
  %1295 = invoke noundef nonnull align 8 dereferenceable(32) ptr @_ZNSt7__cxx1112basic_stringIcSt11char_traitsIcESaIcEEaSEPKc(ptr noundef nonnull align 8 dereferenceable(32) %53, ptr noundef nonnull %1291)
          to label %1402 unwind label %419

1296:                                             ; preds = %1283
  %1297 = call noundef zeroext i1 @_ZN5osgeo4proj8internal8ci_equalERKNSt7__cxx1112basic_stringIcSt11char_traitsIcESaIcEEEPKc(ptr noundef nonnull align 8 dereferenceable(32) %54, ptr noundef nonnull @.str.114) #38
  br i1 %1297, label %1298, label %1356

1298:                                             ; preds = %1296
  call void @llvm.lifetime.start.p0(ptr %82)
  call void @llvm.lifetime.start.p0(ptr %83)
  call void @llvm.lifetime.start.p0(ptr %84)
  invoke void @proj_info(ptr dead_on_unwind nonnull writable sret(%struct.PJ_INFO) align 8 %84)
          to label %1299 unwind label %1320

1299:                                             ; preds = %1298
  %1300 = getelementptr inbounds nuw i8, ptr %84, i64 32
  %1301 = load ptr, ptr %1300, align 8, !tbaa !48
  call void @llvm.lifetime.start.p0(ptr %85)
  invoke void @_ZNSt7__cxx1112basic_stringIcSt11char_traitsIcESaIcEEC2IS3_EEPKcRKS3_(ptr noundef nonnull align 8 dereferenceable(32) %83, ptr noundef %1301, ptr noundef nonnull align 1 dereferenceable(1) %85)
          to label %1302 unwind label %1322

1302:                                             ; preds = %1299
  invoke void @_ZN5osgeo4proj8internal5splitERKNSt7__cxx1112basic_stringIcSt11char_traitsIcESaIcEEEc(ptr dead_on_unwind nonnull writable sret(%"class.std::vector") align 8 %82, ptr noundef nonnull align 8 dereferenceable(32) %83, i8 noundef signext 58)
          to label %1303 unwind label %1324

1303:                                             ; preds = %1302
  %1304 = load ptr, ptr %83, align 8, !tbaa !15
  %1305 = getelementptr inbounds nuw i8, ptr %83, i64 16
  %1306 = icmp eq ptr %1304, %1305
  br i1 %1306, label %1307, label %1311

1307:                                             ; preds = %1303
  %1308 = getelementptr inbounds nuw i8, ptr %83, i64 8
  %1309 = load i64, ptr %1308, align 8, !tbaa !19
  %1310 = icmp ult i64 %1309, 16
  call void @llvm.assume(i1 %1310)
  br label %1314

1311:                                             ; preds = %1303
  %1312 = load i64, ptr %1305, align 8, !tbaa !20
  %1313 = add i64 %1312, 1
  call void @_ZdlPvm(ptr noundef %1304, i64 noundef %1313) #37
  br label %1314

1314:                                             ; preds = %1311, %1307
  call void @llvm.lifetime.end.p0(ptr %85)
  call void @llvm.lifetime.end.p0(ptr %84)
  call void @llvm.lifetime.end.p0(ptr %83)
  %1315 = load ptr, ptr %82, align 8, !tbaa !33
  %1316 = getelementptr inbounds nuw i8, ptr %82, i64 8
  %1317 = load ptr, ptr %1316, align 8, !tbaa !33
  %1318 = icmp eq ptr %1315, %1317
  br i1 %1318, label %1319, label %1340

1319:                                             ; preds = %1349, %1314
  call void @exit(i32 noundef 0) #40
  unreachable

1320:                                             ; preds = %1298
  %1321 = landingpad { ptr, i32 }
          cleanup
  br label %1338

1322:                                             ; preds = %1299
  %1323 = landingpad { ptr, i32 }
          cleanup
  br label %1336

1324:                                             ; preds = %1302
  %1325 = landingpad { ptr, i32 }
          cleanup
  %1326 = load ptr, ptr %83, align 8, !tbaa !15
  %1327 = getelementptr inbounds nuw i8, ptr %83, i64 16
  %1328 = icmp eq ptr %1326, %1327
  br i1 %1328, label %1329, label %1333

1329:                                             ; preds = %1324
  %1330 = getelementptr inbounds nuw i8, ptr %83, i64 8
  %1331 = load i64, ptr %1330, align 8, !tbaa !19
  %1332 = icmp ult i64 %1331, 16
  call void @llvm.assume(i1 %1332)
  br label %1336

1333:                                             ; preds = %1324
  %1334 = load i64, ptr %1327, align 8, !tbaa !20
  %1335 = add i64 %1334, 1
  call void @_ZdlPvm(ptr noundef %1326, i64 noundef %1335) #37
  br label %1336

1336:                                             ; preds = %1333, %1329, %1322
  %1337 = phi { ptr, i32 } [ %1323, %1322 ], [ %1325, %1329 ], [ %1325, %1333 ]
  call void @llvm.lifetime.end.p0(ptr %85)
  br label %1338

1338:                                             ; preds = %1336, %1320
  %1339 = phi { ptr, i32 } [ %1337, %1336 ], [ %1321, %1320 ]
  call void @llvm.lifetime.end.p0(ptr %84)
  call void @llvm.lifetime.end.p0(ptr %83)
  br label %1354

1340:                                             ; preds = %1349, %1314
  %1341 = phi ptr [ %1350, %1349 ], [ %1315, %1314 ]
  %1342 = load ptr, ptr %1341, align 8, !tbaa !15
  %1343 = getelementptr inbounds nuw i8, ptr %1341, i64 8
  %1344 = load i64, ptr %1343, align 8, !tbaa !19
  %1345 = icmp ult i64 %1344, 9223372036854775807
  call void @llvm.assume(i1 %1345)
  %1346 = invoke noundef nonnull align 8 dereferenceable(8) ptr @_ZSt16__ostream_insertIcSt11char_traitsIcEERSt13basic_ostreamIT_T0_ES6_PKS3_l(ptr noundef nonnull align 8 dereferenceable(8) @_ZSt4cout, ptr noundef %1342, i64 noundef %1344)
          to label %1347 unwind label %1352

1347:                                             ; preds = %1340
  %1348 = invoke noundef nonnull align 8 dereferenceable(8) ptr @_ZSt4endlIcSt11char_traitsIcEERSt13basic_ostreamIT_T0_ES6_(ptr noundef nonnull align 8 dereferenceable(8) %1346)
          to label %1349 unwind label %1352

1349:                                             ; preds = %1347
  %1350 = getelementptr inbounds nuw i8, ptr %1341, i64 32
  %1351 = icmp eq ptr %1350, %1317
  br i1 %1351, label %1319, label %1340

1352:                                             ; preds = %1347, %1340
  %1353 = landingpad { ptr, i32 }
          cleanup
  call void @_ZNSt6vectorINSt7__cxx1112basic_stringIcSt11char_traitsIcESaIcEEESaIS5_EED2Ev(ptr noundef nonnull align 8 dereferenceable(24) %82) #38
  br label %1354

1354:                                             ; preds = %1352, %1338
  %1355 = phi { ptr, i32 } [ %1353, %1352 ], [ %1339, %1338 ]
  call void @llvm.lifetime.end.p0(ptr %82)
  br label %1433

1356:                                             ; preds = %1296
  %1357 = call noundef zeroext i1 @_ZN5osgeo4proj8internal8ci_equalERKNSt7__cxx1112basic_stringIcSt11char_traitsIcESaIcEEEPKc(ptr noundef nonnull align 8 dereferenceable(32) %54, ptr noundef nonnull @.str.115) #38
  br i1 %1357, label %1358, label %1382

1358:                                             ; preds = %1356
  %1359 = invoke i32 @proj_context_is_network_enabled(ptr noundef null)
          to label %1360 unwind label %421

1360:                                             ; preds = %1358
  %1361 = icmp eq i32 %1359, 0
  br i1 %1361, label %1375, label %1362

1362:                                             ; preds = %1360
  %1363 = invoke noundef nonnull align 8 dereferenceable(8) ptr @_ZSt16__ostream_insertIcSt11char_traitsIcEERSt13basic_ostreamIT_T0_ES6_PKS3_l(ptr noundef nonnull align 8 dereferenceable(8) @_ZSt4cout, ptr noundef nonnull @.str.116, i64 noundef 15)
          to label %1364 unwind label %421

1364:                                             ; preds = %1362
  %1365 = invoke noundef nonnull align 8 dereferenceable(8) ptr @_ZSt4endlIcSt11char_traitsIcEERSt13basic_ostreamIT_T0_ES6_(ptr noundef nonnull align 8 dereferenceable(8) @_ZSt4cout)
          to label %1366 unwind label %421

1366:                                             ; preds = %1364
  %1367 = invoke noundef nonnull align 8 dereferenceable(8) ptr @_ZSt16__ostream_insertIcSt11char_traitsIcEERSt13basic_ostreamIT_T0_ES6_PKS3_l(ptr noundef nonnull align 8 dereferenceable(8) @_ZSt4cout, ptr noundef nonnull @.str.117, i64 noundef 5)
          to label %1368 unwind label %421

1368:                                             ; preds = %1366
  %1369 = invoke ptr @proj_context_get_url_endpoint(ptr noundef null)
          to label %1370 unwind label %421

1370:                                             ; preds = %1368
  %1371 = invoke noundef nonnull align 8 dereferenceable(8) ptr @_ZStlsISt11char_traitsIcEERSt13basic_ostreamIcT_ES5_PKc(ptr noundef nonnull align 8 dereferenceable(8) @_ZSt4cout, ptr noundef %1369)
          to label %1372 unwind label %421

1372:                                             ; preds = %1379, %1370
  %1373 = phi ptr [ %1371, %1370 ], [ @_ZSt4cout, %1379 ]
  %1374 = invoke noundef nonnull align 8 dereferenceable(8) ptr @_ZSt4endlIcSt11char_traitsIcEERSt13basic_ostreamIT_T0_ES6_(ptr noundef nonnull align 8 dereferenceable(8) %1373)
          to label %1381 unwind label %421

1375:                                             ; preds = %1360
  %1376 = invoke noundef nonnull align 8 dereferenceable(8) ptr @_ZSt16__ostream_insertIcSt11char_traitsIcEERSt13basic_ostreamIT_T0_ES6_PKS3_l(ptr noundef nonnull align 8 dereferenceable(8) @_ZSt4cout, ptr noundef nonnull @.str.118, i64 noundef 16)
          to label %1377 unwind label %421

1377:                                             ; preds = %1375
  %1378 = invoke noundef nonnull align 8 dereferenceable(8) ptr @_ZSt4endlIcSt11char_traitsIcEERSt13basic_ostreamIT_T0_ES6_(ptr noundef nonnull align 8 dereferenceable(8) @_ZSt4cout)
          to label %1379 unwind label %421

1379:                                             ; preds = %1377
  %1380 = invoke noundef nonnull align 8 dereferenceable(8) ptr @_ZSt16__ostream_insertIcSt11char_traitsIcEERSt13basic_ostreamIT_T0_ES6_PKS3_l(ptr noundef nonnull align 8 dereferenceable(8) @_ZSt4cout, ptr noundef nonnull @.str.119, i64 noundef 64)
          to label %1372 unwind label %421

1381:                                             ; preds = %1372
  call void @exit(i32 noundef 0) #40
  unreachable

1382:                                             ; preds = %1356
  %1383 = call noundef zeroext i1 @_ZSteqIcSt11char_traitsIcESaIcEEbRKNSt7__cxx1112basic_stringIT_T0_T1_EEPKS5_(ptr noundef nonnull align 8 dereferenceable(32) %54, ptr noundef nonnull @.str.120)
  br i1 %1383, label %1386, label %1384

1384:                                             ; preds = %1382
  %1385 = call noundef zeroext i1 @_ZSteqIcSt11char_traitsIcESaIcEEbRKNSt7__cxx1112basic_stringIT_T0_T1_EEPKS5_(ptr noundef nonnull align 8 dereferenceable(32) %54, ptr noundef nonnull @.str.121)
  br i1 %1385, label %1386, label %1388

1386:                                             ; preds = %1399, %1384, %1382
  invoke fastcc void @_ZL5usagev() #34
          to label %1387 unwind label %421

1387:                                             ; preds = %1386
  unreachable

1388:                                             ; preds = %1384
  %1389 = load ptr, ptr %54, align 8, !tbaa !15
  %1390 = load i8, ptr %1389, align 1, !tbaa !20
  %1391 = icmp eq i8 %1390, 45
  br i1 %1391, label %1392, label %1401

1392:                                             ; preds = %1388
  %1393 = invoke noundef nonnull align 8 dereferenceable(8) ptr @_ZSt16__ostream_insertIcSt11char_traitsIcEERSt13basic_ostreamIT_T0_ES6_PKS3_l(ptr noundef nonnull align 8 dereferenceable(8) @_ZSt4cerr, ptr noundef nonnull @.str.122, i64 noundef 21)
          to label %1394 unwind label %421

1394:                                             ; preds = %1392
  %1395 = load ptr, ptr %54, align 8, !tbaa !15
  %1396 = load i64, ptr %218, align 8, !tbaa !19
  %1397 = icmp ult i64 %1396, 9223372036854775807
  call void @llvm.assume(i1 %1397)
  %1398 = invoke noundef nonnull align 8 dereferenceable(8) ptr @_ZSt16__ostream_insertIcSt11char_traitsIcEERSt13basic_ostreamIT_T0_ES6_PKS3_l(ptr noundef nonnull align 8 dereferenceable(8) @_ZSt4cerr, ptr noundef %1395, i64 noundef %1396)
          to label %1399 unwind label %421

1399:                                             ; preds = %1394
  %1400 = invoke noundef nonnull align 8 dereferenceable(8) ptr @_ZSt4endlIcSt11char_traitsIcEERSt13basic_ostreamIT_T0_ES6_(ptr noundef nonnull align 8 dereferenceable(8) %1398)
          to label %1386 unwind label %421

1401:                                             ; preds = %1388
  invoke void @_ZNSt6vectorINSt7__cxx1112basic_stringIcSt11char_traitsIcESaIcEEESaIS5_EE9push_backEOS5_(ptr noundef nonnull align 8 dereferenceable(24) %40, ptr noundef nonnull align 8 dereferenceable(32) %54)
          to label %1402 unwind label %419

1402:                                             ; preds = %1401, %1294, %1288, %1285, %1281, %1278, %1219, %1217, %1216, %1213, %1210, %1206, %1204, %1200, %1187, %1172, %1148, %1087, %1069, %1055, %1041, %1019, %966, %913, %865, %863, %860, %859, %858, %854, %838, %822, %802, %786, %772, %680, %638, %590, %414
  %1403 = phi i32 [ %346, %414 ], [ %603, %638 ], [ %692, %772 ], [ %308, %854 ], [ %308, %858 ], [ %308, %859 ], [ %870, %913 ], [ %919, %966 ], [ %972, %1019 ], [ %1146, %1148 ], [ %1156, %1172 ], [ %1192, %1200 ], [ %308, %1210 ], [ %308, %1213 ], [ %308, %1216 ], [ %1224, %1278 ], [ %1286, %1294 ], [ %308, %1288 ], [ %308, %1285 ], [ %308, %1401 ], [ %308, %860 ], [ %308, %863 ], [ %308, %865 ], [ %1025, %1069 ], [ %1025, %1055 ], [ %1025, %1041 ], [ %1025, %1087 ], [ %308, %1187 ], [ %308, %1204 ], [ %308, %1206 ], [ %308, %1217 ], [ %308, %1219 ], [ %308, %1281 ], [ %588, %590 ], [ %678, %680 ], [ %784, %786 ], [ %800, %802 ], [ %820, %822 ], [ %836, %838 ]
  %1404 = phi i8 [ %307, %414 ], [ %307, %638 ], [ %307, %772 ], [ %307, %854 ], [ %307, %858 ], [ %307, %859 ], [ %307, %913 ], [ %307, %966 ], [ %307, %1019 ], [ %307, %1148 ], [ %307, %1172 ], [ %307, %1200 ], [ %307, %1210 ], [ %307, %1213 ], [ %307, %1216 ], [ %307, %1278 ], [ 1, %1294 ], [ 1, %1288 ], [ 1, %1285 ], [ %307, %1401 ], [ %307, %860 ], [ %307, %863 ], [ %307, %865 ], [ %307, %1069 ], [ %307, %1055 ], [ %307, %1041 ], [ %307, %1087 ], [ %307, %1187 ], [ %307, %1204 ], [ %307, %1206 ], [ %307, %1217 ], [ %307, %1219 ], [ %307, %1281 ], [ %307, %590 ], [ %307, %680 ], [ %307, %786 ], [ %307, %802 ], [ %307, %822 ], [ %307, %838 ]
  %1405 = phi i8 [ %306, %414 ], [ %306, %638 ], [ %306, %772 ], [ %306, %854 ], [ %306, %858 ], [ %306, %859 ], [ %306, %913 ], [ %306, %966 ], [ %306, %1019 ], [ %306, %1148 ], [ %306, %1172 ], [ %306, %1200 ], [ %306, %1210 ], [ %306, %1213 ], [ %306, %1216 ], [ %306, %1278 ], [ %306, %1294 ], [ %306, %1288 ], [ %306, %1285 ], [ %306, %1401 ], [ %306, %860 ], [ %306, %863 ], [ %306, %865 ], [ %306, %1069 ], [ %306, %1055 ], [ %306, %1041 ], [ %306, %1087 ], [ %306, %1187 ], [ %306, %1204 ], [ %306, %1206 ], [ %306, %1217 ], [ %306, %1219 ], [ 1, %1281 ], [ %306, %590 ], [ %306, %680 ], [ %306, %786 ], [ %306, %802 ], [ %306, %822 ], [ %306, %838 ]
  %1406 = phi i1 [ %406, %414 ], [ %305, %638 ], [ %305, %772 ], [ %305, %854 ], [ %305, %858 ], [ %305, %859 ], [ %305, %913 ], [ %305, %966 ], [ %305, %1019 ], [ %305, %1148 ], [ %305, %1172 ], [ %305, %1200 ], [ %305, %1210 ], [ %305, %1213 ], [ %305, %1216 ], [ %305, %1278 ], [ %305, %1294 ], [ %305, %1288 ], [ %305, %1285 ], [ %305, %1401 ], [ %305, %860 ], [ %305, %863 ], [ %305, %865 ], [ %305, %1069 ], [ %305, %1055 ], [ %305, %1041 ], [ %305, %1087 ], [ %305, %1187 ], [ %305, %1204 ], [ %305, %1206 ], [ %305, %1217 ], [ %305, %1219 ], [ %305, %1281 ], [ %305, %590 ], [ %305, %680 ], [ %305, %786 ], [ %305, %802 ], [ %305, %822 ], [ %305, %838 ]
  %1407 = phi double [ %304, %414 ], [ %628, %638 ], [ %304, %772 ], [ %304, %854 ], [ %304, %858 ], [ %304, %859 ], [ %304, %913 ], [ %304, %966 ], [ %304, %1019 ], [ %304, %1148 ], [ %304, %1172 ], [ %304, %1200 ], [ %304, %1210 ], [ %304, %1213 ], [ %304, %1216 ], [ %304, %1278 ], [ %304, %1294 ], [ %304, %1288 ], [ %304, %1285 ], [ %304, %1401 ], [ %304, %860 ], [ %304, %863 ], [ %304, %865 ], [ %304, %1069 ], [ %304, %1055 ], [ %304, %1041 ], [ %304, %1087 ], [ %304, %1187 ], [ %304, %1204 ], [ %304, %1206 ], [ %304, %1217 ], [ %304, %1219 ], [ %304, %1281 ], [ %304, %590 ], [ %304, %680 ], [ %304, %786 ], [ %304, %802 ], [ %304, %822 ], [ %304, %838 ]
  %1408 = phi i8 [ %303, %414 ], [ %303, %638 ], [ %303, %772 ], [ %303, %854 ], [ %303, %858 ], [ %303, %859 ], [ %303, %913 ], [ %303, %966 ], [ %303, %1019 ], [ %303, %1148 ], [ %303, %1172 ], [ %303, %1200 ], [ %303, %1210 ], [ %303, %1213 ], [ %303, %1216 ], [ %303, %1278 ], [ %303, %1294 ], [ %303, %1288 ], [ %303, %1285 ], [ %303, %1401 ], [ %303, %860 ], [ %303, %863 ], [ %303, %865 ], [ %303, %1069 ], [ %303, %1055 ], [ %303, %1041 ], [ %303, %1087 ], [ %303, %1187 ], [ %303, %1204 ], [ %303, %1206 ], [ %303, %1217 ], [ 1, %1219 ], [ %303, %1281 ], [ %303, %590 ], [ %303, %680 ], [ %303, %786 ], [ %303, %802 ], [ %303, %822 ], [ %303, %838 ]
  %1409 = phi i8 [ %302, %414 ], [ %302, %638 ], [ %302, %772 ], [ %302, %854 ], [ %302, %858 ], [ %302, %859 ], [ %302, %913 ], [ %302, %966 ], [ %302, %1019 ], [ %302, %1148 ], [ %302, %1172 ], [ %302, %1200 ], [ %302, %1210 ], [ %302, %1213 ], [ %302, %1216 ], [ %302, %1278 ], [ %302, %1294 ], [ %302, %1288 ], [ %302, %1285 ], [ %302, %1401 ], [ %302, %860 ], [ %302, %863 ], [ %302, %865 ], [ %302, %1069 ], [ %302, %1055 ], [ %302, %1041 ], [ %302, %1087 ], [ %302, %1187 ], [ %302, %1204 ], [ %302, %1206 ], [ 1, %1217 ], [ %302, %1219 ], [ %302, %1281 ], [ %302, %590 ], [ %302, %680 ], [ %302, %786 ], [ %302, %802 ], [ %302, %822 ], [ %302, %838 ]
  %1410 = phi i1 [ %301, %414 ], [ %301, %638 ], [ %301, %772 ], [ %301, %854 ], [ %301, %858 ], [ %301, %859 ], [ %301, %913 ], [ %301, %966 ], [ %301, %1019 ], [ %301, %1148 ], [ %301, %1172 ], [ %301, %1200 ], [ %301, %1210 ], [ %301, %1213 ], [ %301, %1216 ], [ %301, %1278 ], [ %301, %1294 ], [ %301, %1288 ], [ %301, %1285 ], [ %301, %1401 ], [ %301, %860 ], [ %301, %863 ], [ %301, %865 ], [ %301, %1069 ], [ %301, %1055 ], [ %301, %1041 ], [ %301, %1087 ], [ %301, %1187 ], [ %301, %1204 ], [ true, %1206 ], [ %301, %1217 ], [ %301, %1219 ], [ %301, %1281 ], [ %301, %590 ], [ %301, %680 ], [ %301, %786 ], [ %301, %802 ], [ %301, %822 ], [ %301, %838 ]
  %1411 = phi i1 [ %300, %414 ], [ %300, %638 ], [ %300, %772 ], [ %300, %854 ], [ %300, %858 ], [ %300, %859 ], [ %300, %913 ], [ %300, %966 ], [ %300, %1019 ], [ %300, %1148 ], [ %300, %1172 ], [ %300, %1200 ], [ %300, %1210 ], [ %300, %1213 ], [ %300, %1216 ], [ %300, %1278 ], [ %300, %1294 ], [ %300, %1288 ], [ %300, %1285 ], [ %300, %1401 ], [ %300, %860 ], [ %300, %863 ], [ %300, %865 ], [ %300, %1069 ], [ %300, %1055 ], [ %300, %1041 ], [ %300, %1087 ], [ %300, %1187 ], [ true, %1204 ], [ %300, %1206 ], [ %300, %1217 ], [ %300, %1219 ], [ %300, %1281 ], [ %300, %590 ], [ %300, %680 ], [ %300, %786 ], [ %300, %802 ], [ %300, %822 ], [ %300, %838 ]
  %1412 = phi i1 [ %299, %414 ], [ %299, %638 ], [ %299, %772 ], [ %299, %854 ], [ %299, %858 ], [ %299, %859 ], [ %299, %913 ], [ %299, %966 ], [ %299, %1019 ], [ %299, %1148 ], [ %299, %1172 ], [ %299, %1200 ], [ %299, %1210 ], [ %299, %1213 ], [ %299, %1216 ], [ %299, %1278 ], [ %299, %1294 ], [ %299, %1288 ], [ %299, %1285 ], [ %299, %1401 ], [ %299, %860 ], [ %299, %863 ], [ %299, %865 ], [ %299, %1069 ], [ %299, %1055 ], [ %299, %1041 ], [ %299, %1087 ], [ true, %1187 ], [ %299, %1204 ], [ %299, %1206 ], [ %299, %1217 ], [ %299, %1219 ], [ %299, %1281 ], [ %299, %590 ], [ %299, %680 ], [ %299, %786 ], [ %299, %802 ], [ %299, %822 ], [ %299, %838 ]
  %1413 = phi i1 [ %298, %414 ], [ %298, %638 ], [ %298, %772 ], [ %298, %854 ], [ %298, %858 ], [ %298, %859 ], [ %298, %913 ], [ %298, %966 ], [ %298, %1019 ], [ %298, %1148 ], [ %298, %1172 ], [ %298, %1200 ], [ %298, %1210 ], [ %298, %1213 ], [ %298, %1216 ], [ %298, %1278 ], [ %298, %1294 ], [ %298, %1288 ], [ %298, %1285 ], [ %298, %1401 ], [ %298, %860 ], [ %298, %863 ], [ false, %865 ], [ %298, %1069 ], [ %298, %1055 ], [ %298, %1041 ], [ %298, %1087 ], [ %298, %1187 ], [ %298, %1204 ], [ %298, %1206 ], [ %298, %1217 ], [ %298, %1219 ], [ %298, %1281 ], [ %298, %590 ], [ %298, %680 ], [ %298, %786 ], [ %298, %802 ], [ %298, %822 ], [ %298, %838 ]
  %1414 = phi i32 [ %297, %414 ], [ %297, %638 ], [ %297, %772 ], [ %297, %854 ], [ %297, %858 ], [ %297, %859 ], [ %297, %913 ], [ %297, %966 ], [ %297, %1019 ], [ %297, %1148 ], [ %297, %1172 ], [ %297, %1200 ], [ %297, %1210 ], [ %297, %1213 ], [ %297, %1216 ], [ %297, %1278 ], [ %297, %1294 ], [ %297, %1288 ], [ %297, %1285 ], [ %297, %1401 ], [ %297, %860 ], [ %297, %863 ], [ %297, %865 ], [ 2, %1069 ], [ 1, %1055 ], [ 0, %1041 ], [ %297, %1087 ], [ %297, %1187 ], [ %297, %1204 ], [ %297, %1206 ], [ %297, %1217 ], [ %297, %1219 ], [ %297, %1281 ], [ %297, %590 ], [ %297, %680 ], [ %297, %786 ], [ %297, %802 ], [ %297, %822 ], [ %297, %838 ]
  %1415 = phi i32 [ %296, %414 ], [ %296, %638 ], [ %296, %772 ], [ %296, %854 ], [ %296, %858 ], [ %296, %859 ], [ %296, %913 ], [ %296, %966 ], [ %1010, %1019 ], [ %296, %1148 ], [ %296, %1172 ], [ %296, %1200 ], [ %296, %1210 ], [ %296, %1213 ], [ %296, %1216 ], [ %296, %1278 ], [ %296, %1294 ], [ %296, %1288 ], [ %296, %1285 ], [ %296, %1401 ], [ %296, %860 ], [ %296, %863 ], [ %296, %865 ], [ %296, %1069 ], [ %296, %1055 ], [ %296, %1041 ], [ %296, %1087 ], [ %296, %1187 ], [ %296, %1204 ], [ %296, %1206 ], [ %296, %1217 ], [ %296, %1219 ], [ %296, %1281 ], [ %296, %590 ], [ %296, %680 ], [ %296, %786 ], [ %296, %802 ], [ %296, %822 ], [ %296, %838 ]
  %1416 = phi i1 [ %295, %414 ], [ %295, %638 ], [ %295, %772 ], [ %295, %854 ], [ %295, %858 ], [ %295, %859 ], [ %295, %913 ], [ %295, %966 ], [ %295, %1019 ], [ %295, %1148 ], [ %295, %1172 ], [ %295, %1200 ], [ %295, %1210 ], [ %295, %1213 ], [ %295, %1216 ], [ %295, %1278 ], [ %295, %1294 ], [ %295, %1288 ], [ %295, %1285 ], [ %295, %1401 ], [ %295, %860 ], [ true, %863 ], [ %295, %865 ], [ %295, %1069 ], [ %295, %1055 ], [ %295, %1041 ], [ %295, %1087 ], [ %295, %1187 ], [ %295, %1204 ], [ %295, %1206 ], [ %295, %1217 ], [ %295, %1219 ], [ %295, %1281 ], [ %295, %590 ], [ %295, %680 ], [ %295, %786 ], [ %295, %802 ], [ %295, %822 ], [ %295, %838 ]
  %1417 = phi i32 [ %294, %414 ], [ %294, %638 ], [ %294, %772 ], [ %294, %854 ], [ %294, %858 ], [ %294, %859 ], [ %294, %913 ], [ %957, %966 ], [ %294, %1019 ], [ %294, %1148 ], [ %294, %1172 ], [ %294, %1200 ], [ %294, %1210 ], [ %294, %1213 ], [ %294, %1216 ], [ %294, %1278 ], [ %294, %1294 ], [ %294, %1288 ], [ %294, %1285 ], [ %294, %1401 ], [ %294, %860 ], [ %294, %863 ], [ %294, %865 ], [ %294, %1069 ], [ %294, %1055 ], [ %294, %1041 ], [ %294, %1087 ], [ %294, %1187 ], [ %294, %1204 ], [ %294, %1206 ], [ %294, %1217 ], [ %294, %1219 ], [ %294, %1281 ], [ %294, %590 ], [ %294, %680 ], [ %294, %786 ], [ %294, %802 ], [ %294, %822 ], [ %294, %838 ]
  %1418 = phi i32 [ %293, %414 ], [ %293, %638 ], [ %293, %772 ], [ %293, %854 ], [ %293, %858 ], [ %293, %859 ], [ %904, %913 ], [ %293, %966 ], [ %293, %1019 ], [ %293, %1148 ], [ %293, %1172 ], [ %293, %1200 ], [ %293, %1210 ], [ %293, %1213 ], [ %293, %1216 ], [ %293, %1278 ], [ %293, %1294 ], [ %293, %1288 ], [ %293, %1285 ], [ %293, %1401 ], [ %293, %860 ], [ %293, %863 ], [ %293, %865 ], [ %293, %1069 ], [ %293, %1055 ], [ %293, %1041 ], [ %293, %1087 ], [ %293, %1187 ], [ %293, %1204 ], [ %293, %1206 ], [ %293, %1217 ], [ %293, %1219 ], [ %293, %1281 ], [ %293, %590 ], [ %293, %680 ], [ %293, %786 ], [ %293, %802 ], [ %293, %822 ], [ %293, %838 ]
  %1419 = phi i1 [ %292, %414 ], [ %292, %638 ], [ %292, %772 ], [ %292, %854 ], [ %292, %858 ], [ %292, %859 ], [ true, %913 ], [ %292, %966 ], [ %292, %1019 ], [ %292, %1148 ], [ %292, %1172 ], [ %292, %1200 ], [ %292, %1210 ], [ %292, %1213 ], [ %292, %1216 ], [ %292, %1278 ], [ %292, %1294 ], [ %292, %1288 ], [ %292, %1285 ], [ %292, %1401 ], [ %292, %860 ], [ %292, %863 ], [ %292, %865 ], [ %292, %1069 ], [ %292, %1055 ], [ %292, %1041 ], [ %292, %1087 ], [ %292, %1187 ], [ %292, %1204 ], [ %292, %1206 ], [ %292, %1217 ], [ %292, %1219 ], [ %292, %1281 ], [ %292, %590 ], [ %292, %680 ], [ %292, %786 ], [ %292, %802 ], [ %292, %822 ], [ %292, %838 ]
  %1420 = phi i1 [ %291, %414 ], [ %291, %638 ], [ %291, %772 ], [ %291, %854 ], [ %291, %858 ], [ %291, %859 ], [ %291, %913 ], [ %291, %966 ], [ %291, %1019 ], [ %291, %1148 ], [ %291, %1172 ], [ %291, %1200 ], [ %291, %1210 ], [ %291, %1213 ], [ %291, %1216 ], [ %291, %1278 ], [ %291, %1294 ], [ %291, %1288 ], [ %291, %1285 ], [ %291, %1401 ], [ true, %860 ], [ %291, %863 ], [ %291, %865 ], [ %291, %1069 ], [ %291, %1055 ], [ %291, %1041 ], [ %291, %1087 ], [ %291, %1187 ], [ %291, %1204 ], [ %291, %1206 ], [ %291, %1217 ], [ %291, %1219 ], [ %291, %1281 ], [ %291, %590 ], [ %291, %680 ], [ %291, %786 ], [ %291, %802 ], [ %291, %822 ], [ %291, %838 ]
  %1421 = phi i8 [ 1, %414 ], [ %290, %638 ], [ %290, %772 ], [ %290, %854 ], [ %290, %858 ], [ %290, %859 ], [ %290, %913 ], [ %290, %966 ], [ %290, %1019 ], [ %290, %1148 ], [ %290, %1172 ], [ %290, %1200 ], [ %290, %1210 ], [ %290, %1213 ], [ %290, %1216 ], [ %290, %1278 ], [ %290, %1294 ], [ %290, %1288 ], [ %290, %1285 ], [ %290, %1401 ], [ %290, %860 ], [ %290, %863 ], [ %290, %865 ], [ %290, %1069 ], [ %290, %1055 ], [ %290, %1041 ], [ %290, %1087 ], [ %290, %1187 ], [ %290, %1204 ], [ %290, %1206 ], [ %290, %1217 ], [ %290, %1219 ], [ %290, %1281 ], [ %290, %590 ], [ %290, %680 ], [ %290, %786 ], [ %290, %802 ], [ %290, %822 ], [ %290, %838 ]
  %1422 = load ptr, ptr %54, align 8, !tbaa !15
  %1423 = icmp eq ptr %1422, %217
  br i1 %1423, label %1424, label %1427

1424:                                             ; preds = %1402
  %1425 = load i64, ptr %218, align 8, !tbaa !19
  %1426 = icmp ult i64 %1425, 16
  call void @llvm.assume(i1 %1426)
  br label %1430

1427:                                             ; preds = %1402
  %1428 = load i64, ptr %217, align 8, !tbaa !20
  %1429 = add i64 %1428, 1
  call void @_ZdlPvm(ptr noundef %1422, i64 noundef %1429) #37
  br label %1430

1430:                                             ; preds = %1427, %1424
  call void @llvm.lifetime.end.p0(ptr %54)
  %1431 = add nsw i32 %1403, 1
  %1432 = icmp slt i32 %1431, %0
  br i1 %1432, label %289, label %259, !llvm.loop !53

1433:                                             ; preds = %1354, %1279, %1202, %1185, %1141, %1070, %1056, %1042, %1020, %967, %914, %773, %672, %653, %581, %421, %419
  %1434 = phi { ptr, i32 } [ %582, %581 ], [ %654, %653 ], [ %774, %773 ], [ %915, %914 ], [ %968, %967 ], [ %1021, %1020 ], [ %1186, %1185 ], [ %1203, %1202 ], [ %1280, %1279 ], [ %1355, %1354 ], [ %673, %672 ], [ %1142, %1141 ], [ %1071, %1070 ], [ %1057, %1056 ], [ %1043, %1042 ], [ %420, %419 ], [ %422, %421 ]
  %1435 = load ptr, ptr %54, align 8, !tbaa !15
  %1436 = icmp eq ptr %1435, %217
  br i1 %1436, label %1437, label %1440

1437:                                             ; preds = %1433
  %1438 = load i64, ptr %218, align 8, !tbaa !19
  %1439 = icmp ult i64 %1438, 16
  call void @llvm.assume(i1 %1439)
  br label %1443

1440:                                             ; preds = %1433
  %1441 = load i64, ptr %217, align 8, !tbaa !20
  %1442 = add i64 %1441, 1
  call void @_ZdlPvm(ptr noundef %1435, i64 noundef %1442) #37
  br label %1443

1443:                                             ; preds = %1440, %1437, %417, %415
  %1444 = phi { ptr, i32 } [ %1434, %1437 ], [ %1434, %1440 ], [ %416, %415 ], [ %418, %417 ]
  call void @llvm.lifetime.end.p0(ptr %54)
  br label %6233

1445:                                             ; preds = %263
  %1446 = invoke noundef nonnull align 8 dereferenceable(8) ptr @_ZSt16__ostream_insertIcSt11char_traitsIcEERSt13basic_ostreamIT_T0_ES6_PKS3_l(ptr noundef nonnull align 8 dereferenceable(8) @_ZSt4cerr, ptr noundef nonnull @.str.123, i64 noundef 38)
          to label %1447 unwind label %1450

1447:                                             ; preds = %1445
  %1448 = invoke noundef nonnull align 8 dereferenceable(8) ptr @_ZSt4endlIcSt11char_traitsIcEERSt13basic_ostreamIT_T0_ES6_(ptr noundef nonnull align 8 dereferenceable(8) @_ZSt4cerr)
          to label %1449 unwind label %1450

1449:                                             ; preds = %1447
  call void @exit(i32 noundef 1) #41
  unreachable

1450:                                             ; preds = %1508, %1506, %1504, %1501, %1496, %1495, %1486, %1476, %1447, %1445
  %1451 = landingpad { ptr, i32 }
          cleanup
  br label %6233

1452:                                             ; preds = %263
  %1453 = trunc nuw i8 %265 to i1
  br i1 %1453, label %1454, label %1467

1454:                                             ; preds = %1452
  %1455 = getelementptr inbounds nuw i8, ptr %40, i64 8
  %1456 = load ptr, ptr %1455, align 8, !tbaa !14
  %1457 = load ptr, ptr %40, align 8, !tbaa !10
  %1458 = ptrtoint ptr %1456 to i64
  %1459 = ptrtoint ptr %1457 to i64
  %1460 = sub i64 %1458, %1459
  %1461 = icmp sgt i64 %1460, -1
  call void @llvm.assume(i1 %1461)
  %1462 = icmp ne i64 %1460, 32
  %1463 = trunc nuw i8 %281 to i1
  %1464 = select i1 %1462, i1 true, i1 %1463
  br i1 %1464, label %1467, label %1465

1465:                                             ; preds = %1454
  %1466 = getelementptr inbounds nuw i8, ptr %45, i64 9
  store i8 1, ptr %1466, align 1, !tbaa !42
  store i8 1, ptr %45, align 8, !tbaa !45
  br label %1467

1467:                                             ; preds = %1465, %1454, %1452
  %1468 = phi i8 [ %281, %1454 ], [ 1, %1465 ], [ %281, %1452 ]
  %1469 = getelementptr inbounds nuw i8, ptr %45, i64 9
  %1470 = load i8, ptr %1469, align 1, !tbaa !42, !range !54, !noundef !55
  %1471 = trunc nuw i8 %1470 to i1
  %1472 = load i64, ptr %194, align 8
  %1473 = icmp eq i64 %1472, 0
  %1474 = select i1 %1471, i1 %1473, i1 false
  br i1 %1474, label %1475, label %1511

1475:                                             ; preds = %1467
  br i1 %266, label %1476, label %1506

1476:                                             ; preds = %1475
  store i8 0, ptr %1469, align 1, !tbaa !42
  %1477 = invoke noundef nonnull align 8 dereferenceable(8) ptr @_ZSt16__ostream_insertIcSt11char_traitsIcEERSt13basic_ostreamIT_T0_ES6_PKS3_l(ptr noundef nonnull align 8 dereferenceable(8) @_ZSt4cerr, ptr noundef nonnull @.str.124, i64 noundef 79)
          to label %1478 unwind label %1450

1478:                                             ; preds = %1476
  %1479 = load ptr, ptr @_ZSt4cerr, align 8, !tbaa !43
  %1480 = getelementptr i8, ptr %1479, i64 -24
  %1481 = load i64, ptr %1480, align 8
  %1482 = getelementptr inbounds i8, ptr @_ZSt4cerr, i64 %1481
  %1483 = getelementptr inbounds nuw i8, ptr %1482, i64 240
  %1484 = load ptr, ptr %1483, align 8, !tbaa !56
  %1485 = icmp eq ptr %1484, null
  br i1 %1485, label %1486, label %1488

1486:                                             ; preds = %1478
  invoke void @_ZSt16__throw_bad_castv() #39
          to label %1487 unwind label %1450

1487:                                             ; preds = %1486
  unreachable

1488:                                             ; preds = %1478
  %1489 = getelementptr inbounds nuw i8, ptr %1484, i64 56
  %1490 = load i8, ptr %1489, align 8, !tbaa !71
  %1491 = icmp eq i8 %1490, 0
  br i1 %1491, label %1495, label %1492

1492:                                             ; preds = %1488
  %1493 = getelementptr inbounds nuw i8, ptr %1484, i64 67
  %1494 = load i8, ptr %1493, align 1, !tbaa !20
  br label %1501

1495:                                             ; preds = %1488
  invoke void @_ZNKSt5ctypeIcE13_M_widen_initEv(ptr noundef nonnull align 8 dereferenceable(570) %1484)
          to label %1496 unwind label %1450

1496:                                             ; preds = %1495
  %1497 = load ptr, ptr %1484, align 8, !tbaa !43
  %1498 = getelementptr inbounds nuw i8, ptr %1497, i64 48
  %1499 = load ptr, ptr %1498, align 8
  %1500 = invoke noundef signext i8 %1499(ptr noundef nonnull align 8 dereferenceable(570) %1484, i8 noundef signext 10)
          to label %1501 unwind label %1450

1501:                                             ; preds = %1496, %1492
  %1502 = phi i8 [ %1494, %1492 ], [ %1500, %1496 ]
  %1503 = invoke noundef nonnull align 8 dereferenceable(8) ptr @_ZNSo3putEc(ptr noundef nonnull align 8 dereferenceable(8) @_ZSt4cerr, i8 noundef signext %1502)
          to label %1504 unwind label %1450

1504:                                             ; preds = %1501
  %1505 = invoke noundef nonnull align 8 dereferenceable(8) ptr @_ZNSo5flushEv(ptr noundef nonnull align 8 dereferenceable(8) %1503)
          to label %1511 unwind label %1450

1506:                                             ; preds = %1475
  %1507 = invoke noundef nonnull align 8 dereferenceable(8) ptr @_ZSt16__ostream_insertIcSt11char_traitsIcEERSt13basic_ostreamIT_T0_ES6_PKS3_l(ptr noundef nonnull align 8 dereferenceable(8) @_ZSt4cerr, ptr noundef nonnull @.str.125, i64 noundef 74)
          to label %1508 unwind label %1450

1508:                                             ; preds = %1506
  %1509 = invoke noundef nonnull align 8 dereferenceable(8) ptr @_ZSt4endlIcSt11char_traitsIcEERSt13basic_ostreamIT_T0_ES6_(ptr noundef nonnull align 8 dereferenceable(8) @_ZSt4cerr)
          to label %1510 unwind label %1450

1510:                                             ; preds = %1508
  call void @exit(i32 noundef 1) #41
  unreachable

1511:                                             ; preds = %1504, %1467
  call void @llvm.lifetime.start.p0(ptr %86)
  call void @llvm.memset.p0.i64(ptr noundef nonnull align 8 dereferenceable(16) %86, i8 0, i64 16, i1 false)
  call void @llvm.lifetime.start.p0(ptr %87)
  invoke void @_ZN5osgeo4proj2io15DatabaseContext6createERKNSt7__cxx1112basic_stringIcSt11char_traitsIcESaIcEEERKSt6vectorIS8_SaIS8_EEP6pj_ctx(ptr dead_on_unwind nonnull writable sret(%"class.dropbox::oxygen::nn") align 8 %87, ptr noundef nonnull align 8 dereferenceable(32) %50, ptr noundef nonnull align 8 dereferenceable(24) %51, ptr noundef null)
          to label %1512 unwind label %1570

1512:                                             ; preds = %1511
  %1513 = load ptr, ptr %87, align 8, !tbaa !77
  %1514 = getelementptr inbounds nuw i8, ptr %87, i64 8
  %1515 = load ptr, ptr %1514, align 8, !tbaa !82
  call void @llvm.memset.p0.i64(ptr noundef nonnull align 8 dereferenceable(16) %87, i8 0, i64 16, i1 false)
  store ptr %1513, ptr %86, align 8, !tbaa !83
  %1516 = getelementptr inbounds nuw i8, ptr %86, i64 8
  %1517 = load ptr, ptr %1516, align 8, !tbaa !82
  store ptr %1515, ptr %1516, align 8, !tbaa !82
  %1518 = icmp eq ptr %1517, null
  br i1 %1518, label %1543, label %1519

1519:                                             ; preds = %1512
  %1520 = getelementptr inbounds nuw i8, ptr %1517, i64 8
  %1521 = load atomic i64, ptr %1520 acquire, align 8
  %1522 = icmp eq i64 %1521, 4294967297
  %1523 = trunc i64 %1521 to i32
  br i1 %1522, label %1524, label %1532

1524:                                             ; preds = %1519
  store i32 0, ptr %1520, align 8, !tbaa !84
  %1525 = getelementptr inbounds nuw i8, ptr %1517, i64 12
  store i32 0, ptr %1525, align 4, !tbaa !86
  %1526 = load ptr, ptr %1517, align 8, !tbaa !43
  %1527 = getelementptr inbounds nuw i8, ptr %1526, i64 16
  %1528 = load ptr, ptr %1527, align 8
  call void %1528(ptr noundef nonnull align 8 dereferenceable(16) %1517) #38
  %1529 = load ptr, ptr %1517, align 8, !tbaa !43
  %1530 = getelementptr inbounds nuw i8, ptr %1529, i64 24
  %1531 = load ptr, ptr %1530, align 8
  call void %1531(ptr noundef nonnull align 8 dereferenceable(16) %1517) #38
  br label %1543

1532:                                             ; preds = %1519
  %1533 = load i8, ptr @__libc_single_threaded, align 1, !tbaa !20
  %1534 = icmp eq i8 %1533, 0
  br i1 %1534, label %1537, label %1535

1535:                                             ; preds = %1532
  %1536 = add nsw i32 %1523, -1
  store i32 %1536, ptr %1520, align 4, !tbaa !87
  br label %1539

1537:                                             ; preds = %1532
  %1538 = atomicrmw volatile add ptr %1520, i32 -1 acq_rel, align 4
  br label %1539

1539:                                             ; preds = %1537, %1535
  %1540 = phi i32 [ %1523, %1535 ], [ %1538, %1537 ]
  %1541 = icmp eq i32 %1540, 1
  br i1 %1541, label %1542, label %1543, !prof !88

1542:                                             ; preds = %1539
  call void @_ZNSt16_Sp_counted_baseILN9__gnu_cxx12_Lock_policyE2EE24_M_release_last_use_coldEv(ptr noundef nonnull align 8 dereferenceable(16) %1517) #38
  br label %1543

1543:                                             ; preds = %1542, %1539, %1524, %1512
  %1544 = load ptr, ptr %1514, align 8, !tbaa !82
  %1545 = icmp eq ptr %1544, null
  br i1 %1545, label %1615, label %1546

1546:                                             ; preds = %1543
  %1547 = getelementptr inbounds nuw i8, ptr %1544, i64 8
  %1548 = load atomic i64, ptr %1547 acquire, align 8
  %1549 = icmp eq i64 %1548, 4294967297
  %1550 = trunc i64 %1548 to i32
  br i1 %1549, label %1551, label %1559

1551:                                             ; preds = %1546
  store i32 0, ptr %1547, align 8, !tbaa !84
  %1552 = getelementptr inbounds nuw i8, ptr %1544, i64 12
  store i32 0, ptr %1552, align 4, !tbaa !86
  %1553 = load ptr, ptr %1544, align 8, !tbaa !43
  %1554 = getelementptr inbounds nuw i8, ptr %1553, i64 16
  %1555 = load ptr, ptr %1554, align 8
  call void %1555(ptr noundef nonnull align 8 dereferenceable(16) %1544) #38
  %1556 = load ptr, ptr %1544, align 8, !tbaa !43
  %1557 = getelementptr inbounds nuw i8, ptr %1556, i64 24
  %1558 = load ptr, ptr %1557, align 8
  call void %1558(ptr noundef nonnull align 8 dereferenceable(16) %1544) #38
  br label %1615

1559:                                             ; preds = %1546
  %1560 = load i8, ptr @__libc_single_threaded, align 1, !tbaa !20
  %1561 = icmp eq i8 %1560, 0
  br i1 %1561, label %1564, label %1562

1562:                                             ; preds = %1559
  %1563 = add nsw i32 %1550, -1
  store i32 %1563, ptr %1547, align 4, !tbaa !87
  br label %1566

1564:                                             ; preds = %1559
  %1565 = atomicrmw volatile add ptr %1547, i32 -1 acq_rel, align 4
  br label %1566

1566:                                             ; preds = %1564, %1562
  %1567 = phi i32 [ %1550, %1562 ], [ %1565, %1564 ]
  %1568 = icmp eq i32 %1567, 1
  br i1 %1568, label %1569, label %1615, !prof !88

1569:                                             ; preds = %1566
  call void @_ZNSt16_Sp_counted_baseILN9__gnu_cxx12_Lock_policyE2EE24_M_release_last_use_coldEv(ptr noundef nonnull align 8 dereferenceable(16) %1544) #38
  br label %1615

1570:                                             ; preds = %1511
  %1571 = landingpad { ptr, i32 }
          cleanup
          catch ptr @_ZTISt9exception
  %1572 = extractvalue { ptr, i32 } %1571, 1
  call void @llvm.lifetime.end.p0(ptr %87)
  %1573 = call i32 @llvm.eh.typeid.for.p0(ptr nonnull @_ZTISt9exception) #38
  %1574 = icmp eq i32 %1572, %1573
  br i1 %1574, label %1575, label %6203

1575:                                             ; preds = %1570
  %1576 = extractvalue { ptr, i32 } %1571, 0
  %1577 = call ptr @__cxa_begin_catch(ptr %1576) #38
  %1578 = load i64, ptr %210, align 8, !tbaa !19
  %1579 = icmp eq i64 %1578, 0
  br i1 %1579, label %1580, label %1591

1580:                                             ; preds = %1575
  %1581 = load ptr, ptr %51, align 8, !tbaa !33
  %1582 = getelementptr inbounds nuw i8, ptr %51, i64 8
  %1583 = load ptr, ptr %1582, align 8, !tbaa !33
  %1584 = icmp eq ptr %1581, %1583
  br i1 %1584, label %1585, label %1591

1585:                                             ; preds = %1580
  %1586 = load i64, ptr %204, align 8, !tbaa !19
  %1587 = icmp ne i64 %1586, 0
  %1588 = or i1 %1587, %1453
  %1589 = trunc nuw i8 %264 to i1
  %1590 = select i1 %1588, i1 true, i1 %1589
  br i1 %1590, label %1591, label %1604

1591:                                             ; preds = %1585, %1580, %1575
  %1592 = invoke noundef nonnull align 8 dereferenceable(8) ptr @_ZSt16__ostream_insertIcSt11char_traitsIcEERSt13basic_ostreamIT_T0_ES6_PKS3_l(ptr noundef nonnull align 8 dereferenceable(8) @_ZSt4cerr, ptr noundef nonnull @.str.126, i64 noundef 42)
          to label %1593 unwind label %1602

1593:                                             ; preds = %1591
  %1594 = load ptr, ptr %1577, align 8, !tbaa !43
  %1595 = getelementptr inbounds nuw i8, ptr %1594, i64 16
  %1596 = load ptr, ptr %1595, align 8
  %1597 = call noundef ptr %1596(ptr noundef nonnull align 8 dereferenceable(8) %1577) #38
  %1598 = invoke noundef nonnull align 8 dereferenceable(8) ptr @_ZStlsISt11char_traitsIcEERSt13basic_ostreamIcT_ES5_PKc(ptr noundef nonnull align 8 dereferenceable(8) @_ZSt4cerr, ptr noundef %1597)
          to label %1599 unwind label %1602

1599:                                             ; preds = %1593
  %1600 = invoke noundef nonnull align 8 dereferenceable(8) ptr @_ZSt4endlIcSt11char_traitsIcEERSt13basic_ostreamIT_T0_ES6_(ptr noundef nonnull align 8 dereferenceable(8) %1598)
          to label %1601 unwind label %1602

1601:                                             ; preds = %1599
  call void @exit(i32 noundef 1) #41
  unreachable

1602:                                             ; preds = %1612, %1606, %1604, %1599, %1593, %1591
  %1603 = landingpad { ptr, i32 }
          cleanup
  invoke void @__cxa_end_catch()
          to label %6203 unwind label %6484

1604:                                             ; preds = %1585
  %1605 = invoke noundef nonnull align 8 dereferenceable(8) ptr @_ZSt16__ostream_insertIcSt11char_traitsIcEERSt13basic_ostreamIT_T0_ES6_PKS3_l(ptr noundef nonnull align 8 dereferenceable(8) @_ZSt4cerr, ptr noundef nonnull @.str.127, i64 noundef 44)
          to label %1606 unwind label %1602

1606:                                             ; preds = %1604
  %1607 = load ptr, ptr %1577, align 8, !tbaa !43
  %1608 = getelementptr inbounds nuw i8, ptr %1607, i64 16
  %1609 = load ptr, ptr %1608, align 8
  %1610 = call noundef ptr %1609(ptr noundef nonnull align 8 dereferenceable(8) %1577) #38
  %1611 = invoke noundef nonnull align 8 dereferenceable(8) ptr @_ZStlsISt11char_traitsIcEERSt13basic_ostreamIcT_ES5_PKc(ptr noundef nonnull align 8 dereferenceable(8) @_ZSt4cerr, ptr noundef %1610)
          to label %1612 unwind label %1602

1612:                                             ; preds = %1606
  %1613 = invoke noundef nonnull align 8 dereferenceable(8) ptr @_ZSt4endlIcSt11char_traitsIcEERSt13basic_ostreamIT_T0_ES6_(ptr noundef nonnull align 8 dereferenceable(8) %1611)
          to label %1614 unwind label %1602

1614:                                             ; preds = %1612
  invoke void @__cxa_end_catch()
          to label %3178 unwind label %1654

1615:                                             ; preds = %1569, %1566, %1551, %1543
  call void @llvm.lifetime.end.p0(ptr %87)
  br i1 %1453, label %1616, label %1722

1616:                                             ; preds = %1615
  call void @llvm.lifetime.start.p0(ptr %88)
  %1617 = load ptr, ptr %86, align 8, !tbaa !77
  invoke void @_ZNK5osgeo4proj2io15DatabaseContext20getDatabaseStructureB5cxx11Ev(ptr dead_on_unwind nonnull writable sret(%"class.std::vector") align 8 %88, ptr noundef nonnull align 8 dereferenceable(8) %1617)
          to label %1618 unwind label %1656

1618:                                             ; preds = %1616
  %1619 = load ptr, ptr %88, align 8, !tbaa !33
  %1620 = getelementptr inbounds nuw i8, ptr %88, i64 8
  %1621 = load ptr, ptr %1620, align 8, !tbaa !33
  %1622 = icmp eq ptr %1619, %1621
  br i1 %1622, label %1644, label %1658

1623:                                             ; preds = %1693
  %1624 = load ptr, ptr %88, align 8, !tbaa !10
  %1625 = load ptr, ptr %1620, align 8, !tbaa !14
  %1626 = icmp eq ptr %1624, %1625
  br i1 %1626, label %1644, label %1627

1627:                                             ; preds = %1639, %1623
  %1628 = phi ptr [ %1640, %1639 ], [ %1624, %1623 ]
  %1629 = load ptr, ptr %1628, align 8, !tbaa !15
  %1630 = getelementptr inbounds nuw i8, ptr %1628, i64 16
  %1631 = icmp eq ptr %1629, %1630
  br i1 %1631, label %1632, label %1636

1632:                                             ; preds = %1627
  %1633 = getelementptr inbounds nuw i8, ptr %1628, i64 8
  %1634 = load i64, ptr %1633, align 8, !tbaa !19
  %1635 = icmp ult i64 %1634, 16
  call void @llvm.assume(i1 %1635)
  br label %1639

1636:                                             ; preds = %1627
  %1637 = load i64, ptr %1630, align 8, !tbaa !20
  %1638 = add i64 %1637, 1
  call void @_ZdlPvm(ptr noundef %1629, i64 noundef %1638) #37
  br label %1639

1639:                                             ; preds = %1636, %1632
  %1640 = getelementptr inbounds nuw i8, ptr %1628, i64 32
  %1641 = icmp eq ptr %1640, %1625
  br i1 %1641, label %1642, label %1627, !llvm.loop !21

1642:                                             ; preds = %1639
  %1643 = load ptr, ptr %88, align 8, !tbaa !10
  br label %1644

1644:                                             ; preds = %1642, %1623, %1618
  %1645 = phi ptr [ %1643, %1642 ], [ %1624, %1623 ], [ %1619, %1618 ]
  %1646 = icmp eq ptr %1645, null
  br i1 %1646, label %1653, label %1647

1647:                                             ; preds = %1644
  %1648 = getelementptr inbounds nuw i8, ptr %88, i64 16
  %1649 = load ptr, ptr %1648, align 8, !tbaa !13
  %1650 = ptrtoint ptr %1649 to i64
  %1651 = ptrtoint ptr %1645 to i64
  %1652 = sub i64 %1650, %1651
  call void @_ZdlPvm(ptr noundef nonnull %1645, i64 noundef %1652) #37
  br label %1653

1653:                                             ; preds = %1647, %1644
  call void @llvm.lifetime.end.p0(ptr %88)
  br label %1722

1654:                                             ; preds = %1614
  %1655 = landingpad { ptr, i32 }
          cleanup
  br label %6203

1656:                                             ; preds = %1616
  %1657 = landingpad { ptr, i32 }
          cleanup
          catch ptr @_ZTISt9exception
  br label %1702

1658:                                             ; preds = %1693, %1618
  %1659 = phi ptr [ %1694, %1693 ], [ %1619, %1618 ]
  %1660 = load ptr, ptr %1659, align 8, !tbaa !15
  %1661 = getelementptr inbounds nuw i8, ptr %1659, i64 8
  %1662 = load i64, ptr %1661, align 8, !tbaa !19
  %1663 = icmp ult i64 %1662, 9223372036854775807
  call void @llvm.assume(i1 %1663)
  %1664 = invoke noundef nonnull align 8 dereferenceable(8) ptr @_ZSt16__ostream_insertIcSt11char_traitsIcEERSt13basic_ostreamIT_T0_ES6_PKS3_l(ptr noundef nonnull align 8 dereferenceable(8) @_ZSt4cout, ptr noundef %1660, i64 noundef %1662)
          to label %1665 unwind label %1696

1665:                                             ; preds = %1658
  %1666 = load ptr, ptr %1664, align 8, !tbaa !43
  %1667 = getelementptr i8, ptr %1666, i64 -24
  %1668 = load i64, ptr %1667, align 8
  %1669 = getelementptr inbounds i8, ptr %1664, i64 %1668
  %1670 = getelementptr inbounds nuw i8, ptr %1669, i64 240
  %1671 = load ptr, ptr %1670, align 8, !tbaa !56
  %1672 = icmp eq ptr %1671, null
  br i1 %1672, label %1673, label %1675

1673:                                             ; preds = %1665
  invoke void @_ZSt16__throw_bad_castv() #39
          to label %1674 unwind label %1698

1674:                                             ; preds = %1673
  unreachable

1675:                                             ; preds = %1665
  %1676 = getelementptr inbounds nuw i8, ptr %1671, i64 56
  %1677 = load i8, ptr %1676, align 8, !tbaa !71
  %1678 = icmp eq i8 %1677, 0
  br i1 %1678, label %1682, label %1679

1679:                                             ; preds = %1675
  %1680 = getelementptr inbounds nuw i8, ptr %1671, i64 67
  %1681 = load i8, ptr %1680, align 1, !tbaa !20
  br label %1688

1682:                                             ; preds = %1675
  invoke void @_ZNKSt5ctypeIcE13_M_widen_initEv(ptr noundef nonnull align 8 dereferenceable(570) %1671)
          to label %1683 unwind label %1696

1683:                                             ; preds = %1682
  %1684 = load ptr, ptr %1671, align 8, !tbaa !43
  %1685 = getelementptr inbounds nuw i8, ptr %1684, i64 48
  %1686 = load ptr, ptr %1685, align 8
  %1687 = invoke noundef signext i8 %1686(ptr noundef nonnull align 8 dereferenceable(570) %1671, i8 noundef signext 10)
          to label %1688 unwind label %1696

1688:                                             ; preds = %1683, %1679
  %1689 = phi i8 [ %1681, %1679 ], [ %1687, %1683 ]
  %1690 = invoke noundef nonnull align 8 dereferenceable(8) ptr @_ZNSo3putEc(ptr noundef nonnull align 8 dereferenceable(8) %1664, i8 noundef signext %1689)
          to label %1691 unwind label %1696

1691:                                             ; preds = %1688
  %1692 = invoke noundef nonnull align 8 dereferenceable(8) ptr @_ZNSo5flushEv(ptr noundef nonnull align 8 dereferenceable(8) %1690)
          to label %1693 unwind label %1696

1693:                                             ; preds = %1691
  %1694 = getelementptr inbounds nuw i8, ptr %1659, i64 32
  %1695 = icmp eq ptr %1694, %1621
  br i1 %1695, label %1623, label %1658

1696:                                             ; preds = %1691, %1688, %1683, %1682, %1658
  %1697 = landingpad { ptr, i32 }
          cleanup
          catch ptr @_ZTISt9exception
  br label %1700

1698:                                             ; preds = %1673
  %1699 = landingpad { ptr, i32 }
          cleanup
          catch ptr @_ZTISt9exception
  br label %1700

1700:                                             ; preds = %1698, %1696
  %1701 = phi { ptr, i32 } [ %1697, %1696 ], [ %1699, %1698 ]
  call void @_ZNSt6vectorINSt7__cxx1112basic_stringIcSt11char_traitsIcESaIcEEESaIS5_EED2Ev(ptr noundef nonnull align 8 dereferenceable(24) %88) #38
  br label %1702

1702:                                             ; preds = %1700, %1656
  %1703 = phi { ptr, i32 } [ %1701, %1700 ], [ %1657, %1656 ]
  %1704 = extractvalue { ptr, i32 } %1703, 1
  call void @llvm.lifetime.end.p0(ptr %88)
  %1705 = call i32 @llvm.eh.typeid.for.p0(ptr nonnull @_ZTISt9exception) #38
  %1706 = icmp eq i32 %1704, %1705
  br i1 %1706, label %1707, label %6203

1707:                                             ; preds = %1702
  %1708 = extractvalue { ptr, i32 } %1703, 0
  %1709 = call ptr @__cxa_begin_catch(ptr %1708) #38
  %1710 = invoke noundef nonnull align 8 dereferenceable(8) ptr @_ZSt16__ostream_insertIcSt11char_traitsIcEERSt13basic_ostreamIT_T0_ES6_PKS3_l(ptr noundef nonnull align 8 dereferenceable(8) @_ZSt4cerr, ptr noundef nonnull @.str.128, i64 noundef 38)
          to label %1711 unwind label %1720

1711:                                             ; preds = %1707
  %1712 = load ptr, ptr %1709, align 8, !tbaa !43
  %1713 = getelementptr inbounds nuw i8, ptr %1712, i64 16
  %1714 = load ptr, ptr %1713, align 8
  %1715 = call noundef ptr %1714(ptr noundef nonnull align 8 dereferenceable(8) %1709) #38
  %1716 = invoke noundef nonnull align 8 dereferenceable(8) ptr @_ZStlsISt11char_traitsIcEERSt13basic_ostreamIcT_ES5_PKc(ptr noundef nonnull align 8 dereferenceable(8) @_ZSt4cerr, ptr noundef %1715)
          to label %1717 unwind label %1720

1717:                                             ; preds = %1711
  %1718 = invoke noundef nonnull align 8 dereferenceable(8) ptr @_ZSt4endlIcSt11char_traitsIcEERSt13basic_ostreamIT_T0_ES6_(ptr noundef nonnull align 8 dereferenceable(8) %1716)
          to label %1719 unwind label %1720

1719:                                             ; preds = %1717
  call void @exit(i32 noundef 1) #41
  unreachable

1720:                                             ; preds = %1717, %1711, %1707
  %1721 = landingpad { ptr, i32 }
          cleanup
  invoke void @__cxa_end_catch()
          to label %6203 unwind label %6484

1722:                                             ; preds = %1653, %1615
  %1723 = trunc nuw i8 %264 to i1
  br i1 %1723, label %1724, label %3178

1724:                                             ; preds = %1722
  call void @llvm.lifetime.start.p0(ptr %89)
  %1725 = getelementptr inbounds nuw i8, ptr %89, i64 8
  store i32 0, ptr %1725, align 8, !tbaa !89
  %1726 = getelementptr inbounds nuw i8, ptr %89, i64 16
  store ptr null, ptr %1726, align 8, !tbaa !94
  %1727 = getelementptr inbounds nuw i8, ptr %89, i64 24
  store ptr %1725, ptr %1727, align 8, !tbaa !95
  %1728 = getelementptr inbounds nuw i8, ptr %89, i64 32
  store ptr %1725, ptr %1728, align 8, !tbaa !96
  %1729 = getelementptr inbounds nuw i8, ptr %89, i64 40
  store i64 0, ptr %1729, align 8, !tbaa !97
  call void @llvm.lifetime.start.p0(ptr %90)
  invoke void @_ZN5osgeo4proj8internal5splitERKNSt7__cxx1112basic_stringIcSt11char_traitsIcESaIcEEEc(ptr dead_on_unwind nonnull writable sret(%"class.std::vector") align 8 %90, ptr noundef nonnull align 8 dereferenceable(32) %53, i8 noundef signext 44)
          to label %1730 unwind label %1757

1730:                                             ; preds = %1724
  %1731 = load i64, ptr %214, align 8, !tbaa !19
  %1732 = icmp eq i64 %1731, 0
  %1733 = load ptr, ptr %90, align 8, !tbaa !33
  %1734 = getelementptr inbounds nuw i8, ptr %90, i64 8
  %1735 = load ptr, ptr %1734, align 8, !tbaa !33
  br i1 %1732, label %1736, label %1759

1736:                                             ; preds = %1730
  %1737 = icmp eq ptr %1735, %1733
  br i1 %1737, label %1738, label %1740

1738:                                             ; preds = %1736
  %1739 = getelementptr inbounds nuw i8, ptr %90, i64 8
  br label %1764

1740:                                             ; preds = %1752, %1736
  %1741 = phi ptr [ %1753, %1752 ], [ %1733, %1736 ]
  %1742 = load ptr, ptr %1741, align 8, !tbaa !15
  %1743 = getelementptr inbounds nuw i8, ptr %1741, i64 16
  %1744 = icmp eq ptr %1742, %1743
  br i1 %1744, label %1745, label %1749

1745:                                             ; preds = %1740
  %1746 = getelementptr inbounds nuw i8, ptr %1741, i64 8
  %1747 = load i64, ptr %1746, align 8, !tbaa !19
  %1748 = icmp ult i64 %1747, 16
  call void @llvm.assume(i1 %1748)
  br label %1752

1749:                                             ; preds = %1740
  %1750 = load i64, ptr %1743, align 8, !tbaa !20
  %1751 = add i64 %1750, 1
  call void @_ZdlPvm(ptr noundef %1742, i64 noundef %1751) #37
  br label %1752

1752:                                             ; preds = %1749, %1745
  %1753 = getelementptr inbounds nuw i8, ptr %1741, i64 32
  %1754 = icmp eq ptr %1753, %1735
  br i1 %1754, label %1755, label %1740, !llvm.loop !21

1755:                                             ; preds = %1752
  store ptr %1733, ptr %1734, align 8, !tbaa !14
  %1756 = load ptr, ptr %90, align 8, !tbaa !33
  br label %1759

1757:                                             ; preds = %1724
  %1758 = landingpad { ptr, i32 }
          cleanup
  br label %3171

1759:                                             ; preds = %1755, %1730
  %1760 = phi ptr [ %1733, %1755 ], [ %1735, %1730 ]
  %1761 = phi ptr [ %1756, %1755 ], [ %1733, %1730 ]
  %1762 = getelementptr inbounds nuw i8, ptr %90, i64 8
  %1763 = icmp eq ptr %1761, %1760
  br i1 %1763, label %1764, label %1767

1764:                                             ; preds = %2283, %1759, %1738
  %1765 = phi ptr [ %1762, %1759 ], [ %1739, %1738 ], [ %1762, %2283 ]
  %1766 = phi i1 [ false, %1759 ], [ false, %1738 ], [ %2284, %2283 ]
  call void @llvm.lifetime.start.p0(ptr %91)
  invoke void @_ZN5osgeo4proj8internal7tolowerERKNSt7__cxx1112basic_stringIcSt11char_traitsIcESaIcEEE(ptr dead_on_unwind nonnull writable sret(%"class.std::__cxx11::basic_string") align 8 %91, ptr noundef nonnull align 8 dereferenceable(32) %48)
          to label %2287 unwind label %2365

1767:                                             ; preds = %2283, %1759
  %1768 = phi i1 [ %2284, %2283 ], [ false, %1759 ]
  %1769 = phi ptr [ %2285, %2283 ], [ %1761, %1759 ]
  %1770 = call noundef zeroext i1 @_ZN5osgeo4proj8internal8ci_equalERKNSt7__cxx1112basic_stringIcSt11char_traitsIcESaIcEEEPKc(ptr noundef nonnull align 8 dereferenceable(32) %1769, ptr noundef nonnull @.str.129) #38
  br i1 %1770, label %2283, label %1771

1771:                                             ; preds = %1767
  %1772 = call noundef zeroext i1 @_ZN5osgeo4proj8internal8ci_equalERKNSt7__cxx1112basic_stringIcSt11char_traitsIcESaIcEEEPKc(ptr noundef nonnull align 8 dereferenceable(32) %1769, ptr noundef nonnull @.str.130) #38
  br i1 %1772, label %1773, label %1896

1773:                                             ; preds = %1771
  %1774 = load ptr, ptr %1726, align 8, !tbaa !98
  %1775 = icmp eq ptr %1774, null
  br i1 %1775, label %1786, label %1776

1776:                                             ; preds = %1776, %1773
  %1777 = phi ptr [ %1783, %1776 ], [ %1774, %1773 ]
  %1778 = getelementptr inbounds nuw i8, ptr %1777, i64 32
  %1779 = load i32, ptr %1778, align 4, !tbaa !99
  %1780 = icmp sgt i32 %1779, 10
  %1781 = select i1 %1780, i64 16, i64 24
  %1782 = getelementptr inbounds nuw i8, ptr %1777, i64 %1781
  %1783 = load ptr, ptr %1782, align 8, !tbaa !98
  %1784 = icmp eq ptr %1783, null
  br i1 %1784, label %1785, label %1776, !llvm.loop !101

1785:                                             ; preds = %1776
  br i1 %1780, label %1786, label %1794

1786:                                             ; preds = %1785, %1773
  %1787 = phi ptr [ %1777, %1785 ], [ %1725, %1773 ]
  %1788 = load ptr, ptr %1727, align 8, !tbaa !95
  %1789 = icmp eq ptr %1787, %1788
  br i1 %1789, label %1798, label %1790

1790:                                             ; preds = %1786
  %1791 = call noundef ptr @_ZSt18_Rb_tree_decrementPSt18_Rb_tree_node_base(ptr noundef nonnull %1787) #35
  %1792 = getelementptr inbounds nuw i8, ptr %1791, i64 32
  %1793 = load i32, ptr %1792, align 4, !tbaa !99
  br label %1794

1794:                                             ; preds = %1790, %1785
  %1795 = phi i32 [ %1793, %1790 ], [ %1779, %1785 ]
  %1796 = phi ptr [ %1787, %1790 ], [ %1777, %1785 ]
  %1797 = icmp slt i32 %1795, 10
  br i1 %1797, label %1798, label %1813

1798:                                             ; preds = %1794, %1786
  %1799 = phi ptr [ %1787, %1786 ], [ %1796, %1794 ]
  %1800 = icmp eq ptr %1799, %1725
  br i1 %1800, label %1805, label %1801

1801:                                             ; preds = %1798
  %1802 = getelementptr inbounds nuw i8, ptr %1799, i64 32
  %1803 = load i32, ptr %1802, align 4, !tbaa !99
  %1804 = icmp sgt i32 %1803, 10
  br label %1805

1805:                                             ; preds = %1801, %1798
  %1806 = phi i1 [ true, %1798 ], [ %1804, %1801 ]
  %1807 = invoke noalias noundef nonnull dereferenceable(40) ptr @_Znwm(i64 noundef 40) #36
          to label %1808 unwind label %1890

1808:                                             ; preds = %1805
  %1809 = getelementptr inbounds nuw i8, ptr %1807, i64 32
  store i32 10, ptr %1809, align 4, !tbaa !99
  call void @_ZSt29_Rb_tree_insert_and_rebalancebPSt18_Rb_tree_node_baseS0_RS_(i1 noundef zeroext %1806, ptr noundef nonnull %1807, ptr noundef nonnull %1799, ptr noundef nonnull align 8 dereferenceable(32) %1725) #38
  %1810 = load i64, ptr %1729, align 8, !tbaa !97
  %1811 = add i64 %1810, 1
  store i64 %1811, ptr %1729, align 8, !tbaa !97
  %1812 = load ptr, ptr %1726, align 8, !tbaa !98
  br label %1813

1813:                                             ; preds = %1808, %1794
  %1814 = phi ptr [ %1812, %1808 ], [ %1774, %1794 ]
  %1815 = icmp eq ptr %1814, null
  br i1 %1815, label %1826, label %1816

1816:                                             ; preds = %1816, %1813
  %1817 = phi ptr [ %1823, %1816 ], [ %1814, %1813 ]
  %1818 = getelementptr inbounds nuw i8, ptr %1817, i64 32
  %1819 = load i32, ptr %1818, align 4, !tbaa !99
  %1820 = icmp sgt i32 %1819, 11
  %1821 = select i1 %1820, i64 16, i64 24
  %1822 = getelementptr inbounds nuw i8, ptr %1817, i64 %1821
  %1823 = load ptr, ptr %1822, align 8, !tbaa !98
  %1824 = icmp eq ptr %1823, null
  br i1 %1824, label %1825, label %1816, !llvm.loop !101

1825:                                             ; preds = %1816
  br i1 %1820, label %1826, label %1834

1826:                                             ; preds = %1825, %1813
  %1827 = phi ptr [ %1817, %1825 ], [ %1725, %1813 ]
  %1828 = load ptr, ptr %1727, align 8, !tbaa !95
  %1829 = icmp eq ptr %1827, %1828
  br i1 %1829, label %1838, label %1830

1830:                                             ; preds = %1826
  %1831 = call noundef ptr @_ZSt18_Rb_tree_decrementPSt18_Rb_tree_node_base(ptr noundef nonnull %1827) #35
  %1832 = getelementptr inbounds nuw i8, ptr %1831, i64 32
  %1833 = load i32, ptr %1832, align 4, !tbaa !99
  br label %1834

1834:                                             ; preds = %1830, %1825
  %1835 = phi i32 [ %1833, %1830 ], [ %1819, %1825 ]
  %1836 = phi ptr [ %1827, %1830 ], [ %1817, %1825 ]
  %1837 = icmp slt i32 %1835, 11
  br i1 %1837, label %1838, label %1853

1838:                                             ; preds = %1834, %1826
  %1839 = phi ptr [ %1827, %1826 ], [ %1836, %1834 ]
  %1840 = icmp eq ptr %1839, %1725
  br i1 %1840, label %1845, label %1841

1841:                                             ; preds = %1838
  %1842 = getelementptr inbounds nuw i8, ptr %1839, i64 32
  %1843 = load i32, ptr %1842, align 4, !tbaa !99
  %1844 = icmp sgt i32 %1843, 11
  br label %1845

1845:                                             ; preds = %1841, %1838
  %1846 = phi i1 [ true, %1838 ], [ %1844, %1841 ]
  %1847 = invoke noalias noundef nonnull dereferenceable(40) ptr @_Znwm(i64 noundef 40) #36
          to label %1848 unwind label %1892

1848:                                             ; preds = %1845
  %1849 = getelementptr inbounds nuw i8, ptr %1847, i64 32
  store i32 11, ptr %1849, align 4, !tbaa !99
  call void @_ZSt29_Rb_tree_insert_and_rebalancebPSt18_Rb_tree_node_baseS0_RS_(i1 noundef zeroext %1846, ptr noundef nonnull %1847, ptr noundef nonnull %1839, ptr noundef nonnull align 8 dereferenceable(32) %1725) #38
  %1850 = load i64, ptr %1729, align 8, !tbaa !97
  %1851 = add i64 %1850, 1
  store i64 %1851, ptr %1729, align 8, !tbaa !97
  %1852 = load ptr, ptr %1726, align 8, !tbaa !98
  br label %1853

1853:                                             ; preds = %1848, %1834
  %1854 = phi ptr [ %1852, %1848 ], [ %1814, %1834 ]
  %1855 = icmp eq ptr %1854, null
  br i1 %1855, label %1866, label %1856

1856:                                             ; preds = %1856, %1853
  %1857 = phi ptr [ %1863, %1856 ], [ %1854, %1853 ]
  %1858 = getelementptr inbounds nuw i8, ptr %1857, i64 32
  %1859 = load i32, ptr %1858, align 4, !tbaa !99
  %1860 = icmp sgt i32 %1859, 8
  %1861 = select i1 %1860, i64 16, i64 24
  %1862 = getelementptr inbounds nuw i8, ptr %1857, i64 %1861
  %1863 = load ptr, ptr %1862, align 8, !tbaa !98
  %1864 = icmp eq ptr %1863, null
  br i1 %1864, label %1865, label %1856, !llvm.loop !101

1865:                                             ; preds = %1856
  br i1 %1860, label %1866, label %1874

1866:                                             ; preds = %1865, %1853
  %1867 = phi ptr [ %1857, %1865 ], [ %1725, %1853 ]
  %1868 = load ptr, ptr %1727, align 8, !tbaa !95
  %1869 = icmp eq ptr %1867, %1868
  br i1 %1869, label %1878, label %1870

1870:                                             ; preds = %1866
  %1871 = call noundef ptr @_ZSt18_Rb_tree_decrementPSt18_Rb_tree_node_base(ptr noundef nonnull %1867) #35
  %1872 = getelementptr inbounds nuw i8, ptr %1871, i64 32
  %1873 = load i32, ptr %1872, align 4, !tbaa !99
  br label %1874

1874:                                             ; preds = %1870, %1865
  %1875 = phi i32 [ %1873, %1870 ], [ %1859, %1865 ]
  %1876 = phi ptr [ %1867, %1870 ], [ %1857, %1865 ]
  %1877 = icmp slt i32 %1875, 8
  br i1 %1877, label %1878, label %2283

1878:                                             ; preds = %1874, %1866
  %1879 = phi ptr [ %1867, %1866 ], [ %1876, %1874 ]
  %1880 = icmp eq ptr %1879, %1725
  br i1 %1880, label %1885, label %1881

1881:                                             ; preds = %1878
  %1882 = getelementptr inbounds nuw i8, ptr %1879, i64 32
  %1883 = load i32, ptr %1882, align 4, !tbaa !99
  %1884 = icmp sgt i32 %1883, 8
  br label %1885

1885:                                             ; preds = %1881, %1878
  %1886 = phi i1 [ true, %1878 ], [ %1884, %1881 ]
  %1887 = invoke noalias noundef nonnull dereferenceable(40) ptr @_Znwm(i64 noundef 40) #36
          to label %1888 unwind label %1894

1888:                                             ; preds = %1885
  %1889 = getelementptr inbounds nuw i8, ptr %1887, i64 32
  store i32 8, ptr %1889, align 4, !tbaa !99
  call void @_ZSt29_Rb_tree_insert_and_rebalancebPSt18_Rb_tree_node_baseS0_RS_(i1 noundef zeroext %1886, ptr noundef nonnull %1887, ptr noundef nonnull %1879, ptr noundef nonnull align 8 dereferenceable(32) %1725) #38
  br label %2280

1890:                                             ; preds = %1805
  %1891 = landingpad { ptr, i32 }
          cleanup
  br label %3139

1892:                                             ; preds = %1845
  %1893 = landingpad { ptr, i32 }
          cleanup
  br label %3139

1894:                                             ; preds = %1885
  %1895 = landingpad { ptr, i32 }
          cleanup
  br label %3139

1896:                                             ; preds = %1771
  %1897 = call noundef zeroext i1 @_ZN5osgeo4proj8internal8ci_equalERKNSt7__cxx1112basic_stringIcSt11char_traitsIcESaIcEEEPKc(ptr noundef nonnull align 8 dereferenceable(32) %1769, ptr noundef nonnull @.str.131) #38
  br i1 %1897, label %1898, label %1937

1898:                                             ; preds = %1896
  %1899 = load ptr, ptr %1726, align 8, !tbaa !98
  %1900 = icmp eq ptr %1899, null
  br i1 %1900, label %1911, label %1901

1901:                                             ; preds = %1901, %1898
  %1902 = phi ptr [ %1908, %1901 ], [ %1899, %1898 ]
  %1903 = getelementptr inbounds nuw i8, ptr %1902, i64 32
  %1904 = load i32, ptr %1903, align 4, !tbaa !99
  %1905 = icmp sgt i32 %1904, 8
  %1906 = select i1 %1905, i64 16, i64 24
  %1907 = getelementptr inbounds nuw i8, ptr %1902, i64 %1906
  %1908 = load ptr, ptr %1907, align 8, !tbaa !98
  %1909 = icmp eq ptr %1908, null
  br i1 %1909, label %1910, label %1901, !llvm.loop !101

1910:                                             ; preds = %1901
  br i1 %1905, label %1911, label %1919

1911:                                             ; preds = %1910, %1898
  %1912 = phi ptr [ %1902, %1910 ], [ %1725, %1898 ]
  %1913 = load ptr, ptr %1727, align 8, !tbaa !95
  %1914 = icmp eq ptr %1912, %1913
  br i1 %1914, label %1923, label %1915

1915:                                             ; preds = %1911
  %1916 = call noundef ptr @_ZSt18_Rb_tree_decrementPSt18_Rb_tree_node_base(ptr noundef nonnull %1912) #35
  %1917 = getelementptr inbounds nuw i8, ptr %1916, i64 32
  %1918 = load i32, ptr %1917, align 4, !tbaa !99
  br label %1919

1919:                                             ; preds = %1915, %1910
  %1920 = phi i32 [ %1918, %1915 ], [ %1904, %1910 ]
  %1921 = phi ptr [ %1912, %1915 ], [ %1902, %1910 ]
  %1922 = icmp slt i32 %1920, 8
  br i1 %1922, label %1923, label %2283

1923:                                             ; preds = %1919, %1911
  %1924 = phi ptr [ %1912, %1911 ], [ %1921, %1919 ]
  %1925 = icmp eq ptr %1924, %1725
  br i1 %1925, label %1930, label %1926

1926:                                             ; preds = %1923
  %1927 = getelementptr inbounds nuw i8, ptr %1924, i64 32
  %1928 = load i32, ptr %1927, align 4, !tbaa !99
  %1929 = icmp sgt i32 %1928, 8
  br label %1930

1930:                                             ; preds = %1926, %1923
  %1931 = phi i1 [ true, %1923 ], [ %1929, %1926 ]
  %1932 = invoke noalias noundef nonnull dereferenceable(40) ptr @_Znwm(i64 noundef 40) #36
          to label %1933 unwind label %1935

1933:                                             ; preds = %1930
  %1934 = getelementptr inbounds nuw i8, ptr %1932, i64 32
  store i32 8, ptr %1934, align 4, !tbaa !99
  call void @_ZSt29_Rb_tree_insert_and_rebalancebPSt18_Rb_tree_node_baseS0_RS_(i1 noundef zeroext %1931, ptr noundef nonnull %1932, ptr noundef nonnull %1924, ptr noundef nonnull align 8 dereferenceable(32) %1725) #38
  br label %2280

1935:                                             ; preds = %1930
  %1936 = landingpad { ptr, i32 }
          cleanup
  br label %3139

1937:                                             ; preds = %1896
  %1938 = call noundef zeroext i1 @_ZN5osgeo4proj8internal8ci_equalERKNSt7__cxx1112basic_stringIcSt11char_traitsIcESaIcEEEPKc(ptr noundef nonnull align 8 dereferenceable(32) %1769, ptr noundef nonnull @.str.132) #38
  br i1 %1938, label %1939, label %2020

1939:                                             ; preds = %1937
  %1940 = load ptr, ptr %1726, align 8, !tbaa !98
  %1941 = icmp eq ptr %1940, null
  br i1 %1941, label %1952, label %1942

1942:                                             ; preds = %1942, %1939
  %1943 = phi ptr [ %1949, %1942 ], [ %1940, %1939 ]
  %1944 = getelementptr inbounds nuw i8, ptr %1943, i64 32
  %1945 = load i32, ptr %1944, align 4, !tbaa !99
  %1946 = icmp sgt i32 %1945, 10
  %1947 = select i1 %1946, i64 16, i64 24
  %1948 = getelementptr inbounds nuw i8, ptr %1943, i64 %1947
  %1949 = load ptr, ptr %1948, align 8, !tbaa !98
  %1950 = icmp eq ptr %1949, null
  br i1 %1950, label %1951, label %1942, !llvm.loop !101

1951:                                             ; preds = %1942
  br i1 %1946, label %1952, label %1960

1952:                                             ; preds = %1951, %1939
  %1953 = phi ptr [ %1943, %1951 ], [ %1725, %1939 ]
  %1954 = load ptr, ptr %1727, align 8, !tbaa !95
