; ModuleID = 'temp/PROJ/singleoperation.cpp.ll'
source_filename = "/home/mitch/Documents/PROJ/src/iso19111/operation/singleoperation.cpp"
target datalayout = "e-m:e-p270:32:32-p271:32:32-p272:64:64-i64:64-i128:128-f80:128-n8:16:32:64-S128"
target triple = "x86_64-pc-linux-gnu"

%"class.std::__cxx11::basic_string" = type { %"struct.std::__cxx11::basic_string<char>::_Alloc_hider", i64, %union.anon }
%"struct.std::__cxx11::basic_string<char>::_Alloc_hider" = type { ptr }
%union.anon = type { i64, [8 x i8] }
%"class.osgeo::proj::common::UnitOfMeasure" = type { %"class.osgeo::proj::util::BaseObject", %"class.std::unique_ptr.283" }
%"class.osgeo::proj::util::BaseObject" = type { ptr, %"class.std::unique_ptr" }
%"class.std::unique_ptr" = type { %"struct.std::__uniq_ptr_data" }
%"struct.std::__uniq_ptr_data" = type { %"class.std::__uniq_ptr_impl" }
%"class.std::__uniq_ptr_impl" = type { %"class.std::tuple" }
%"class.std::tuple" = type { %"struct.std::_Tuple_impl" }
%"struct.std::_Tuple_impl" = type { %"struct.std::_Head_base.1" }
%"struct.std::_Head_base.1" = type { ptr }
%"class.std::unique_ptr.283" = type { %"struct.std::__uniq_ptr_data.284" }
%"struct.std::__uniq_ptr_data.284" = type { %"class.std::__uniq_ptr_impl.285" }
%"class.std::__uniq_ptr_impl.285" = type { %"class.std::tuple.286" }
%"class.std::tuple.286" = type { %"struct.std::_Tuple_impl.287" }
%"struct.std::_Tuple_impl.287" = type { %"struct.std::_Head_base.290" }
%"struct.std::_Head_base.290" = type { ptr }
%"class.std::__shared_count" = type { ptr }
%"class.osgeo::proj::common::Measure" = type { %"class.osgeo::proj::util::BaseObject", %"class.std::unique_ptr.275" }
%"class.std::unique_ptr.275" = type { %"struct.std::__uniq_ptr_data.276" }
%"struct.std::__uniq_ptr_data.276" = type { %"class.std::__uniq_ptr_impl.277" }
%"class.std::__uniq_ptr_impl.277" = type { %"class.std::tuple.278" }
%"class.std::tuple.278" = type { %"struct.std::_Tuple_impl.279" }
%"struct.std::_Tuple_impl.279" = type { %"struct.std::_Head_base.282" }
%"struct.std::_Head_base.282" = type { ptr }
%"struct.osgeo::proj::operation::ParamMapping" = type { ptr, i32, ptr, i32, ptr }
%struct.anon = type { i32, i32, ptr }
%"class.osgeo::proj::cs::AxisDirection" = type { %"class.osgeo::proj::util::CodeList" }
%"class.osgeo::proj::util::CodeList" = type { %"class.std::__cxx11::basic_string" }
%"class.std::shared_ptr" = type { %"class.std::__shared_ptr" }
%"class.std::__shared_ptr" = type { ptr, %"class.std::__shared_count" }
%"class.dropbox::oxygen::nn.53" = type { %"class.std::shared_ptr.54" }
%"class.std::shared_ptr.54" = type { %"class.std::__shared_ptr.55" }
%"class.std::__shared_ptr.55" = type { ptr, %"class.std::__shared_count" }
%"class.dropbox::oxygen::nn" = type { %"class.std::shared_ptr" }
%"class.dropbox::oxygen::nn.86" = type { %"class.std::unique_ptr.87" }
%"class.std::unique_ptr.87" = type { %"struct.std::__uniq_ptr_data.88" }
%"struct.std::__uniq_ptr_data.88" = type { %"class.std::__uniq_ptr_impl.89" }
%"class.std::__uniq_ptr_impl.89" = type { %"class.std::tuple.90" }
%"class.std::tuple.90" = type { %"struct.std::_Tuple_impl.91" }
%"struct.std::_Tuple_impl.91" = type { %"struct.std::_Head_base.94" }
%"struct.std::_Head_base.94" = type { ptr }
%"class.std::shared_ptr.95" = type { %"class.std::__shared_ptr.96" }
%"class.std::__shared_ptr.96" = type { ptr, %"class.std::__shared_count" }
%"class.std::set" = type { %"class.std::_Rb_tree" }
%"class.std::_Rb_tree" = type { %"struct.std::_Rb_tree<osgeo::proj::operation::GridDescription, osgeo::proj::operation::GridDescription, std::_Identity<osgeo::proj::operation::GridDescription>, std::less<osgeo::proj::operation::GridDescription>>::_Rb_tree_impl" }
%"struct.std::_Rb_tree<osgeo::proj::operation::GridDescription, osgeo::proj::operation::GridDescription, std::_Identity<osgeo::proj::operation::GridDescription>, std::less<osgeo::proj::operation::GridDescription>>::_Rb_tree_impl" = type { [8 x i8], %"struct.std::_Rb_tree_header" }
%"struct.std::_Rb_tree_header" = type { %"struct.std::_Rb_tree_node_base", i64 }
%"struct.std::_Rb_tree_node_base" = type { i32, ptr, ptr, ptr }
%"class.dropbox::oxygen::nn.49" = type { %"class.std::shared_ptr.50" }
%"class.std::shared_ptr.50" = type { %"class.std::__shared_ptr.51" }
%"class.std::__shared_ptr.51" = type { ptr, %"class.std::__shared_count" }
%"struct.osgeo::proj::util::BaseObjectNNPtr" = type { %"class.dropbox::oxygen::nn.117" }
%"class.dropbox::oxygen::nn.117" = type { %"class.std::shared_ptr.118" }
%"class.std::shared_ptr.118" = type { %"class.std::__shared_ptr.119" }
%"class.std::__shared_ptr.119" = type { ptr, %"class.std::__shared_count" }
%"class.std::vector.81" = type { %"struct.std::_Vector_base.82" }
%"struct.std::_Vector_base.82" = type { %"struct.std::_Vector_base<dropbox::oxygen::nn<std::shared_ptr<osgeo::proj::operation::CoordinateOperation>>, std::allocator<dropbox::oxygen::nn<std::shared_ptr<osgeo::proj::operation::CoordinateOperation>>>>::_Vector_impl" }
%"struct.std::_Vector_base<dropbox::oxygen::nn<std::shared_ptr<osgeo::proj::operation::CoordinateOperation>>, std::allocator<dropbox::oxygen::nn<std::shared_ptr<osgeo::proj::operation::CoordinateOperation>>>>::_Vector_impl" = type { %"struct.std::_Vector_base<dropbox::oxygen::nn<std::shared_ptr<osgeo::proj::operation::CoordinateOperation>>, std::allocator<dropbox::oxygen::nn<std::shared_ptr<osgeo::proj::operation::CoordinateOperation>>>>::_Vector_impl_data" }
%"struct.std::_Vector_base<dropbox::oxygen::nn<std::shared_ptr<osgeo::proj::operation::CoordinateOperation>>, std::allocator<dropbox::oxygen::nn<std::shared_ptr<osgeo::proj::operation::CoordinateOperation>>>>::_Vector_impl_data" = type { ptr, ptr, ptr }
%"class.dropbox::oxygen::nn.121" = type { %"class.std::shared_ptr.122" }
%"class.std::shared_ptr.122" = type { %"class.std::__shared_ptr.123" }
%"class.std::__shared_ptr.123" = type { ptr, %"class.std::__shared_count" }
%"class.osgeo::proj::util::PropertyMap" = type { %"class.std::unique_ptr.101" }
%"class.std::unique_ptr.101" = type { %"struct.std::__uniq_ptr_data.102" }
%"struct.std::__uniq_ptr_data.102" = type { %"class.std::__uniq_ptr_impl.103" }
%"class.std::__uniq_ptr_impl.103" = type { %"class.std::tuple.104" }
%"class.std::tuple.104" = type { %"struct.std::_Tuple_impl.105" }
%"struct.std::_Tuple_impl.105" = type { %"struct.std::_Head_base.108" }
%"struct.std::_Head_base.108" = type { ptr }
%"class.dropbox::oxygen::nn.133" = type { %"class.std::shared_ptr.134" }
%"class.std::shared_ptr.134" = type { %"class.std::__shared_ptr.135" }
%"class.std::__shared_ptr.135" = type { ptr, %"class.std::__shared_count" }
%"class.dropbox::oxygen::nn.137" = type { %"class.std::unique_ptr.138" }
%"class.std::unique_ptr.138" = type { %"struct.std::__uniq_ptr_data.139" }
%"struct.std::__uniq_ptr_data.139" = type { %"class.std::__uniq_ptr_impl.140" }
%"class.std::__uniq_ptr_impl.140" = type { %"class.std::tuple.141" }
%"class.std::tuple.141" = type { %"struct.std::_Tuple_impl.142" }
%"struct.std::_Tuple_impl.142" = type { %"struct.std::_Head_base.145" }
%"struct.std::_Head_base.145" = type { ptr }
%union.PJ_COORD = type { [4 x double] }
%"class.dropbox::oxygen::nn.176" = type { %"class.std::shared_ptr.177" }
%"class.std::shared_ptr.177" = type { %"class.std::__shared_ptr.178" }
%"class.std::__shared_ptr.178" = type { ptr, %"class.std::__shared_count" }
%"class.std::vector.171" = type { %"struct.std::_Vector_base.172" }
%"struct.std::_Vector_base.172" = type { %"struct.std::_Vector_base<dropbox::oxygen::nn<std::shared_ptr<osgeo::proj::operation::GeneralOperationParameter>>, std::allocator<dropbox::oxygen::nn<std::shared_ptr<osgeo::proj::operation::GeneralOperationParameter>>>>::_Vector_impl" }
%"struct.std::_Vector_base<dropbox::oxygen::nn<std::shared_ptr<osgeo::proj::operation::GeneralOperationParameter>>, std::allocator<dropbox::oxygen::nn<std::shared_ptr<osgeo::proj::operation::GeneralOperationParameter>>>>::_Vector_impl" = type { %"struct.std::_Vector_base<dropbox::oxygen::nn<std::shared_ptr<osgeo::proj::operation::GeneralOperationParameter>>, std::allocator<dropbox::oxygen::nn<std::shared_ptr<osgeo::proj::operation::GeneralOperationParameter>>>>::_Vector_impl_data" }
%"struct.std::_Vector_base<dropbox::oxygen::nn<std::shared_ptr<osgeo::proj::operation::GeneralOperationParameter>>, std::allocator<dropbox::oxygen::nn<std::shared_ptr<osgeo::proj::operation::GeneralOperationParameter>>>>::_Vector_impl_data" = type { ptr, ptr, ptr }
%"class.dropbox::oxygen::nn.190" = type { %"class.std::shared_ptr.191" }
%"class.std::shared_ptr.191" = type { %"class.std::__shared_ptr.192" }
%"class.std::__shared_ptr.192" = type { ptr, %"class.std::__shared_count" }
%"struct.osgeo::proj::operation::MethodNameCode" = type { ptr, i32 }
%"class.std::allocator" = type { i8 }
%"struct.osgeo::proj::io::JSONFormatter::ObjectContext" = type { ptr }
%"class.dropbox::oxygen::nn.255" = type { %"class.std::shared_ptr.256" }
%"class.std::shared_ptr.256" = type { %"class.std::__shared_ptr.257" }
%"class.std::__shared_ptr.257" = type { ptr, %"class.std::__shared_count" }
%"struct.osgeo::proj::operation::ParamNameCode" = type { ptr, i32 }
%"class.dropbox::oxygen::nn.186" = type { %"class.std::shared_ptr.187" }
%"class.std::shared_ptr.187" = type { %"class.std::__shared_ptr.188" }
%"class.std::__shared_ptr.188" = type { ptr, %"class.std::__shared_count" }
%"class.dropbox::oxygen::nn.301" = type { %"class.std::shared_ptr.302" }
%"class.std::shared_ptr.302" = type { %"class.std::__shared_ptr.303" }
%"class.std::__shared_ptr.303" = type { ptr, %"class.std::__shared_count" }
%"class.dropbox::oxygen::nn.305" = type { %"class.std::shared_ptr.306" }
%"class.std::shared_ptr.306" = type { %"class.std::__shared_ptr.307" }
%"class.std::__shared_ptr.307" = type { ptr, %"class.std::__shared_count" }
%"class.std::vector.337" = type { %"struct.std::_Vector_base.338" }
%"struct.std::_Vector_base.338" = type { %"struct.std::_Vector_base<double, std::allocator<double>>::_Vector_impl" }
%"struct.std::_Vector_base<double, std::allocator<double>>::_Vector_impl" = type { %"struct.std::_Vector_base<double, std::allocator<double>>::_Vector_impl_data" }
%"struct.std::_Vector_base<double, std::allocator<double>>::_Vector_impl_data" = type { ptr, ptr, ptr }
%"class.std::shared_ptr.252" = type { %"class.std::__shared_ptr.253" }
%"class.std::__shared_ptr.253" = type { ptr, %"class.std::__shared_count" }
%"class.dropbox::oxygen::nn.297" = type { %"class.std::shared_ptr.298" }
%"class.std::shared_ptr.298" = type { %"class.std::__shared_ptr.299" }
%"class.std::__shared_ptr.299" = type { ptr, %"class.std::__shared_count" }
%"class.std::vector.342" = type { %"struct.std::_Vector_base.343" }
%"struct.std::_Vector_base.343" = type { %"struct.std::_Vector_base<std::__cxx11::basic_string<char>, std::allocator<std::__cxx11::basic_string<char>>>::_Vector_impl" }
%"struct.std::_Vector_base<std::__cxx11::basic_string<char>, std::allocator<std::__cxx11::basic_string<char>>>::_Vector_impl" = type { %"struct.std::_Vector_base<std::__cxx11::basic_string<char>, std::allocator<std::__cxx11::basic_string<char>>>::_Vector_impl_data" }
%"struct.std::_Vector_base<std::__cxx11::basic_string<char>, std::allocator<std::__cxx11::basic_string<char>>>::_Vector_impl_data" = type { ptr, ptr, ptr }
%"struct.osgeo::proj::operation::GridDescription" = type <{ %"class.std::__cxx11::basic_string", %"class.std::__cxx11::basic_string", %"class.std::__cxx11::basic_string", %"class.std::__cxx11::basic_string", i8, i8, i8, [5 x i8] }>
%"class.std::__cxx11::list" = type { %"class.std::__cxx11::_List_base" }
%"class.std::__cxx11::_List_base" = type { %"struct.std::__cxx11::_List_base<std::__cxx11::basic_string<char>, std::allocator<std::__cxx11::basic_string<char>>>::_List_impl" }
%"struct.std::__cxx11::_List_base<std::__cxx11::basic_string<char>, std::allocator<std::__cxx11::basic_string<char>>>::_List_impl" = type { %"struct.std::__detail::_List_node_header" }
%"struct.std::__detail::_List_node_header" = type { %"struct.std::__detail::_List_node_base", %"struct.std::__detail::_List_size" }
%"struct.std::__detail::_List_node_base" = type { ptr, ptr }
%"struct.std::__detail::_List_size" = type { i64 }
%"struct.osgeo::proj::operation::MethodMapping" = type { ptr, i32, ptr, ptr, ptr, ptr }
%"struct.osgeo::proj::operation::VectorOfParameters" = type { %"class.std::vector.180" }
%"class.std::vector.180" = type { %"struct.std::_Vector_base.181" }
%"struct.std::_Vector_base.181" = type { %"struct.std::_Vector_base<dropbox::oxygen::nn<std::shared_ptr<osgeo::proj::operation::OperationParameter>>, std::allocator<dropbox::oxygen::nn<std::shared_ptr<osgeo::proj::operation::OperationParameter>>>>::_Vector_impl" }
%"struct.std::_Vector_base<dropbox::oxygen::nn<std::shared_ptr<osgeo::proj::operation::OperationParameter>>, std::allocator<dropbox::oxygen::nn<std::shared_ptr<osgeo::proj::operation::OperationParameter>>>>::_Vector_impl" = type { %"struct.std::_Vector_base<dropbox::oxygen::nn<std::shared_ptr<osgeo::proj::operation::OperationParameter>>, std::allocator<dropbox::oxygen::nn<std::shared_ptr<osgeo::proj::operation::OperationParameter>>>>::_Vector_impl_data" }
%"struct.std::_Vector_base<dropbox::oxygen::nn<std::shared_ptr<osgeo::proj::operation::OperationParameter>>, std::allocator<dropbox::oxygen::nn<std::shared_ptr<osgeo::proj::operation::OperationParameter>>>>::_Vector_impl_data" = type { ptr, ptr, ptr }
%"struct.osgeo::proj::operation::VectorOfValues" = type { %"class.std::vector.374" }
%"class.std::vector.374" = type { %"struct.std::_Vector_base.375" }
%"struct.std::_Vector_base.375" = type { %"struct.std::_Vector_base<dropbox::oxygen::nn<std::shared_ptr<osgeo::proj::operation::ParameterValue>>, std::allocator<dropbox::oxygen::nn<std::shared_ptr<osgeo::proj::operation::ParameterValue>>>>::_Vector_impl" }
%"struct.std::_Vector_base<dropbox::oxygen::nn<std::shared_ptr<osgeo::proj::operation::ParameterValue>>, std::allocator<dropbox::oxygen::nn<std::shared_ptr<osgeo::proj::operation::ParameterValue>>>>::_Vector_impl" = type { %"struct.std::_Vector_base<dropbox::oxygen::nn<std::shared_ptr<osgeo::proj::operation::ParameterValue>>, std::allocator<dropbox::oxygen::nn<std::shared_ptr<osgeo::proj::operation::ParameterValue>>>>::_Vector_impl_data" }
%"struct.std::_Vector_base<dropbox::oxygen::nn<std::shared_ptr<osgeo::proj::operation::ParameterValue>>, std::allocator<dropbox::oxygen::nn<std::shared_ptr<osgeo::proj::operation::ParameterValue>>>>::_Vector_impl_data" = type { ptr, ptr, ptr }
%"class.dropbox::oxygen::nn.251" = type { %"class.std::shared_ptr.252" }
%"class.dropbox::oxygen::nn.380" = type { %"class.std::shared_ptr.381" }
%"class.std::shared_ptr.381" = type { %"class.std::__shared_ptr.382" }
%"class.std::__shared_ptr.382" = type { ptr, %"class.std::__shared_count" }
%"class.dropbox::oxygen::nn.570" = type { %"class.std::shared_ptr.571" }
%"class.std::shared_ptr.571" = type { %"class.std::__shared_ptr.572" }
%"class.std::__shared_ptr.572" = type { ptr, %"class.std::__shared_count" }
%"class.dropbox::oxygen::nn.361" = type { %"class.std::shared_ptr.362" }
%"class.std::shared_ptr.362" = type { %"class.std::__shared_ptr.363" }
%"class.std::__shared_ptr.363" = type { ptr, %"class.std::__shared_count" }
%"class.std::shared_ptr.454" = type { %"class.std::__shared_ptr.455" }
%"class.std::__shared_ptr.455" = type { ptr, %"class.std::__shared_count" }
%"class.dropbox::oxygen::nn.373" = type { %"class.std::shared_ptr.95" }
%"class.dropbox::oxygen::nn.491" = type { %"class.std::shared_ptr.492" }
%"class.std::shared_ptr.492" = type { %"class.std::__shared_ptr.493" }
%"class.std::__shared_ptr.493" = type { ptr, %"class.std::__shared_count" }
%"class.dropbox::oxygen::nn.512" = type { %"class.std::shared_ptr.513" }
%"class.std::shared_ptr.513" = type { %"class.std::__shared_ptr.514" }
%"class.std::__shared_ptr.514" = type { ptr, %"class.std::__shared_count" }
%"class.std::shared_ptr.524" = type { %"class.std::__shared_ptr.525" }
%"class.std::__shared_ptr.525" = type { ptr, %"class.std::__shared_count" }
%"class.dropbox::oxygen::nn.527" = type { %"class.std::shared_ptr.528" }
%"class.std::shared_ptr.528" = type { %"class.std::__shared_ptr.529" }
%"class.std::__shared_ptr.529" = type { ptr, %"class.std::__shared_count" }
%"class.osgeo::proj::common::Angle" = type { %"class.osgeo::proj::common::Measure" }
%"class.dropbox::oxygen::nn.531" = type { %"class.std::shared_ptr.532" }
%"class.std::shared_ptr.532" = type { %"class.std::__shared_ptr.533" }
%"class.std::__shared_ptr.533" = type { ptr, %"class.std::__shared_count" }
%"class.dropbox::oxygen::nn.582" = type { %"class.std::shared_ptr.583" }
%"class.std::shared_ptr.583" = type { %"class.std::__shared_ptr.584" }
%"class.std::__shared_ptr.584" = type { ptr, %"class.std::__shared_count" }
%"class.dropbox::oxygen::nn.551" = type { %"class.std::shared_ptr.552" }
%"class.std::shared_ptr.552" = type { %"class.std::__shared_ptr.553" }
%"class.std::__shared_ptr.553" = type { ptr, %"class.std::__shared_count" }
%"class.osgeo::proj::util::optional.40" = type { i8, %"class.osgeo::proj::common::DataEpoch" }
%"class.osgeo::proj::common::DataEpoch" = type { %"class.std::unique_ptr.41" }
%"class.std::unique_ptr.41" = type { %"struct.std::__uniq_ptr_data.42" }
%"struct.std::__uniq_ptr_data.42" = type { %"class.std::__uniq_ptr_impl.43" }
%"class.std::__uniq_ptr_impl.43" = type { %"class.std::tuple.44" }
%"class.std::tuple.44" = type { %"struct.std::_Tuple_impl.45" }
%"struct.std::_Tuple_impl.45" = type { %"struct.std::_Head_base.48" }
%"struct.std::_Head_base.48" = type { ptr }
%"class.std::vector.291" = type { %"struct.std::_Vector_base.292" }
%"struct.std::_Vector_base.292" = type { %"struct.std::_Vector_base<dropbox::oxygen::nn<std::shared_ptr<osgeo::proj::operation::GeneralParameterValue>>, std::allocator<dropbox::oxygen::nn<std::shared_ptr<osgeo::proj::operation::GeneralParameterValue>>>>::_Vector_impl" }
%"struct.std::_Vector_base<dropbox::oxygen::nn<std::shared_ptr<osgeo::proj::operation::GeneralParameterValue>>, std::allocator<dropbox::oxygen::nn<std::shared_ptr<osgeo::proj::operation::GeneralParameterValue>>>>::_Vector_impl" = type { %"struct.std::_Vector_base<dropbox::oxygen::nn<std::shared_ptr<osgeo::proj::operation::GeneralParameterValue>>, std::allocator<dropbox::oxygen::nn<std::shared_ptr<osgeo::proj::operation::GeneralParameterValue>>>>::_Vector_impl_data" }
%"struct.std::_Vector_base<dropbox::oxygen::nn<std::shared_ptr<osgeo::proj::operation::GeneralParameterValue>>, std::allocator<dropbox::oxygen::nn<std::shared_ptr<osgeo::proj::operation::GeneralParameterValue>>>>::_Vector_impl_data" = type { ptr, ptr, ptr }
%"struct.osgeo::proj::CPLJSonStreamingWriter::ArrayContext" = type <{ ptr, i8, i8, [6 x i8] }>

$_ZN7dropbox6oxygen2nnISt10shared_ptrIN5osgeo4proj9operation14TransformationEEED2Ev = comdat any

$_ZN7dropbox6oxygen2nnISt10shared_ptrIN5osgeo4proj3crs3CRSEEED2Ev = comdat any

$_ZNSt12__shared_ptrIN5osgeo4proj3crs3CRSELN9__gnu_cxx12_Lock_policyE2EED2Ev = comdat any

$_ZNSt6vectorIN7dropbox6oxygen2nnISt10shared_ptrIN5osgeo4proj8metadata18PositionalAccuracyEEEESaIS9_EEaSERKSB_ = comdat any

$_ZN7dropbox6oxygen2nnISt10unique_ptrIN5osgeo4proj2io19PROJStringFormatterESt14default_deleteIS6_EEED2Ev = comdat any

$_ZNSt12__shared_ptrIN5osgeo4proj2io15DatabaseContextELN9__gnu_cxx12_Lock_policyE2EED2Ev = comdat any

$_ZNSt3setIN5osgeo4proj9operation15GridDescriptionESt4lessIS3_ESaIS3_EED2Ev = comdat any

$_ZN7dropbox6oxygen2nnISt10shared_ptrIN5osgeo4proj9operation10ConversionEEED2Ev = comdat any

$_ZNSt6vectorIN7dropbox6oxygen2nnISt10shared_ptrIN5osgeo4proj9operation19CoordinateOperationEEEESaIS9_EED2Ev = comdat any

$_ZN7dropbox6oxygen2nnISt10shared_ptrIN5osgeo4proj9operation19CoordinateOperationEEED2Ev = comdat any

$__clang_call_terminate = comdat any

$_ZN5osgeo4proj9operation15OperationMethod14nn_make_sharedIS2_JEEEN7dropbox6oxygen2nnISt10shared_ptrIT_EEEDpOT0_ = comdat any

$_ZNSt6vectorIN7dropbox6oxygen2nnISt10shared_ptrIN5osgeo4proj9operation25GeneralOperationParameterEEEESaIS9_EEaSERKSB_ = comdat any

$_ZNSt7__cxx1112basic_stringIcSt11char_traitsIcESaIcEEC2IS3_EEPKcRKS3_ = comdat any

$_ZN7dropbox6oxygen2nnISt10shared_ptrIN5osgeo4proj9operation15OperationMethodEEED2Ev = comdat any

$_ZN7dropbox6oxygen2nnISt10shared_ptrIN5osgeo4proj9operation25GeneralOperationParameterEEED2Ev = comdat any

$_ZNSt6vectorIN7dropbox6oxygen2nnISt10shared_ptrIN5osgeo4proj9operation25GeneralOperationParameterEEEESaIS9_EED2Ev = comdat any

$_ZSteqIcSt11char_traitsIcESaIcEEbRKNSt7__cxx1112basic_stringIT_T0_T1_EEPKS5_ = comdat any

$_ZStplIcSt11char_traitsIcESaIcEENSt7__cxx1112basic_stringIT_T0_T1_EEOS8_PKS5_ = comdat any

$_ZN5osgeo4proj9operation23OperationParameterValue14nn_make_sharedIS2_JRKN7dropbox6oxygen2nnISt10shared_ptrINS1_18OperationParameterEEEERKNS6_IS7_INS1_14ParameterValueEEEEEEENS6_IS7_IT_EEEDpOT0_ = comdat any

$_ZN5osgeo4proj9operation18OperationParameter14nn_make_sharedIS2_JEEEN7dropbox6oxygen2nnISt10shared_ptrIT_EEEDpOT0_ = comdat any

$_ZN7dropbox6oxygen2nnISt10shared_ptrIN5osgeo4proj9operation18OperationParameterEEED2Ev = comdat any

$_ZNSt10unique_ptrIN5osgeo4proj9operation15SingleOperation7PrivateESt14default_deleteIS4_EED2Ev = comdat any

$_ZNSt6vectorIN7dropbox6oxygen2nnISt10shared_ptrIN5osgeo4proj9operation21GeneralParameterValueEEEESaIS9_EEaSERKSB_ = comdat any

$_ZNSt12__shared_ptrIN5osgeo4proj9operation14ParameterValueELN9__gnu_cxx12_Lock_policyE2EED2Ev = comdat any

$_ZNSt12__shared_ptrIN5osgeo4proj9operation10ConversionELN9__gnu_cxx12_Lock_policyE2EED2Ev = comdat any

$_ZNSt6vectorINSt7__cxx1112basic_stringIcSt11char_traitsIcESaIcEEESaIS5_EED2Ev = comdat any

$_ZStplIcSt11char_traitsIcESaIcEENSt7__cxx1112basic_stringIT_T0_T1_EEPKS5_RKS8_ = comdat any

$_ZNSt7__cxx1110_List_baseINS_12basic_stringIcSt11char_traitsIcESaIcEEESaIS5_EED2Ev = comdat any

$_ZStplIcSt11char_traitsIcESaIcEENSt7__cxx1112basic_stringIT_T0_T1_EERKS8_PKS5_ = comdat any

$_ZSt20dynamic_pointer_castIN5osgeo4proj9operation14TransformationENS1_4util10BaseObjectEESt10shared_ptrIT_ERKS6_IT0_E = comdat any

$_ZNSt12__shared_ptrIN5osgeo4proj9operation14TransformationELN9__gnu_cxx12_Lock_policyE2EED2Ev = comdat any

$_ZN5osgeo4proj9operation18VectorOfParametersC2ESt16initializer_listIN7dropbox6oxygen2nnISt10shared_ptrINS1_18OperationParameterEEEEE = comdat any

$_ZN7dropbox6oxygen2nnISt10shared_ptrIN5osgeo4proj9operation14ParameterValueEEED2Ev = comdat any

$_ZN5osgeo4proj9operation14VectorOfValuesC2ESt16initializer_listIN7dropbox6oxygen2nnISt10shared_ptrINS1_14ParameterValueEEEEE = comdat any

$_ZN7dropbox6oxygen2nnISt10shared_ptrIN5osgeo4proj6common16IdentifiedObjectEEED2Ev = comdat any

$_ZNSt10shared_ptrIN5osgeo4proj9operation14ParameterValueEEaSERKS4_ = comdat any

$_ZNSt6vectorIN7dropbox6oxygen2nnISt10shared_ptrIN5osgeo4proj9operation14ParameterValueEEEESaIS9_EE9push_backERKS9_ = comdat any

$_ZNSt6vectorIN7dropbox6oxygen2nnISt10shared_ptrIN5osgeo4proj9operation14ParameterValueEEEESaIS9_EED2Ev = comdat any

$_ZNSt6vectorIN7dropbox6oxygen2nnISt10shared_ptrIN5osgeo4proj9operation18OperationParameterEEEESaIS9_EED2Ev = comdat any

$_ZN7dropbox6oxygen2nnISt10shared_ptrIN5osgeo4proj9operation23OperationParameterValueEEED2Ev = comdat any

$_ZN7dropbox6oxygen2nnISt10shared_ptrIN5osgeo4proj9operation21GeneralParameterValueEEED2Ev = comdat any

$_ZNSt12__shared_ptrIN5osgeo4proj3crs13GeographicCRSELN9__gnu_cxx12_Lock_policyE2EED2Ev = comdat any

$_ZN7dropbox6oxygen2nnISt10shared_ptrIN5osgeo4proj2io15DatabaseContextEEED2Ev = comdat any

$_ZN7dropbox6oxygen2nnISt10shared_ptrIN5osgeo4proj5datum22GeodeticReferenceFrameEEED2Ev = comdat any

$_ZN7dropbox6oxygen2nnISt10shared_ptrIN5osgeo4proj5datum22VerticalReferenceFrameEEED2Ev = comdat any

$_ZNK5osgeo4proj4util8CodeListeqERKS2_ = comdat any

$_ZN7dropbox6oxygen2nnISt10shared_ptrIN5osgeo4proj2cs10VerticalCSEEED2Ev = comdat any

$_ZNSt12__shared_ptrIN5osgeo4proj3crs11VerticalCRSELN9__gnu_cxx12_Lock_policyE2EED2Ev = comdat any

$_ZN7dropbox6oxygen2nnISt10shared_ptrIN5osgeo4proj5datum13PrimeMeridianEEED2Ev = comdat any

$_ZN5osgeo4proj8internal11starts_withERKNSt7__cxx1112basic_stringIcSt11char_traitsIcESaIcEEEPKc = comdat any

$_ZN5osgeo4proj9operation20PointMotionOperation14nn_make_sharedIS2_JRKN7dropbox6oxygen2nnISt10shared_ptrINS0_3crs3CRSEEEERKNS6_IS7_INS1_15OperationMethodEEEERKSt6vectorINS6_IS7_INS1_21GeneralParameterValueEEEESaISM_EERKSJ_INS6_IS7_INS0_8metadata18PositionalAccuracyEEEESaISU_EEEEENS6_IS7_IT_EEEDpOT0_ = comdat any

$_ZN7dropbox6oxygen2nnISt10shared_ptrIN5osgeo4proj9operation20PointMotionOperationEEED2Ev = comdat any

$_ZNSt6vectorIN7dropbox6oxygen2nnISt10shared_ptrIN5osgeo4proj9operation21GeneralParameterValueEEEESaIS9_EED2Ev = comdat any

$_ZN5osgeo4proj9operation20PointMotionOperation14nn_make_sharedIS2_JRKS2_EEEN7dropbox6oxygen2nnISt10shared_ptrIT_EEEDpOT0_ = comdat any

$_ZN5osgeo4proj22CPLJSonStreamingWriter12ArrayContextD2Ev = comdat any

$_ZNKSt14default_deleteIN5osgeo4proj9operation19CoordinateOperation7Private12CRSStrongRefEEclEPS5_ = comdat any

$_ZNSt16_Sp_counted_baseILN9__gnu_cxx12_Lock_policyE2EE24_M_release_last_use_coldEv = comdat any

$_ZNSt8_Rb_treeIN5osgeo4proj9operation15GridDescriptionES3_St9_IdentityIS3_ESt4lessIS3_ESaIS3_EE8_M_eraseEPSt13_Rb_tree_nodeIS3_E = comdat any

$_ZN7dropbox6oxygen2nnISt10shared_ptrIN5osgeo4proj8metadata10IdentifierEEED2Ev = comdat any

$_ZN7dropbox6oxygen2nnISt10shared_ptrIN5osgeo4proj4util17ArrayOfBaseObjectEEED2Ev = comdat any

$_ZNSt12__shared_ptrIN5osgeo4proj4util10BaseObjectELN9__gnu_cxx12_Lock_policyE2EED2Ev = comdat any

$_ZN7dropbox6oxygen2nnISt10shared_ptrIN5osgeo4proj3crs11GeodeticCRSEEED2Ev = comdat any

$_ZN5osgeo4proj9operation19CoordinateOperation7PrivateC2Ev = comdat any

$_ZNSt10__weak_ptrIN5osgeo4proj3crs3CRSELN9__gnu_cxx12_Lock_policyE2EED2Ev = comdat any

$_ZNSt6vectorIN7dropbox6oxygen2nnISt10shared_ptrIN5osgeo4proj8metadata18PositionalAccuracyEEEESaIS9_EED2Ev = comdat any

$_ZNSt23_Sp_counted_ptr_inplaceIN5osgeo4proj4util8optionalINS1_6common9DataEpochEEESaIvELN9__gnu_cxx12_Lock_policyE2EED0Ev = comdat any

$_ZNSt23_Sp_counted_ptr_inplaceIN5osgeo4proj4util8optionalINS1_6common9DataEpochEEESaIvELN9__gnu_cxx12_Lock_policyE2EE10_M_disposeEv = comdat any

$_ZNSt23_Sp_counted_ptr_inplaceIN5osgeo4proj4util8optionalINS1_6common9DataEpochEEESaIvELN9__gnu_cxx12_Lock_policyE2EE10_M_destroyEv = comdat any

$_ZNSt23_Sp_counted_ptr_inplaceIN5osgeo4proj4util8optionalINS1_6common9DataEpochEEESaIvELN9__gnu_cxx12_Lock_policyE2EE14_M_get_deleterERKSt9type_info = comdat any

$_ZN5osgeo4proj9operation19CoordinateOperation7PrivateD2Ev = comdat any

$_ZN5osgeo4proj9operation19CoordinateOperation7PrivateC2ERKS3_ = comdat any

$_ZNSt12__shared_ptrIN5osgeo4proj4util8optionalINS1_6common9DataEpochEEELN9__gnu_cxx12_Lock_policyE2EED2Ev = comdat any

$_ZNSt6vectorIN7dropbox6oxygen2nnISt10shared_ptrIN5osgeo4proj9operation19CoordinateOperationEEEESaIS9_EE17_M_realloc_appendIJRNS2_IS3_INS6_10ConversionEEEEEEEvDpOT_ = comdat any

$_ZN5osgeo4proj9operation15OperationMethod7PrivateD2Ev = comdat any

$_ZN5osgeo4proj9operation15OperationMethod7PrivateC2ERKS3_ = comdat any

$_ZNSt15_Sp_counted_ptrIPN5osgeo4proj9operation15OperationMethodELN9__gnu_cxx12_Lock_policyE2EED0Ev = comdat any

$_ZNSt15_Sp_counted_ptrIPN5osgeo4proj9operation15OperationMethodELN9__gnu_cxx12_Lock_policyE2EE10_M_disposeEv = comdat any

$_ZNSt15_Sp_counted_ptrIPN5osgeo4proj9operation15OperationMethodELN9__gnu_cxx12_Lock_policyE2EE10_M_destroyEv = comdat any

$_ZNSt15_Sp_counted_ptrIPN5osgeo4proj9operation15OperationMethodELN9__gnu_cxx12_Lock_policyE2EE14_M_get_deleterERKSt9type_info = comdat any

$_ZNKSt14default_deleteIN5osgeo4proj9operation23OperationParameterValue7PrivateEEclEPS4_ = comdat any

$_ZNSt15_Sp_counted_ptrIPN5osgeo4proj9operation23OperationParameterValueELN9__gnu_cxx12_Lock_policyE2EED0Ev = comdat any

$_ZNSt15_Sp_counted_ptrIPN5osgeo4proj9operation23OperationParameterValueELN9__gnu_cxx12_Lock_policyE2EE10_M_disposeEv = comdat any

$_ZNSt15_Sp_counted_ptrIPN5osgeo4proj9operation23OperationParameterValueELN9__gnu_cxx12_Lock_policyE2EE10_M_destroyEv = comdat any

$_ZNSt15_Sp_counted_ptrIPN5osgeo4proj9operation23OperationParameterValueELN9__gnu_cxx12_Lock_policyE2EE14_M_get_deleterERKSt9type_info = comdat any

$_ZNSt15_Sp_counted_ptrIPN5osgeo4proj9operation18OperationParameterELN9__gnu_cxx12_Lock_policyE2EED0Ev = comdat any

$_ZNSt15_Sp_counted_ptrIPN5osgeo4proj9operation18OperationParameterELN9__gnu_cxx12_Lock_policyE2EE10_M_disposeEv = comdat any

$_ZNSt15_Sp_counted_ptrIPN5osgeo4proj9operation18OperationParameterELN9__gnu_cxx12_Lock_policyE2EE10_M_destroyEv = comdat any

$_ZNSt15_Sp_counted_ptrIPN5osgeo4proj9operation18OperationParameterELN9__gnu_cxx12_Lock_policyE2EE14_M_get_deleterERKSt9type_info = comdat any

$_ZN5osgeo4proj9operation15SingleOperation7PrivateD2Ev = comdat any

$_ZNSt6vectorIN7dropbox6oxygen2nnISt10shared_ptrIN5osgeo4proj9operation18OperationParameterEEEESaIS9_EE17_M_realloc_appendIJRKS9_EEEvDpOT_ = comdat any

$_ZNSt6vectorIN7dropbox6oxygen2nnISt10shared_ptrIN5osgeo4proj9operation14ParameterValueEEEESaIS9_EE12emplace_backIJS9_EEERS9_DpOT_ = comdat any

$_ZNSt6vectorIN7dropbox6oxygen2nnISt10shared_ptrIN5osgeo4proj9operation14ParameterValueEEEESaIS9_EE17_M_realloc_appendIJRKS9_EEEvDpOT_ = comdat any

$_ZNSt16_Sp_counted_baseILN9__gnu_cxx12_Lock_policyE2EED2Ev = comdat any

$_ZNSt15_Sp_counted_ptrIPN5osgeo4proj9operation20PointMotionOperationELN9__gnu_cxx12_Lock_policyE2EED0Ev = comdat any

$_ZNSt15_Sp_counted_ptrIPN5osgeo4proj9operation20PointMotionOperationELN9__gnu_cxx12_Lock_policyE2EE10_M_disposeEv = comdat any

$_ZNSt15_Sp_counted_ptrIPN5osgeo4proj9operation20PointMotionOperationELN9__gnu_cxx12_Lock_policyE2EE10_M_destroyEv = comdat any

$_ZNSt15_Sp_counted_ptrIPN5osgeo4proj9operation20PointMotionOperationELN9__gnu_cxx12_Lock_policyE2EE14_M_get_deleterERKSt9type_info = comdat any

$_ZTVSt23_Sp_counted_ptr_inplaceIN5osgeo4proj4util8optionalINS1_6common9DataEpochEEESaIvELN9__gnu_cxx12_Lock_policyE2EE = comdat any

$_ZTISt23_Sp_counted_ptr_inplaceIN5osgeo4proj4util8optionalINS1_6common9DataEpochEEESaIvELN9__gnu_cxx12_Lock_policyE2EE = comdat any

$_ZTSSt23_Sp_counted_ptr_inplaceIN5osgeo4proj4util8optionalINS1_6common9DataEpochEEESaIvELN9__gnu_cxx12_Lock_policyE2EE = comdat any

$_ZTISt16_Sp_counted_baseILN9__gnu_cxx12_Lock_policyE2EE = comdat any

$_ZTSSt16_Sp_counted_baseILN9__gnu_cxx12_Lock_policyE2EE = comdat any

$_ZTISt11_Mutex_baseILN9__gnu_cxx12_Lock_policyE2EE = comdat any

$_ZTSSt11_Mutex_baseILN9__gnu_cxx12_Lock_policyE2EE = comdat any

$_ZTSSt19_Sp_make_shared_tag = comdat any

$_ZZNSt19_Sp_make_shared_tag5_S_tiEvE5__tag = comdat any

$_ZTVSt15_Sp_counted_ptrIPN5osgeo4proj9operation15OperationMethodELN9__gnu_cxx12_Lock_policyE2EE = comdat any

$_ZTISt15_Sp_counted_ptrIPN5osgeo4proj9operation15OperationMethodELN9__gnu_cxx12_Lock_policyE2EE = comdat any

$_ZTSSt15_Sp_counted_ptrIPN5osgeo4proj9operation15OperationMethodELN9__gnu_cxx12_Lock_policyE2EE = comdat any

$_ZTVSt15_Sp_counted_ptrIPN5osgeo4proj9operation23OperationParameterValueELN9__gnu_cxx12_Lock_policyE2EE = comdat any

$_ZTISt15_Sp_counted_ptrIPN5osgeo4proj9operation23OperationParameterValueELN9__gnu_cxx12_Lock_policyE2EE = comdat any

$_ZTSSt15_Sp_counted_ptrIPN5osgeo4proj9operation23OperationParameterValueELN9__gnu_cxx12_Lock_policyE2EE = comdat any

$_ZTVSt15_Sp_counted_ptrIPN5osgeo4proj9operation18OperationParameterELN9__gnu_cxx12_Lock_policyE2EE = comdat any

$_ZTISt15_Sp_counted_ptrIPN5osgeo4proj9operation18OperationParameterELN9__gnu_cxx12_Lock_policyE2EE = comdat any

$_ZTSSt15_Sp_counted_ptrIPN5osgeo4proj9operation18OperationParameterELN9__gnu_cxx12_Lock_policyE2EE = comdat any

$_ZTVSt15_Sp_counted_ptrIPN5osgeo4proj9operation20PointMotionOperationELN9__gnu_cxx12_Lock_policyE2EE = comdat any

$_ZTISt15_Sp_counted_ptrIPN5osgeo4proj9operation20PointMotionOperationELN9__gnu_cxx12_Lock_policyE2EE = comdat any

$_ZTSSt15_Sp_counted_ptrIPN5osgeo4proj9operation20PointMotionOperationELN9__gnu_cxx12_Lock_policyE2EE = comdat any

@_ZTVN5osgeo4proj9operation33InvalidOperationEmptyIntersectionE = hidden unnamed_addr constant { [5 x ptr] } { [5 x ptr] [ptr null, ptr @_ZTIN5osgeo4proj9operation33InvalidOperationEmptyIntersectionE, ptr @_ZN5osgeo4proj9operation33InvalidOperationEmptyIntersectionD2Ev, ptr @_ZN5osgeo4proj9operation33InvalidOperationEmptyIntersectionD0Ev, ptr @_ZNK5osgeo4proj4util9Exception4whatEv] }, align 8
@_ZTVN5osgeo4proj9operation19CoordinateOperationE = unnamed_addr constant { [9 x ptr], [5 x ptr], [5 x ptr], [5 x ptr], [5 x ptr] } { [9 x ptr] [ptr null, ptr @_ZTIN5osgeo4proj9operation19CoordinateOperationE, ptr @_ZN5osgeo4proj9operation19CoordinateOperationD1Ev, ptr @_ZN5osgeo4proj9operation19CoordinateOperationD0Ev, ptr @_ZNK5osgeo4proj6common11ObjectUsage15_isEquivalentToEPKNS0_4util11IComparableENS4_9CriterionERKSt10shared_ptrINS0_2io15DatabaseContextEE, ptr @_ZNK5osgeo4proj6common16IdentifiedObject29hasEquivalentNameToUsingAliasEPKS2_RKSt10shared_ptrINS0_2io15DatabaseContextEE, ptr @__cxa_pure_virtual, ptr @__cxa_pure_virtual, ptr @__cxa_pure_virtual], [5 x ptr] [ptr inttoptr (i64 -16 to ptr), ptr @_ZTIN5osgeo4proj9operation19CoordinateOperationE, ptr @_ZThn16_N5osgeo4proj9operation19CoordinateOperationD1Ev, ptr @_ZThn16_N5osgeo4proj9operation19CoordinateOperationD0Ev, ptr @_ZThn16_NK5osgeo4proj6common11ObjectUsage15_isEquivalentToEPKNS0_4util11IComparableENS4_9CriterionERKSt10shared_ptrINS0_2io15DatabaseContextEE], [5 x ptr] [ptr inttoptr (i64 -24 to ptr), ptr @_ZTIN5osgeo4proj9operation19CoordinateOperationE, ptr @_ZThn24_N5osgeo4proj9operation19CoordinateOperationD1Ev, ptr @_ZThn24_N5osgeo4proj9operation19CoordinateOperationD0Ev, ptr @__cxa_pure_virtual], [5 x ptr] [ptr inttoptr (i64 -48 to ptr), ptr @_ZTIN5osgeo4proj9operation19CoordinateOperationE, ptr @_ZThn48_N5osgeo4proj9operation19CoordinateOperationD1Ev, ptr @_ZThn48_N5osgeo4proj9operation19CoordinateOperationD0Ev, ptr @__cxa_pure_virtual], [5 x ptr] [ptr inttoptr (i64 -56 to ptr), ptr @_ZTIN5osgeo4proj9operation19CoordinateOperationE, ptr @_ZThn56_N5osgeo4proj9operation19CoordinateOperationD1Ev, ptr @_ZThn56_N5osgeo4proj9operation19CoordinateOperationD0Ev, ptr @__cxa_pure_virtual] }, align 8
@_ZTIN5osgeo4proj9operation19CoordinateOperationE = constant { ptr, ptr, i32, i32, ptr, i64, ptr, i64, ptr, i64 } { ptr getelementptr inbounds (ptr, ptr @_ZTVN10__cxxabiv121__vmi_class_type_infoE, i64 2), ptr @_ZTSN5osgeo4proj9operation19CoordinateOperationE, i32 0, i32 3, ptr @_ZTIN5osgeo4proj6common11ObjectUsageE, i64 2, ptr @_ZTIN5osgeo4proj2io21IPROJStringExportableE, i64 12290, ptr @_ZTIN5osgeo4proj2io15IJSONExportableE, i64 14338 }, align 8
@_ZTVN10__cxxabiv121__vmi_class_type_infoE = external global [0 x ptr]
@_ZTSN5osgeo4proj9operation19CoordinateOperationE = constant [45 x i8] c"N5osgeo4proj9operation19CoordinateOperationE\00", align 1
@_ZTIN5osgeo4proj6common11ObjectUsageE = external constant ptr
@_ZTIN5osgeo4proj2io21IPROJStringExportableE = external constant ptr
@_ZTIN5osgeo4proj2io15IJSONExportableE = external constant ptr
@_ZTIN5osgeo4proj9operation26InverseCoordinateOperationE = hidden constant { ptr, ptr, i32, i32, ptr, i64 } { ptr getelementptr inbounds (ptr, ptr @_ZTVN10__cxxabiv121__vmi_class_type_infoE, i64 2), ptr @_ZTSN5osgeo4proj9operation26InverseCoordinateOperationE, i32 0, i32 1, ptr @_ZTIN5osgeo4proj9operation19CoordinateOperationE, i64 -6141 }, align 8
@_ZTSN5osgeo4proj9operation26InverseCoordinateOperationE = hidden constant [52 x i8] c"N5osgeo4proj9operation26InverseCoordinateOperationE\00", align 1
@_ZTIN5osgeo4proj9operation14TransformationE = external constant ptr
@_ZTVN5osgeo4proj9operation21ConcatenatedOperationE = external unnamed_addr constant { [12 x ptr], [5 x ptr], [5 x ptr], [5 x ptr], [5 x ptr] }, align 8
@_ZTISt9exception = external constant ptr
@_ZN5osgeo4proj9operation19CoordinateOperation21OPERATION_VERSION_KEYB5cxx11E = external global %"class.std::__cxx11::basic_string", align 8
@.str = private unnamed_addr constant [37 x i8] c"Cannot retrieve source or target CRS\00", align 1
@_ZTIN5osgeo4proj4util29UnsupportedOperationExceptionE = external constant ptr
@.str.1 = private unnamed_addr constant [48 x i8] c" (with axis order normalized for visualization)\00", align 1
@_ZN5osgeo4proj6common16IdentifiedObject8NAME_KEYB5cxx11E = external global %"class.std::__cxx11::basic_string", align 8
@_ZN5osgeo4proj6common16IdentifiedObject11REMARKS_KEYB5cxx11E = external global %"class.std::__cxx11::basic_string", align 8
@.str.2 = private unnamed_addr constant [31 x i8] c"Cannot instantiate transformer\00", align 1
@_ZTVN5osgeo4proj9operation15OperationMethodE = unnamed_addr constant { [8 x ptr], [5 x ptr], [5 x ptr], [5 x ptr] } { [8 x ptr] [ptr null, ptr @_ZTIN5osgeo4proj9operation15OperationMethodE, ptr @_ZN5osgeo4proj9operation15OperationMethodD1Ev, ptr @_ZN5osgeo4proj9operation15OperationMethodD0Ev, ptr @_ZNK5osgeo4proj9operation15OperationMethod15_isEquivalentToEPKNS0_4util11IComparableENS4_9CriterionERKSt10shared_ptrINS0_2io15DatabaseContextEE, ptr @_ZNK5osgeo4proj6common16IdentifiedObject29hasEquivalentNameToUsingAliasEPKS2_RKSt10shared_ptrINS0_2io15DatabaseContextEE, ptr @_ZNK5osgeo4proj9operation15OperationMethod12_exportToWKTEPNS0_2io12WKTFormatterE, ptr @_ZNK5osgeo4proj9operation15OperationMethod13_exportToJSONEPNS0_2io13JSONFormatterE], [5 x ptr] [ptr inttoptr (i64 -16 to ptr), ptr @_ZTIN5osgeo4proj9operation15OperationMethodE, ptr @_ZThn16_N5osgeo4proj9operation15OperationMethodD1Ev, ptr @_ZThn16_N5osgeo4proj9operation15OperationMethodD0Ev, ptr @_ZThn16_NK5osgeo4proj9operation15OperationMethod15_isEquivalentToEPKNS0_4util11IComparableENS4_9CriterionERKSt10shared_ptrINS0_2io15DatabaseContextEE], [5 x ptr] [ptr inttoptr (i64 -24 to ptr), ptr @_ZTIN5osgeo4proj9operation15OperationMethodE, ptr @_ZThn24_N5osgeo4proj9operation15OperationMethodD1Ev, ptr @_ZThn24_N5osgeo4proj9operation15OperationMethodD0Ev, ptr @_ZThn24_NK5osgeo4proj9operation15OperationMethod12_exportToWKTEPNS0_2io12WKTFormatterE], [5 x ptr] [ptr inttoptr (i64 -40 to ptr), ptr @_ZTIN5osgeo4proj9operation15OperationMethodE, ptr @_ZThn40_N5osgeo4proj9operation15OperationMethodD1Ev, ptr @_ZThn40_N5osgeo4proj9operation15OperationMethodD0Ev, ptr @_ZThn40_NK5osgeo4proj9operation15OperationMethod13_exportToJSONEPNS0_2io13JSONFormatterE] }, align 8
@.str.3 = private unnamed_addr constant [12 x i8] c"proj_method\00", align 1
@.str.4 = private unnamed_addr constant [6 x i8] c" (3D)\00", align 1
@_ZN5osgeo4proj2io12WKTConstants6METHODB5cxx11E = external global %"class.std::__cxx11::basic_string", align 8
@_ZN5osgeo4proj2io12WKTConstants10PROJECTIONB5cxx11E = external global %"class.std::__cxx11::basic_string", align 8
@.str.7 = private unnamed_addr constant [34 x i8] c"Geostationary Satellite (Sweep X)\00", align 1
@.str.8 = private unnamed_addr constant [24 x i8] c"Geostationary_Satellite\00", align 1
@.str.9 = private unnamed_addr constant [32 x i8] c"Unsupported conversion method: \00", align 1
@_ZTIN5osgeo4proj2io19FormattingExceptionE = external constant ptr
@.str.10 = private unnamed_addr constant [16 x i8] c"OperationMethod\00", align 1
@_ZTIN5osgeo4proj4util11IComparableE = external constant ptr
@_ZTIN5osgeo4proj9operation15OperationMethodE = constant { ptr, ptr, i32, i32, ptr, i64, ptr, i64 } { ptr getelementptr inbounds (ptr, ptr @_ZTVN10__cxxabiv121__vmi_class_type_infoE, i64 2), ptr @_ZTSN5osgeo4proj9operation15OperationMethodE, i32 0, i32 2, ptr @_ZTIN5osgeo4proj6common16IdentifiedObjectE, i64 2, ptr @_ZTIN5osgeo4proj2io15IJSONExportableE, i64 10242 }, align 8
@_ZTSN5osgeo4proj9operation15OperationMethodE = constant [41 x i8] c"N5osgeo4proj9operation15OperationMethodE\00", align 1
@_ZTIN5osgeo4proj6common16IdentifiedObjectE = external constant ptr
@_ZTVN5osgeo4proj9operation21GeneralParameterValueE = unnamed_addr constant { [8 x ptr], [5 x ptr], [5 x ptr], [5 x ptr] } { [8 x ptr] [ptr null, ptr @_ZTIN5osgeo4proj9operation21GeneralParameterValueE, ptr @_ZN5osgeo4proj9operation21GeneralParameterValueD1Ev, ptr @_ZN5osgeo4proj9operation21GeneralParameterValueD0Ev, ptr @__cxa_pure_virtual, ptr @__cxa_pure_virtual, ptr @__cxa_pure_virtual, ptr @__cxa_pure_virtual], [5 x ptr] [ptr inttoptr (i64 -16 to ptr), ptr @_ZTIN5osgeo4proj9operation21GeneralParameterValueE, ptr @_ZThn16_N5osgeo4proj9operation21GeneralParameterValueD1Ev, ptr @_ZThn16_N5osgeo4proj9operation21GeneralParameterValueD0Ev, ptr @__cxa_pure_virtual], [5 x ptr] [ptr inttoptr (i64 -24 to ptr), ptr @_ZTIN5osgeo4proj9operation21GeneralParameterValueE, ptr @_ZThn24_N5osgeo4proj9operation21GeneralParameterValueD1Ev, ptr @_ZThn24_N5osgeo4proj9operation21GeneralParameterValueD0Ev, ptr @__cxa_pure_virtual], [5 x ptr] [ptr inttoptr (i64 -32 to ptr), ptr @_ZTIN5osgeo4proj9operation21GeneralParameterValueE, ptr @_ZThn32_N5osgeo4proj9operation21GeneralParameterValueD1Ev, ptr @_ZThn32_N5osgeo4proj9operation21GeneralParameterValueD0Ev, ptr @__cxa_pure_virtual] }, align 8
@_ZTVN5osgeo4proj9operation23OperationParameterValueE = unnamed_addr constant { [8 x ptr], [5 x ptr], [5 x ptr], [5 x ptr] } { [8 x ptr] [ptr null, ptr @_ZTIN5osgeo4proj9operation23OperationParameterValueE, ptr @_ZN5osgeo4proj9operation23OperationParameterValueD1Ev, ptr @_ZN5osgeo4proj9operation23OperationParameterValueD0Ev, ptr @_ZNK5osgeo4proj9operation23OperationParameterValue12_exportToWKTEPNS0_2io12WKTFormatterE, ptr @_ZNK5osgeo4proj9operation23OperationParameterValue13_exportToJSONEPNS0_2io13JSONFormatterE, ptr @_ZNK5osgeo4proj9operation23OperationParameterValue15_isEquivalentToEPKNS0_4util11IComparableENS4_9CriterionERKSt10shared_ptrINS0_2io15DatabaseContextEE, ptr @_ZNK5osgeo4proj9operation23OperationParameterValue12_exportToWKTEPNS0_2io12WKTFormatterEPKNS1_13MethodMappingE], [5 x ptr] [ptr inttoptr (i64 -16 to ptr), ptr @_ZTIN5osgeo4proj9operation23OperationParameterValueE, ptr @_ZThn16_N5osgeo4proj9operation23OperationParameterValueD1Ev, ptr @_ZThn16_N5osgeo4proj9operation23OperationParameterValueD0Ev, ptr @_ZThn16_NK5osgeo4proj9operation23OperationParameterValue12_exportToWKTEPNS0_2io12WKTFormatterE], [5 x ptr] [ptr inttoptr (i64 -24 to ptr), ptr @_ZTIN5osgeo4proj9operation23OperationParameterValueE, ptr @_ZThn24_N5osgeo4proj9operation23OperationParameterValueD1Ev, ptr @_ZThn24_N5osgeo4proj9operation23OperationParameterValueD0Ev, ptr @_ZThn24_NK5osgeo4proj9operation23OperationParameterValue13_exportToJSONEPNS0_2io13JSONFormatterE], [5 x ptr] [ptr inttoptr (i64 -32 to ptr), ptr @_ZTIN5osgeo4proj9operation23OperationParameterValueE, ptr @_ZThn32_N5osgeo4proj9operation23OperationParameterValueD1Ev, ptr @_ZThn32_N5osgeo4proj9operation23OperationParameterValueD0Ev, ptr @_ZThn32_NK5osgeo4proj9operation23OperationParameterValue15_isEquivalentToEPKNS0_4util11IComparableENS4_9CriterionERKSt10shared_ptrINS0_2io15DatabaseContextEE] }, align 8
@_ZN5osgeo4proj2io12WKTConstants13PARAMETERFILEB5cxx11E = external global %"class.std::__cxx11::basic_string", align 8
@_ZN5osgeo4proj2io12WKTConstants9PARAMETERB5cxx11E = external global %"class.std::__cxx11::basic_string", align 8
@.str.12 = private unnamed_addr constant [15 x i8] c"ParameterValue\00", align 1
@.str.13 = private unnamed_addr constant [6 x i8] c"value\00", align 1
@_ZN5osgeo4proj6common13UnitOfMeasure5METREE = external global %"class.osgeo::proj::common::UnitOfMeasure", align 8
@_ZN5osgeo4proj6common13UnitOfMeasure6DEGREEE = external global %"class.osgeo::proj::common::UnitOfMeasure", align 8
@_ZN5osgeo4proj6common13UnitOfMeasure11SCALE_UNITYE = external global %"class.osgeo::proj::common::UnitOfMeasure", align 8
@.str.15 = private unnamed_addr constant [19 x i8] c"X-axis translation\00", align 1
@.str.16 = private unnamed_addr constant [19 x i8] c"Y-axis translation\00", align 1
@.str.17 = private unnamed_addr constant [19 x i8] c"Z-axis translation\00", align 1
@.str.18 = private unnamed_addr constant [16 x i8] c"X-axis rotation\00", align 1
@_ZN5osgeo4proj6common13UnitOfMeasure10ARC_SECONDE = external global %"class.osgeo::proj::common::UnitOfMeasure", align 8
@.str.19 = private unnamed_addr constant [16 x i8] c"Y-axis rotation\00", align 1
@.str.20 = private unnamed_addr constant [16 x i8] c"Z-axis rotation\00", align 1
@.str.21 = private unnamed_addr constant [17 x i8] c"Scale difference\00", align 1
@_ZN5osgeo4proj6common13UnitOfMeasure17PARTS_PER_MILLIONE = external global %"class.osgeo::proj::common::UnitOfMeasure", align 8
@_ZTVN5osgeo4proj9operation25GeneralOperationParameterE = unnamed_addr constant { [6 x ptr], [5 x ptr], [5 x ptr] } { [6 x ptr] [ptr null, ptr @_ZTIN5osgeo4proj9operation25GeneralOperationParameterE, ptr @_ZN5osgeo4proj9operation25GeneralOperationParameterD1Ev, ptr @_ZN5osgeo4proj9operation25GeneralOperationParameterD0Ev, ptr @__cxa_pure_virtual, ptr @_ZNK5osgeo4proj6common16IdentifiedObject29hasEquivalentNameToUsingAliasEPKS2_RKSt10shared_ptrINS0_2io15DatabaseContextEE], [5 x ptr] [ptr inttoptr (i64 -16 to ptr), ptr @_ZTIN5osgeo4proj9operation25GeneralOperationParameterE, ptr @_ZThn16_N5osgeo4proj9operation25GeneralOperationParameterD1Ev, ptr @_ZThn16_N5osgeo4proj9operation25GeneralOperationParameterD0Ev, ptr @__cxa_pure_virtual], [5 x ptr] [ptr inttoptr (i64 -24 to ptr), ptr @_ZTIN5osgeo4proj9operation25GeneralOperationParameterE, ptr @_ZThn24_N5osgeo4proj9operation25GeneralOperationParameterD1Ev, ptr @_ZThn24_N5osgeo4proj9operation25GeneralOperationParameterD0Ev, ptr @__cxa_pure_virtual] }, align 8
@_ZTVN5osgeo4proj9operation18OperationParameterE = unnamed_addr constant { [7 x ptr], [5 x ptr], [5 x ptr] } { [7 x ptr] [ptr null, ptr @_ZTIN5osgeo4proj9operation18OperationParameterE, ptr @_ZN5osgeo4proj9operation18OperationParameterD1Ev, ptr @_ZN5osgeo4proj9operation18OperationParameterD0Ev, ptr @_ZNK5osgeo4proj9operation18OperationParameter15_isEquivalentToEPKNS0_4util11IComparableENS4_9CriterionERKSt10shared_ptrINS0_2io15DatabaseContextEE, ptr @_ZNK5osgeo4proj6common16IdentifiedObject29hasEquivalentNameToUsingAliasEPKS2_RKSt10shared_ptrINS0_2io15DatabaseContextEE, ptr @_ZNK5osgeo4proj9operation18OperationParameter12_exportToWKTEPNS0_2io12WKTFormatterE], [5 x ptr] [ptr inttoptr (i64 -16 to ptr), ptr @_ZTIN5osgeo4proj9operation18OperationParameterE, ptr @_ZThn16_N5osgeo4proj9operation18OperationParameterD1Ev, ptr @_ZThn16_N5osgeo4proj9operation18OperationParameterD0Ev, ptr @_ZThn16_NK5osgeo4proj9operation18OperationParameter15_isEquivalentToEPKNS0_4util11IComparableENS4_9CriterionERKSt10shared_ptrINS0_2io15DatabaseContextEE], [5 x ptr] [ptr inttoptr (i64 -24 to ptr), ptr @_ZTIN5osgeo4proj9operation18OperationParameterE, ptr @_ZThn24_N5osgeo4proj9operation18OperationParameterD1Ev, ptr @_ZThn24_N5osgeo4proj9operation18OperationParameterD0Ev, ptr @_ZThn24_NK5osgeo4proj9operation18OperationParameter12_exportToWKTEPNS0_2io12WKTFormatterE] }, align 8
@.str.22 = private unnamed_addr constant [19 x i8] c"Latitude of origin\00", align 1
@.str.23 = private unnamed_addr constant [13 x i8] c"Scale factor\00", align 1
@_ZN5osgeo4proj9operationL18nullParameterValueE = internal global { ptr, %"class.std::__shared_count" } zeroinitializer, align 8
@__dso_handle = external hidden global i8
@_ZN5osgeo4proj9operation11nullMeasureE = external global %"class.osgeo::proj::common::Measure", align 8
@_ZTIN5osgeo4proj9operation15SingleOperationE = constant { ptr, ptr, i32, i32, ptr, i64 } { ptr getelementptr inbounds (ptr, ptr @_ZTVN10__cxxabiv121__vmi_class_type_infoE, i64 2), ptr @_ZTSN5osgeo4proj9operation15SingleOperationE, i32 0, i32 1, ptr @_ZTIN5osgeo4proj9operation19CoordinateOperationE, i64 -6141 }, align 8
@_ZTSN5osgeo4proj9operation15SingleOperationE = constant [41 x i8] c"N5osgeo4proj9operation15SingleOperationE\00", align 1
@_ZTIN5osgeo4proj3crs3CRSE = external constant ptr
@_ZTIN5osgeo4proj3crs11GeodeticCRSE = external constant ptr
@_ZTIN5osgeo4proj9operation10ConversionE = external constant ptr
@.str.25 = private unnamed_addr constant [16 x i8] c"Unknown method \00", align 1
@.str.26 = private unnamed_addr constant [13 x i8] c"Method name \00", align 1
@.str.27 = private unnamed_addr constant [28 x i8] c" is equivalent to official \00", align 1
@.str.28 = private unnamed_addr constant [24 x i8] c" but not strictly equal\00", align 1
@.str.29 = private unnamed_addr constant [14 x i8] c", matched to \00", align 1
@.str.30 = private unnamed_addr constant [51 x i8] c", through its EPSG code has not an equivalent name\00", align 1
@.str.31 = private unnamed_addr constant [21 x i8] c"Method of EPSG code \00", align 1
@.str.32 = private unnamed_addr constant [32 x i8] c" does not match official code (\00", align 1
@_ZN5osgeo4proj9operation22paramLatitudeNatOriginE = external global %"struct.osgeo::proj::operation::ParamMapping", align 8
@.str.33 = private unnamed_addr constant [32 x i8] c"Cannot find expected parameter \00", align 1
@.str.34 = private unnamed_addr constant [16 x i8] c"Parameter name \00", align 1
@.str.35 = private unnamed_addr constant [24 x i8] c"Parameter of EPSG code \00", align 1
@.str.36 = private unnamed_addr constant [11 x i8] c"Parameter \00", align 1
@.str.37 = private unnamed_addr constant [40 x i8] c" found but not expected for this method\00", align 1
@_ZN5osgeo4proj9operationL10nullStringB5cxx11E = internal global %"class.std::__cxx11::basic_string" zeroinitializer, align 8
@.str.39 = private unnamed_addr constant [25 x i8] c"Latitude difference file\00", align 1
@.str.40 = private unnamed_addr constant [26 x i8] c"Longitude difference file\00", align 1
@.str.41 = private unnamed_addr constant [23 x i8] c"HORIZONTAL_SHIFT_GTIFF\00", align 1
@.str.42 = private unnamed_addr constant [39 x i8] c"Latitude and longitude difference file\00", align 1
@_ZZN5osgeo4proj9operation14Transformation36isGeographic3DToGravityRelatedHeightERKN7dropbox6oxygen2nnISt10shared_ptrINS1_15OperationMethodEEEEbE11methodCodes = internal unnamed_addr constant [42 x ptr] [ptr @.str.43, ptr @.str.44, ptr @.str.45, ptr @.str.46, ptr @.str.47, ptr @.str.48, ptr @.str.49, ptr @.str.50, ptr @.str.51, ptr @.str.52, ptr @.str.53, ptr @.str.54, ptr @.str.55, ptr @.str.56, ptr @.str.57, ptr @.str.58, ptr @.str.59, ptr @.str.60, ptr @.str.61, ptr @.str.62, ptr @.str.63, ptr @.str.64, ptr @.str.65, ptr @.str.66, ptr @.str.67, ptr @.str.68, ptr @.str.69, ptr @.str.70, ptr @.str.71, ptr @.str.72, ptr @.str.73, ptr @.str.74, ptr @.str.75, ptr @.str.76, ptr @.str.77, ptr @.str.78, ptr @.str.79, ptr @.str.80, ptr @.str.81, ptr @.str.82, ptr @.str.83, ptr @.str.84], align 16
@.str.43 = private unnamed_addr constant [5 x i8] c"1025\00", align 1
@.str.44 = private unnamed_addr constant [5 x i8] c"1030\00", align 1
@.str.45 = private unnamed_addr constant [5 x i8] c"1045\00", align 1
@.str.46 = private unnamed_addr constant [5 x i8] c"1047\00", align 1
@.str.47 = private unnamed_addr constant [5 x i8] c"1048\00", align 1
@.str.48 = private unnamed_addr constant [5 x i8] c"1050\00", align 1
@.str.49 = private unnamed_addr constant [5 x i8] c"1059\00", align 1
@.str.50 = private unnamed_addr constant [5 x i8] c"1088\00", align 1
@.str.51 = private unnamed_addr constant [5 x i8] c"1060\00", align 1
@.str.52 = private unnamed_addr constant [5 x i8] c"1072\00", align 1
@.str.53 = private unnamed_addr constant [5 x i8] c"1073\00", align 1
@.str.54 = private unnamed_addr constant [5 x i8] c"1081\00", align 1
@.str.55 = private unnamed_addr constant [5 x i8] c"1083\00", align 1
@.str.56 = private unnamed_addr constant [5 x i8] c"1089\00", align 1
@.str.57 = private unnamed_addr constant [5 x i8] c"1090\00", align 1
@.str.58 = private unnamed_addr constant [5 x i8] c"1091\00", align 1
@.str.59 = private unnamed_addr constant [5 x i8] c"1092\00", align 1
@.str.60 = private unnamed_addr constant [5 x i8] c"1093\00", align 1
@.str.61 = private unnamed_addr constant [5 x i8] c"1094\00", align 1
@.str.62 = private unnamed_addr constant [5 x i8] c"1095\00", align 1
@.str.63 = private unnamed_addr constant [5 x i8] c"1096\00", align 1
@.str.64 = private unnamed_addr constant [5 x i8] c"1097\00", align 1
@.str.65 = private unnamed_addr constant [5 x i8] c"1098\00", align 1
@.str.66 = private unnamed_addr constant [5 x i8] c"1100\00", align 1
@.str.67 = private unnamed_addr constant [5 x i8] c"1103\00", align 1
@.str.68 = private unnamed_addr constant [5 x i8] c"1105\00", align 1
@.str.69 = private unnamed_addr constant [5 x i8] c"1109\00", align 1
@.str.70 = private unnamed_addr constant [5 x i8] c"1110\00", align 1
@.str.71 = private unnamed_addr constant [5 x i8] c"1115\00", align 1
@.str.72 = private unnamed_addr constant [5 x i8] c"1118\00", align 1
@.str.73 = private unnamed_addr constant [5 x i8] c"1122\00", align 1
@.str.74 = private unnamed_addr constant [5 x i8] c"1124\00", align 1
@.str.75 = private unnamed_addr constant [5 x i8] c"1126\00", align 1
@.str.76 = private unnamed_addr constant [5 x i8] c"1127\00", align 1
@.str.77 = private unnamed_addr constant [5 x i8] c"1128\00", align 1
@.str.78 = private unnamed_addr constant [5 x i8] c"1135\00", align 1
@.str.79 = private unnamed_addr constant [5 x i8] c"9661\00", align 1
@.str.80 = private unnamed_addr constant [5 x i8] c"9662\00", align 1
@.str.81 = private unnamed_addr constant [5 x i8] c"9663\00", align 1
@.str.82 = private unnamed_addr constant [5 x i8] c"9664\00", align 1
@.str.83 = private unnamed_addr constant [5 x i8] c"9665\00", align 1
@.str.84 = private unnamed_addr constant [5 x i8] c"9635\00", align 1
@.str.85 = private unnamed_addr constant [37 x i8] c"Geographic3D to GravityRelatedHeight\00", align 1
@_ZN5osgeo4proj9operation10INVERSE_OFB5cxx11E = external global %"class.std::__cxx11::basic_string", align 8
@.str.86 = private unnamed_addr constant [5 x i8] c"EPSG\00", align 1
@.str.87 = private unnamed_addr constant [14 x i8] c"INVERSE(EPSG)\00", align 1
@.str.88 = private unnamed_addr constant [37 x i8] c"Geoid (height correction) model file\00", align 1
@.str.89 = private unnamed_addr constant [23 x i8] c"Inverse direction for \00", align 1
@.str.90 = private unnamed_addr constant [15 x i8] c" not supported\00", align 1
@.str.91 = private unnamed_addr constant [18 x i8] c"Missing sourceCRS\00", align 1
@.str.92 = private unnamed_addr constant [18 x i8] c"Missing targetCRS\00", align 1
@.str.93 = private unnamed_addr constant [6 x i8] c"GTiff\00", align 1
@.str.94 = private unnamed_addr constant [59 x i8] c"Latitude, longitude and ellipsoidal height difference file\00", align 1
@.str.95 = private unnamed_addr constant [20 x i8] c"GENERAL_SHIFT_GTIFF\00", align 1
@.str.96 = private unnamed_addr constant [5 x i8] c"NTv1\00", align 1
@.str.97 = private unnamed_addr constant [5 x i8] c"NTv2\00", align 1
@.str.98 = private unnamed_addr constant [8 x i8] c"CTable2\00", align 1
@.str.99 = private unnamed_addr constant [8 x i8] c"CTABLE2\00", align 1
@.str.100 = private unnamed_addr constant [71 x i8] c"Inverse direction for Geographic3DToGravityRelatedHeight not supported\00", align 1
@.str.101 = private unnamed_addr constant [58 x i8] c"Inverse direction for GeocentricTranslation not supported\00", align 1
@.str.102 = private unnamed_addr constant [70 x i8] c"Inverse direction for Geographic3DOFffsetByVelocityGrid not supported\00", align 1
@.str.103 = private unnamed_addr constant [65 x i8] c"Inverse direction for VerticalOffsetByVelocityGrid not supported\00", align 1
@.str.104 = private unnamed_addr constant [21 x i8] c"Vertical offset file\00", align 1
@.str.105 = private unnamed_addr constant [28 x i8] c"Geoid model difference file\00", align 1
@_ZZNK5osgeo4proj9operation15SingleOperation34substitutePROJAlternativeGridNamesEN7dropbox6oxygen2nnISt10shared_ptrINS0_2io15DatabaseContextEEEEE19gridTransformations = internal unnamed_addr constant [4 x %struct.anon] [%struct.anon { i32 1079, i32 1050, ptr @.str.106 }, %struct.anon { i32 1138, i32 1064, ptr @.str.107 }, %struct.anon { i32 1137, i32 1064, ptr @.str.107 }, %struct.anon { i32 1145, i32 1064, ptr @.str.107 }], align 16
@.str.106 = private unnamed_addr constant [32 x i8] c"Point motion velocity grid file\00", align 1
@.str.107 = private unnamed_addr constant [16 x i8] c"TIN offset file\00", align 1
@.str.108 = private unnamed_addr constant [32 x i8] c"Inverse direction not supported\00", align 1
@.str.109 = private unnamed_addr constant [44 x i8] c"non OperationParameterValue parameter value\00", align 1
@.str.110 = private unnamed_addr constant [28 x i8] c"Geocentric translation file\00", align 1
@_ZTVN5osgeo4proj9operation16InvalidOperationE = unnamed_addr constant { [5 x ptr] } { [5 x ptr] [ptr null, ptr @_ZTIN5osgeo4proj9operation16InvalidOperationE, ptr @_ZN5osgeo4proj9operation16InvalidOperationD1Ev, ptr @_ZN5osgeo4proj9operation16InvalidOperationD0Ev, ptr @_ZNK5osgeo4proj4util9Exception4whatEv] }, align 8
@.str.111 = private unnamed_addr constant [29 x i8] c"EPSG code for Horizontal CRS\00", align 1
@.str.112 = private unnamed_addr constant [32 x i8] c"EPSG code for Interpolation CRS\00", align 1
@_ZN5osgeo4proj8metadata10Identifier8CODE_KEYB5cxx11E = external global %"class.std::__cxx11::basic_string", align 8
@_ZN5osgeo4proj8metadata10Identifier13CODESPACE_KEYB5cxx11E = external global %"class.std::__cxx11::basic_string", align 8
@_ZN5osgeo4proj8metadata10Identifier4EPSGB5cxx11E = external global %"class.std::__cxx11::basic_string", align 8
@.str.113 = private unnamed_addr constant [44 x i8] c"Transformation can only be exported to WKT2\00", align 1
@_ZN5osgeo4proj2io12WKTConstants22ABRIDGEDTRANSFORMATIONB5cxx11E = external global %"class.std::__cxx11::basic_string", align 8
@_ZN5osgeo4proj2io12WKTConstants19COORDINATEOPERATIONB5cxx11E = external global %"class.std::__cxx11::basic_string", align 8
@_ZN5osgeo4proj2io12WKTConstants7VERSIONB5cxx11E = external global %"class.std::__cxx11::basic_string", align 8
@_ZN5osgeo4proj2io12WKTConstants16INTERPOLATIONCRSB5cxx11E = external global %"class.std::__cxx11::basic_string", align 8
@_ZN5osgeo4proj2io12WKTConstants17OPERATIONACCURACYB5cxx11E = external global %"class.std::__cxx11::basic_string", align 8
@.str.114 = private unnamed_addr constant [2 x i8] c"m\00", align 1
@.str.115 = private unnamed_addr constant [12 x i8] c"unitconvert\00", align 1
@.str.116 = private unnamed_addr constant [5 x i8] c"z_in\00", align 1
@.str.117 = private unnamed_addr constant [6 x i8] c"z_out\00", align 1
@_ZN5osgeo4proj6common13UnitOfMeasure4FOOTE = external global %"class.osgeo::proj::common::UnitOfMeasure", align 8
@_ZN5osgeo4proj6common13UnitOfMeasure7US_FOOTE = external global %"class.osgeo::proj::common::UnitOfMeasure", align 8
@.str.118 = private unnamed_addr constant [3 x i8] c"ft\00", align 1
@.str.119 = private unnamed_addr constant [6 x i8] c"us-ft\00", align 1
@.str.120 = private unnamed_addr constant [7 x i8] c"affine\00", align 1
@.str.121 = private unnamed_addr constant [4 x i8] c"s33\00", align 1
@.str.122 = private unnamed_addr constant [5 x i8] c"xoff\00", align 1
@.str.123 = private unnamed_addr constant [4 x i8] c"s11\00", align 1
@.str.124 = private unnamed_addr constant [4 x i8] c"s12\00", align 1
@.str.125 = private unnamed_addr constant [5 x i8] c"yoff\00", align 1
@.str.126 = private unnamed_addr constant [4 x i8] c"s21\00", align 1
@.str.127 = private unnamed_addr constant [4 x i8] c"s22\00", align 1
@_ZN5osgeo4proj6common13UnitOfMeasure6RADIANE = external global %"class.osgeo::proj::common::UnitOfMeasure", align 8
@.str.128 = private unnamed_addr constant [9 x i8] c"axisswap\00", align 1
@.str.129 = private unnamed_addr constant [6 x i8] c"order\00", align 1
@.str.130 = private unnamed_addr constant [4 x i8] c"2,1\00", align 1
@_ZTIN5osgeo4proj3crs13GeographicCRSE = external constant ptr
@.str.131 = private unnamed_addr constant [6 x i8] c"xy_in\00", align 1
@.str.132 = private unnamed_addr constant [7 x i8] c"xy_out\00", align 1
@_ZTVN5osgeo4proj3crs11CompoundCRSE = external unnamed_addr constant { [11 x ptr], [5 x ptr], [5 x ptr], [5 x ptr], [5 x ptr] }, align 8
@.str.133 = private unnamed_addr constant [79 x i8] c"Invalid nature of source and/or targetCRS for Geographic/Geocentric conversion\00", align 1
@.str.134 = private unnamed_addr constant [7 x i8] c"1,2,-3\00", align 1
@.str.135 = private unnamed_addr constant [16 x i8] c"Position Vector\00", align 1
@.str.136 = private unnamed_addr constant [3 x i8] c"PV\00", align 1
@.str.137 = private unnamed_addr constant [17 x i8] c"Coordinate Frame\00", align 1
@.str.138 = private unnamed_addr constant [3 x i8] c"CF\00", align 1
@.str.139 = private unnamed_addr constant [24 x i8] c"Geocentric translations\00", align 1
@.str.140 = private unnamed_addr constant [8 x i8] c"Helmert\00", align 1
@.str.141 = private unnamed_addr constant [8 x i8] c"helmert\00", align 1
@.str.142 = private unnamed_addr constant [6 x i8] c"exact\00", align 1
@.str.143 = private unnamed_addr constant [2 x i8] c"x\00", align 1
@.str.144 = private unnamed_addr constant [2 x i8] c"y\00", align 1
@.str.145 = private unnamed_addr constant [2 x i8] c"z\00", align 1
@.str.146 = private unnamed_addr constant [3 x i8] c"rx\00", align 1
@.str.147 = private unnamed_addr constant [3 x i8] c"ry\00", align 1
@.str.148 = private unnamed_addr constant [3 x i8] c"rz\00", align 1
@.str.149 = private unnamed_addr constant [2 x i8] c"s\00", align 1
@_ZN5osgeo4proj6common13UnitOfMeasure14METRE_PER_YEARE = external global %"class.osgeo::proj::common::UnitOfMeasure", align 8
@_ZN5osgeo4proj6common13UnitOfMeasure19ARC_SECOND_PER_YEARE = external global %"class.osgeo::proj::common::UnitOfMeasure", align 8
@_ZN5osgeo4proj6common13UnitOfMeasure12PPM_PER_YEARE = external global %"class.osgeo::proj::common::UnitOfMeasure", align 8
@_ZN5osgeo4proj6common13UnitOfMeasure4YEARE = external global %"class.osgeo::proj::common::UnitOfMeasure", align 8
@.str.150 = private unnamed_addr constant [3 x i8] c"dx\00", align 1
@.str.151 = private unnamed_addr constant [3 x i8] c"dy\00", align 1
@.str.152 = private unnamed_addr constant [3 x i8] c"dz\00", align 1
@.str.153 = private unnamed_addr constant [4 x i8] c"drx\00", align 1
@.str.154 = private unnamed_addr constant [4 x i8] c"dry\00", align 1
@.str.155 = private unnamed_addr constant [4 x i8] c"drz\00", align 1
@.str.156 = private unnamed_addr constant [3 x i8] c"ds\00", align 1
@.str.157 = private unnamed_addr constant [8 x i8] c"t_epoch\00", align 1
@.str.158 = private unnamed_addr constant [11 x i8] c"convention\00", align 1
@.str.159 = private unnamed_addr constant [16 x i8] c"position_vector\00", align 1
@.str.160 = private unnamed_addr constant [17 x i8] c"coordinate_frame\00", align 1
@.str.161 = private unnamed_addr constant [19 x i8] c"Molodensky-Badekas\00", align 1
@.str.162 = private unnamed_addr constant [12 x i8] c"molobadekas\00", align 1
@.str.163 = private unnamed_addr constant [3 x i8] c"px\00", align 1
@.str.164 = private unnamed_addr constant [3 x i8] c"py\00", align 1
@.str.165 = private unnamed_addr constant [3 x i8] c"pz\00", align 1
@.str.166 = private unnamed_addr constant [43 x i8] c"Can apply Molodensky only to GeographicCRS\00", align 1
@.str.167 = private unnamed_addr constant [11 x i8] c"molodensky\00", align 1
@.str.168 = private unnamed_addr constant [3 x i8] c"da\00", align 1
@.str.169 = private unnamed_addr constant [3 x i8] c"df\00", align 1
@.str.170 = private unnamed_addr constant [9 x i8] c"Abridged\00", align 1
@.str.171 = private unnamed_addr constant [9 x i8] c"abridged\00", align 1
@.str.172 = private unnamed_addr constant [54 x i8] c"Can apply Geographic 2D offsets only to GeographicCRS\00", align 1
@.str.173 = private unnamed_addr constant [11 x i8] c"geogoffset\00", align 1
@.str.174 = private unnamed_addr constant [5 x i8] c"dlat\00", align 1
@.str.175 = private unnamed_addr constant [5 x i8] c"dlon\00", align 1
@_ZTVN5osgeo4proj3crs8BoundCRSE = external unnamed_addr constant { [11 x ptr], [5 x ptr], [5 x ptr], [5 x ptr], [5 x ptr] }, align 8
@.str.176 = private unnamed_addr constant [54 x i8] c"Can apply Geographic 3D offsets only to GeographicCRS\00", align 1
@.str.177 = private unnamed_addr constant [3 x i8] c"dh\00", align 1
@.str.178 = private unnamed_addr constant [80 x i8] c"Can apply Geographic 2D with height offsets only to GeographicCRS / CompoundCRS\00", align 1
@_ZTVN5osgeo4proj3crs12ProjectedCRSE = external unnamed_addr constant { [12 x ptr], [5 x ptr], [15 x ptr], [5 x ptr], [5 x ptr], [5 x ptr] }, align 8
@_ZTIN5osgeo4proj3crs11VerticalCRSE = external constant ptr
@.str.179 = private unnamed_addr constant [46 x i8] c"Can apply Vertical offset only to VerticalCRS\00", align 1
@.str.180 = private unnamed_addr constant [67 x i8] c"Can apply Geographic3D to GravityRelatedHeight only to VerticalCRS\00", align 1
@.str.181 = private unnamed_addr constant [5 x i8] c"zoff\00", align 1
@.str.182 = private unnamed_addr constant [38 x i8] c"Geog3D to Geog2D+GravityRelatedHeight\00", align 1
@.str.183 = private unnamed_addr constant [78 x i8] c"Can apply Inverse of Geographic3D to GravityRelatedHeight only to VerticalCRS\00", align 1
@.str.184 = private unnamed_addr constant [56 x i8] c"Can apply Vertical offset and slope only to VerticalCRS\00", align 1
@.str.185 = private unnamed_addr constant [11 x i8] c"vertoffset\00", align 1
@.str.186 = private unnamed_addr constant [6 x i8] c"lat_0\00", align 1
@.str.187 = private unnamed_addr constant [6 x i8] c"lon_0\00", align 1
@.str.188 = private unnamed_addr constant [10 x i8] c"slope_lat\00", align 1
@.str.189 = private unnamed_addr constant [10 x i8] c"slope_lon\00", align 1
@.str.190 = private unnamed_addr constant [11 x i8] c"Can apply \00", align 1
@.str.191 = private unnamed_addr constant [23 x i8] c" only to GeographicCRS\00", align 1
@.str.192 = private unnamed_addr constant [10 x i8] c"gridshift\00", align 1
@.str.193 = private unnamed_addr constant [15 x i8] c"no_z_transform\00", align 1
@.str.194 = private unnamed_addr constant [11 x i8] c"hgridshift\00", align 1
@.str.195 = private unnamed_addr constant [6 x i8] c"grids\00", align 1
@.str.196 = private unnamed_addr constant [84 x i8] c"InterpolationCRS required for Geocentric translations (geog2D domain) by grid (IGN)\00", align 1
@.str.197 = private unnamed_addr constant [112 x i8] c"For Geocentric translations (geog2D domain) by grid (IGN), interpolation CRS should be the source or target CRS\00", align 1
@.str.198 = private unnamed_addr constant [5 x i8] c"push\00", align 1
@.str.199 = private unnamed_addr constant [4 x i8] c"v_3\00", align 1
@.str.200 = private unnamed_addr constant [5 x i8] c"cart\00", align 1
@.str.201 = private unnamed_addr constant [13 x i8] c"xyzgridshift\00", align 1
@.str.202 = private unnamed_addr constant [9 x i8] c"grid_ref\00", align 1
@.str.203 = private unnamed_addr constant [11 x i8] c"output_crs\00", align 1
@.str.204 = private unnamed_addr constant [10 x i8] c"input_crs\00", align 1
@.str.205 = private unnamed_addr constant [4 x i8] c"pop\00", align 1
@.str.206 = private unnamed_addr constant [82 x i8] c"For Geographic3D Offset by velocity grid (NTv2_Vel), missing epoch for source CRS\00", align 1
@.str.207 = private unnamed_addr constant [82 x i8] c"For Geographic3D Offset by velocity grid (NTv2_Vel), missing epoch for target CRS\00", align 1
@.str.208 = private unnamed_addr constant [78 x i8] c"InterpolationCRS required for Geographic3D Offset by velocity grid (NTv2_Vel)\00", align 1
@.str.209 = private unnamed_addr constant [106 x i8] c"For Geographic3D Offset by velocity grid (NTv2_Vel), interpolation CRS should be the source or target CRS\00", align 1
@.str.210 = private unnamed_addr constant [12 x i8] c"deformation\00", align 1
@.str.211 = private unnamed_addr constant [3 x i8] c"dt\00", align 1
@.str.212 = private unnamed_addr constant [81 x i8] c"InterpolationCRS required for Vertical Offset using NEU velocity grid (NTv2_Vel)\00", align 1
@.str.213 = private unnamed_addr constant [43 x i8] c" only to a GeographicCRS interpolation CRS\00", align 1
@.str.214 = private unnamed_addr constant [30 x i8] c" only to a source VerticalCRS\00", align 1
@.str.215 = private unnamed_addr constant [85 x i8] c"For Vertical Offset using NEU velocity grid (NTv2_Vel), missing epoch for source CRS\00", align 1
@.str.216 = private unnamed_addr constant [30 x i8] c" only to a target VerticalCRS\00", align 1
@.str.217 = private unnamed_addr constant [85 x i8] c"For Vertical Offset using NEU velocity grid (NTv2_Vel), missing epoch for target CRS\00", align 1
@.str.218 = private unnamed_addr constant [4 x i8] c"v_1\00", align 1
@.str.219 = private unnamed_addr constant [4 x i8] c"v_2\00", align 1
@.str.220 = private unnamed_addr constant [11 x i8] c"vgridshift\00", align 1
@.str.221 = private unnamed_addr constant [11 x i8] c"multiplier\00", align 1
@.str.222 = private unnamed_addr constant [45 x i8] c" only to a target CRS that has a VerticalCRS\00", align 1
@_ZN5osgeo4proj2cs13AxisDirection4DOWNE = external global %"class.osgeo::proj::cs::AxisDirection", align 8
@.str.223 = private unnamed_addr constant [5 x i8] c".tif\00", align 1
@.str.224 = private unnamed_addr constant [61 x i8] c"Can apply Longitude rotation only to SRS with same ellipsoid\00", align 1
@.str.225 = private unnamed_addr constant [8 x i8] c"longlat\00", align 1
@.str.226 = private unnamed_addr constant [3 x i8] c"pm\00", align 1
@.str.227 = private unnamed_addr constant [9 x i8] c"defmodel\00", align 1
@.str.228 = private unnamed_addr constant [6 x i8] c"model\00", align 1
@.str.229 = private unnamed_addr constant [22 x i8] c" only to ProjectedCRS\00", align 1
@.str.230 = private unnamed_addr constant [9 x i8] c"tinshift\00", align 1
@.str.231 = private unnamed_addr constant [5 x i8] c"file\00", align 1
@.str.232 = private unnamed_addr constant [30 x i8] c" only to source GeographicCRS\00", align 1
@.str.233 = private unnamed_addr constant [52 x i8] c" only to source GeographicCRS with degree axis unit\00", align 1
@.str.234 = private unnamed_addr constant [30 x i8] c" only to target GeographicCRS\00", align 1
@.str.235 = private unnamed_addr constant [52 x i8] c" only to target GeographicCRS with degree axis unit\00", align 1
@.str.236 = private unnamed_addr constant [21 x i8] c" only to VerticalCRS\00", align 1
@.str.237 = private unnamed_addr constant [26 x i8] c" only to a geocentric CRS\00", align 1
@.str.238 = private unnamed_addr constant [50 x i8] c"Missing parameter Point motion velocity grid file\00", align 1
@.str.239 = private unnamed_addr constant [31 x i8] c"Missing parameter target epoch\00", align 1
@.str.240 = private unnamed_addr constant [35 x i8] c"Unsupported parameter source epoch\00", align 1
@.str.241 = private unnamed_addr constant [46 x i8] c"Missing parameter Geocentric translation file\00", align 1
@.str.242 = private unnamed_addr constant [31 x i8] c"Missing parameter source epoch\00", align 1
@.str.243 = private unnamed_addr constant [30 x i8] c"PROJ-based operation method: \00", align 1
@_ZTIN5osgeo4proj2io16ParsingExceptionE = external constant ptr
@.str.244 = private unnamed_addr constant [28 x i8] c"ingestPROJString() failed: \00", align 1
@_ZTVN5osgeo4proj9operation20PointMotionOperationE = unnamed_addr constant { [12 x ptr], [18 x ptr], [5 x ptr], [5 x ptr], [5 x ptr], [5 x ptr] } { [12 x ptr] [ptr inttoptr (i64 16 to ptr), ptr null, ptr @_ZTIN5osgeo4proj9operation20PointMotionOperationE, ptr @_ZN5osgeo4proj9operation20PointMotionOperationD1Ev, ptr @_ZN5osgeo4proj9operation20PointMotionOperationD0Ev, ptr @_ZNK5osgeo4proj9operation15SingleOperation11gridsNeededERKSt10shared_ptrINS0_2io15DatabaseContextEEb, ptr @_ZNK5osgeo4proj9operation15SingleOperation15_isEquivalentToEPKNS0_4util11IComparableENS4_9CriterionERKSt10shared_ptrINS0_2io15DatabaseContextEE, ptr @_ZNK5osgeo4proj9operation20PointMotionOperation7inverseEv, ptr @_ZNK5osgeo4proj9operation20PointMotionOperation19_exportToPROJStringEPNS0_2io19PROJStringFormatterE, ptr @_ZNK5osgeo4proj9operation20PointMotionOperation12_exportToWKTEPNS0_2io12WKTFormatterE, ptr @_ZNK5osgeo4proj9operation20PointMotionOperation13_exportToJSONEPNS0_2io13JSONFormatterE, ptr @_ZNK5osgeo4proj9operation20PointMotionOperation13_shallowCloneEv], [18 x ptr] [ptr inttoptr (i64 -16 to ptr), ptr inttoptr (i64 -16 to ptr), ptr inttoptr (i64 -16 to ptr), ptr inttoptr (i64 -16 to ptr), ptr inttoptr (i64 -16 to ptr), ptr inttoptr (i64 -16 to ptr), ptr null, ptr inttoptr (i64 -16 to ptr), ptr inttoptr (i64 -16 to ptr), ptr inttoptr (i64 -16 to ptr), ptr @_ZTIN5osgeo4proj9operation20PointMotionOperationE, ptr @_ZTv0_n24_N5osgeo4proj9operation20PointMotionOperationD1Ev, ptr @_ZTv0_n24_N5osgeo4proj9operation20PointMotionOperationD0Ev, ptr @_ZTv0_n32_NK5osgeo4proj9operation15SingleOperation15_isEquivalentToEPKNS0_4util11IComparableENS4_9CriterionERKSt10shared_ptrINS0_2io15DatabaseContextEE, ptr @_ZNK5osgeo4proj6common16IdentifiedObject29hasEquivalentNameToUsingAliasEPKS2_RKSt10shared_ptrINS0_2io15DatabaseContextEE, ptr @_ZTv0_n56_NK5osgeo4proj9operation20PointMotionOperation7inverseEv, ptr @_ZTv0_n64_NK5osgeo4proj9operation15SingleOperation11gridsNeededERKSt10shared_ptrINS0_2io15DatabaseContextEEb, ptr @_ZTv0_n72_NK5osgeo4proj9operation20PointMotionOperation13_shallowCloneEv], [5 x ptr] [ptr inttoptr (i64 -32 to ptr), ptr @_ZTIN5osgeo4proj9operation20PointMotionOperationE, ptr @_ZTvn16_n24_N5osgeo4proj9operation20PointMotionOperationD1Ev, ptr @_ZTvn16_n24_N5osgeo4proj9operation20PointMotionOperationD0Ev, ptr @_ZTvn16_n32_NK5osgeo4proj9operation15SingleOperation15_isEquivalentToEPKNS0_4util11IComparableENS4_9CriterionERKSt10shared_ptrINS0_2io15DatabaseContextEE], [5 x ptr] [ptr inttoptr (i64 -40 to ptr), ptr @_ZTIN5osgeo4proj9operation20PointMotionOperationE, ptr @_ZTvn24_n24_N5osgeo4proj9operation20PointMotionOperationD1Ev, ptr @_ZTvn24_n24_N5osgeo4proj9operation20PointMotionOperationD0Ev, ptr @_ZTvn24_n48_NK5osgeo4proj9operation20PointMotionOperation12_exportToWKTEPNS0_2io12WKTFormatterE], [5 x ptr] [ptr inttoptr (i64 -64 to ptr), ptr @_ZTIN5osgeo4proj9operation20PointMotionOperationE, ptr @_ZTvn48_n24_N5osgeo4proj9operation20PointMotionOperationD1Ev, ptr @_ZTvn48_n24_N5osgeo4proj9operation20PointMotionOperationD0Ev, ptr @_ZTvn48_n80_NK5osgeo4proj9operation20PointMotionOperation19_exportToPROJStringEPNS0_2io19PROJStringFormatterE], [5 x ptr] [ptr inttoptr (i64 -72 to ptr), ptr @_ZTIN5osgeo4proj9operation20PointMotionOperationE, ptr @_ZTvn56_n24_N5osgeo4proj9operation20PointMotionOperationD1Ev, ptr @_ZTvn56_n24_N5osgeo4proj9operation20PointMotionOperationD0Ev, ptr @_ZTvn56_n88_NK5osgeo4proj9operation20PointMotionOperation13_exportToJSONEPNS0_2io13JSONFormatterE] }, align 8
@_ZTTN5osgeo4proj9operation20PointMotionOperationE = unnamed_addr constant [12 x ptr] [ptr getelementptr inbounds inrange(-24, 72) ({ [12 x ptr], [18 x ptr], [5 x ptr], [5 x ptr], [5 x ptr], [5 x ptr] }, ptr @_ZTVN5osgeo4proj9operation20PointMotionOperationE, i32 0, i32 0, i32 3), ptr getelementptr inbounds inrange(-24, 32) ({ [7 x ptr], [18 x ptr], [5 x ptr], [5 x ptr], [5 x ptr], [5 x ptr] }, ptr @_ZTCN5osgeo4proj9operation20PointMotionOperationE0_NS1_15SingleOperationE, i32 0, i32 0, i32 3), ptr getelementptr inbounds inrange(-88, 56) ({ [7 x ptr], [18 x ptr], [5 x ptr], [5 x ptr], [5 x ptr], [5 x ptr] }, ptr @_ZTCN5osgeo4proj9operation20PointMotionOperationE0_NS1_15SingleOperationE, i32 0, i32 1, i32 11), ptr getelementptr inbounds inrange(-16, 24) ({ [7 x ptr], [18 x ptr], [5 x ptr], [5 x ptr], [5 x ptr], [5 x ptr] }, ptr @_ZTCN5osgeo4proj9operation20PointMotionOperationE0_NS1_15SingleOperationE, i32 0, i32 2, i32 2), ptr getelementptr inbounds inrange(-16, 24) ({ [7 x ptr], [18 x ptr], [5 x ptr], [5 x ptr], [5 x ptr], [5 x ptr] }, ptr @_ZTCN5osgeo4proj9operation20PointMotionOperationE0_NS1_15SingleOperationE, i32 0, i32 3, i32 2), ptr getelementptr inbounds inrange(-16, 24) ({ [7 x ptr], [18 x ptr], [5 x ptr], [5 x ptr], [5 x ptr], [5 x ptr] }, ptr @_ZTCN5osgeo4proj9operation20PointMotionOperationE0_NS1_15SingleOperationE, i32 0, i32 4, i32 2), ptr getelementptr inbounds inrange(-16, 24) ({ [7 x ptr], [18 x ptr], [5 x ptr], [5 x ptr], [5 x ptr], [5 x ptr] }, ptr @_ZTCN5osgeo4proj9operation20PointMotionOperationE0_NS1_15SingleOperationE, i32 0, i32 5, i32 2), ptr getelementptr inbounds inrange(-88, 56) ({ [12 x ptr], [18 x ptr], [5 x ptr], [5 x ptr], [5 x ptr], [5 x ptr] }, ptr @_ZTVN5osgeo4proj9operation20PointMotionOperationE, i32 0, i32 1, i32 11), ptr getelementptr inbounds inrange(-16, 24) ({ [12 x ptr], [18 x ptr], [5 x ptr], [5 x ptr], [5 x ptr], [5 x ptr] }, ptr @_ZTVN5osgeo4proj9operation20PointMotionOperationE, i32 0, i32 2, i32 2), ptr getelementptr inbounds inrange(-16, 24) ({ [12 x ptr], [18 x ptr], [5 x ptr], [5 x ptr], [5 x ptr], [5 x ptr] }, ptr @_ZTVN5osgeo4proj9operation20PointMotionOperationE, i32 0, i32 3, i32 2), ptr getelementptr inbounds inrange(-16, 24) ({ [12 x ptr], [18 x ptr], [5 x ptr], [5 x ptr], [5 x ptr], [5 x ptr] }, ptr @_ZTVN5osgeo4proj9operation20PointMotionOperationE, i32 0, i32 4, i32 2), ptr getelementptr inbounds inrange(-16, 24) ({ [12 x ptr], [18 x ptr], [5 x ptr], [5 x ptr], [5 x ptr], [5 x ptr] }, ptr @_ZTVN5osgeo4proj9operation20PointMotionOperationE, i32 0, i32 5, i32 2)], align 8
@.str.245 = private unnamed_addr constant [55 x i8] c"Inconsistent number of parameters and parameter values\00", align 1
@_ZTIN5osgeo4proj9operation16InvalidOperationE = constant { ptr, ptr, ptr } { ptr getelementptr inbounds (ptr, ptr @_ZTVN10__cxxabiv120__si_class_type_infoE, i64 2), ptr @_ZTSN5osgeo4proj9operation16InvalidOperationE, ptr @_ZTIN5osgeo4proj4util9ExceptionE }, align 8
@_ZTVN10__cxxabiv120__si_class_type_infoE = external global [0 x ptr]
@_ZTSN5osgeo4proj9operation16InvalidOperationE = constant [42 x i8] c"N5osgeo4proj9operation16InvalidOperationE\00", align 1
@_ZTIN5osgeo4proj4util9ExceptionE = external constant ptr
@.str.246 = private unnamed_addr constant [13 x i8] c" from epoch \00", align 1
@.str.247 = private unnamed_addr constant [11 x i8] c" to epoch \00", align 1
@.str.248 = private unnamed_addr constant [38 x i8] c"Point motion velocity north grid file\00", align 1
@.str.249 = private unnamed_addr constant [49 x i8] c"Transformation can only be exported to WKT2:2019\00", align 1
@_ZN5osgeo4proj2io12WKTConstants20POINTMOTIONOPERATIONB5cxx11E = external global %"class.std::__cxx11::basic_string", align 8
@_ZN5osgeo4proj2io12WKTConstants9SOURCECRSB5cxx11E = external global %"class.std::__cxx11::basic_string", align 8
@.str.250 = private unnamed_addr constant [59 x i8] c"PointMotionOperation cannot be exported as a PROJ.4 string\00", align 1
@.str.251 = private unnamed_addr constant [102 x i8] c"CoordinateOperationNNPtr::_exportToPROJString() unimplemented when source coordinate epoch is missing\00", align 1
@.str.252 = private unnamed_addr constant [102 x i8] c"CoordinateOperationNNPtr::_exportToPROJString() unimplemented when target coordinate epoch is missing\00", align 1
@.str.253 = private unnamed_addr constant [64 x i8] c"Can apply PointMotionOperation VelocityGrid only to GeodeticCRS\00", align 1
@.str.254 = private unnamed_addr constant [4 x i8] c"set\00", align 1
@.str.255 = private unnamed_addr constant [4 x i8] c"v_4\00", align 1
@.str.257 = private unnamed_addr constant [86 x i8] c"CoordinateOperationNNPtr::_exportToPROJString(): missing velocity grid file parameter\00", align 1
@.str.259 = private unnamed_addr constant [78 x i8] c"CoordinateOperationNNPtr::_exportToPROJString() unimplemented for this method\00", align 1
@.str.260 = private unnamed_addr constant [21 x i8] c"PointMotionOperation\00", align 1
@.str.261 = private unnamed_addr constant [8 x i8] c"unnamed\00", align 1
@.str.262 = private unnamed_addr constant [11 x i8] c"source_crs\00", align 1
@.str.263 = private unnamed_addr constant [7 x i8] c"method\00", align 1
@.str.264 = private unnamed_addr constant [11 x i8] c"parameters\00", align 1
@_ZTIN5osgeo4proj9operation33InvalidOperationEmptyIntersectionE = hidden constant { ptr, ptr, ptr } { ptr getelementptr inbounds (ptr, ptr @_ZTVN10__cxxabiv120__si_class_type_infoE, i64 2), ptr @_ZTSN5osgeo4proj9operation33InvalidOperationEmptyIntersectionE, ptr @_ZTIN5osgeo4proj9operation16InvalidOperationE }, align 8
@_ZTSN5osgeo4proj9operation33InvalidOperationEmptyIntersectionE = hidden constant [59 x i8] c"N5osgeo4proj9operation33InvalidOperationEmptyIntersectionE\00", align 1
@_ZTIN5osgeo4proj9operation21GeneralParameterValueE = constant { ptr, ptr, i32, i32, ptr, i64, ptr, i64, ptr, i64, ptr, i64 } { ptr getelementptr inbounds (ptr, ptr @_ZTVN10__cxxabiv121__vmi_class_type_infoE, i64 2), ptr @_ZTSN5osgeo4proj9operation21GeneralParameterValueE, i32 0, i32 4, ptr @_ZTIN5osgeo4proj4util10BaseObjectE, i64 2, ptr @_ZTIN5osgeo4proj2io14IWKTExportableE, i64 4098, ptr @_ZTIN5osgeo4proj2io15IJSONExportableE, i64 6146, ptr @_ZTIN5osgeo4proj4util11IComparableE, i64 8194 }, align 8
@_ZTSN5osgeo4proj9operation21GeneralParameterValueE = constant [47 x i8] c"N5osgeo4proj9operation21GeneralParameterValueE\00", align 1
@_ZTIN5osgeo4proj4util10BaseObjectE = external constant ptr
@_ZTIN5osgeo4proj2io14IWKTExportableE = external constant ptr
@_ZTIN5osgeo4proj9operation23OperationParameterValueE = constant { ptr, ptr, ptr } { ptr getelementptr inbounds (ptr, ptr @_ZTVN10__cxxabiv120__si_class_type_infoE, i64 2), ptr @_ZTSN5osgeo4proj9operation23OperationParameterValueE, ptr @_ZTIN5osgeo4proj9operation21GeneralParameterValueE }, align 8
@_ZTSN5osgeo4proj9operation23OperationParameterValueE = constant [49 x i8] c"N5osgeo4proj9operation23OperationParameterValueE\00", align 1
@_ZTIN5osgeo4proj9operation25GeneralOperationParameterE = constant { ptr, ptr, ptr } { ptr getelementptr inbounds (ptr, ptr @_ZTVN10__cxxabiv120__si_class_type_infoE, i64 2), ptr @_ZTSN5osgeo4proj9operation25GeneralOperationParameterE, ptr @_ZTIN5osgeo4proj6common16IdentifiedObjectE }, align 8
@_ZTSN5osgeo4proj9operation25GeneralOperationParameterE = constant [51 x i8] c"N5osgeo4proj9operation25GeneralOperationParameterE\00", align 1
@_ZTIN5osgeo4proj9operation18OperationParameterE = constant { ptr, ptr, ptr } { ptr getelementptr inbounds (ptr, ptr @_ZTVN10__cxxabiv120__si_class_type_infoE, i64 2), ptr @_ZTSN5osgeo4proj9operation18OperationParameterE, ptr @_ZTIN5osgeo4proj9operation25GeneralOperationParameterE }, align 8
@_ZTSN5osgeo4proj9operation18OperationParameterE = constant [44 x i8] c"N5osgeo4proj9operation18OperationParameterE\00", align 1
@_ZTVN5osgeo4proj9operation15SingleOperationE = unnamed_addr constant { [7 x ptr], [18 x ptr], [5 x ptr], [5 x ptr], [5 x ptr], [5 x ptr] } { [7 x ptr] [ptr inttoptr (i64 16 to ptr), ptr null, ptr @_ZTIN5osgeo4proj9operation15SingleOperationE, ptr @_ZN5osgeo4proj9operation15SingleOperationD1Ev, ptr @_ZN5osgeo4proj9operation15SingleOperationD0Ev, ptr @_ZNK5osgeo4proj9operation15SingleOperation11gridsNeededERKSt10shared_ptrINS0_2io15DatabaseContextEEb, ptr @_ZNK5osgeo4proj9operation15SingleOperation15_isEquivalentToEPKNS0_4util11IComparableENS4_9CriterionERKSt10shared_ptrINS0_2io15DatabaseContextEE], [18 x ptr] [ptr inttoptr (i64 56 to ptr), ptr inttoptr (i64 48 to ptr), ptr null, ptr inttoptr (i64 -16 to ptr), ptr null, ptr inttoptr (i64 24 to ptr), ptr null, ptr inttoptr (i64 -16 to ptr), ptr inttoptr (i64 -16 to ptr), ptr inttoptr (i64 -16 to ptr), ptr @_ZTIN5osgeo4proj9operation15SingleOperationE, ptr @_ZTv0_n24_N5osgeo4proj9operation15SingleOperationD1Ev, ptr @_ZTv0_n24_N5osgeo4proj9operation15SingleOperationD0Ev, ptr @_ZTv0_n32_NK5osgeo4proj9operation15SingleOperation15_isEquivalentToEPKNS0_4util11IComparableENS4_9CriterionERKSt10shared_ptrINS0_2io15DatabaseContextEE, ptr @_ZNK5osgeo4proj6common16IdentifiedObject29hasEquivalentNameToUsingAliasEPKS2_RKSt10shared_ptrINS0_2io15DatabaseContextEE, ptr @__cxa_pure_virtual, ptr @_ZTv0_n64_NK5osgeo4proj9operation15SingleOperation11gridsNeededERKSt10shared_ptrINS0_2io15DatabaseContextEEb, ptr @__cxa_pure_virtual], [5 x ptr] [ptr inttoptr (i64 -32 to ptr), ptr @_ZTIN5osgeo4proj9operation15SingleOperationE, ptr @_ZTvn16_n24_N5osgeo4proj9operation15SingleOperationD1Ev, ptr @_ZTvn16_n24_N5osgeo4proj9operation15SingleOperationD0Ev, ptr @_ZTvn16_n32_NK5osgeo4proj9operation15SingleOperation15_isEquivalentToEPKNS0_4util11IComparableENS4_9CriterionERKSt10shared_ptrINS0_2io15DatabaseContextEE], [5 x ptr] [ptr inttoptr (i64 -40 to ptr), ptr @_ZTIN5osgeo4proj9operation15SingleOperationE, ptr @_ZTvn24_n24_N5osgeo4proj9operation15SingleOperationD1Ev, ptr @_ZTvn24_n24_N5osgeo4proj9operation15SingleOperationD0Ev, ptr @__cxa_pure_virtual], [5 x ptr] [ptr inttoptr (i64 -64 to ptr), ptr @_ZTIN5osgeo4proj9operation15SingleOperationE, ptr @_ZTvn48_n24_N5osgeo4proj9operation15SingleOperationD1Ev, ptr @_ZTvn48_n24_N5osgeo4proj9operation15SingleOperationD0Ev, ptr @__cxa_pure_virtual], [5 x ptr] [ptr inttoptr (i64 -72 to ptr), ptr @_ZTIN5osgeo4proj9operation15SingleOperationE, ptr @_ZTvn56_n24_N5osgeo4proj9operation15SingleOperationD1Ev, ptr @_ZTvn56_n24_N5osgeo4proj9operation15SingleOperationD0Ev, ptr @__cxa_pure_virtual] }, align 8
@_ZTTN5osgeo4proj9operation15SingleOperationE = unnamed_addr constant [6 x ptr] [ptr getelementptr inbounds inrange(-24, 32) ({ [7 x ptr], [18 x ptr], [5 x ptr], [5 x ptr], [5 x ptr], [5 x ptr] }, ptr @_ZTVN5osgeo4proj9operation15SingleOperationE, i32 0, i32 0, i32 3), ptr getelementptr inbounds inrange(-88, 56) ({ [7 x ptr], [18 x ptr], [5 x ptr], [5 x ptr], [5 x ptr], [5 x ptr] }, ptr @_ZTVN5osgeo4proj9operation15SingleOperationE, i32 0, i32 1, i32 11), ptr getelementptr inbounds inrange(-16, 24) ({ [7 x ptr], [18 x ptr], [5 x ptr], [5 x ptr], [5 x ptr], [5 x ptr] }, ptr @_ZTVN5osgeo4proj9operation15SingleOperationE, i32 0, i32 2, i32 2), ptr getelementptr inbounds inrange(-16, 24) ({ [7 x ptr], [18 x ptr], [5 x ptr], [5 x ptr], [5 x ptr], [5 x ptr] }, ptr @_ZTVN5osgeo4proj9operation15SingleOperationE, i32 0, i32 3, i32 2), ptr getelementptr inbounds inrange(-16, 24) ({ [7 x ptr], [18 x ptr], [5 x ptr], [5 x ptr], [5 x ptr], [5 x ptr] }, ptr @_ZTVN5osgeo4proj9operation15SingleOperationE, i32 0, i32 4, i32 2), ptr getelementptr inbounds inrange(-16, 24) ({ [7 x ptr], [18 x ptr], [5 x ptr], [5 x ptr], [5 x ptr], [5 x ptr] }, ptr @_ZTVN5osgeo4proj9operation15SingleOperationE, i32 0, i32 5, i32 2)], align 8
@_ZTVN5osgeo4proj9operation26InverseCoordinateOperationE = hidden unnamed_addr constant { [8 x ptr], [18 x ptr], [5 x ptr], [5 x ptr], [5 x ptr], [5 x ptr] } { [8 x ptr] [ptr inttoptr (i64 32 to ptr), ptr null, ptr @_ZTIN5osgeo4proj9operation26InverseCoordinateOperationE, ptr @_ZN5osgeo4proj9operation26InverseCoordinateOperationD1Ev, ptr @_ZN5osgeo4proj9operation26InverseCoordinateOperationD0Ev, ptr @_ZNK5osgeo4proj9operation26InverseCoordinateOperation19_exportToPROJStringEPNS0_2io19PROJStringFormatterE, ptr @_ZNK5osgeo4proj9operation26InverseCoordinateOperation15_isEquivalentToEPKNS0_4util11IComparableENS4_9CriterionERKSt10shared_ptrINS0_2io15DatabaseContextEE, ptr @_ZNK5osgeo4proj9operation26InverseCoordinateOperation7inverseEv], [18 x ptr] [ptr inttoptr (i64 56 to ptr), ptr inttoptr (i64 -32 to ptr), ptr null, ptr null, ptr inttoptr (i64 -32 to ptr), ptr inttoptr (i64 24 to ptr), ptr null, ptr inttoptr (i64 -32 to ptr), ptr inttoptr (i64 -32 to ptr), ptr inttoptr (i64 -32 to ptr), ptr @_ZTIN5osgeo4proj9operation26InverseCoordinateOperationE, ptr @_ZTv0_n24_N5osgeo4proj9operation26InverseCoordinateOperationD1Ev, ptr @_ZTv0_n24_N5osgeo4proj9operation26InverseCoordinateOperationD0Ev, ptr @_ZTv0_n32_NK5osgeo4proj9operation26InverseCoordinateOperation15_isEquivalentToEPKNS0_4util11IComparableENS4_9CriterionERKSt10shared_ptrINS0_2io15DatabaseContextEE, ptr @_ZNK5osgeo4proj6common16IdentifiedObject29hasEquivalentNameToUsingAliasEPKS2_RKSt10shared_ptrINS0_2io15DatabaseContextEE, ptr @_ZTv0_n56_NK5osgeo4proj9operation26InverseCoordinateOperation7inverseEv, ptr @__cxa_pure_virtual, ptr @__cxa_pure_virtual], [5 x ptr] [ptr inttoptr (i64 -48 to ptr), ptr @_ZTIN5osgeo4proj9operation26InverseCoordinateOperationE, ptr @_ZTvn16_n24_N5osgeo4proj9operation26InverseCoordinateOperationD1Ev, ptr @_ZTvn16_n24_N5osgeo4proj9operation26InverseCoordinateOperationD0Ev, ptr @_ZTvn16_n32_NK5osgeo4proj9operation26InverseCoordinateOperation15_isEquivalentToEPKNS0_4util11IComparableENS4_9CriterionERKSt10shared_ptrINS0_2io15DatabaseContextEE], [5 x ptr] [ptr inttoptr (i64 -56 to ptr), ptr @_ZTIN5osgeo4proj9operation26InverseCoordinateOperationE, ptr @_ZTvn24_n24_N5osgeo4proj9operation26InverseCoordinateOperationD1Ev, ptr @_ZTvn24_n24_N5osgeo4proj9operation26InverseCoordinateOperationD0Ev, ptr @__cxa_pure_virtual], [5 x ptr] [ptr inttoptr (i64 -80 to ptr), ptr @_ZTIN5osgeo4proj9operation26InverseCoordinateOperationE, ptr @_ZTvn48_n24_N5osgeo4proj9operation26InverseCoordinateOperationD1Ev, ptr @_ZTvn48_n24_N5osgeo4proj9operation26InverseCoordinateOperationD0Ev, ptr @_ZTvn48_n80_NK5osgeo4proj9operation26InverseCoordinateOperation19_exportToPROJStringEPNS0_2io19PROJStringFormatterE], [5 x ptr] [ptr inttoptr (i64 -88 to ptr), ptr @_ZTIN5osgeo4proj9operation26InverseCoordinateOperationE, ptr @_ZTvn56_n24_N5osgeo4proj9operation26InverseCoordinateOperationD1Ev, ptr @_ZTvn56_n24_N5osgeo4proj9operation26InverseCoordinateOperationD0Ev, ptr @__cxa_pure_virtual] }, align 8
@_ZTTN5osgeo4proj9operation26InverseCoordinateOperationE = hidden unnamed_addr constant [6 x ptr] [ptr getelementptr inbounds inrange(-24, 40) ({ [8 x ptr], [18 x ptr], [5 x ptr], [5 x ptr], [5 x ptr], [5 x ptr] }, ptr @_ZTVN5osgeo4proj9operation26InverseCoordinateOperationE, i32 0, i32 0, i32 3), ptr getelementptr inbounds inrange(-88, 56) ({ [8 x ptr], [18 x ptr], [5 x ptr], [5 x ptr], [5 x ptr], [5 x ptr] }, ptr @_ZTVN5osgeo4proj9operation26InverseCoordinateOperationE, i32 0, i32 1, i32 11), ptr getelementptr inbounds inrange(-16, 24) ({ [8 x ptr], [18 x ptr], [5 x ptr], [5 x ptr], [5 x ptr], [5 x ptr] }, ptr @_ZTVN5osgeo4proj9operation26InverseCoordinateOperationE, i32 0, i32 2, i32 2), ptr getelementptr inbounds inrange(-16, 24) ({ [8 x ptr], [18 x ptr], [5 x ptr], [5 x ptr], [5 x ptr], [5 x ptr] }, ptr @_ZTVN5osgeo4proj9operation26InverseCoordinateOperationE, i32 0, i32 3, i32 2), ptr getelementptr inbounds inrange(-16, 24) ({ [8 x ptr], [18 x ptr], [5 x ptr], [5 x ptr], [5 x ptr], [5 x ptr] }, ptr @_ZTVN5osgeo4proj9operation26InverseCoordinateOperationE, i32 0, i32 4, i32 2), ptr getelementptr inbounds inrange(-16, 24) ({ [8 x ptr], [18 x ptr], [5 x ptr], [5 x ptr], [5 x ptr], [5 x ptr] }, ptr @_ZTVN5osgeo4proj9operation26InverseCoordinateOperationE, i32 0, i32 5, i32 2)], align 8
@_ZTCN5osgeo4proj9operation20PointMotionOperationE0_NS1_15SingleOperationE = unnamed_addr constant { [7 x ptr], [18 x ptr], [5 x ptr], [5 x ptr], [5 x ptr], [5 x ptr] } { [7 x ptr] [ptr inttoptr (i64 16 to ptr), ptr null, ptr @_ZTIN5osgeo4proj9operation15SingleOperationE, ptr @_ZN5osgeo4proj9operation15SingleOperationD1Ev, ptr @_ZN5osgeo4proj9operation15SingleOperationD0Ev, ptr @_ZNK5osgeo4proj9operation15SingleOperation11gridsNeededERKSt10shared_ptrINS0_2io15DatabaseContextEEb, ptr @_ZNK5osgeo4proj9operation15SingleOperation15_isEquivalentToEPKNS0_4util11IComparableENS4_9CriterionERKSt10shared_ptrINS0_2io15DatabaseContextEE], [18 x ptr] [ptr inttoptr (i64 56 to ptr), ptr inttoptr (i64 48 to ptr), ptr null, ptr inttoptr (i64 -16 to ptr), ptr null, ptr inttoptr (i64 24 to ptr), ptr null, ptr inttoptr (i64 -16 to ptr), ptr inttoptr (i64 -16 to ptr), ptr inttoptr (i64 -16 to ptr), ptr @_ZTIN5osgeo4proj9operation15SingleOperationE, ptr @_ZTv0_n24_N5osgeo4proj9operation15SingleOperationD1Ev, ptr @_ZTv0_n24_N5osgeo4proj9operation15SingleOperationD0Ev, ptr @_ZTv0_n32_NK5osgeo4proj9operation15SingleOperation15_isEquivalentToEPKNS0_4util11IComparableENS4_9CriterionERKSt10shared_ptrINS0_2io15DatabaseContextEE, ptr @_ZNK5osgeo4proj6common16IdentifiedObject29hasEquivalentNameToUsingAliasEPKS2_RKSt10shared_ptrINS0_2io15DatabaseContextEE, ptr @__cxa_pure_virtual, ptr @_ZTv0_n64_NK5osgeo4proj9operation15SingleOperation11gridsNeededERKSt10shared_ptrINS0_2io15DatabaseContextEEb, ptr @__cxa_pure_virtual], [5 x ptr] [ptr inttoptr (i64 -32 to ptr), ptr @_ZTIN5osgeo4proj9operation15SingleOperationE, ptr @_ZTvn16_n24_N5osgeo4proj9operation15SingleOperationD1Ev, ptr @_ZTvn16_n24_N5osgeo4proj9operation15SingleOperationD0Ev, ptr @_ZTvn16_n32_NK5osgeo4proj9operation15SingleOperation15_isEquivalentToEPKNS0_4util11IComparableENS4_9CriterionERKSt10shared_ptrINS0_2io15DatabaseContextEE], [5 x ptr] [ptr inttoptr (i64 -40 to ptr), ptr @_ZTIN5osgeo4proj9operation15SingleOperationE, ptr @_ZTvn24_n24_N5osgeo4proj9operation15SingleOperationD1Ev, ptr @_ZTvn24_n24_N5osgeo4proj9operation15SingleOperationD0Ev, ptr @__cxa_pure_virtual], [5 x ptr] [ptr inttoptr (i64 -64 to ptr), ptr @_ZTIN5osgeo4proj9operation15SingleOperationE, ptr @_ZTvn48_n24_N5osgeo4proj9operation15SingleOperationD1Ev, ptr @_ZTvn48_n24_N5osgeo4proj9operation15SingleOperationD0Ev, ptr @__cxa_pure_virtual], [5 x ptr] [ptr inttoptr (i64 -72 to ptr), ptr @_ZTIN5osgeo4proj9operation15SingleOperationE, ptr @_ZTvn56_n24_N5osgeo4proj9operation15SingleOperationD1Ev, ptr @_ZTvn56_n24_N5osgeo4proj9operation15SingleOperationD0Ev, ptr @__cxa_pure_virtual] }, align 8
@_ZTIN5osgeo4proj9operation20PointMotionOperationE = constant { ptr, ptr, ptr } { ptr getelementptr inbounds (ptr, ptr @_ZTVN10__cxxabiv120__si_class_type_infoE, i64 2), ptr @_ZTSN5osgeo4proj9operation20PointMotionOperationE, ptr @_ZTIN5osgeo4proj9operation15SingleOperationE }, align 8
@_ZTSN5osgeo4proj9operation20PointMotionOperationE = constant [46 x i8] c"N5osgeo4proj9operation20PointMotionOperationE\00", align 1
@__libc_single_threaded = external local_unnamed_addr global i8, align 1
@.str.266 = private unnamed_addr constant [37 x i8] c"GravityRelatedHeight to Geographic3D\00", align 1
@.str.267 = private unnamed_addr constant [49 x i8] c"cannot create std::vector larger than max_size()\00", align 1
@_ZN5osgeo4proj6common16IdentifiedObject15IDENTIFIERS_KEYB5cxx11E = external global %"class.std::__cxx11::basic_string", align 8
@.str.268 = private unnamed_addr constant [54 x i8] c"Geocentric translations (geog2D domain) by grid (IGN)\00", align 1
@.str.269 = private unnamed_addr constant [48 x i8] c"Geographic3D Offset by velocity grid (NTv2_Vel)\00", align 1
@_ZTVN5osgeo4proj3crs20DerivedGeographicCRSE = external unnamed_addr constant { [12 x ptr], [8 x ptr], [15 x ptr], [5 x ptr], [5 x ptr], [5 x ptr] }, align 8
@_ZTIN5osgeo4proj3crs20DerivedGeographicCRSE = external local_unnamed_addr constant ptr
@.str.270 = private unnamed_addr constant [37 x i8] c" only to GeodeticCRS / GeographicCRS\00", align 1
@_ZTIN5osgeo4proj3crs14EngineeringCRSE = external constant ptr
@_ZTVN5osgeo4proj2cs11CartesianCSE = external unnamed_addr constant { [9 x ptr], [5 x ptr], [5 x ptr], [5 x ptr] }, align 8
@.str.271 = private unnamed_addr constant [73 x i8] c"Can apply Cartesian grid offsets only to EngineeringCRS with CartesianCS\00", align 1
@.str.272 = private unnamed_addr constant [89 x i8] c"Can apply Cartesian grid offsets only to EngineeringCRS with CartesianCS with metre unit\00", align 1
@.str.273 = private unnamed_addr constant [72 x i8] c"Can apply Cartesian grid offsets only to ProjectedCRS or EngineeringCRS\00", align 1
@.str.274 = private unnamed_addr constant [5 x i8] c"stod\00", align 1
@.str.275 = private unnamed_addr constant [50 x i8] c"basic_string: construction from null is not valid\00", align 1
@_ZTVSt23_Sp_counted_ptr_inplaceIN5osgeo4proj4util8optionalINS1_6common9DataEpochEEESaIvELN9__gnu_cxx12_Lock_policyE2EE = linkonce_odr hidden unnamed_addr constant { [7 x ptr] } { [7 x ptr] [ptr null, ptr @_ZTISt23_Sp_counted_ptr_inplaceIN5osgeo4proj4util8optionalINS1_6common9DataEpochEEESaIvELN9__gnu_cxx12_Lock_policyE2EE, ptr @_ZNSt16_Sp_counted_baseILN9__gnu_cxx12_Lock_policyE2EED2Ev, ptr @_ZNSt23_Sp_counted_ptr_inplaceIN5osgeo4proj4util8optionalINS1_6common9DataEpochEEESaIvELN9__gnu_cxx12_Lock_policyE2EED0Ev, ptr @_ZNSt23_Sp_counted_ptr_inplaceIN5osgeo4proj4util8optionalINS1_6common9DataEpochEEESaIvELN9__gnu_cxx12_Lock_policyE2EE10_M_disposeEv, ptr @_ZNSt23_Sp_counted_ptr_inplaceIN5osgeo4proj4util8optionalINS1_6common9DataEpochEEESaIvELN9__gnu_cxx12_Lock_policyE2EE10_M_destroyEv, ptr @_ZNSt23_Sp_counted_ptr_inplaceIN5osgeo4proj4util8optionalINS1_6common9DataEpochEEESaIvELN9__gnu_cxx12_Lock_policyE2EE14_M_get_deleterERKSt9type_info] }, comdat, align 8
@_ZTISt23_Sp_counted_ptr_inplaceIN5osgeo4proj4util8optionalINS1_6common9DataEpochEEESaIvELN9__gnu_cxx12_Lock_policyE2EE = linkonce_odr hidden constant { ptr, ptr, ptr } { ptr getelementptr inbounds (ptr, ptr @_ZTVN10__cxxabiv120__si_class_type_infoE, i64 2), ptr @_ZTSSt23_Sp_counted_ptr_inplaceIN5osgeo4proj4util8optionalINS1_6common9DataEpochEEESaIvELN9__gnu_cxx12_Lock_policyE2EE, ptr @_ZTISt16_Sp_counted_baseILN9__gnu_cxx12_Lock_policyE2EE }, comdat, align 8
@_ZTSSt23_Sp_counted_ptr_inplaceIN5osgeo4proj4util8optionalINS1_6common9DataEpochEEESaIvELN9__gnu_cxx12_Lock_policyE2EE = linkonce_odr hidden constant [115 x i8] c"St23_Sp_counted_ptr_inplaceIN5osgeo4proj4util8optionalINS1_6common9DataEpochEEESaIvELN9__gnu_cxx12_Lock_policyE2EE\00", comdat, align 1
@_ZTISt16_Sp_counted_baseILN9__gnu_cxx12_Lock_policyE2EE = linkonce_odr constant { ptr, ptr, ptr } { ptr getelementptr inbounds (ptr, ptr @_ZTVN10__cxxabiv120__si_class_type_infoE, i64 2), ptr @_ZTSSt16_Sp_counted_baseILN9__gnu_cxx12_Lock_policyE2EE, ptr @_ZTISt11_Mutex_baseILN9__gnu_cxx12_Lock_policyE2EE }, comdat, align 8
@_ZTSSt16_Sp_counted_baseILN9__gnu_cxx12_Lock_policyE2EE = linkonce_odr constant [52 x i8] c"St16_Sp_counted_baseILN9__gnu_cxx12_Lock_policyE2EE\00", comdat, align 1
@_ZTISt11_Mutex_baseILN9__gnu_cxx12_Lock_policyE2EE = linkonce_odr constant { ptr, ptr } { ptr getelementptr inbounds (ptr, ptr @_ZTVN10__cxxabiv117__class_type_infoE, i64 2), ptr @_ZTSSt11_Mutex_baseILN9__gnu_cxx12_Lock_policyE2EE }, comdat, align 8
@_ZTVN10__cxxabiv117__class_type_infoE = external global [0 x ptr]
@_ZTSSt11_Mutex_baseILN9__gnu_cxx12_Lock_policyE2EE = linkonce_odr constant [47 x i8] c"St11_Mutex_baseILN9__gnu_cxx12_Lock_policyE2EE\00", comdat, align 1
@_ZTSSt19_Sp_make_shared_tag = linkonce_odr constant [24 x i8] c"St19_Sp_make_shared_tag\00", comdat, align 1
@_ZZNSt19_Sp_make_shared_tag5_S_tiEvE5__tag = linkonce_odr constant [16 x i8] zeroinitializer, comdat, align 8
@.str.276 = private unnamed_addr constant [26 x i8] c"vector::_M_realloc_append\00", align 1
@.str.277 = private unnamed_addr constant [21 x i8] c"basic_string::append\00", align 1
@_ZTVSt15_Sp_counted_ptrIPN5osgeo4proj9operation15OperationMethodELN9__gnu_cxx12_Lock_policyE2EE = linkonce_odr unnamed_addr constant { [7 x ptr] } { [7 x ptr] [ptr null, ptr @_ZTISt15_Sp_counted_ptrIPN5osgeo4proj9operation15OperationMethodELN9__gnu_cxx12_Lock_policyE2EE, ptr @_ZNSt16_Sp_counted_baseILN9__gnu_cxx12_Lock_policyE2EED2Ev, ptr @_ZNSt15_Sp_counted_ptrIPN5osgeo4proj9operation15OperationMethodELN9__gnu_cxx12_Lock_policyE2EED0Ev, ptr @_ZNSt15_Sp_counted_ptrIPN5osgeo4proj9operation15OperationMethodELN9__gnu_cxx12_Lock_policyE2EE10_M_disposeEv, ptr @_ZNSt15_Sp_counted_ptrIPN5osgeo4proj9operation15OperationMethodELN9__gnu_cxx12_Lock_policyE2EE10_M_destroyEv, ptr @_ZNSt15_Sp_counted_ptrIPN5osgeo4proj9operation15OperationMethodELN9__gnu_cxx12_Lock_policyE2EE14_M_get_deleterERKSt9type_info] }, comdat, align 8
@_ZTISt15_Sp_counted_ptrIPN5osgeo4proj9operation15OperationMethodELN9__gnu_cxx12_Lock_policyE2EE = linkonce_odr constant { ptr, ptr, ptr } { ptr getelementptr inbounds (ptr, ptr @_ZTVN10__cxxabiv120__si_class_type_infoE, i64 2), ptr @_ZTSSt15_Sp_counted_ptrIPN5osgeo4proj9operation15OperationMethodELN9__gnu_cxx12_Lock_policyE2EE, ptr @_ZTISt16_Sp_counted_baseILN9__gnu_cxx12_Lock_policyE2EE }, comdat, align 8
@_ZTSSt15_Sp_counted_ptrIPN5osgeo4proj9operation15OperationMethodELN9__gnu_cxx12_Lock_policyE2EE = linkonce_odr constant [92 x i8] c"St15_Sp_counted_ptrIPN5osgeo4proj9operation15OperationMethodELN9__gnu_cxx12_Lock_policyE2EE\00", comdat, align 1
@_ZTVSt15_Sp_counted_ptrIPN5osgeo4proj9operation23OperationParameterValueELN9__gnu_cxx12_Lock_policyE2EE = linkonce_odr unnamed_addr constant { [7 x ptr] } { [7 x ptr] [ptr null, ptr @_ZTISt15_Sp_counted_ptrIPN5osgeo4proj9operation23OperationParameterValueELN9__gnu_cxx12_Lock_policyE2EE, ptr @_ZNSt16_Sp_counted_baseILN9__gnu_cxx12_Lock_policyE2EED2Ev, ptr @_ZNSt15_Sp_counted_ptrIPN5osgeo4proj9operation23OperationParameterValueELN9__gnu_cxx12_Lock_policyE2EED0Ev, ptr @_ZNSt15_Sp_counted_ptrIPN5osgeo4proj9operation23OperationParameterValueELN9__gnu_cxx12_Lock_policyE2EE10_M_disposeEv, ptr @_ZNSt15_Sp_counted_ptrIPN5osgeo4proj9operation23OperationParameterValueELN9__gnu_cxx12_Lock_policyE2EE10_M_destroyEv, ptr @_ZNSt15_Sp_counted_ptrIPN5osgeo4proj9operation23OperationParameterValueELN9__gnu_cxx12_Lock_policyE2EE14_M_get_deleterERKSt9type_info] }, comdat, align 8
@_ZTISt15_Sp_counted_ptrIPN5osgeo4proj9operation23OperationParameterValueELN9__gnu_cxx12_Lock_policyE2EE = linkonce_odr constant { ptr, ptr, ptr } { ptr getelementptr inbounds (ptr, ptr @_ZTVN10__cxxabiv120__si_class_type_infoE, i64 2), ptr @_ZTSSt15_Sp_counted_ptrIPN5osgeo4proj9operation23OperationParameterValueELN9__gnu_cxx12_Lock_policyE2EE, ptr @_ZTISt16_Sp_counted_baseILN9__gnu_cxx12_Lock_policyE2EE }, comdat, align 8
@_ZTSSt15_Sp_counted_ptrIPN5osgeo4proj9operation23OperationParameterValueELN9__gnu_cxx12_Lock_policyE2EE = linkonce_odr constant [100 x i8] c"St15_Sp_counted_ptrIPN5osgeo4proj9operation23OperationParameterValueELN9__gnu_cxx12_Lock_policyE2EE\00", comdat, align 1
@_ZTVSt15_Sp_counted_ptrIPN5osgeo4proj9operation18OperationParameterELN9__gnu_cxx12_Lock_policyE2EE = linkonce_odr unnamed_addr constant { [7 x ptr] } { [7 x ptr] [ptr null, ptr @_ZTISt15_Sp_counted_ptrIPN5osgeo4proj9operation18OperationParameterELN9__gnu_cxx12_Lock_policyE2EE, ptr @_ZNSt16_Sp_counted_baseILN9__gnu_cxx12_Lock_policyE2EED2Ev, ptr @_ZNSt15_Sp_counted_ptrIPN5osgeo4proj9operation18OperationParameterELN9__gnu_cxx12_Lock_policyE2EED0Ev, ptr @_ZNSt15_Sp_counted_ptrIPN5osgeo4proj9operation18OperationParameterELN9__gnu_cxx12_Lock_policyE2EE10_M_disposeEv, ptr @_ZNSt15_Sp_counted_ptrIPN5osgeo4proj9operation18OperationParameterELN9__gnu_cxx12_Lock_policyE2EE10_M_destroyEv, ptr @_ZNSt15_Sp_counted_ptrIPN5osgeo4proj9operation18OperationParameterELN9__gnu_cxx12_Lock_policyE2EE14_M_get_deleterERKSt9type_info] }, comdat, align 8
@_ZTISt15_Sp_counted_ptrIPN5osgeo4proj9operation18OperationParameterELN9__gnu_cxx12_Lock_policyE2EE = linkonce_odr constant { ptr, ptr, ptr } { ptr getelementptr inbounds (ptr, ptr @_ZTVN10__cxxabiv120__si_class_type_infoE, i64 2), ptr @_ZTSSt15_Sp_counted_ptrIPN5osgeo4proj9operation18OperationParameterELN9__gnu_cxx12_Lock_policyE2EE, ptr @_ZTISt16_Sp_counted_baseILN9__gnu_cxx12_Lock_policyE2EE }, comdat, align 8
@_ZTSSt15_Sp_counted_ptrIPN5osgeo4proj9operation18OperationParameterELN9__gnu_cxx12_Lock_policyE2EE = linkonce_odr constant [95 x i8] c"St15_Sp_counted_ptrIPN5osgeo4proj9operation18OperationParameterELN9__gnu_cxx12_Lock_policyE2EE\00", comdat, align 1
@.str.279 = private unnamed_addr constant [21 x i8] c"basic_string::substr\00", align 1
@.str.280 = private unnamed_addr constant [55 x i8] c"%s: __pos (which is %zu) > this->size() (which is %zu)\00", align 1
@_ZTVSt15_Sp_counted_ptrIPN5osgeo4proj9operation20PointMotionOperationELN9__gnu_cxx12_Lock_policyE2EE = linkonce_odr unnamed_addr constant { [7 x ptr] } { [7 x ptr] [ptr null, ptr @_ZTISt15_Sp_counted_ptrIPN5osgeo4proj9operation20PointMotionOperationELN9__gnu_cxx12_Lock_policyE2EE, ptr @_ZNSt16_Sp_counted_baseILN9__gnu_cxx12_Lock_policyE2EED2Ev, ptr @_ZNSt15_Sp_counted_ptrIPN5osgeo4proj9operation20PointMotionOperationELN9__gnu_cxx12_Lock_policyE2EED0Ev, ptr @_ZNSt15_Sp_counted_ptrIPN5osgeo4proj9operation20PointMotionOperationELN9__gnu_cxx12_Lock_policyE2EE10_M_disposeEv, ptr @_ZNSt15_Sp_counted_ptrIPN5osgeo4proj9operation20PointMotionOperationELN9__gnu_cxx12_Lock_policyE2EE10_M_destroyEv, ptr @_ZNSt15_Sp_counted_ptrIPN5osgeo4proj9operation20PointMotionOperationELN9__gnu_cxx12_Lock_policyE2EE14_M_get_deleterERKSt9type_info] }, comdat, align 8
@_ZTISt15_Sp_counted_ptrIPN5osgeo4proj9operation20PointMotionOperationELN9__gnu_cxx12_Lock_policyE2EE = linkonce_odr constant { ptr, ptr, ptr } { ptr getelementptr inbounds (ptr, ptr @_ZTVN10__cxxabiv120__si_class_type_infoE, i64 2), ptr @_ZTSSt15_Sp_counted_ptrIPN5osgeo4proj9operation20PointMotionOperationELN9__gnu_cxx12_Lock_policyE2EE, ptr @_ZTISt16_Sp_counted_baseILN9__gnu_cxx12_Lock_policyE2EE }, comdat, align 8
@_ZTSSt15_Sp_counted_ptrIPN5osgeo4proj9operation20PointMotionOperationELN9__gnu_cxx12_Lock_policyE2EE = linkonce_odr constant [97 x i8] c"St15_Sp_counted_ptrIPN5osgeo4proj9operation20PointMotionOperationELN9__gnu_cxx12_Lock_policyE2EE\00", comdat, align 1
@llvm.global_ctors = appending global [1 x { i32, ptr, ptr }] [{ i32, ptr, ptr } { i32 65535, ptr @_GLOBAL__sub_I_singleoperation.cpp, ptr null }]

@_ZN5osgeo4proj9operation33InvalidOperationEmptyIntersectionC1ERKNSt7__cxx1112basic_stringIcSt11char_traitsIcESaIcEEE = hidden unnamed_addr alias void (ptr, ptr), ptr @_ZN5osgeo4proj9operation33InvalidOperationEmptyIntersectionC2ERKNSt7__cxx1112basic_stringIcSt11char_traitsIcESaIcEEE
@_ZN5osgeo4proj9operation33InvalidOperationEmptyIntersectionC1ERKS2_ = hidden unnamed_addr alias void (ptr, ptr), ptr @_ZN5osgeo4proj9operation33InvalidOperationEmptyIntersectionC2ERKS2_
@_ZN5osgeo4proj9operation33InvalidOperationEmptyIntersectionD1Ev = hidden unnamed_addr alias void (ptr), ptr @_ZN5osgeo4proj9operation33InvalidOperationEmptyIntersectionD2Ev
@_ZN5osgeo4proj9operation15GridDescriptionC1Ev = unnamed_addr alias void (ptr), ptr @_ZN5osgeo4proj9operation15GridDescriptionC2Ev
@_ZN5osgeo4proj9operation15GridDescriptionD1Ev = unnamed_addr alias void (ptr), ptr @_ZN5osgeo4proj9operation15GridDescriptionD2Ev
@_ZN5osgeo4proj9operation15GridDescriptionC1ERKS2_ = unnamed_addr alias void (ptr, ptr), ptr @_ZN5osgeo4proj9operation15GridDescriptionC2ERKS2_
@_ZN5osgeo4proj9operation15GridDescriptionC1EOS2_ = unnamed_addr alias void (ptr, ptr), ptr @_ZN5osgeo4proj9operation15GridDescriptionC2EOS2_
@_ZN5osgeo4proj9operation19CoordinateOperationD1Ev = unnamed_addr alias void (ptr), ptr @_ZN5osgeo4proj9operation19CoordinateOperationD2Ev
@_ZN5osgeo4proj9operation21CoordinateTransformerC1Ev = hidden unnamed_addr alias void (ptr), ptr @_ZN5osgeo4proj9operation21CoordinateTransformerC2Ev
@_ZN5osgeo4proj9operation21CoordinateTransformerD1Ev = unnamed_addr alias void (ptr), ptr @_ZN5osgeo4proj9operation21CoordinateTransformerD2Ev
@_ZN5osgeo4proj9operation15OperationMethodC1Ev = hidden unnamed_addr alias void (ptr), ptr @_ZN5osgeo4proj9operation15OperationMethodC2Ev
@_ZN5osgeo4proj9operation15OperationMethodC1ERKS2_ = hidden unnamed_addr alias void (ptr, ptr), ptr @_ZN5osgeo4proj9operation15OperationMethodC2ERKS2_
@_ZN5osgeo4proj9operation15OperationMethodD1Ev = unnamed_addr alias void (ptr), ptr @_ZN5osgeo4proj9operation15OperationMethodD2Ev
@_ZN5osgeo4proj9operation21GeneralParameterValueD1Ev = unnamed_addr alias void (ptr), ptr @_ZN5osgeo4proj9operation21GeneralParameterValueD2Ev
@_ZN5osgeo4proj9operation23OperationParameterValueC1ERKS2_ = hidden unnamed_addr alias void (ptr, ptr), ptr @_ZN5osgeo4proj9operation23OperationParameterValueC2ERKS2_
@_ZN5osgeo4proj9operation23OperationParameterValueC1ERKN7dropbox6oxygen2nnISt10shared_ptrINS1_18OperationParameterEEEERKNS5_IS6_INS1_14ParameterValueEEEE = hidden unnamed_addr alias void (ptr, ptr, ptr), ptr @_ZN5osgeo4proj9operation23OperationParameterValueC2ERKN7dropbox6oxygen2nnISt10shared_ptrINS1_18OperationParameterEEEERKNS5_IS6_INS1_14ParameterValueEEEE
@_ZN5osgeo4proj9operation23OperationParameterValueD1Ev = unnamed_addr alias void (ptr), ptr @_ZN5osgeo4proj9operation23OperationParameterValueD2Ev
@_ZN5osgeo4proj9operation25GeneralOperationParameterD1Ev = unnamed_addr alias void (ptr), ptr @_ZN5osgeo4proj9operation25GeneralOperationParameterD2Ev
@_ZN5osgeo4proj9operation18OperationParameterC1Ev = hidden unnamed_addr alias void (ptr), ptr @_ZN5osgeo4proj9operation18OperationParameterC2Ev
@_ZN5osgeo4proj9operation18OperationParameterC1ERKS2_ = hidden unnamed_addr alias void (ptr, ptr), ptr @_ZN5osgeo4proj9operation18OperationParameterC2ERKS2_
@_ZN5osgeo4proj9operation18OperationParameterD1Ev = unnamed_addr alias void (ptr), ptr @_ZN5osgeo4proj9operation18OperationParameterD2Ev
@_ZN5osgeo4proj9operation16InvalidOperationC1EPKc = hidden unnamed_addr alias void (ptr, ptr), ptr @_ZN5osgeo4proj9operation16InvalidOperationC2EPKc
@_ZN5osgeo4proj9operation16InvalidOperationC1ERKNSt7__cxx1112basic_stringIcSt11char_traitsIcESaIcEEE = hidden unnamed_addr alias void (ptr, ptr), ptr @_ZN5osgeo4proj9operation16InvalidOperationC2ERKNSt7__cxx1112basic_stringIcSt11char_traitsIcESaIcEEE
@_ZN5osgeo4proj9operation16InvalidOperationC1ERKS2_ = unnamed_addr alias void (ptr, ptr), ptr @_ZN5osgeo4proj9operation16InvalidOperationC2ERKS2_
@_ZN5osgeo4proj9operation16InvalidOperationD1Ev = unnamed_addr alias void (ptr), ptr @_ZN5osgeo4proj9operation16InvalidOperationD2Ev

; Function Attrs: mustprogress sspstrong uwtable
define hidden void @_ZN5osgeo4proj9operation33InvalidOperationEmptyIntersectionC2ERKNSt7__cxx1112basic_stringIcSt11char_traitsIcESaIcEEE(ptr noundef nonnull align 8 dereferenceable(40) %0, ptr noundef nonnull align 8 dereferenceable(32) %1) unnamed_addr #0 align 2 {
  tail call void @_ZN5osgeo4proj4util9ExceptionC2ERKNSt7__cxx1112basic_stringIcSt11char_traitsIcESaIcEEE(ptr noundef nonnull align 8 dereferenceable(40) %0, ptr noundef nonnull align 8 dereferenceable(32) %1)
  store ptr getelementptr inbounds nuw inrange(-16, 24) (i8, ptr @_ZTVN5osgeo4proj9operation33InvalidOperationEmptyIntersectionE, i64 16), ptr %0, align 8, !tbaa !4
  ret void
}

; Function Attrs: mustprogress sspstrong uwtable
define hidden void @_ZN5osgeo4proj9operation16InvalidOperationC2ERKNSt7__cxx1112basic_stringIcSt11char_traitsIcESaIcEEE(ptr noundef nonnull align 8 dereferenceable(40) %0, ptr noundef nonnull align 8 dereferenceable(32) %1) unnamed_addr #0 align 2 {
  tail call void @_ZN5osgeo4proj4util9ExceptionC2ERKNSt7__cxx1112basic_stringIcSt11char_traitsIcESaIcEEE(ptr noundef nonnull align 8 dereferenceable(40) %0, ptr noundef nonnull align 8 dereferenceable(32) %1)
  store ptr getelementptr inbounds nuw inrange(-16, 24) (i8, ptr @_ZTVN5osgeo4proj9operation16InvalidOperationE, i64 16), ptr %0, align 8, !tbaa !4
  ret void
}

; Function Attrs: mustprogress sspstrong uwtable
define hidden void @_ZN5osgeo4proj9operation33InvalidOperationEmptyIntersectionC2ERKS2_(ptr noundef nonnull align 8 dereferenceable(40) %0, ptr noundef nonnull align 8 dereferenceable(40) %1) unnamed_addr #0 align 2 {
  tail call void @_ZN5osgeo4proj4util9ExceptionC2ERKS2_(ptr noundef nonnull align 8 dereferenceable(40) %0, ptr noundef nonnull align 8 dereferenceable(40) %1)
  store ptr getelementptr inbounds nuw inrange(-16, 24) (i8, ptr @_ZTVN5osgeo4proj9operation33InvalidOperationEmptyIntersectionE, i64 16), ptr %0, align 8, !tbaa !4
  ret void
}

; Function Attrs: mustprogress sspstrong uwtable
define void @_ZN5osgeo4proj9operation16InvalidOperationC2ERKS2_(ptr noundef nonnull align 8 dereferenceable(40) %0, ptr noundef nonnull align 8 dereferenceable(40) %1) unnamed_addr #0 align 2 {
  tail call void @_ZN5osgeo4proj4util9ExceptionC2ERKS2_(ptr noundef nonnull align 8 dereferenceable(40) %0, ptr noundef nonnull align 8 dereferenceable(40) %1)
  store ptr getelementptr inbounds nuw inrange(-16, 24) (i8, ptr @_ZTVN5osgeo4proj9operation16InvalidOperationE, i64 16), ptr %0, align 8, !tbaa !4
  ret void
}

; Function Attrs: mustprogress nounwind sspstrong uwtable
define void @_ZN5osgeo4proj9operation16InvalidOperationD2Ev(ptr noundef nonnull align 8 dereferenceable(40) %0) unnamed_addr #1 align 2 {
  tail call void @_ZN5osgeo4proj4util9ExceptionD2Ev(ptr noundef nonnull align 8 dereferenceable(40) %0) #45
  ret void
}

; Function Attrs: mustprogress nounwind sspstrong uwtable
define hidden void @_ZN5osgeo4proj9operation33InvalidOperationEmptyIntersectionD2Ev(ptr noundef nonnull align 8 dereferenceable(40) %0) unnamed_addr #1 align 2 {
  tail call void @_ZN5osgeo4proj4util9ExceptionD2Ev(ptr noundef nonnull align 8 dereferenceable(40) %0) #45
  ret void
}

; Function Attrs: mustprogress nounwind sspstrong uwtable
define hidden void @_ZN5osgeo4proj9operation33InvalidOperationEmptyIntersectionD0Ev(ptr noundef nonnull align 8 dereferenceable(40) %0) unnamed_addr #1 align 2 {
  tail call void @_ZN5osgeo4proj4util9ExceptionD2Ev(ptr noundef nonnull align 8 dereferenceable(40) %0) #45
  tail call void @_ZdlPvm(ptr noundef nonnull %0, i64 noundef 40) #46
  ret void
}

; Function Attrs: nobuiltin nounwind
declare void @_ZdlPvm(ptr noundef, i64 noundef) local_unnamed_addr #2

; Function Attrs: mustprogress nofree norecurse nosync nounwind sspstrong willreturn memory(argmem: write) uwtable
define void @_ZN5osgeo4proj9operation15GridDescriptionC2Ev(ptr noundef nonnull align 8 dereferenceable(131) %0) unnamed_addr #3 align 2 personality ptr @__gxx_personality_v0 {
  %2 = getelementptr inbounds nuw i8, ptr %0, i64 16
  store ptr %2, ptr %0, align 8, !tbaa !7
  %3 = getelementptr inbounds nuw i8, ptr %0, i64 8
  store i64 0, ptr %3, align 8, !tbaa !12
  store i8 0, ptr %2, align 8, !tbaa !15
  %4 = getelementptr inbounds nuw i8, ptr %0, i64 32
  %5 = getelementptr inbounds nuw i8, ptr %0, i64 48
  store ptr %5, ptr %4, align 8, !tbaa !7
  %6 = getelementptr inbounds nuw i8, ptr %0, i64 40
  store i64 0, ptr %6, align 8, !tbaa !12
  store i8 0, ptr %5, align 8, !tbaa !15
  %7 = getelementptr inbounds nuw i8, ptr %0, i64 64
  %8 = getelementptr inbounds nuw i8, ptr %0, i64 80
  store ptr %8, ptr %7, align 8, !tbaa !7
  %9 = getelementptr inbounds nuw i8, ptr %0, i64 72
  store i64 0, ptr %9, align 8, !tbaa !12
  store i8 0, ptr %8, align 8, !tbaa !15
  %10 = getelementptr inbounds nuw i8, ptr %0, i64 96
  %11 = getelementptr inbounds nuw i8, ptr %0, i64 112
  store ptr %11, ptr %10, align 8, !tbaa !7
  %12 = getelementptr inbounds nuw i8, ptr %0, i64 104
  store i64 0, ptr %12, align 8, !tbaa !12
  store i8 0, ptr %11, align 8, !tbaa !15
  %13 = getelementptr inbounds nuw i8, ptr %0, i64 128
  store i8 0, ptr %13, align 8, !tbaa !16
  %14 = getelementptr inbounds nuw i8, ptr %0, i64 129
  store i8 0, ptr %14, align 1, !tbaa !19
  %15 = getelementptr inbounds nuw i8, ptr %0, i64 130
  store i8 0, ptr %15, align 2, !tbaa !20
  ret void
}

; Function Attrs: mustprogress nounwind sspstrong uwtable
define void @_ZN5osgeo4proj9operation15GridDescriptionD2Ev(ptr noundef nonnull readonly align 8 captures(address) dereferenceable(131) %0) unnamed_addr #1 align 2 personality ptr @__gxx_personality_v0 {
  %2 = getelementptr inbounds nuw i8, ptr %0, i64 96
  %3 = load ptr, ptr %2, align 8, !tbaa !21
  %4 = getelementptr inbounds nuw i8, ptr %0, i64 112
  %5 = icmp eq ptr %3, %4
  br i1 %5, label %6, label %10

6:                                                ; preds = %1
  %7 = getelementptr inbounds nuw i8, ptr %0, i64 104
  %8 = load i64, ptr %7, align 8, !tbaa !12
  %9 = icmp ult i64 %8, 16
  tail call void @llvm.assume(i1 %9)
  br label %13

10:                                               ; preds = %1
  %11 = load i64, ptr %4, align 8, !tbaa !15
  %12 = add i64 %11, 1
  tail call void @_ZdlPvm(ptr noundef %3, i64 noundef %12) #46
  br label %13

13:                                               ; preds = %10, %6
  %14 = getelementptr inbounds nuw i8, ptr %0, i64 64
  %15 = load ptr, ptr %14, align 8, !tbaa !21
  %16 = getelementptr inbounds nuw i8, ptr %0, i64 80
  %17 = icmp eq ptr %15, %16
  br i1 %17, label %18, label %22

18:                                               ; preds = %13
  %19 = getelementptr inbounds nuw i8, ptr %0, i64 72
  %20 = load i64, ptr %19, align 8, !tbaa !12
  %21 = icmp ult i64 %20, 16
  tail call void @llvm.assume(i1 %21)
  br label %25

22:                                               ; preds = %13
  %23 = load i64, ptr %16, align 8, !tbaa !15
  %24 = add i64 %23, 1
  tail call void @_ZdlPvm(ptr noundef %15, i64 noundef %24) #46
  br label %25

25:                                               ; preds = %22, %18
  %26 = getelementptr inbounds nuw i8, ptr %0, i64 32
  %27 = load ptr, ptr %26, align 8, !tbaa !21
  %28 = getelementptr inbounds nuw i8, ptr %0, i64 48
  %29 = icmp eq ptr %27, %28
  br i1 %29, label %30, label %34

30:                                               ; preds = %25
  %31 = getelementptr inbounds nuw i8, ptr %0, i64 40
  %32 = load i64, ptr %31, align 8, !tbaa !12
  %33 = icmp ult i64 %32, 16
  tail call void @llvm.assume(i1 %33)
  br label %37

34:                                               ; preds = %25
  %35 = load i64, ptr %28, align 8, !tbaa !15
  %36 = add i64 %35, 1
  tail call void @_ZdlPvm(ptr noundef %27, i64 noundef %36) #46
  br label %37

37:                                               ; preds = %34, %30
  %38 = load ptr, ptr %0, align 8, !tbaa !21
  %39 = getelementptr inbounds nuw i8, ptr %0, i64 16
  %40 = icmp eq ptr %38, %39
  br i1 %40, label %41, label %45

41:                                               ; preds = %37
  %42 = getelementptr inbounds nuw i8, ptr %0, i64 8
  %43 = load i64, ptr %42, align 8, !tbaa !12
  %44 = icmp ult i64 %43, 16
  tail call void @llvm.assume(i1 %44)
  br label %48

45:                                               ; preds = %37
  %46 = load i64, ptr %39, align 8, !tbaa !15
  %47 = add i64 %46, 1
  tail call void @_ZdlPvm(ptr noundef %38, i64 noundef %47) #46
  br label %48

48:                                               ; preds = %45, %41
  ret void
}

; Function Attrs: mustprogress nounwind sspstrong uwtable
declare void @_ZNSt7__cxx1112basic_stringIcSt11char_traitsIcESaIcEED2Ev(ptr noundef nonnull align 8 dereferenceable(32)) unnamed_addr #1 align 2

; Function Attrs: mustprogress sspstrong uwtable
define void @_ZN5osgeo4proj9operation15GridDescriptionC2ERKS2_(ptr noundef nonnull align 8 dereferenceable(131) %0, ptr noundef nonnull readonly align 8 captures(none) dereferenceable(131) %1) unnamed_addr #0 align 2 personality ptr @__gxx_personality_v0 {
  %3 = alloca i64, align 8
  %4 = alloca i64, align 8
  %5 = alloca i64, align 8
  %6 = alloca i64, align 8
  %7 = getelementptr inbounds nuw i8, ptr %0, i64 16
  store ptr %7, ptr %0, align 8, !tbaa !7
  %8 = load ptr, ptr %1, align 8, !tbaa !21
  %9 = getelementptr inbounds nuw i8, ptr %1, i64 8
  %10 = load i64, ptr %9, align 8, !tbaa !12
  %11 = icmp ult i64 %10, 9223372036854775807
  tail call void @llvm.assume(i1 %11)
  call void @llvm.lifetime.start.p0(ptr %6)
  store i64 %10, ptr %6, align 8, !tbaa !22
  %12 = icmp samesign ugt i64 %10, 15
  br i1 %12, label %13, label %16

13:                                               ; preds = %2
  %14 = call noundef ptr @_ZNSt7__cxx1112basic_stringIcSt11char_traitsIcESaIcEE9_M_createERmm(ptr noundef nonnull align 8 dereferenceable(32) %0, ptr noundef nonnull align 8 dereferenceable(8) %6, i64 noundef 0)
  store ptr %14, ptr %0, align 8, !tbaa !21
  %15 = load i64, ptr %6, align 8, !tbaa !22
  store i64 %15, ptr %7, align 8, !tbaa !15
  br label %16

16:                                               ; preds = %13, %2
  %17 = phi i64 [ %15, %13 ], [ %10, %2 ]
  %18 = phi ptr [ %14, %13 ], [ %7, %2 ]
  switch i64 %17, label %21 [
    i64 0, label %19
    i64 -1, label %23
  ]

19:                                               ; preds = %16
  %20 = load i8, ptr %8, align 1, !tbaa !15
  store i8 %20, ptr %18, align 1, !tbaa !15
  br label %23

21:                                               ; preds = %16
  %22 = add nuw i64 %17, 1
  call void @llvm.memcpy.p0.p0.i64(ptr noundef nonnull align 1 dereferenceable(1) %18, ptr noundef nonnull align 1 dereferenceable(1) %8, i64 %22, i1 false)
  br label %23

23:                                               ; preds = %21, %19, %16
  %24 = load i64, ptr %6, align 8, !tbaa !22
  %25 = getelementptr inbounds nuw i8, ptr %0, i64 8
  store i64 %24, ptr %25, align 8, !tbaa !12
  call void @llvm.lifetime.end.p0(ptr %6)
  %26 = getelementptr inbounds nuw i8, ptr %0, i64 32
  %27 = getelementptr inbounds nuw i8, ptr %1, i64 32
  %28 = getelementptr inbounds nuw i8, ptr %0, i64 48
  store ptr %28, ptr %26, align 8, !tbaa !7
  %29 = load ptr, ptr %27, align 8, !tbaa !21
  %30 = getelementptr inbounds nuw i8, ptr %1, i64 40
  %31 = load i64, ptr %30, align 8, !tbaa !12
  %32 = icmp ult i64 %31, 9223372036854775807
  call void @llvm.assume(i1 %32)
  call void @llvm.lifetime.start.p0(ptr %5)
  store i64 %31, ptr %5, align 8, !tbaa !22
  %33 = icmp samesign ugt i64 %31, 15
  br i1 %33, label %34, label %38

34:                                               ; preds = %23
  %35 = invoke noundef ptr @_ZNSt7__cxx1112basic_stringIcSt11char_traitsIcESaIcEE9_M_createERmm(ptr noundef nonnull align 8 dereferenceable(32) %26, ptr noundef nonnull align 8 dereferenceable(8) %5, i64 noundef 0)
          to label %36 unwind label %94

36:                                               ; preds = %34
  store ptr %35, ptr %26, align 8, !tbaa !21
  %37 = load i64, ptr %5, align 8, !tbaa !22
  store i64 %37, ptr %28, align 8, !tbaa !15
  br label %38

38:                                               ; preds = %36, %23
  %39 = phi i64 [ %37, %36 ], [ %31, %23 ]
  %40 = phi ptr [ %35, %36 ], [ %28, %23 ]
  switch i64 %39, label %43 [
    i64 0, label %41
    i64 -1, label %45
  ]

41:                                               ; preds = %38
  %42 = load i8, ptr %29, align 1, !tbaa !15
  store i8 %42, ptr %40, align 1, !tbaa !15
  br label %45

43:                                               ; preds = %38
  %44 = add nuw i64 %39, 1
  call void @llvm.memcpy.p0.p0.i64(ptr noundef nonnull align 1 dereferenceable(1) %40, ptr noundef nonnull align 1 dereferenceable(1) %29, i64 %44, i1 false)
  br label %45

45:                                               ; preds = %43, %41, %38
  %46 = load i64, ptr %5, align 8, !tbaa !22
  %47 = getelementptr inbounds nuw i8, ptr %0, i64 40
  store i64 %46, ptr %47, align 8, !tbaa !12
  call void @llvm.lifetime.end.p0(ptr %5)
  %48 = getelementptr inbounds nuw i8, ptr %0, i64 64
  %49 = getelementptr inbounds nuw i8, ptr %1, i64 64
  %50 = getelementptr inbounds nuw i8, ptr %0, i64 80
  store ptr %50, ptr %48, align 8, !tbaa !7
  %51 = load ptr, ptr %49, align 8, !tbaa !21
  %52 = getelementptr inbounds nuw i8, ptr %1, i64 72
  %53 = load i64, ptr %52, align 8, !tbaa !12
  %54 = icmp ult i64 %53, 9223372036854775807
  call void @llvm.assume(i1 %54)
  call void @llvm.lifetime.start.p0(ptr %4)
  store i64 %53, ptr %4, align 8, !tbaa !22
  %55 = icmp samesign ugt i64 %53, 15
  br i1 %55, label %56, label %60

56:                                               ; preds = %45
  %57 = invoke noundef ptr @_ZNSt7__cxx1112basic_stringIcSt11char_traitsIcESaIcEE9_M_createERmm(ptr noundef nonnull align 8 dereferenceable(32) %48, ptr noundef nonnull align 8 dereferenceable(8) %4, i64 noundef 0)
          to label %58 unwind label %96

58:                                               ; preds = %56
  store ptr %57, ptr %48, align 8, !tbaa !21
  %59 = load i64, ptr %4, align 8, !tbaa !22
  store i64 %59, ptr %50, align 8, !tbaa !15
  br label %60

60:                                               ; preds = %58, %45
  %61 = phi i64 [ %59, %58 ], [ %53, %45 ]
  %62 = phi ptr [ %57, %58 ], [ %50, %45 ]
  switch i64 %61, label %65 [
    i64 0, label %63
    i64 -1, label %67
  ]

63:                                               ; preds = %60
  %64 = load i8, ptr %51, align 1, !tbaa !15
  store i8 %64, ptr %62, align 1, !tbaa !15
  br label %67

65:                                               ; preds = %60
  %66 = add nuw i64 %61, 1
  call void @llvm.memcpy.p0.p0.i64(ptr noundef nonnull align 1 dereferenceable(1) %62, ptr noundef nonnull align 1 dereferenceable(1) %51, i64 %66, i1 false)
  br label %67

67:                                               ; preds = %65, %63, %60
  %68 = load i64, ptr %4, align 8, !tbaa !22
  %69 = getelementptr inbounds nuw i8, ptr %0, i64 72
  store i64 %68, ptr %69, align 8, !tbaa !12
  call void @llvm.lifetime.end.p0(ptr %4)
  %70 = getelementptr inbounds nuw i8, ptr %0, i64 96
  %71 = getelementptr inbounds nuw i8, ptr %1, i64 96
  %72 = getelementptr inbounds nuw i8, ptr %0, i64 112
  store ptr %72, ptr %70, align 8, !tbaa !7
  %73 = load ptr, ptr %71, align 8, !tbaa !21
  %74 = getelementptr inbounds nuw i8, ptr %1, i64 104
  %75 = load i64, ptr %74, align 8, !tbaa !12
  %76 = icmp ult i64 %75, 9223372036854775807
  call void @llvm.assume(i1 %76)
  call void @llvm.lifetime.start.p0(ptr %3)
  store i64 %75, ptr %3, align 8, !tbaa !22
  %77 = icmp samesign ugt i64 %75, 15
  br i1 %77, label %78, label %82

78:                                               ; preds = %67
  %79 = invoke noundef ptr @_ZNSt7__cxx1112basic_stringIcSt11char_traitsIcESaIcEE9_M_createERmm(ptr noundef nonnull align 8 dereferenceable(32) %70, ptr noundef nonnull align 8 dereferenceable(8) %3, i64 noundef 0)
          to label %80 unwind label %98

80:                                               ; preds = %78
  store ptr %79, ptr %70, align 8, !tbaa !21
  %81 = load i64, ptr %3, align 8, !tbaa !22
  store i64 %81, ptr %72, align 8, !tbaa !15
  br label %82

82:                                               ; preds = %80, %67
  %83 = phi i64 [ %81, %80 ], [ %75, %67 ]
  %84 = phi ptr [ %79, %80 ], [ %72, %67 ]
  switch i64 %83, label %87 [
    i64 0, label %85
    i64 -1, label %89
  ]

85:                                               ; preds = %82
  %86 = load i8, ptr %73, align 1, !tbaa !15
  store i8 %86, ptr %84, align 1, !tbaa !15
  br label %89

87:                                               ; preds = %82
  %88 = add nuw i64 %83, 1
  call void @llvm.memcpy.p0.p0.i64(ptr noundef nonnull align 1 dereferenceable(1) %84, ptr noundef nonnull align 1 dereferenceable(1) %73, i64 %88, i1 false)
  br label %89

89:                                               ; preds = %87, %85, %82
  %90 = load i64, ptr %3, align 8, !tbaa !22
  %91 = getelementptr inbounds nuw i8, ptr %0, i64 104
  store i64 %90, ptr %91, align 8, !tbaa !12
  call void @llvm.lifetime.end.p0(ptr %3)
  %92 = getelementptr inbounds nuw i8, ptr %0, i64 128
  %93 = getelementptr inbounds nuw i8, ptr %1, i64 128
  call void @llvm.memcpy.p0.p0.i64(ptr noundef nonnull align 8 dereferenceable(3) %92, ptr noundef nonnull align 8 dereferenceable(3) %93, i64 3, i1 false)
  ret void

94:                                               ; preds = %34
  %95 = landingpad { ptr, i32 }
          cleanup
  br label %118

96:                                               ; preds = %56
  %97 = landingpad { ptr, i32 }
          cleanup
  br label %108

98:                                               ; preds = %78
  %99 = landingpad { ptr, i32 }
          cleanup
  %100 = load ptr, ptr %48, align 8, !tbaa !21
  %101 = icmp eq ptr %100, %50
  br i1 %101, label %102, label %105

102:                                              ; preds = %98
  %103 = load i64, ptr %69, align 8, !tbaa !12
  %104 = icmp ult i64 %103, 16
  call void @llvm.assume(i1 %104)
  br label %108

105:                                              ; preds = %98
  %106 = load i64, ptr %50, align 8, !tbaa !15
  %107 = add i64 %106, 1
  call void @_ZdlPvm(ptr noundef %100, i64 noundef %107) #46
  br label %108

108:                                              ; preds = %105, %102, %96
  %109 = phi { ptr, i32 } [ %97, %96 ], [ %99, %102 ], [ %99, %105 ]
  %110 = load ptr, ptr %26, align 8, !tbaa !21
  %111 = icmp eq ptr %110, %28
  br i1 %111, label %112, label %115

112:                                              ; preds = %108
  %113 = load i64, ptr %47, align 8, !tbaa !12
  %114 = icmp ult i64 %113, 16
  call void @llvm.assume(i1 %114)
  br label %118

115:                                              ; preds = %108
  %116 = load i64, ptr %28, align 8, !tbaa !15
  %117 = add i64 %116, 1
  call void @_ZdlPvm(ptr noundef %110, i64 noundef %117) #46
  br label %118

118:                                              ; preds = %115, %112, %94
  %119 = phi { ptr, i32 } [ %95, %94 ], [ %109, %112 ], [ %109, %115 ]
  %120 = load ptr, ptr %0, align 8, !tbaa !21
  %121 = icmp eq ptr %120, %7
  br i1 %121, label %122, label %125

122:                                              ; preds = %118
  %123 = load i64, ptr %25, align 8, !tbaa !12
  %124 = icmp ult i64 %123, 16
  call void @llvm.assume(i1 %124)
  br label %128

125:                                              ; preds = %118
  %126 = load i64, ptr %7, align 8, !tbaa !15
  %127 = add i64 %126, 1
  call void @_ZdlPvm(ptr noundef %120, i64 noundef %127) #46
  br label %128

128:                                              ; preds = %125, %122
  resume { ptr, i32 } %119
}

declare i32 @__gxx_personality_v0(...)

; Function Attrs: nocallback nofree nounwind willreturn memory(argmem: readwrite)
declare void @llvm.memcpy.p0.p0.i64(ptr noalias writeonly captures(none), ptr noalias readonly captures(none), i64, i1 immarg) #4

; Function Attrs: mustprogress nofree norecurse nosync nounwind sspstrong willreturn memory(argmem: readwrite, inaccessiblemem: write) uwtable
define void @_ZN5osgeo4proj9operation15GridDescriptionC2EOS2_(ptr noundef nonnull align 8 dereferenceable(131) %0, ptr noundef nonnull align 8 dereferenceable(131) %1) unnamed_addr #5 align 2 personality ptr @__gxx_personality_v0 {
  %3 = getelementptr inbounds nuw i8, ptr %0, i64 16
  store ptr %3, ptr %0, align 8, !tbaa !7
  %4 = load ptr, ptr %1, align 8, !tbaa !21
  %5 = getelementptr inbounds nuw i8, ptr %1, i64 16
  %6 = icmp eq ptr %4, %5
  br i1 %6, label %7, label %12

7:                                                ; preds = %2
  %8 = getelementptr inbounds nuw i8, ptr %1, i64 8
  %9 = load i64, ptr %8, align 8, !tbaa !12
  %10 = icmp ult i64 %9, 16
  tail call void @llvm.assume(i1 %10)
  %11 = add nuw nsw i64 %9, 1
  tail call void @llvm.memcpy.p0.p0.i64(ptr noundef nonnull align 8 dereferenceable(1) %3, ptr noundef nonnull align 8 dereferenceable(1) %5, i64 %11, i1 false)
  br label %14

12:                                               ; preds = %2
  store ptr %4, ptr %0, align 8, !tbaa !21
  %13 = load i64, ptr %5, align 8, !tbaa !15
  store i64 %13, ptr %3, align 8, !tbaa !15
  br label %14

14:                                               ; preds = %12, %7
  %15 = getelementptr inbounds nuw i8, ptr %1, i64 8
  %16 = load i64, ptr %15, align 8, !tbaa !12
  %17 = icmp ult i64 %16, 9223372036854775807
  tail call void @llvm.assume(i1 %17)
  %18 = getelementptr inbounds nuw i8, ptr %0, i64 8
  store i64 %16, ptr %18, align 8, !tbaa !12
  store ptr %5, ptr %1, align 8, !tbaa !21
  store i64 0, ptr %15, align 8, !tbaa !12
  store i8 0, ptr %5, align 8, !tbaa !15
  %19 = getelementptr inbounds nuw i8, ptr %0, i64 32
  %20 = getelementptr inbounds nuw i8, ptr %1, i64 32
  %21 = getelementptr inbounds nuw i8, ptr %0, i64 48
  store ptr %21, ptr %19, align 8, !tbaa !7
  %22 = load ptr, ptr %20, align 8, !tbaa !21
  %23 = getelementptr inbounds nuw i8, ptr %1, i64 48
  %24 = icmp eq ptr %22, %23
  br i1 %24, label %25, label %30

25:                                               ; preds = %14
  %26 = getelementptr inbounds nuw i8, ptr %1, i64 40
  %27 = load i64, ptr %26, align 8, !tbaa !12
  %28 = icmp ult i64 %27, 16
  tail call void @llvm.assume(i1 %28)
  %29 = add nuw nsw i64 %27, 1
  tail call void @llvm.memcpy.p0.p0.i64(ptr noundef nonnull align 8 dereferenceable(1) %21, ptr noundef nonnull align 8 dereferenceable(1) %23, i64 %29, i1 false)
  br label %32

30:                                               ; preds = %14
  store ptr %22, ptr %19, align 8, !tbaa !21
  %31 = load i64, ptr %23, align 8, !tbaa !15
  store i64 %31, ptr %21, align 8, !tbaa !15
  br label %32

32:                                               ; preds = %30, %25
  %33 = getelementptr inbounds nuw i8, ptr %1, i64 40
  %34 = load i64, ptr %33, align 8, !tbaa !12
  %35 = icmp ult i64 %34, 9223372036854775807
  tail call void @llvm.assume(i1 %35)
  %36 = getelementptr inbounds nuw i8, ptr %0, i64 40
  store i64 %34, ptr %36, align 8, !tbaa !12
  store ptr %23, ptr %20, align 8, !tbaa !21
  store i64 0, ptr %33, align 8, !tbaa !12
  store i8 0, ptr %23, align 8, !tbaa !15
  %37 = getelementptr inbounds nuw i8, ptr %0, i64 64
  %38 = getelementptr inbounds nuw i8, ptr %1, i64 64
  %39 = getelementptr inbounds nuw i8, ptr %0, i64 80
  store ptr %39, ptr %37, align 8, !tbaa !7
  %40 = load ptr, ptr %38, align 8, !tbaa !21
  %41 = getelementptr inbounds nuw i8, ptr %1, i64 80
  %42 = icmp eq ptr %40, %41
  br i1 %42, label %43, label %48

43:                                               ; preds = %32
  %44 = getelementptr inbounds nuw i8, ptr %1, i64 72
  %45 = load i64, ptr %44, align 8, !tbaa !12
  %46 = icmp ult i64 %45, 16
  tail call void @llvm.assume(i1 %46)
  %47 = add nuw nsw i64 %45, 1
  tail call void @llvm.memcpy.p0.p0.i64(ptr noundef nonnull align 8 dereferenceable(1) %39, ptr noundef nonnull align 8 dereferenceable(1) %41, i64 %47, i1 false)
  br label %50

48:                                               ; preds = %32
  store ptr %40, ptr %37, align 8, !tbaa !21
  %49 = load i64, ptr %41, align 8, !tbaa !15
  store i64 %49, ptr %39, align 8, !tbaa !15
  br label %50

50:                                               ; preds = %48, %43
  %51 = getelementptr inbounds nuw i8, ptr %1, i64 72
  %52 = load i64, ptr %51, align 8, !tbaa !12
  %53 = icmp ult i64 %52, 9223372036854775807
  tail call void @llvm.assume(i1 %53)
  %54 = getelementptr inbounds nuw i8, ptr %0, i64 72
  store i64 %52, ptr %54, align 8, !tbaa !12
  store ptr %41, ptr %38, align 8, !tbaa !21
  store i64 0, ptr %51, align 8, !tbaa !12
  store i8 0, ptr %41, align 8, !tbaa !15
  %55 = getelementptr inbounds nuw i8, ptr %0, i64 96
  %56 = getelementptr inbounds nuw i8, ptr %1, i64 96
  %57 = getelementptr inbounds nuw i8, ptr %0, i64 112
  store ptr %57, ptr %55, align 8, !tbaa !7
  %58 = load ptr, ptr %56, align 8, !tbaa !21
  %59 = getelementptr inbounds nuw i8, ptr %1, i64 112
  %60 = icmp eq ptr %58, %59
  br i1 %60, label %61, label %66

61:                                               ; preds = %50
  %62 = getelementptr inbounds nuw i8, ptr %1, i64 104
  %63 = load i64, ptr %62, align 8, !tbaa !12
  %64 = icmp ult i64 %63, 16
  tail call void @llvm.assume(i1 %64)
  %65 = add nuw nsw i64 %63, 1
  tail call void @llvm.memcpy.p0.p0.i64(ptr noundef nonnull align 8 dereferenceable(1) %57, ptr noundef nonnull align 8 dereferenceable(1) %59, i64 %65, i1 false)
  br label %68

66:                                               ; preds = %50
  store ptr %58, ptr %55, align 8, !tbaa !21
  %67 = load i64, ptr %59, align 8, !tbaa !15
  store i64 %67, ptr %57, align 8, !tbaa !15
  br label %68

68:                                               ; preds = %66, %61
  %69 = getelementptr inbounds nuw i8, ptr %1, i64 104
  %70 = load i64, ptr %69, align 8, !tbaa !12
  %71 = icmp ult i64 %70, 9223372036854775807
  tail call void @llvm.assume(i1 %71)
  %72 = getelementptr inbounds nuw i8, ptr %0, i64 104
  store i64 %70, ptr %72, align 8, !tbaa !12
  store ptr %59, ptr %56, align 8, !tbaa !21
  store i64 0, ptr %69, align 8, !tbaa !12
  store i8 0, ptr %59, align 8, !tbaa !15
  %73 = getelementptr inbounds nuw i8, ptr %0, i64 128
  %74 = getelementptr inbounds nuw i8, ptr %1, i64 128
  %75 = load i8, ptr %74, align 8, !tbaa !16, !range !23, !noundef !24
  store i8 %75, ptr %73, align 8, !tbaa !16
  %76 = getelementptr inbounds nuw i8, ptr %0, i64 129
  %77 = getelementptr inbounds nuw i8, ptr %1, i64 129
  %78 = load i8, ptr %77, align 1, !tbaa !19, !range !23, !noundef !24
  store i8 %78, ptr %76, align 1, !tbaa !19
  %79 = getelementptr inbounds nuw i8, ptr %0, i64 130
  %80 = getelementptr inbounds nuw i8, ptr %1, i64 130
  %81 = load i8, ptr %80, align 2, !tbaa !20, !range !23, !noundef !24
  store i8 %81, ptr %79, align 2, !tbaa !20
  ret void
}

; Function Attrs: mustprogress sspstrong uwtable
define hidden void @_ZN5osgeo4proj9operation19CoordinateOperationC2Ev(ptr noundef nonnull align 8 dereferenceable(72) %0) unnamed_addr #0 align 2 personality ptr @__gxx_personality_v0 {
  tail call void @_ZN5osgeo4proj6common11ObjectUsageC2Ev(ptr noundef nonnull align 8 dereferenceable(48) %0)
  %2 = getelementptr inbounds nuw i8, ptr %0, i64 48
  %3 = getelementptr inbounds nuw i8, ptr %0, i64 56
  store ptr getelementptr inbounds nuw inrange(-16, 56) (i8, ptr @_ZTVN5osgeo4proj9operation19CoordinateOperationE, i64 16), ptr %0, align 8, !tbaa !4
  %4 = getelementptr inbounds nuw i8, ptr %0, i64 16
  store ptr getelementptr inbounds nuw inrange(-16, 24) (i8, ptr @_ZTVN5osgeo4proj9operation19CoordinateOperationE, i64 88), ptr %4, align 8, !tbaa !4
  %5 = getelementptr inbounds nuw i8, ptr %0, i64 24
  store ptr getelementptr inbounds nuw inrange(-16, 24) (i8, ptr @_ZTVN5osgeo4proj9operation19CoordinateOperationE, i64 128), ptr %5, align 8, !tbaa !4
  store ptr getelementptr inbounds nuw inrange(-16, 24) (i8, ptr @_ZTVN5osgeo4proj9operation19CoordinateOperationE, i64 168), ptr %2, align 8, !tbaa !4
  store ptr getelementptr inbounds nuw inrange(-16, 24) (i8, ptr @_ZTVN5osgeo4proj9operation19CoordinateOperationE, i64 208), ptr %3, align 8, !tbaa !4
  tail call void @llvm.experimental.noalias.scope.decl(metadata !25)
  %6 = invoke noalias noundef nonnull dereferenceable(160) ptr @_Znwm(i64 noundef 160) #47
          to label %7 unwind label %12

7:                                                ; preds = %1
  tail call void @llvm.memset.p0.i64(ptr noundef nonnull align 16 dereferenceable(160) %6, i8 0, i64 160, i1 false), !noalias !25
  invoke void @_ZN5osgeo4proj9operation19CoordinateOperation7PrivateC2Ev(ptr noundef nonnull align 8 dereferenceable(160) %6)
          to label %10 unwind label %8, !noalias !25

8:                                                ; preds = %7
  %9 = landingpad { ptr, i32 }
          cleanup
  tail call void @_ZdlPvm(ptr noundef nonnull %6, i64 noundef 160) #46, !noalias !25
  br label %14

10:                                               ; preds = %7
  %11 = getelementptr inbounds nuw i8, ptr %0, i64 64
  store ptr %6, ptr %11, align 8, !tbaa !28, !alias.scope !25
  ret void

12:                                               ; preds = %1
  %13 = landingpad { ptr, i32 }
          cleanup
  br label %14

14:                                               ; preds = %12, %8
  %15 = phi { ptr, i32 } [ %13, %12 ], [ %9, %8 ]
  tail call void @_ZN5osgeo4proj2io15IJSONExportableD2Ev(ptr noundef nonnull align 8 dereferenceable(8) %3) #45
  tail call void @_ZN5osgeo4proj2io21IPROJStringExportableD2Ev(ptr noundef nonnull align 8 dereferenceable(8) %2) #45
  tail call void @_ZN5osgeo4proj6common11ObjectUsageD2Ev(ptr noundef nonnull align 8 dereferenceable(48) %0) #45
  resume { ptr, i32 } %15
}

declare void @_ZN5osgeo4proj6common11ObjectUsageC2Ev(ptr noundef nonnull align 8 dereferenceable(48)) unnamed_addr #6

; Function Attrs: nounwind
declare void @_ZN5osgeo4proj2io15IJSONExportableD2Ev(ptr noundef nonnull align 8 dereferenceable(8)) unnamed_addr #7

; Function Attrs: nounwind
declare void @_ZN5osgeo4proj2io21IPROJStringExportableD2Ev(ptr noundef nonnull align 8 dereferenceable(8)) unnamed_addr #7

; Function Attrs: nounwind
declare void @_ZN5osgeo4proj6common11ObjectUsageD2Ev(ptr noundef nonnull align 8 dereferenceable(48)) unnamed_addr #7

; Function Attrs: mustprogress sspstrong uwtable
define hidden void @_ZN5osgeo4proj9operation19CoordinateOperationC2ERKS2_(ptr noundef nonnull align 8 dereferenceable(72) %0, ptr noundef nonnull align 8 dereferenceable(72) %1) unnamed_addr #0 align 2 personality ptr @__gxx_personality_v0 {
  tail call void @_ZN5osgeo4proj6common11ObjectUsageC2ERKS2_(ptr noundef nonnull align 8 dereferenceable(48) %0, ptr noundef nonnull align 8 dereferenceable(48) %1)
  %3 = getelementptr inbounds nuw i8, ptr %0, i64 48
  %4 = getelementptr inbounds nuw i8, ptr %0, i64 56
  store ptr getelementptr inbounds nuw inrange(-16, 56) (i8, ptr @_ZTVN5osgeo4proj9operation19CoordinateOperationE, i64 16), ptr %0, align 8, !tbaa !4
  %5 = getelementptr inbounds nuw i8, ptr %0, i64 16
  store ptr getelementptr inbounds nuw inrange(-16, 24) (i8, ptr @_ZTVN5osgeo4proj9operation19CoordinateOperationE, i64 88), ptr %5, align 8, !tbaa !4
  %6 = getelementptr inbounds nuw i8, ptr %0, i64 24
  store ptr getelementptr inbounds nuw inrange(-16, 24) (i8, ptr @_ZTVN5osgeo4proj9operation19CoordinateOperationE, i64 128), ptr %6, align 8, !tbaa !4
  store ptr getelementptr inbounds nuw inrange(-16, 24) (i8, ptr @_ZTVN5osgeo4proj9operation19CoordinateOperationE, i64 168), ptr %3, align 8, !tbaa !4
  store ptr getelementptr inbounds nuw inrange(-16, 24) (i8, ptr @_ZTVN5osgeo4proj9operation19CoordinateOperationE, i64 208), ptr %4, align 8, !tbaa !4
  %7 = getelementptr inbounds nuw i8, ptr %1, i64 64
  %8 = load ptr, ptr %7, align 8, !tbaa !28
  tail call void @llvm.experimental.noalias.scope.decl(metadata !30)
  %9 = invoke noalias noundef nonnull dereferenceable(160) ptr @_Znwm(i64 noundef 160) #47
          to label %10 unwind label %15

10:                                               ; preds = %2
  invoke void @_ZN5osgeo4proj9operation19CoordinateOperation7PrivateC2ERKS3_(ptr noundef nonnull align 8 dereferenceable(160) %9, ptr noundef nonnull align 8 dereferenceable(160) %8)
          to label %13 unwind label %11, !noalias !30

11:                                               ; preds = %10
  %12 = landingpad { ptr, i32 }
          cleanup
  tail call void @_ZdlPvm(ptr noundef nonnull %9, i64 noundef 160) #46, !noalias !30
  br label %17

13:                                               ; preds = %10
  %14 = getelementptr inbounds nuw i8, ptr %0, i64 64
  store ptr %9, ptr %14, align 8, !tbaa !28, !alias.scope !30
  ret void

15:                                               ; preds = %2
  %16 = landingpad { ptr, i32 }
          cleanup
  br label %17

17:                                               ; preds = %15, %11
  %18 = phi { ptr, i32 } [ %16, %15 ], [ %12, %11 ]
  tail call void @_ZN5osgeo4proj2io15IJSONExportableD2Ev(ptr noundef nonnull align 8 dereferenceable(8) %4) #45
  tail call void @_ZN5osgeo4proj2io21IPROJStringExportableD2Ev(ptr noundef nonnull align 8 dereferenceable(8) %3) #45
  tail call void @_ZN5osgeo4proj6common11ObjectUsageD2Ev(ptr noundef nonnull align 8 dereferenceable(48) %0) #45
  resume { ptr, i32 } %18
}

declare void @_ZN5osgeo4proj6common11ObjectUsageC2ERKS2_(ptr noundef nonnull align 8 dereferenceable(48), ptr noundef nonnull align 8 dereferenceable(48)) unnamed_addr #6

; Function Attrs: mustprogress nounwind sspstrong uwtable
define void @_ZN5osgeo4proj9operation19CoordinateOperationD2Ev(ptr noundef nonnull align 8 dereferenceable(72) initializes((0, 8), (16, 32), (48, 64)) %0) unnamed_addr #1 align 2 personality ptr @__gxx_personality_v0 {
  store ptr getelementptr inbounds nuw inrange(-16, 56) (i8, ptr @_ZTVN5osgeo4proj9operation19CoordinateOperationE, i64 16), ptr %0, align 8, !tbaa !4
  %2 = getelementptr inbounds nuw i8, ptr %0, i64 16
  store ptr getelementptr inbounds nuw inrange(-16, 24) (i8, ptr @_ZTVN5osgeo4proj9operation19CoordinateOperationE, i64 88), ptr %2, align 8, !tbaa !4
  %3 = getelementptr inbounds nuw i8, ptr %0, i64 24
  store ptr getelementptr inbounds nuw inrange(-16, 24) (i8, ptr @_ZTVN5osgeo4proj9operation19CoordinateOperationE, i64 128), ptr %3, align 8, !tbaa !4
  %4 = getelementptr inbounds nuw i8, ptr %0, i64 48
  store ptr getelementptr inbounds nuw inrange(-16, 24) (i8, ptr @_ZTVN5osgeo4proj9operation19CoordinateOperationE, i64 168), ptr %4, align 8, !tbaa !4
  %5 = getelementptr inbounds nuw i8, ptr %0, i64 56
  store ptr getelementptr inbounds nuw inrange(-16, 24) (i8, ptr @_ZTVN5osgeo4proj9operation19CoordinateOperationE, i64 208), ptr %5, align 8, !tbaa !4
  %6 = getelementptr inbounds nuw i8, ptr %0, i64 64
  %7 = load ptr, ptr %6, align 8, !tbaa !28
  %8 = icmp eq ptr %7, null
  br i1 %8, label %10, label %9

9:                                                ; preds = %1
  tail call void @_ZN5osgeo4proj9operation19CoordinateOperation7PrivateD2Ev(ptr noundef nonnull align 8 dereferenceable(160) %7) #45
  tail call void @_ZdlPvm(ptr noundef nonnull %7, i64 noundef 160) #46
  br label %10

10:                                               ; preds = %9, %1
  store ptr null, ptr %6, align 8, !tbaa !28
  tail call void @_ZN5osgeo4proj2io15IJSONExportableD2Ev(ptr noundef nonnull align 8 dereferenceable(8) %5) #45
  tail call void @_ZN5osgeo4proj2io21IPROJStringExportableD2Ev(ptr noundef nonnull align 8 dereferenceable(8) %4) #45
  tail call void @_ZN5osgeo4proj6common11ObjectUsageD2Ev(ptr noundef nonnull align 8 dereferenceable(48) %0) #45
  ret void
}

; Function Attrs: nounwind sspstrong uwtable
define void @_ZThn16_N5osgeo4proj9operation19CoordinateOperationD1Ev(ptr noundef %0) unnamed_addr #8 align 2 {
  %2 = getelementptr inbounds i8, ptr %0, i64 -16
  tail call void @_ZN5osgeo4proj9operation19CoordinateOperationD1Ev(ptr noundef nonnull align 8 dereferenceable(72) %2) #45
  ret void
}

; Function Attrs: nounwind sspstrong uwtable
define void @_ZThn24_N5osgeo4proj9operation19CoordinateOperationD1Ev(ptr noundef %0) unnamed_addr #8 align 2 {
  %2 = getelementptr inbounds i8, ptr %0, i64 -24
  tail call void @_ZN5osgeo4proj9operation19CoordinateOperationD1Ev(ptr noundef nonnull align 8 dereferenceable(72) %2) #45
  ret void
}

; Function Attrs: nounwind sspstrong uwtable
define void @_ZThn48_N5osgeo4proj9operation19CoordinateOperationD1Ev(ptr noundef %0) unnamed_addr #8 align 2 {
  %2 = getelementptr inbounds i8, ptr %0, i64 -48
  tail call void @_ZN5osgeo4proj9operation19CoordinateOperationD1Ev(ptr noundef nonnull align 8 dereferenceable(72) %2) #45
  ret void
}

; Function Attrs: nounwind sspstrong uwtable
define void @_ZThn56_N5osgeo4proj9operation19CoordinateOperationD1Ev(ptr noundef %0) unnamed_addr #8 align 2 {
  %2 = getelementptr inbounds i8, ptr %0, i64 -56
  tail call void @_ZN5osgeo4proj9operation19CoordinateOperationD1Ev(ptr noundef nonnull align 8 dereferenceable(72) %2) #45
  ret void
}

; Function Attrs: cold mustprogress noreturn nounwind sspstrong memory(inaccessiblemem: write) uwtable
define void @_ZN5osgeo4proj9operation19CoordinateOperationD0Ev(ptr nonnull readnone align 8 captures(none) %0) unnamed_addr #9 align 2 {
  tail call void @llvm.trap() #48
  unreachable
}

; Function Attrs: cold noreturn nounwind memory(inaccessiblemem: write)
declare void @llvm.trap() #10

; Function Attrs: cold noreturn nounwind sspstrong memory(inaccessiblemem: write) uwtable
define void @_ZThn16_N5osgeo4proj9operation19CoordinateOperationD0Ev(ptr readnone captures(none) %0) unnamed_addr #11 align 2 {
  tail call void @llvm.trap() #48
  unreachable
}

; Function Attrs: cold noreturn nounwind sspstrong memory(inaccessiblemem: write) uwtable
define void @_ZThn24_N5osgeo4proj9operation19CoordinateOperationD0Ev(ptr readnone captures(none) %0) unnamed_addr #11 align 2 {
  tail call void @llvm.trap() #48
  unreachable
}

; Function Attrs: cold noreturn nounwind sspstrong memory(inaccessiblemem: write) uwtable
define void @_ZThn48_N5osgeo4proj9operation19CoordinateOperationD0Ev(ptr readnone captures(none) %0) unnamed_addr #11 align 2 {
  tail call void @llvm.trap() #48
  unreachable
}

; Function Attrs: cold noreturn nounwind sspstrong memory(inaccessiblemem: write) uwtable
define void @_ZThn56_N5osgeo4proj9operation19CoordinateOperationD0Ev(ptr readnone captures(none) %0) unnamed_addr #11 align 2 {
  tail call void @llvm.trap() #48
  unreachable
}

; Function Attrs: mustprogress nofree norecurse nosync nounwind sspstrong willreturn memory(argmem: read) uwtable
define noundef nonnull align 8 dereferenceable(40) ptr @_ZNK5osgeo4proj9operation19CoordinateOperation16operationVersionB5cxx11Ev(ptr noundef nonnull readonly align 8 captures(none) dereferenceable(72) %0) local_unnamed_addr #12 align 2 {
  %2 = getelementptr inbounds nuw i8, ptr %0, i64 64
  %3 = load ptr, ptr %2, align 8, !tbaa !28
  ret ptr %3
}

; Function Attrs: mustprogress nofree norecurse nosync nounwind sspstrong willreturn memory(argmem: read) uwtable
define noundef nonnull align 8 dereferenceable(24) ptr @_ZNK5osgeo4proj9operation19CoordinateOperation29coordinateOperationAccuraciesEv(ptr noundef nonnull readonly align 8 captures(none) dereferenceable(72) %0) local_unnamed_addr #12 align 2 {
  %2 = getelementptr inbounds nuw i8, ptr %0, i64 64
  %3 = load ptr, ptr %2, align 8, !tbaa !28
  %4 = getelementptr inbounds nuw i8, ptr %3, i64 40
  ret ptr %4
}

; Function Attrs: mustprogress nofree norecurse nounwind sspstrong uwtable
define void @_ZNK5osgeo4proj9operation19CoordinateOperation9sourceCRSEv(ptr dead_on_unwind noalias writable sret(%"class.std::shared_ptr") align 8 captures(none) initializes((8, 16)) %0, ptr noundef nonnull readonly align 8 captures(none) dereferenceable(72) %1) local_unnamed_addr #13 align 2 {
  %3 = getelementptr inbounds nuw i8, ptr %1, i64 64
  %4 = load ptr, ptr %3, align 8, !tbaa !28
  %5 = getelementptr inbounds nuw i8, ptr %4, i64 64
  tail call void @llvm.experimental.noalias.scope.decl(metadata !33)
  %6 = getelementptr inbounds nuw i8, ptr %0, i64 8
  %7 = getelementptr inbounds nuw i8, ptr %4, i64 72
  %8 = load ptr, ptr %7, align 8, !tbaa !36, !noalias !33
  store ptr %8, ptr %6, align 8, !tbaa !39, !alias.scope !33
  %9 = icmp eq ptr %8, null
  br i1 %9, label %31, label %10

10:                                               ; preds = %2
  %11 = getelementptr inbounds nuw i8, ptr %8, i64 8
  %12 = load atomic i32, ptr %11 monotonic, align 8, !noalias !33
  br label %13

13:                                               ; preds = %16, %10
  %14 = phi i32 [ %12, %10 ], [ %20, %16 ]
  %15 = icmp eq i32 %14, 0
  br i1 %15, label %21, label %16

16:                                               ; preds = %13
  %17 = add nsw i32 %14, 1
  %18 = cmpxchg weak ptr %11, i32 %14, i32 %17 acq_rel monotonic, align 8, !noalias !33
  %19 = extractvalue { i32, i1 } %18, 1
  %20 = extractvalue { i32, i1 } %18, 0
  br i1 %19, label %22, label %13, !llvm.loop !41

21:                                               ; preds = %13
  store ptr null, ptr %6, align 8, !tbaa !39, !alias.scope !33
  br label %31

22:                                               ; preds = %16
  %23 = load ptr, ptr %6, align 8, !tbaa !39, !alias.scope !33
  %24 = icmp eq ptr %23, null
  br i1 %24, label %31, label %25

25:                                               ; preds = %22
  %26 = getelementptr inbounds nuw i8, ptr %23, i64 8
  %27 = load atomic i32, ptr %26 monotonic, align 8, !noalias !33
  %28 = freeze i32 %27
  %29 = icmp eq i32 %28, 0
  %30 = load ptr, ptr %5, align 8, !noalias !33
  br i1 %29, label %31, label %32

31:                                               ; preds = %25, %22, %21, %2
  br label %32

32:                                               ; preds = %31, %25
  %33 = phi ptr [ null, %31 ], [ %30, %25 ]
  store ptr %33, ptr %0, align 8, !tbaa !43, !alias.scope !33
  ret void
}

; Function Attrs: mustprogress nofree norecurse nounwind sspstrong uwtable
define void @_ZNK5osgeo4proj9operation19CoordinateOperation9targetCRSEv(ptr dead_on_unwind noalias writable sret(%"class.std::shared_ptr") align 8 captures(none) initializes((8, 16)) %0, ptr noundef nonnull readonly align 8 captures(none) dereferenceable(72) %1) local_unnamed_addr #13 align 2 {
  %3 = getelementptr inbounds nuw i8, ptr %1, i64 64
  %4 = load ptr, ptr %3, align 8, !tbaa !28
  %5 = getelementptr inbounds nuw i8, ptr %4, i64 80
  tail call void @llvm.experimental.noalias.scope.decl(metadata !46)
  %6 = getelementptr inbounds nuw i8, ptr %0, i64 8
  %7 = getelementptr inbounds nuw i8, ptr %4, i64 88
  %8 = load ptr, ptr %7, align 8, !tbaa !36, !noalias !46
  store ptr %8, ptr %6, align 8, !tbaa !39, !alias.scope !46
  %9 = icmp eq ptr %8, null
  br i1 %9, label %31, label %10

10:                                               ; preds = %2
  %11 = getelementptr inbounds nuw i8, ptr %8, i64 8
  %12 = load atomic i32, ptr %11 monotonic, align 8, !noalias !46
  br label %13

13:                                               ; preds = %16, %10
  %14 = phi i32 [ %12, %10 ], [ %20, %16 ]
  %15 = icmp eq i32 %14, 0
  br i1 %15, label %21, label %16

16:                                               ; preds = %13
  %17 = add nsw i32 %14, 1
  %18 = cmpxchg weak ptr %11, i32 %14, i32 %17 acq_rel monotonic, align 8, !noalias !46
  %19 = extractvalue { i32, i1 } %18, 1
  %20 = extractvalue { i32, i1 } %18, 0
  br i1 %19, label %22, label %13, !llvm.loop !41

21:                                               ; preds = %13
  store ptr null, ptr %6, align 8, !tbaa !39, !alias.scope !46
  br label %31

22:                                               ; preds = %16
  %23 = load ptr, ptr %6, align 8, !tbaa !39, !alias.scope !46
  %24 = icmp eq ptr %23, null
  br i1 %24, label %31, label %25

25:                                               ; preds = %22
  %26 = getelementptr inbounds nuw i8, ptr %23, i64 8
  %27 = load atomic i32, ptr %26 monotonic, align 8, !noalias !46
  %28 = freeze i32 %27
  %29 = icmp eq i32 %28, 0
  %30 = load ptr, ptr %5, align 8, !noalias !46
  br i1 %29, label %31, label %32

31:                                               ; preds = %25, %22, %21, %2
  br label %32

32:                                               ; preds = %31, %25
  %33 = phi ptr [ null, %31 ], [ %30, %25 ]
  store ptr %33, ptr %0, align 8, !tbaa !43, !alias.scope !46
  ret void
}

; Function Attrs: mustprogress nofree norecurse nosync nounwind sspstrong willreturn memory(argmem: read) uwtable
define noundef nonnull align 8 dereferenceable(16) ptr @_ZNK5osgeo4proj9operation19CoordinateOperation16interpolationCRSEv(ptr noundef nonnull readonly align 8 captures(none) dereferenceable(72) %0) local_unnamed_addr #12 align 2 {
  %2 = getelementptr inbounds nuw i8, ptr %0, i64 64
  %3 = load ptr, ptr %2, align 8, !tbaa !28
  %4 = getelementptr inbounds nuw i8, ptr %3, i64 96
  ret ptr %4
}

; Function Attrs: mustprogress nofree norecurse nosync nounwind sspstrong willreturn memory(read, inaccessiblemem: none) uwtable
define noundef nonnull align 8 dereferenceable(16) ptr @_ZNK5osgeo4proj9operation19CoordinateOperation21sourceCoordinateEpochEv(ptr noundef nonnull readonly align 8 captures(none) dereferenceable(72) %0) local_unnamed_addr #14 align 2 personality ptr @__gxx_personality_v0 {
  %2 = getelementptr inbounds nuw i8, ptr %0, i64 64
  %3 = load ptr, ptr %2, align 8, !tbaa !28
  %4 = getelementptr inbounds nuw i8, ptr %3, i64 112
  %5 = load ptr, ptr %4, align 8, !tbaa !49
  ret ptr %5
}

; Function Attrs: mustprogress nofree norecurse nosync nounwind sspstrong willreturn memory(read, inaccessiblemem: none) uwtable
define noundef nonnull align 8 dereferenceable(16) ptr @_ZNK5osgeo4proj9operation19CoordinateOperation21targetCoordinateEpochEv(ptr noundef nonnull readonly align 8 captures(none) dereferenceable(72) %0) local_unnamed_addr #14 align 2 personality ptr @__gxx_personality_v0 {
  %2 = getelementptr inbounds nuw i8, ptr %0, i64 64
  %3 = load ptr, ptr %2, align 8, !tbaa !28
  %4 = getelementptr inbounds nuw i8, ptr %3, i64 128
  %5 = load ptr, ptr %4, align 8, !tbaa !49
  ret ptr %5
}

; Function Attrs: mustprogress nounwind sspstrong uwtable
define hidden void @_ZN5osgeo4proj9operation19CoordinateOperation22setWeakSourceTargetCRSESt8weak_ptrINS0_3crs3CRSEES6_(ptr noundef nonnull readonly align 8 captures(none) dereferenceable(72) %0, ptr noundef captures(none) %1, ptr noundef captures(none) %2) local_unnamed_addr #1 align 2 personality ptr @__gxx_personality_v0 {
  %4 = getelementptr inbounds nuw i8, ptr %0, i64 64
  %5 = load ptr, ptr %4, align 8, !tbaa !28
  %6 = getelementptr inbounds nuw i8, ptr %5, i64 64
  %7 = load ptr, ptr %1, align 8, !tbaa !52
  %8 = getelementptr inbounds nuw i8, ptr %1, i64 8
  %9 = load ptr, ptr %8, align 8, !tbaa !36
  tail call void @llvm.memset.p0.i64(ptr noundef nonnull align 8 dereferenceable(16) %1, i8 0, i64 16, i1 false)
  store ptr %7, ptr %6, align 8, !tbaa !54
  %10 = getelementptr inbounds nuw i8, ptr %5, i64 72
  %11 = load ptr, ptr %10, align 8, !tbaa !36
  store ptr %9, ptr %10, align 8, !tbaa !36
  %12 = icmp eq ptr %11, null
  br i1 %12, label %29, label %13

13:                                               ; preds = %3
  %14 = getelementptr inbounds nuw i8, ptr %11, i64 12
  %15 = load i8, ptr @__libc_single_threaded, align 1, !tbaa !15
  %16 = icmp eq i8 %15, 0
  br i1 %16, label %20, label %17

17:                                               ; preds = %13
  %18 = load i32, ptr %14, align 4, !tbaa !55
  %19 = add nsw i32 %18, -1
  store i32 %19, ptr %14, align 4, !tbaa !55
  br label %22

20:                                               ; preds = %13
  %21 = atomicrmw volatile add ptr %14, i32 -1 acq_rel, align 4
  br label %22

22:                                               ; preds = %20, %17
  %23 = phi i32 [ %18, %17 ], [ %21, %20 ]
  %24 = icmp eq i32 %23, 1
  br i1 %24, label %25, label %29

25:                                               ; preds = %22
  %26 = load ptr, ptr %11, align 8, !tbaa !4
  %27 = getelementptr inbounds nuw i8, ptr %26, i64 24
  %28 = load ptr, ptr %27, align 8
  tail call void %28(ptr noundef nonnull align 8 dereferenceable(16) %11) #45
  br label %29

29:                                               ; preds = %25, %22, %3
  %30 = load ptr, ptr %4, align 8, !tbaa !28
  %31 = getelementptr inbounds nuw i8, ptr %30, i64 80
  %32 = load ptr, ptr %2, align 8, !tbaa !52
  %33 = getelementptr inbounds nuw i8, ptr %2, i64 8
  %34 = load ptr, ptr %33, align 8, !tbaa !36
  tail call void @llvm.memset.p0.i64(ptr noundef nonnull align 8 dereferenceable(16) %2, i8 0, i64 16, i1 false)
  store ptr %32, ptr %31, align 8, !tbaa !54
  %35 = getelementptr inbounds nuw i8, ptr %30, i64 88
  %36 = load ptr, ptr %35, align 8, !tbaa !36
  store ptr %34, ptr %35, align 8, !tbaa !36
  %37 = icmp eq ptr %36, null
  br i1 %37, label %54, label %38

38:                                               ; preds = %29
  %39 = getelementptr inbounds nuw i8, ptr %36, i64 12
  %40 = load i8, ptr @__libc_single_threaded, align 1, !tbaa !15
  %41 = icmp eq i8 %40, 0
  br i1 %41, label %45, label %42

42:                                               ; preds = %38
  %43 = load i32, ptr %39, align 4, !tbaa !55
  %44 = add nsw i32 %43, -1
  store i32 %44, ptr %39, align 4, !tbaa !55
  br label %47

45:                                               ; preds = %38
  %46 = atomicrmw volatile add ptr %39, i32 -1 acq_rel, align 4
  br label %47

47:                                               ; preds = %45, %42
  %48 = phi i32 [ %43, %42 ], [ %46, %45 ]
  %49 = icmp eq i32 %48, 1
  br i1 %49, label %50, label %54

50:                                               ; preds = %47
  %51 = load ptr, ptr %36, align 8, !tbaa !4
  %52 = getelementptr inbounds nuw i8, ptr %51, i64 24
  %53 = load ptr, ptr %52, align 8
  tail call void %53(ptr noundef nonnull align 8 dereferenceable(16) %36) #45
  br label %54

54:                                               ; preds = %50, %47, %29
  ret void
}

; Function Attrs: mustprogress sspstrong uwtable
define hidden void @_ZN5osgeo4proj9operation19CoordinateOperation7setCRSsERKN7dropbox6oxygen2nnISt10shared_ptrINS0_3crs3CRSEEEESC_RKS9_(ptr noundef nonnull readonly align 8 captures(none) dereferenceable(72) %0, ptr noundef nonnull readonly align 8 captures(none) dereferenceable(16) %1, ptr noundef nonnull readonly align 8 captures(none) dereferenceable(16) %2, ptr noundef nonnull readonly align 8 captures(none) dereferenceable(16) %3) local_unnamed_addr #0 align 2 personality ptr @__gxx_personality_v0 {
  %5 = tail call noalias noundef nonnull dereferenceable(32) ptr @_Znwm(i64 noundef 32) #47, !noalias !57
  %6 = load ptr, ptr %1, align 8, !tbaa !43, !noalias !57
  store ptr %6, ptr %5, align 8, !tbaa !43, !noalias !57
  %7 = getelementptr inbounds nuw i8, ptr %5, i64 8
  %8 = getelementptr inbounds nuw i8, ptr %1, i64 8
  %9 = load ptr, ptr %8, align 8, !tbaa !39, !noalias !57
  store ptr %9, ptr %7, align 8, !tbaa !39, !noalias !57
  %10 = icmp eq ptr %9, null
  br i1 %10, label %20, label %11

11:                                               ; preds = %4
  %12 = getelementptr inbounds nuw i8, ptr %9, i64 8
  %13 = load i8, ptr @__libc_single_threaded, align 1, !tbaa !15, !noalias !57
  %14 = icmp eq i8 %13, 0
  br i1 %14, label %18, label %15

15:                                               ; preds = %11
  %16 = load i32, ptr %12, align 4, !tbaa !55, !noalias !57
  %17 = add nsw i32 %16, 1
  store i32 %17, ptr %12, align 4, !tbaa !55, !noalias !57
  br label %20

18:                                               ; preds = %11
  %19 = atomicrmw volatile add ptr %12, i32 1 acq_rel, align 4, !noalias !57
  br label %20

20:                                               ; preds = %18, %15, %4
  %21 = getelementptr inbounds nuw i8, ptr %5, i64 16
  %22 = load ptr, ptr %2, align 8, !tbaa !43, !noalias !57
  store ptr %22, ptr %21, align 8, !tbaa !43, !noalias !57
  %23 = getelementptr inbounds nuw i8, ptr %5, i64 24
  %24 = getelementptr inbounds nuw i8, ptr %2, i64 8
  %25 = load ptr, ptr %24, align 8, !tbaa !39, !noalias !57
  store ptr %25, ptr %23, align 8, !tbaa !39, !noalias !57
  %26 = icmp eq ptr %25, null
  br i1 %26, label %36, label %27

27:                                               ; preds = %20
  %28 = getelementptr inbounds nuw i8, ptr %25, i64 8
  %29 = load i8, ptr @__libc_single_threaded, align 1, !tbaa !15, !noalias !57
  %30 = icmp eq i8 %29, 0
  br i1 %30, label %34, label %31

31:                                               ; preds = %27
  %32 = load i32, ptr %28, align 4, !tbaa !55, !noalias !57
  %33 = add nsw i32 %32, 1
  store i32 %33, ptr %28, align 4, !tbaa !55, !noalias !57
  br label %36

34:                                               ; preds = %27
  %35 = atomicrmw volatile add ptr %28, i32 1 acq_rel, align 4, !noalias !57
  br label %36

36:                                               ; preds = %34, %31, %20
  %37 = getelementptr inbounds nuw i8, ptr %0, i64 64
  %38 = load ptr, ptr %37, align 8, !tbaa !28
  %39 = getelementptr inbounds nuw i8, ptr %38, i64 152
  %40 = load ptr, ptr %39, align 8, !tbaa !60
  store ptr %5, ptr %39, align 8, !tbaa !60
  %41 = icmp eq ptr %40, null
  br i1 %41, label %44, label %42

42:                                               ; preds = %36
  tail call void @_ZNKSt14default_deleteIN5osgeo4proj9operation19CoordinateOperation7Private12CRSStrongRefEEclEPS5_(ptr noundef nonnull align 8 dereferenceable(8) %39, ptr noundef nonnull %40)
  %43 = load ptr, ptr %37, align 8, !tbaa !28
  br label %44

44:                                               ; preds = %42, %36
  %45 = phi ptr [ %43, %42 ], [ %38, %36 ]
  %46 = getelementptr inbounds nuw i8, ptr %45, i64 64
  %47 = load ptr, ptr %1, align 8, !tbaa !43
  store ptr %47, ptr %46, align 8, !tbaa !52
  %48 = getelementptr inbounds nuw i8, ptr %45, i64 72
  %49 = load ptr, ptr %8, align 8, !tbaa !39
  %50 = icmp eq ptr %49, null
  br i1 %50, label %60, label %51

51:                                               ; preds = %44
  %52 = getelementptr inbounds nuw i8, ptr %49, i64 12
  %53 = load i8, ptr @__libc_single_threaded, align 1, !tbaa !15
  %54 = icmp eq i8 %53, 0
  br i1 %54, label %58, label %55

55:                                               ; preds = %51
  %56 = load i32, ptr %52, align 4, !tbaa !55
  %57 = add nsw i32 %56, 1
  store i32 %57, ptr %52, align 4, !tbaa !55
  br label %60

58:                                               ; preds = %51
  %59 = atomicrmw volatile add ptr %52, i32 1 acq_rel, align 4
  br label %60

60:                                               ; preds = %58, %55, %44
  %61 = load ptr, ptr %48, align 8, !tbaa !36
  %62 = icmp eq ptr %61, null
  br i1 %62, label %79, label %63

63:                                               ; preds = %60
  %64 = getelementptr inbounds nuw i8, ptr %61, i64 12
  %65 = load i8, ptr @__libc_single_threaded, align 1, !tbaa !15
  %66 = icmp eq i8 %65, 0
  br i1 %66, label %70, label %67

67:                                               ; preds = %63
  %68 = load i32, ptr %64, align 4, !tbaa !55
  %69 = add nsw i32 %68, -1
  store i32 %69, ptr %64, align 4, !tbaa !55
  br label %72

70:                                               ; preds = %63
  %71 = atomicrmw volatile add ptr %64, i32 -1 acq_rel, align 4
  br label %72

72:                                               ; preds = %70, %67
  %73 = phi i32 [ %68, %67 ], [ %71, %70 ]
  %74 = icmp eq i32 %73, 1
  br i1 %74, label %75, label %79

75:                                               ; preds = %72
  %76 = load ptr, ptr %61, align 8, !tbaa !4
  %77 = getelementptr inbounds nuw i8, ptr %76, i64 24
  %78 = load ptr, ptr %77, align 8
  tail call void %78(ptr noundef nonnull align 8 dereferenceable(16) %61) #45
  br label %79

79:                                               ; preds = %75, %72, %60
  store ptr %49, ptr %48, align 8, !tbaa !36
  %80 = load ptr, ptr %37, align 8, !tbaa !28
  %81 = getelementptr inbounds nuw i8, ptr %80, i64 80
  %82 = load ptr, ptr %2, align 8, !tbaa !43
  store ptr %82, ptr %81, align 8, !tbaa !52
  %83 = getelementptr inbounds nuw i8, ptr %80, i64 88
  %84 = load ptr, ptr %24, align 8, !tbaa !39
  %85 = icmp eq ptr %84, null
  br i1 %85, label %95, label %86

86:                                               ; preds = %79
  %87 = getelementptr inbounds nuw i8, ptr %84, i64 12
  %88 = load i8, ptr @__libc_single_threaded, align 1, !tbaa !15
  %89 = icmp eq i8 %88, 0
  br i1 %89, label %93, label %90

90:                                               ; preds = %86
  %91 = load i32, ptr %87, align 4, !tbaa !55
  %92 = add nsw i32 %91, 1
  store i32 %92, ptr %87, align 4, !tbaa !55
  br label %95

93:                                               ; preds = %86
  %94 = atomicrmw volatile add ptr %87, i32 1 acq_rel, align 4
  br label %95

95:                                               ; preds = %93, %90, %79
  %96 = load ptr, ptr %83, align 8, !tbaa !36
  %97 = icmp eq ptr %96, null
  br i1 %97, label %114, label %98

98:                                               ; preds = %95
  %99 = getelementptr inbounds nuw i8, ptr %96, i64 12
  %100 = load i8, ptr @__libc_single_threaded, align 1, !tbaa !15
  %101 = icmp eq i8 %100, 0
  br i1 %101, label %105, label %102

102:                                              ; preds = %98
  %103 = load i32, ptr %99, align 4, !tbaa !55
  %104 = add nsw i32 %103, -1
  store i32 %104, ptr %99, align 4, !tbaa !55
  br label %107

105:                                              ; preds = %98
  %106 = atomicrmw volatile add ptr %99, i32 -1 acq_rel, align 4
  br label %107

107:                                              ; preds = %105, %102
  %108 = phi i32 [ %103, %102 ], [ %106, %105 ]
  %109 = icmp eq i32 %108, 1
  br i1 %109, label %110, label %114

110:                                              ; preds = %107
  %111 = load ptr, ptr %96, align 8, !tbaa !4
  %112 = getelementptr inbounds nuw i8, ptr %111, i64 24
  %113 = load ptr, ptr %112, align 8
  tail call void %113(ptr noundef nonnull align 8 dereferenceable(16) %96) #45
  br label %114

114:                                              ; preds = %110, %107, %95
  store ptr %84, ptr %83, align 8, !tbaa !36
  %115 = load ptr, ptr %37, align 8, !tbaa !28
  %116 = getelementptr inbounds nuw i8, ptr %115, i64 96
  %117 = load ptr, ptr %3, align 8, !tbaa !43
  store ptr %117, ptr %116, align 8, !tbaa !43
  %118 = getelementptr inbounds nuw i8, ptr %115, i64 104
  %119 = getelementptr inbounds nuw i8, ptr %3, i64 8
  %120 = load ptr, ptr %119, align 8, !tbaa !39
  %121 = load ptr, ptr %118, align 8, !tbaa !39
  %122 = icmp eq ptr %120, %121
  br i1 %122, label %163, label %123

123:                                              ; preds = %114
  %124 = icmp eq ptr %120, null
  br i1 %124, label %135, label %125

125:                                              ; preds = %123
  %126 = getelementptr inbounds nuw i8, ptr %120, i64 8
  %127 = load i8, ptr @__libc_single_threaded, align 1, !tbaa !15
  %128 = icmp eq i8 %127, 0
  br i1 %128, label %132, label %129

129:                                              ; preds = %125
  %130 = load i32, ptr %126, align 4, !tbaa !55
  %131 = add nsw i32 %130, 1
  store i32 %131, ptr %126, align 4, !tbaa !55
  br label %135

132:                                              ; preds = %125
  %133 = atomicrmw volatile add ptr %126, i32 1 acq_rel, align 4
  %134 = load ptr, ptr %118, align 8, !tbaa !39
  br label %135

135:                                              ; preds = %132, %129, %123
  %136 = phi ptr [ %121, %123 ], [ %121, %129 ], [ %134, %132 ]
  %137 = icmp eq ptr %136, null
  br i1 %137, label %162, label %138

138:                                              ; preds = %135
  %139 = getelementptr inbounds nuw i8, ptr %136, i64 8
  %140 = load atomic i64, ptr %139 acquire, align 8
  %141 = icmp eq i64 %140, 4294967297
  %142 = trunc i64 %140 to i32
  br i1 %141, label %143, label %151

143:                                              ; preds = %138
  store i32 0, ptr %139, align 8, !tbaa !62
  %144 = getelementptr inbounds nuw i8, ptr %136, i64 12
  store i32 0, ptr %144, align 4, !tbaa !64
  %145 = load ptr, ptr %136, align 8, !tbaa !4
  %146 = getelementptr inbounds nuw i8, ptr %145, i64 16
  %147 = load ptr, ptr %146, align 8
  tail call void %147(ptr noundef nonnull align 8 dereferenceable(16) %136) #45
  %148 = load ptr, ptr %136, align 8, !tbaa !4
  %149 = getelementptr inbounds nuw i8, ptr %148, i64 24
  %150 = load ptr, ptr %149, align 8
  tail call void %150(ptr noundef nonnull align 8 dereferenceable(16) %136) #45
  br label %162

151:                                              ; preds = %138
  %152 = load i8, ptr @__libc_single_threaded, align 1, !tbaa !15
  %153 = icmp eq i8 %152, 0
  br i1 %153, label %156, label %154

154:                                              ; preds = %151
  %155 = add nsw i32 %142, -1
  store i32 %155, ptr %139, align 4, !tbaa !55
  br label %158

156:                                              ; preds = %151
  %157 = atomicrmw volatile add ptr %139, i32 -1 acq_rel, align 4
  br label %158

158:                                              ; preds = %156, %154
  %159 = phi i32 [ %142, %154 ], [ %157, %156 ]
  %160 = icmp eq i32 %159, 1
  br i1 %160, label %161, label %162, !prof !65

161:                                              ; preds = %158
  tail call void @_ZNSt16_Sp_counted_baseILN9__gnu_cxx12_Lock_policyE2EE24_M_release_last_use_coldEv(ptr noundef nonnull align 8 dereferenceable(16) %136) #45
  br label %162

162:                                              ; preds = %161, %158, %143, %135
  store ptr %120, ptr %118, align 8, !tbaa !39
  br label %163

163:                                              ; preds = %162, %114
  ret void
}

; Function Attrs: mustprogress sspstrong uwtable
define hidden void @_ZN5osgeo4proj9operation19CoordinateOperation20setCRSsUpdateInverseERKN7dropbox6oxygen2nnISt10shared_ptrINS0_3crs3CRSEEEESC_RKS9_(ptr noundef nonnull align 8 dereferenceable(72) %0, ptr noundef nonnull readonly align 8 captures(none) dereferenceable(16) %1, ptr noundef nonnull readonly align 8 captures(none) dereferenceable(16) %2, ptr noundef nonnull readonly align 8 captures(none) dereferenceable(16) %3) local_unnamed_addr #0 align 2 personality ptr @__gxx_personality_v0 {
  %5 = alloca %"class.dropbox::oxygen::nn.53", align 8
  %6 = alloca %"class.std::shared_ptr", align 8
  %7 = alloca %"class.dropbox::oxygen::nn", align 8
  %8 = alloca %"class.std::shared_ptr", align 8
  %9 = alloca %"class.dropbox::oxygen::nn", align 8
  tail call void @_ZN5osgeo4proj9operation19CoordinateOperation7setCRSsERKN7dropbox6oxygen2nnISt10shared_ptrINS0_3crs3CRSEEEESC_RKS9_(ptr noundef nonnull align 8 dereferenceable(72) %0, ptr noundef nonnull align 8 dereferenceable(16) %1, ptr noundef nonnull align 8 dereferenceable(16) %2, ptr noundef nonnull align 8 dereferenceable(16) %3)
  %10 = tail call ptr @__dynamic_cast(ptr nonnull %0, ptr nonnull @_ZTIN5osgeo4proj9operation19CoordinateOperationE, ptr nonnull @_ZTIN5osgeo4proj9operation26InverseCoordinateOperationE, i64 -1) #45
  %11 = icmp eq ptr %10, null
  br i1 %11, label %15, label %12

12:                                               ; preds = %4
  %13 = getelementptr inbounds nuw i8, ptr %10, i64 8
  %14 = load ptr, ptr %13, align 8, !tbaa !66
  tail call void @_ZN5osgeo4proj9operation19CoordinateOperation7setCRSsERKN7dropbox6oxygen2nnISt10shared_ptrINS0_3crs3CRSEEEESC_RKS9_(ptr noundef nonnull align 8 dereferenceable(72) %14, ptr noundef nonnull align 8 dereferenceable(16) %2, ptr noundef nonnull align 8 dereferenceable(16) %1, ptr noundef nonnull align 8 dereferenceable(16) %3)
  br label %15

15:                                               ; preds = %12, %4
  %16 = tail call ptr @__dynamic_cast(ptr nonnull %0, ptr nonnull @_ZTIN5osgeo4proj9operation19CoordinateOperationE, ptr nonnull @_ZTIN5osgeo4proj9operation14TransformationE, i64 -1) #45
  %17 = icmp eq ptr %16, null
  br i1 %17, label %55, label %18

18:                                               ; preds = %15
  call void @llvm.lifetime.start.p0(ptr %5)
  call void @_ZNK5osgeo4proj9operation14Transformation23inverseAsTransformationEv(ptr dead_on_unwind nonnull writable sret(%"class.dropbox::oxygen::nn.53") align 8 %5, ptr noundef nonnull align 8 dereferenceable(24) %16)
  %19 = load ptr, ptr %5, align 8, !tbaa !69
  %20 = load ptr, ptr %19, align 8, !tbaa !4
  %21 = getelementptr i8, ptr %20, i64 -24
  %22 = load i64, ptr %21, align 8
  %23 = getelementptr inbounds i8, ptr %19, i64 %22
  invoke void @_ZN5osgeo4proj9operation19CoordinateOperation7setCRSsERKN7dropbox6oxygen2nnISt10shared_ptrINS0_3crs3CRSEEEESC_RKS9_(ptr noundef nonnull align 8 dereferenceable(72) %23, ptr noundef nonnull align 8 dereferenceable(16) %2, ptr noundef nonnull align 8 dereferenceable(16) %1, ptr noundef nonnull align 8 dereferenceable(16) %3)
          to label %24 unwind label %53

24:                                               ; preds = %18
  %25 = getelementptr inbounds nuw i8, ptr %5, i64 8
  %26 = load ptr, ptr %25, align 8, !tbaa !39
  %27 = icmp eq ptr %26, null
  br i1 %27, label %52, label %28

28:                                               ; preds = %24
  %29 = getelementptr inbounds nuw i8, ptr %26, i64 8
  %30 = load atomic i64, ptr %29 acquire, align 8
  %31 = icmp eq i64 %30, 4294967297
  %32 = trunc i64 %30 to i32
  br i1 %31, label %33, label %41

33:                                               ; preds = %28
  store i32 0, ptr %29, align 8, !tbaa !62
  %34 = getelementptr inbounds nuw i8, ptr %26, i64 12
  store i32 0, ptr %34, align 4, !tbaa !64
  %35 = load ptr, ptr %26, align 8, !tbaa !4
  %36 = getelementptr inbounds nuw i8, ptr %35, i64 16
  %37 = load ptr, ptr %36, align 8
  call void %37(ptr noundef nonnull align 8 dereferenceable(16) %26) #45
  %38 = load ptr, ptr %26, align 8, !tbaa !4
  %39 = getelementptr inbounds nuw i8, ptr %38, i64 24
  %40 = load ptr, ptr %39, align 8
  call void %40(ptr noundef nonnull align 8 dereferenceable(16) %26) #45
  br label %52

41:                                               ; preds = %28
  %42 = load i8, ptr @__libc_single_threaded, align 1, !tbaa !15
  %43 = icmp eq i8 %42, 0
  br i1 %43, label %46, label %44

44:                                               ; preds = %41
  %45 = add nsw i32 %32, -1
  store i32 %45, ptr %29, align 4, !tbaa !55
  br label %48

46:                                               ; preds = %41
  %47 = atomicrmw volatile add ptr %29, i32 -1 acq_rel, align 4
  br label %48

48:                                               ; preds = %46, %44
  %49 = phi i32 [ %32, %44 ], [ %47, %46 ]
  %50 = icmp eq i32 %49, 1
  br i1 %50, label %51, label %52, !prof !65

51:                                               ; preds = %48
  call void @_ZNSt16_Sp_counted_baseILN9__gnu_cxx12_Lock_policyE2EE24_M_release_last_use_coldEv(ptr noundef nonnull align 8 dereferenceable(16) %26) #45
  br label %52

52:                                               ; preds = %51, %48, %33, %24
  call void @llvm.lifetime.end.p0(ptr %5)
  br label %55

53:                                               ; preds = %18
  %54 = landingpad { ptr, i32 }
          cleanup
  call void @_ZN7dropbox6oxygen2nnISt10shared_ptrIN5osgeo4proj9operation14TransformationEEED2Ev(ptr noundef nonnull align 8 dereferenceable(16) %5) #45
  call void @llvm.lifetime.end.p0(ptr %5)
  br label %276

55:                                               ; preds = %52, %15
  %56 = load ptr, ptr %0, align 8, !tbaa !4
  %57 = icmp eq ptr %56, getelementptr inbounds nuw inrange(-16, 80) (i8, ptr @_ZTVN5osgeo4proj9operation21ConcatenatedOperationE, i64 16)
  br i1 %57, label %58, label %275

58:                                               ; preds = %55
  %59 = call noundef nonnull align 8 dereferenceable(24) ptr @_ZNK5osgeo4proj9operation21ConcatenatedOperation10operationsEv(ptr noundef nonnull align 8 dereferenceable(80) %0)
  %60 = load ptr, ptr %59, align 8, !tbaa !72
  %61 = load ptr, ptr %60, align 8, !tbaa !66
  call void @llvm.lifetime.start.p0(ptr %6)
  call void @llvm.experimental.noalias.scope.decl(metadata !74)
  %62 = getelementptr inbounds nuw i8, ptr %61, i64 64
  %63 = load ptr, ptr %62, align 8, !tbaa !28, !noalias !74
  %64 = getelementptr inbounds nuw i8, ptr %63, i64 80
  call void @llvm.experimental.noalias.scope.decl(metadata !77)
  %65 = getelementptr inbounds nuw i8, ptr %6, i64 8
  %66 = getelementptr inbounds nuw i8, ptr %63, i64 88
  %67 = load ptr, ptr %66, align 8, !tbaa !36, !noalias !80
  store ptr %67, ptr %65, align 8, !tbaa !39, !alias.scope !80
  %68 = icmp eq ptr %67, null
  br i1 %68, label %90, label %69

69:                                               ; preds = %58
  %70 = getelementptr inbounds nuw i8, ptr %67, i64 8
  %71 = load atomic i32, ptr %70 monotonic, align 8, !noalias !80
  br label %72

72:                                               ; preds = %75, %69
  %73 = phi i32 [ %71, %69 ], [ %79, %75 ]
  %74 = icmp eq i32 %73, 0
  br i1 %74, label %80, label %75

75:                                               ; preds = %72
  %76 = add nsw i32 %73, 1
  %77 = cmpxchg weak ptr %70, i32 %73, i32 %76 acq_rel monotonic, align 8, !noalias !80
  %78 = extractvalue { i32, i1 } %77, 1
  %79 = extractvalue { i32, i1 } %77, 0
  br i1 %78, label %81, label %72, !llvm.loop !41

80:                                               ; preds = %72
  store ptr null, ptr %65, align 8, !tbaa !39, !alias.scope !80
  br label %90

81:                                               ; preds = %75
  %82 = load ptr, ptr %65, align 8, !tbaa !39, !alias.scope !80
  %83 = icmp eq ptr %82, null
  br i1 %83, label %90, label %84

84:                                               ; preds = %81
  %85 = getelementptr inbounds nuw i8, ptr %82, i64 8
  %86 = load atomic i32, ptr %85 monotonic, align 8, !noalias !80
  %87 = freeze i32 %86
  %88 = icmp eq i32 %87, 0
  %89 = load ptr, ptr %64, align 8, !noalias !80
  br i1 %88, label %90, label %91

90:                                               ; preds = %84, %81, %80, %58
  store ptr null, ptr %6, align 8, !tbaa !43, !alias.scope !80
  br label %134

91:                                               ; preds = %84
  store ptr %89, ptr %6, align 8, !tbaa !43, !alias.scope !80
  %92 = icmp eq ptr %89, null
  br i1 %92, label %134, label %93

93:                                               ; preds = %91
  call void @llvm.lifetime.start.p0(ptr %7)
  store ptr %89, ptr %7, align 8, !tbaa !43
  %94 = getelementptr inbounds nuw i8, ptr %7, i64 8
  store ptr %82, ptr %94, align 8, !tbaa !39
  %95 = load i8, ptr @__libc_single_threaded, align 1, !tbaa !15
  %96 = icmp eq i8 %95, 0
  br i1 %96, label %99, label %97

97:                                               ; preds = %93
  %98 = add nsw i32 %87, 1
  store i32 %98, ptr %85, align 4, !tbaa !55
  br label %101

99:                                               ; preds = %93
  %100 = atomicrmw volatile add ptr %85, i32 1 acq_rel, align 4
  br label %101

101:                                              ; preds = %99, %97
  %102 = load ptr, ptr %62, align 8, !tbaa !28
  %103 = getelementptr inbounds nuw i8, ptr %102, i64 96
  invoke void @_ZN5osgeo4proj9operation19CoordinateOperation20setCRSsUpdateInverseERKN7dropbox6oxygen2nnISt10shared_ptrINS0_3crs3CRSEEEESC_RKS9_(ptr noundef nonnull align 8 dereferenceable(72) %61, ptr noundef nonnull align 8 dereferenceable(16) %1, ptr noundef nonnull align 8 dereferenceable(16) %7, ptr noundef nonnull align 8 dereferenceable(16) %103)
          to label %104 unwind label %132

104:                                              ; preds = %101
  %105 = load ptr, ptr %94, align 8, !tbaa !39
  %106 = icmp eq ptr %105, null
  br i1 %106, label %131, label %107

107:                                              ; preds = %104
  %108 = getelementptr inbounds nuw i8, ptr %105, i64 8
  %109 = load atomic i64, ptr %108 acquire, align 8
  %110 = icmp eq i64 %109, 4294967297
  %111 = trunc i64 %109 to i32
  br i1 %110, label %112, label %120

112:                                              ; preds = %107
  store i32 0, ptr %108, align 8, !tbaa !62
  %113 = getelementptr inbounds nuw i8, ptr %105, i64 12
  store i32 0, ptr %113, align 4, !tbaa !64
  %114 = load ptr, ptr %105, align 8, !tbaa !4
  %115 = getelementptr inbounds nuw i8, ptr %114, i64 16
  %116 = load ptr, ptr %115, align 8
  call void %116(ptr noundef nonnull align 8 dereferenceable(16) %105) #45
  %117 = load ptr, ptr %105, align 8, !tbaa !4
  %118 = getelementptr inbounds nuw i8, ptr %117, i64 24
  %119 = load ptr, ptr %118, align 8
  call void %119(ptr noundef nonnull align 8 dereferenceable(16) %105) #45
  br label %131

120:                                              ; preds = %107
  %121 = load i8, ptr @__libc_single_threaded, align 1, !tbaa !15
  %122 = icmp eq i8 %121, 0
  br i1 %122, label %125, label %123

123:                                              ; preds = %120
  %124 = add nsw i32 %111, -1
  store i32 %124, ptr %108, align 4, !tbaa !55
  br label %127

125:                                              ; preds = %120
  %126 = atomicrmw volatile add ptr %108, i32 -1 acq_rel, align 4
  br label %127

127:                                              ; preds = %125, %123
  %128 = phi i32 [ %111, %123 ], [ %126, %125 ]
  %129 = icmp eq i32 %128, 1
  br i1 %129, label %130, label %131, !prof !65

130:                                              ; preds = %127
  call void @_ZNSt16_Sp_counted_baseILN9__gnu_cxx12_Lock_policyE2EE24_M_release_last_use_coldEv(ptr noundef nonnull align 8 dereferenceable(16) %105) #45
  br label %131

131:                                              ; preds = %130, %127, %112, %104
  call void @llvm.lifetime.end.p0(ptr %7)
  br label %134

132:                                              ; preds = %101
  %133 = landingpad { ptr, i32 }
          cleanup
  call void @_ZN7dropbox6oxygen2nnISt10shared_ptrIN5osgeo4proj3crs3CRSEEED2Ev(ptr noundef nonnull align 8 dereferenceable(16) %7) #45
  call void @llvm.lifetime.end.p0(ptr %7)
  br label %273

134:                                              ; preds = %131, %91, %90
  %135 = invoke noundef nonnull align 8 dereferenceable(24) ptr @_ZNK5osgeo4proj9operation21ConcatenatedOperation10operationsEv(ptr noundef nonnull align 8 dereferenceable(80) %0)
          to label %136 unwind label %213

136:                                              ; preds = %134
  %137 = getelementptr inbounds nuw i8, ptr %135, i64 8
  %138 = load ptr, ptr %137, align 8, !tbaa !72
  %139 = getelementptr inbounds i8, ptr %138, i64 -16
  %140 = load ptr, ptr %139, align 8, !tbaa !66
  call void @llvm.lifetime.start.p0(ptr %8)
  call void @llvm.experimental.noalias.scope.decl(metadata !81)
  %141 = getelementptr inbounds nuw i8, ptr %140, i64 64
  %142 = load ptr, ptr %141, align 8, !tbaa !28, !noalias !81
  %143 = getelementptr inbounds nuw i8, ptr %142, i64 64
  call void @llvm.experimental.noalias.scope.decl(metadata !84)
  %144 = getelementptr inbounds nuw i8, ptr %8, i64 8
  %145 = getelementptr inbounds nuw i8, ptr %142, i64 72
  %146 = load ptr, ptr %145, align 8, !tbaa !36, !noalias !87
  store ptr %146, ptr %144, align 8, !tbaa !39, !alias.scope !87
  %147 = icmp eq ptr %146, null
  br i1 %147, label %169, label %148

148:                                              ; preds = %136
  %149 = getelementptr inbounds nuw i8, ptr %146, i64 8
  %150 = load atomic i32, ptr %149 monotonic, align 8, !noalias !87
  br label %151

151:                                              ; preds = %154, %148
  %152 = phi i32 [ %150, %148 ], [ %158, %154 ]
  %153 = icmp eq i32 %152, 0
  br i1 %153, label %159, label %154

154:                                              ; preds = %151
  %155 = add nsw i32 %152, 1
  %156 = cmpxchg weak ptr %149, i32 %152, i32 %155 acq_rel monotonic, align 8, !noalias !87
  %157 = extractvalue { i32, i1 } %156, 1
  %158 = extractvalue { i32, i1 } %156, 0
  br i1 %157, label %160, label %151, !llvm.loop !41

159:                                              ; preds = %151
  store ptr null, ptr %144, align 8, !tbaa !39, !alias.scope !87
  br label %169

160:                                              ; preds = %154
  %161 = load ptr, ptr %144, align 8, !tbaa !39, !alias.scope !87
  %162 = icmp eq ptr %161, null
  br i1 %162, label %169, label %163

163:                                              ; preds = %160
  %164 = getelementptr inbounds nuw i8, ptr %161, i64 8
  %165 = load atomic i32, ptr %164 monotonic, align 8, !noalias !87
  %166 = freeze i32 %165
  %167 = icmp eq i32 %166, 0
  %168 = load ptr, ptr %143, align 8, !noalias !87
  br i1 %167, label %169, label %171

169:                                              ; preds = %163, %160, %159, %136
  %170 = phi ptr [ null, %136 ], [ null, %159 ], [ null, %160 ], [ %161, %163 ]
  store ptr null, ptr %8, align 8, !tbaa !43, !alias.scope !87
  br label %217

171:                                              ; preds = %163
  store ptr %168, ptr %8, align 8, !tbaa !43, !alias.scope !87
  %172 = icmp eq ptr %168, null
  br i1 %172, label %220, label %173

173:                                              ; preds = %171
  call void @llvm.lifetime.start.p0(ptr %9)
  store ptr %168, ptr %9, align 8, !tbaa !43
  %174 = getelementptr inbounds nuw i8, ptr %9, i64 8
  store ptr %161, ptr %174, align 8, !tbaa !39
  %175 = load i8, ptr @__libc_single_threaded, align 1, !tbaa !15
  %176 = icmp eq i8 %175, 0
  br i1 %176, label %179, label %177

177:                                              ; preds = %173
  %178 = add nsw i32 %166, 1
  store i32 %178, ptr %164, align 4, !tbaa !55
  br label %181

179:                                              ; preds = %173
  %180 = atomicrmw volatile add ptr %164, i32 1 acq_rel, align 4
  br label %181

181:                                              ; preds = %179, %177
  %182 = load ptr, ptr %141, align 8, !tbaa !28
  %183 = getelementptr inbounds nuw i8, ptr %182, i64 96
  invoke void @_ZN5osgeo4proj9operation19CoordinateOperation20setCRSsUpdateInverseERKN7dropbox6oxygen2nnISt10shared_ptrINS0_3crs3CRSEEEESC_RKS9_(ptr noundef nonnull align 8 dereferenceable(72) %140, ptr noundef nonnull align 8 dereferenceable(16) %9, ptr noundef nonnull align 8 dereferenceable(16) %2, ptr noundef nonnull align 8 dereferenceable(16) %183)
          to label %184 unwind label %215

184:                                              ; preds = %181
  %185 = load ptr, ptr %174, align 8, !tbaa !39
  %186 = icmp eq ptr %185, null
  br i1 %186, label %211, label %187

187:                                              ; preds = %184
  %188 = getelementptr inbounds nuw i8, ptr %185, i64 8
  %189 = load atomic i64, ptr %188 acquire, align 8
  %190 = icmp eq i64 %189, 4294967297
  %191 = trunc i64 %189 to i32
  br i1 %190, label %192, label %200

192:                                              ; preds = %187
  store i32 0, ptr %188, align 8, !tbaa !62
  %193 = getelementptr inbounds nuw i8, ptr %185, i64 12
  store i32 0, ptr %193, align 4, !tbaa !64
  %194 = load ptr, ptr %185, align 8, !tbaa !4
  %195 = getelementptr inbounds nuw i8, ptr %194, i64 16
  %196 = load ptr, ptr %195, align 8
  call void %196(ptr noundef nonnull align 8 dereferenceable(16) %185) #45
  %197 = load ptr, ptr %185, align 8, !tbaa !4
  %198 = getelementptr inbounds nuw i8, ptr %197, i64 24
  %199 = load ptr, ptr %198, align 8
  call void %199(ptr noundef nonnull align 8 dereferenceable(16) %185) #45
  br label %211

200:                                              ; preds = %187
  %201 = load i8, ptr @__libc_single_threaded, align 1, !tbaa !15
  %202 = icmp eq i8 %201, 0
  br i1 %202, label %205, label %203

203:                                              ; preds = %200
  %204 = add nsw i32 %191, -1
  store i32 %204, ptr %188, align 4, !tbaa !55
  br label %207

205:                                              ; preds = %200
  %206 = atomicrmw volatile add ptr %188, i32 -1 acq_rel, align 4
  br label %207

207:                                              ; preds = %205, %203
  %208 = phi i32 [ %191, %203 ], [ %206, %205 ]
  %209 = icmp eq i32 %208, 1
  br i1 %209, label %210, label %211, !prof !65

210:                                              ; preds = %207
  call void @_ZNSt16_Sp_counted_baseILN9__gnu_cxx12_Lock_policyE2EE24_M_release_last_use_coldEv(ptr noundef nonnull align 8 dereferenceable(16) %185) #45
  br label %211

211:                                              ; preds = %210, %207, %192, %184
  call void @llvm.lifetime.end.p0(ptr %9)
  %212 = load ptr, ptr %144, align 8, !tbaa !39
  br label %217

213:                                              ; preds = %134
  %214 = landingpad { ptr, i32 }
          cleanup
  br label %273

215:                                              ; preds = %181
  %216 = landingpad { ptr, i32 }
          cleanup
  call void @_ZN7dropbox6oxygen2nnISt10shared_ptrIN5osgeo4proj3crs3CRSEEED2Ev(ptr noundef nonnull align 8 dereferenceable(16) %9) #45
  call void @llvm.lifetime.end.p0(ptr %9)
  call void @_ZNSt12__shared_ptrIN5osgeo4proj3crs3CRSELN9__gnu_cxx12_Lock_policyE2EED2Ev(ptr noundef nonnull align 8 dereferenceable(16) %8) #45
  call void @llvm.lifetime.end.p0(ptr %8)
  br label %273

217:                                              ; preds = %211, %169
  %218 = phi ptr [ %170, %169 ], [ %212, %211 ]
  %219 = icmp eq ptr %218, null
  br i1 %219, label %245, label %220

220:                                              ; preds = %217, %171
  %221 = phi ptr [ %218, %217 ], [ %161, %171 ]
  %222 = getelementptr inbounds nuw i8, ptr %221, i64 8
  %223 = load atomic i64, ptr %222 acquire, align 8
  %224 = icmp eq i64 %223, 4294967297
  %225 = trunc i64 %223 to i32
  br i1 %224, label %226, label %234

226:                                              ; preds = %220
  store i32 0, ptr %222, align 8, !tbaa !62
  %227 = getelementptr inbounds nuw i8, ptr %221, i64 12
  store i32 0, ptr %227, align 4, !tbaa !64
  %228 = load ptr, ptr %221, align 8, !tbaa !4
  %229 = getelementptr inbounds nuw i8, ptr %228, i64 16
  %230 = load ptr, ptr %229, align 8
  call void %230(ptr noundef nonnull align 8 dereferenceable(16) %221) #45
  %231 = load ptr, ptr %221, align 8, !tbaa !4
  %232 = getelementptr inbounds nuw i8, ptr %231, i64 24
  %233 = load ptr, ptr %232, align 8
  call void %233(ptr noundef nonnull align 8 dereferenceable(16) %221) #45
  br label %245

234:                                              ; preds = %220
  %235 = load i8, ptr @__libc_single_threaded, align 1, !tbaa !15
  %236 = icmp eq i8 %235, 0
  br i1 %236, label %239, label %237

237:                                              ; preds = %234
  %238 = add nsw i32 %225, -1
  store i32 %238, ptr %222, align 4, !tbaa !55
  br label %241

239:                                              ; preds = %234
  %240 = atomicrmw volatile add ptr %222, i32 -1 acq_rel, align 4
  br label %241

241:                                              ; preds = %239, %237
  %242 = phi i32 [ %225, %237 ], [ %240, %239 ]
  %243 = icmp eq i32 %242, 1
  br i1 %243, label %244, label %245, !prof !65

244:                                              ; preds = %241
  call void @_ZNSt16_Sp_counted_baseILN9__gnu_cxx12_Lock_policyE2EE24_M_release_last_use_coldEv(ptr noundef nonnull align 8 dereferenceable(16) %221) #45
  br label %245

245:                                              ; preds = %244, %241, %226, %217
  call void @llvm.lifetime.end.p0(ptr %8)
  %246 = load ptr, ptr %65, align 8, !tbaa !39
  %247 = icmp eq ptr %246, null
  br i1 %247, label %272, label %248

248:                                              ; preds = %245
  %249 = getelementptr inbounds nuw i8, ptr %246, i64 8
  %250 = load atomic i64, ptr %249 acquire, align 8
  %251 = icmp eq i64 %250, 4294967297
  %252 = trunc i64 %250 to i32
  br i1 %251, label %253, label %261

253:                                              ; preds = %248
  store i32 0, ptr %249, align 8, !tbaa !62
  %254 = getelementptr inbounds nuw i8, ptr %246, i64 12
  store i32 0, ptr %254, align 4, !tbaa !64
  %255 = load ptr, ptr %246, align 8, !tbaa !4
  %256 = getelementptr inbounds nuw i8, ptr %255, i64 16
  %257 = load ptr, ptr %256, align 8
  call void %257(ptr noundef nonnull align 8 dereferenceable(16) %246) #45
  %258 = load ptr, ptr %246, align 8, !tbaa !4
  %259 = getelementptr inbounds nuw i8, ptr %258, i64 24
  %260 = load ptr, ptr %259, align 8
  call void %260(ptr noundef nonnull align 8 dereferenceable(16) %246) #45
  br label %272

261:                                              ; preds = %248
  %262 = load i8, ptr @__libc_single_threaded, align 1, !tbaa !15
  %263 = icmp eq i8 %262, 0
  br i1 %263, label %266, label %264

264:                                              ; preds = %261
  %265 = add nsw i32 %252, -1
  store i32 %265, ptr %249, align 4, !tbaa !55
  br label %268

266:                                              ; preds = %261
  %267 = atomicrmw volatile add ptr %249, i32 -1 acq_rel, align 4
  br label %268

268:                                              ; preds = %266, %264
  %269 = phi i32 [ %252, %264 ], [ %267, %266 ]
  %270 = icmp eq i32 %269, 1
  br i1 %270, label %271, label %272, !prof !65

271:                                              ; preds = %268
  call void @_ZNSt16_Sp_counted_baseILN9__gnu_cxx12_Lock_policyE2EE24_M_release_last_use_coldEv(ptr noundef nonnull align 8 dereferenceable(16) %246) #45
  br label %272

272:                                              ; preds = %271, %268, %253, %245
  call void @llvm.lifetime.end.p0(ptr %6)
  br label %275

273:                                              ; preds = %215, %213, %132
  %274 = phi { ptr, i32 } [ %133, %132 ], [ %216, %215 ], [ %214, %213 ]
  call void @_ZNSt12__shared_ptrIN5osgeo4proj3crs3CRSELN9__gnu_cxx12_Lock_policyE2EED2Ev(ptr noundef nonnull align 8 dereferenceable(16) %6) #45
  call void @llvm.lifetime.end.p0(ptr %6)
  br label %276

275:                                              ; preds = %272, %55
  ret void

276:                                              ; preds = %273, %53
  %277 = phi { ptr, i32 } [ %274, %273 ], [ %54, %53 ]
  resume { ptr, i32 } %277
}

; Function Attrs: mustprogress nofree nounwind willreturn memory(read)
declare ptr @__dynamic_cast(ptr, ptr, ptr, i64) local_unnamed_addr #15

declare hidden void @_ZNK5osgeo4proj9operation14Transformation23inverseAsTransformationEv(ptr dead_on_unwind writable sret(%"class.dropbox::oxygen::nn.53") align 8, ptr noundef nonnull align 8 dereferenceable(24)) local_unnamed_addr #6

; Function Attrs: inlinehint mustprogress nounwind sspstrong uwtable
define linkonce_odr hidden void @_ZN7dropbox6oxygen2nnISt10shared_ptrIN5osgeo4proj9operation14TransformationEEED2Ev(ptr noundef nonnull align 8 dereferenceable(16) %0) unnamed_addr #16 comdat align 2 personality ptr @__gxx_personality_v0 {
  %2 = getelementptr inbounds nuw i8, ptr %0, i64 8
  %3 = load ptr, ptr %2, align 8, !tbaa !39
  %4 = icmp eq ptr %3, null
  br i1 %4, label %29, label %5

5:                                                ; preds = %1
  %6 = getelementptr inbounds nuw i8, ptr %3, i64 8
  %7 = load atomic i64, ptr %6 acquire, align 8
  %8 = icmp eq i64 %7, 4294967297
  %9 = trunc i64 %7 to i32
  br i1 %8, label %10, label %18

10:                                               ; preds = %5
  store i32 0, ptr %6, align 8, !tbaa !62
  %11 = getelementptr inbounds nuw i8, ptr %3, i64 12
  store i32 0, ptr %11, align 4, !tbaa !64
  %12 = load ptr, ptr %3, align 8, !tbaa !4
  %13 = getelementptr inbounds nuw i8, ptr %12, i64 16
  %14 = load ptr, ptr %13, align 8
  tail call void %14(ptr noundef nonnull align 8 dereferenceable(16) %3) #45
  %15 = load ptr, ptr %3, align 8, !tbaa !4
  %16 = getelementptr inbounds nuw i8, ptr %15, i64 24
  %17 = load ptr, ptr %16, align 8
  tail call void %17(ptr noundef nonnull align 8 dereferenceable(16) %3) #45
  br label %29

18:                                               ; preds = %5
  %19 = load i8, ptr @__libc_single_threaded, align 1, !tbaa !15
  %20 = icmp eq i8 %19, 0
  br i1 %20, label %23, label %21

21:                                               ; preds = %18
  %22 = add nsw i32 %9, -1
  store i32 %22, ptr %6, align 4, !tbaa !55
  br label %25

23:                                               ; preds = %18
  %24 = atomicrmw volatile add ptr %6, i32 -1 acq_rel, align 4
  br label %25

25:                                               ; preds = %23, %21
  %26 = phi i32 [ %9, %21 ], [ %24, %23 ]
  %27 = icmp eq i32 %26, 1
  br i1 %27, label %28, label %29, !prof !65

28:                                               ; preds = %25
  tail call void @_ZNSt16_Sp_counted_baseILN9__gnu_cxx12_Lock_policyE2EE24_M_release_last_use_coldEv(ptr noundef nonnull align 8 dereferenceable(16) %3) #45
  br label %29

29:                                               ; preds = %28, %25, %10, %1
  ret void
}

declare noundef nonnull align 8 dereferenceable(24) ptr @_ZNK5osgeo4proj9operation21ConcatenatedOperation10operationsEv(ptr noundef nonnull align 8 dereferenceable(80)) local_unnamed_addr #6

; Function Attrs: inlinehint mustprogress nounwind sspstrong uwtable
define linkonce_odr hidden void @_ZN7dropbox6oxygen2nnISt10shared_ptrIN5osgeo4proj3crs3CRSEEED2Ev(ptr noundef nonnull align 8 dereferenceable(16) %0) unnamed_addr #16 comdat align 2 personality ptr @__gxx_personality_v0 {
  %2 = getelementptr inbounds nuw i8, ptr %0, i64 8
  %3 = load ptr, ptr %2, align 8, !tbaa !39
  %4 = icmp eq ptr %3, null
  br i1 %4, label %29, label %5

5:                                                ; preds = %1
  %6 = getelementptr inbounds nuw i8, ptr %3, i64 8
  %7 = load atomic i64, ptr %6 acquire, align 8
  %8 = icmp eq i64 %7, 4294967297
  %9 = trunc i64 %7 to i32
  br i1 %8, label %10, label %18

10:                                               ; preds = %5
  store i32 0, ptr %6, align 8, !tbaa !62
  %11 = getelementptr inbounds nuw i8, ptr %3, i64 12
  store i32 0, ptr %11, align 4, !tbaa !64
  %12 = load ptr, ptr %3, align 8, !tbaa !4
  %13 = getelementptr inbounds nuw i8, ptr %12, i64 16
  %14 = load ptr, ptr %13, align 8
  tail call void %14(ptr noundef nonnull align 8 dereferenceable(16) %3) #45
  %15 = load ptr, ptr %3, align 8, !tbaa !4
  %16 = getelementptr inbounds nuw i8, ptr %15, i64 24
  %17 = load ptr, ptr %16, align 8
  tail call void %17(ptr noundef nonnull align 8 dereferenceable(16) %3) #45
  br label %29

18:                                               ; preds = %5
  %19 = load i8, ptr @__libc_single_threaded, align 1, !tbaa !15
  %20 = icmp eq i8 %19, 0
  br i1 %20, label %23, label %21

21:                                               ; preds = %18
  %22 = add nsw i32 %9, -1
  store i32 %22, ptr %6, align 4, !tbaa !55
  br label %25

23:                                               ; preds = %18
  %24 = atomicrmw volatile add ptr %6, i32 -1 acq_rel, align 4
  br label %25

25:                                               ; preds = %23, %21
  %26 = phi i32 [ %9, %21 ], [ %24, %23 ]
  %27 = icmp eq i32 %26, 1
  br i1 %27, label %28, label %29, !prof !65

28:                                               ; preds = %25
  tail call void @_ZNSt16_Sp_counted_baseILN9__gnu_cxx12_Lock_policyE2EE24_M_release_last_use_coldEv(ptr noundef nonnull align 8 dereferenceable(16) %3) #45
  br label %29

29:                                               ; preds = %28, %25, %10, %1
  ret void
}

; Function Attrs: mustprogress nounwind sspstrong uwtable
define linkonce_odr void @_ZNSt12__shared_ptrIN5osgeo4proj3crs3CRSELN9__gnu_cxx12_Lock_policyE2EED2Ev(ptr noundef nonnull align 8 dereferenceable(16) %0) unnamed_addr #1 comdat align 2 personality ptr @__gxx_personality_v0 {
  %2 = getelementptr inbounds nuw i8, ptr %0, i64 8
  %3 = load ptr, ptr %2, align 8, !tbaa !39
  %4 = icmp eq ptr %3, null
  br i1 %4, label %29, label %5

5:                                                ; preds = %1
  %6 = getelementptr inbounds nuw i8, ptr %3, i64 8
  %7 = load atomic i64, ptr %6 acquire, align 8
  %8 = icmp eq i64 %7, 4294967297
  %9 = trunc i64 %7 to i32
  br i1 %8, label %10, label %18

10:                                               ; preds = %5
  store i32 0, ptr %6, align 8, !tbaa !62
  %11 = getelementptr inbounds nuw i8, ptr %3, i64 12
  store i32 0, ptr %11, align 4, !tbaa !64
  %12 = load ptr, ptr %3, align 8, !tbaa !4
  %13 = getelementptr inbounds nuw i8, ptr %12, i64 16
  %14 = load ptr, ptr %13, align 8
  tail call void %14(ptr noundef nonnull align 8 dereferenceable(16) %3) #45
  %15 = load ptr, ptr %3, align 8, !tbaa !4
  %16 = getelementptr inbounds nuw i8, ptr %15, i64 24
  %17 = load ptr, ptr %16, align 8
  tail call void %17(ptr noundef nonnull align 8 dereferenceable(16) %3) #45
  br label %29

18:                                               ; preds = %5
  %19 = load i8, ptr @__libc_single_threaded, align 1, !tbaa !15
  %20 = icmp eq i8 %19, 0
  br i1 %20, label %23, label %21

21:                                               ; preds = %18
  %22 = add nsw i32 %9, -1
  store i32 %22, ptr %6, align 4, !tbaa !55
  br label %25

23:                                               ; preds = %18
  %24 = atomicrmw volatile add ptr %6, i32 -1 acq_rel, align 4
  br label %25

25:                                               ; preds = %23, %21
  %26 = phi i32 [ %9, %21 ], [ %24, %23 ]
  %27 = icmp eq i32 %26, 1
  br i1 %27, label %28, label %29, !prof !65

28:                                               ; preds = %25
  tail call void @_ZNSt16_Sp_counted_baseILN9__gnu_cxx12_Lock_policyE2EE24_M_release_last_use_coldEv(ptr noundef nonnull align 8 dereferenceable(16) %3) #45
  br label %29

29:                                               ; preds = %28, %25, %10, %1
  ret void
}

; Function Attrs: mustprogress nounwind sspstrong uwtable
define hidden void @_ZN5osgeo4proj9operation19CoordinateOperation19setInterpolationCRSERKSt10shared_ptrINS0_3crs3CRSEE(ptr noundef nonnull readonly align 8 captures(none) dereferenceable(72) %0, ptr noundef nonnull readonly align 8 captures(none) dereferenceable(16) %1) local_unnamed_addr #1 align 2 personality ptr @__gxx_personality_v0 {
  %3 = getelementptr inbounds nuw i8, ptr %0, i64 64
  %4 = load ptr, ptr %3, align 8, !tbaa !28
  %5 = getelementptr inbounds nuw i8, ptr %4, i64 96
  %6 = load ptr, ptr %1, align 8, !tbaa !43
  store ptr %6, ptr %5, align 8, !tbaa !43
  %7 = getelementptr inbounds nuw i8, ptr %4, i64 104
  %8 = getelementptr inbounds nuw i8, ptr %1, i64 8
  %9 = load ptr, ptr %8, align 8, !tbaa !39
  %10 = load ptr, ptr %7, align 8, !tbaa !39
  %11 = icmp eq ptr %9, %10
  br i1 %11, label %52, label %12

12:                                               ; preds = %2
  %13 = icmp eq ptr %9, null
  br i1 %13, label %24, label %14

14:                                               ; preds = %12
  %15 = getelementptr inbounds nuw i8, ptr %9, i64 8
  %16 = load i8, ptr @__libc_single_threaded, align 1, !tbaa !15
  %17 = icmp eq i8 %16, 0
  br i1 %17, label %21, label %18

18:                                               ; preds = %14
  %19 = load i32, ptr %15, align 4, !tbaa !55
  %20 = add nsw i32 %19, 1
  store i32 %20, ptr %15, align 4, !tbaa !55
  br label %24

21:                                               ; preds = %14
  %22 = atomicrmw volatile add ptr %15, i32 1 acq_rel, align 4
  %23 = load ptr, ptr %7, align 8, !tbaa !39
  br label %24

24:                                               ; preds = %21, %18, %12
  %25 = phi ptr [ %10, %12 ], [ %10, %18 ], [ %23, %21 ]
  %26 = icmp eq ptr %25, null
  br i1 %26, label %51, label %27

27:                                               ; preds = %24
  %28 = getelementptr inbounds nuw i8, ptr %25, i64 8
  %29 = load atomic i64, ptr %28 acquire, align 8
  %30 = icmp eq i64 %29, 4294967297
  %31 = trunc i64 %29 to i32
  br i1 %30, label %32, label %40

32:                                               ; preds = %27
  store i32 0, ptr %28, align 8, !tbaa !62
  %33 = getelementptr inbounds nuw i8, ptr %25, i64 12
  store i32 0, ptr %33, align 4, !tbaa !64
  %34 = load ptr, ptr %25, align 8, !tbaa !4
  %35 = getelementptr inbounds nuw i8, ptr %34, i64 16
  %36 = load ptr, ptr %35, align 8
  tail call void %36(ptr noundef nonnull align 8 dereferenceable(16) %25) #45
  %37 = load ptr, ptr %25, align 8, !tbaa !4
  %38 = getelementptr inbounds nuw i8, ptr %37, i64 24
  %39 = load ptr, ptr %38, align 8
  tail call void %39(ptr noundef nonnull align 8 dereferenceable(16) %25) #45
  br label %51

40:                                               ; preds = %27
  %41 = load i8, ptr @__libc_single_threaded, align 1, !tbaa !15
  %42 = icmp eq i8 %41, 0
  br i1 %42, label %45, label %43

43:                                               ; preds = %40
  %44 = add nsw i32 %31, -1
  store i32 %44, ptr %28, align 4, !tbaa !55
  br label %47

45:                                               ; preds = %40
  %46 = atomicrmw volatile add ptr %28, i32 -1 acq_rel, align 4
  br label %47

47:                                               ; preds = %45, %43
  %48 = phi i32 [ %31, %43 ], [ %46, %45 ]
  %49 = icmp eq i32 %48, 1
  br i1 %49, label %50, label %51, !prof !65

50:                                               ; preds = %47
  tail call void @_ZNSt16_Sp_counted_baseILN9__gnu_cxx12_Lock_policyE2EE24_M_release_last_use_coldEv(ptr noundef nonnull align 8 dereferenceable(16) %25) #45
  br label %51

51:                                               ; preds = %50, %47, %32, %24
  store ptr %9, ptr %7, align 8, !tbaa !39
  br label %52

52:                                               ; preds = %51, %2
  ret void
}

; Function Attrs: mustprogress sspstrong uwtable
define hidden void @_ZN5osgeo4proj9operation19CoordinateOperation7setCRSsEPKS2_b(ptr noundef nonnull readonly align 8 captures(none) dereferenceable(72) %0, ptr noundef readonly captures(none) %1, i1 noundef zeroext %2) local_unnamed_addr #0 align 2 personality ptr @__gxx_personality_v0 {
  %4 = alloca %"class.std::shared_ptr", align 8
  %5 = alloca %"class.std::shared_ptr", align 8
  %6 = alloca %"class.dropbox::oxygen::nn", align 8
  %7 = alloca %"class.dropbox::oxygen::nn", align 8
  call void @llvm.lifetime.start.p0(ptr %4)
  tail call void @llvm.experimental.noalias.scope.decl(metadata !88)
  %8 = getelementptr inbounds nuw i8, ptr %1, i64 64
  %9 = load ptr, ptr %8, align 8, !tbaa !28, !noalias !88
  %10 = getelementptr inbounds nuw i8, ptr %9, i64 64
  tail call void @llvm.experimental.noalias.scope.decl(metadata !91)
  %11 = getelementptr inbounds nuw i8, ptr %4, i64 8
  %12 = getelementptr inbounds nuw i8, ptr %9, i64 72
  %13 = load ptr, ptr %12, align 8, !tbaa !36, !noalias !94
  store ptr %13, ptr %11, align 8, !tbaa !39, !alias.scope !94
  %14 = icmp eq ptr %13, null
  br i1 %14, label %36, label %15

15:                                               ; preds = %3
  %16 = getelementptr inbounds nuw i8, ptr %13, i64 8
  %17 = load atomic i32, ptr %16 monotonic, align 8, !noalias !94
  br label %18

18:                                               ; preds = %21, %15
  %19 = phi i32 [ %17, %15 ], [ %25, %21 ]
  %20 = icmp eq i32 %19, 0
  br i1 %20, label %26, label %21

21:                                               ; preds = %18
  %22 = add nsw i32 %19, 1
  %23 = cmpxchg weak ptr %16, i32 %19, i32 %22 acq_rel monotonic, align 8, !noalias !94
  %24 = extractvalue { i32, i1 } %23, 1
  %25 = extractvalue { i32, i1 } %23, 0
  br i1 %24, label %27, label %18, !llvm.loop !41

26:                                               ; preds = %18
  store ptr null, ptr %11, align 8, !tbaa !39, !alias.scope !94
  br label %36

27:                                               ; preds = %21
  %28 = load ptr, ptr %11, align 8, !tbaa !39, !alias.scope !94
  %29 = icmp eq ptr %28, null
  br i1 %29, label %36, label %30

30:                                               ; preds = %27
  %31 = getelementptr inbounds nuw i8, ptr %28, i64 8
  %32 = load atomic i32, ptr %31 monotonic, align 8, !noalias !94
  %33 = freeze i32 %32
  %34 = icmp eq i32 %33, 0
  %35 = load ptr, ptr %10, align 8, !noalias !94
  br i1 %34, label %36, label %37

36:                                               ; preds = %30, %27, %26, %3
  br label %37

37:                                               ; preds = %36, %30
  %38 = phi ptr [ null, %36 ], [ %35, %30 ]
  store ptr %38, ptr %4, align 8, !tbaa !43, !alias.scope !94
  call void @llvm.lifetime.start.p0(ptr %5)
  tail call void @llvm.experimental.noalias.scope.decl(metadata !95)
  %39 = load ptr, ptr %8, align 8, !tbaa !28, !noalias !95
  %40 = getelementptr inbounds nuw i8, ptr %39, i64 80
  tail call void @llvm.experimental.noalias.scope.decl(metadata !98)
  %41 = getelementptr inbounds nuw i8, ptr %5, i64 8
  %42 = getelementptr inbounds nuw i8, ptr %39, i64 88
  %43 = load ptr, ptr %42, align 8, !tbaa !36, !noalias !101
  store ptr %43, ptr %41, align 8, !tbaa !39, !alias.scope !101
  %44 = icmp eq ptr %43, null
  br i1 %44, label %71, label %45

45:                                               ; preds = %37
  %46 = getelementptr inbounds nuw i8, ptr %43, i64 8
  %47 = load atomic i32, ptr %46 monotonic, align 8, !noalias !101
  br label %48

48:                                               ; preds = %51, %45
  %49 = phi i32 [ %47, %45 ], [ %55, %51 ]
  %50 = icmp eq i32 %49, 0
  br i1 %50, label %56, label %51

51:                                               ; preds = %48
  %52 = add nsw i32 %49, 1
  %53 = cmpxchg weak ptr %46, i32 %49, i32 %52 acq_rel monotonic, align 8, !noalias !101
  %54 = extractvalue { i32, i1 } %53, 1
  %55 = extractvalue { i32, i1 } %53, 0
  br i1 %54, label %57, label %48, !llvm.loop !41

56:                                               ; preds = %48
  store ptr null, ptr %41, align 8, !tbaa !39, !alias.scope !101
  br label %71

57:                                               ; preds = %51
  %58 = load ptr, ptr %41, align 8, !tbaa !39, !alias.scope !101
  %59 = icmp eq ptr %58, null
  br i1 %59, label %71, label %60

60:                                               ; preds = %57
  %61 = getelementptr inbounds nuw i8, ptr %58, i64 8
  %62 = load atomic i32, ptr %61 monotonic, align 8, !noalias !101
  %63 = freeze i32 %62
  %64 = icmp eq i32 %63, 0
  br i1 %64, label %71, label %65

65:                                               ; preds = %60
  %66 = load ptr, ptr %40, align 8, !noalias !101
  store ptr %66, ptr %5, align 8, !tbaa !43, !alias.scope !101
  %67 = load ptr, ptr %4, align 8, !tbaa !43
  %68 = icmp ne ptr %67, null
  %69 = icmp ne ptr %66, null
  %70 = select i1 %68, i1 %69, i1 false
  br i1 %70, label %73, label %170

71:                                               ; preds = %60, %57, %56, %37
  %72 = phi ptr [ null, %37 ], [ null, %56 ], [ null, %57 ], [ %58, %60 ]
  store ptr null, ptr %5, align 8, !tbaa !43, !alias.scope !101
  br label %167

73:                                               ; preds = %65
  call void @llvm.lifetime.start.p0(ptr %6)
  store ptr %67, ptr %6, align 8, !tbaa !43
  %74 = getelementptr inbounds nuw i8, ptr %6, i64 8
  %75 = load ptr, ptr %11, align 8, !tbaa !39
  store ptr %75, ptr %74, align 8, !tbaa !39
  %76 = icmp eq ptr %75, null
  br i1 %76, label %84, label %77

77:                                               ; preds = %73
  %78 = getelementptr inbounds nuw i8, ptr %75, i64 8
  %79 = load i8, ptr @__libc_single_threaded, align 1, !tbaa !15
  %80 = icmp eq i8 %79, 0
  br i1 %80, label %86, label %81

81:                                               ; preds = %77
  %82 = load i32, ptr %78, align 4, !tbaa !55
  %83 = add nsw i32 %82, 1
  store i32 %83, ptr %78, align 4, !tbaa !55
  br label %84

84:                                               ; preds = %81, %73
  call void @llvm.lifetime.start.p0(ptr %7)
  store ptr %66, ptr %7, align 8, !tbaa !43
  %85 = getelementptr inbounds nuw i8, ptr %7, i64 8
  store ptr %58, ptr %85, align 8, !tbaa !39
  br label %92

86:                                               ; preds = %77
  %87 = atomicrmw volatile add ptr %78, i32 1 acq_rel, align 4
  %88 = load ptr, ptr %5, align 8, !tbaa !43
  %89 = load ptr, ptr %41, align 8, !tbaa !39
  call void @llvm.lifetime.start.p0(ptr %7)
  store ptr %88, ptr %7, align 8, !tbaa !43
  %90 = getelementptr inbounds nuw i8, ptr %7, i64 8
  store ptr %89, ptr %90, align 8, !tbaa !39
  %91 = icmp eq ptr %89, null
  br i1 %91, label %103, label %92

92:                                               ; preds = %86, %84
  %93 = phi ptr [ %85, %84 ], [ %90, %86 ]
  %94 = phi ptr [ %58, %84 ], [ %89, %86 ]
  %95 = getelementptr inbounds nuw i8, ptr %94, i64 8
  %96 = load i8, ptr @__libc_single_threaded, align 1, !tbaa !15
  %97 = icmp eq i8 %96, 0
  br i1 %97, label %101, label %98

98:                                               ; preds = %92
  %99 = load i32, ptr %95, align 4, !tbaa !55
  %100 = add nsw i32 %99, 1
  store i32 %100, ptr %95, align 4, !tbaa !55
  br label %103

101:                                              ; preds = %92
  %102 = atomicrmw volatile add ptr %95, i32 1 acq_rel, align 4
  br label %103

103:                                              ; preds = %101, %98, %86
  %104 = phi ptr [ %90, %86 ], [ %93, %98 ], [ %93, %101 ]
  %105 = load ptr, ptr %8, align 8, !tbaa !28
  %106 = getelementptr inbounds nuw i8, ptr %105, i64 96
  %107 = select i1 %2, ptr %7, ptr %6
  %108 = select i1 %2, ptr %6, ptr %7
  invoke void @_ZN5osgeo4proj9operation19CoordinateOperation7setCRSsERKN7dropbox6oxygen2nnISt10shared_ptrINS0_3crs3CRSEEEESC_RKS9_(ptr noundef nonnull align 8 dereferenceable(72) %0, ptr noundef nonnull align 8 dereferenceable(16) %107, ptr noundef nonnull align 8 dereferenceable(16) %108, ptr noundef nonnull align 8 dereferenceable(16) %106)
          to label %111 unwind label %109

109:                                              ; preds = %103
  %110 = landingpad { ptr, i32 }
          cleanup
  call void @_ZN7dropbox6oxygen2nnISt10shared_ptrIN5osgeo4proj3crs3CRSEEED2Ev(ptr noundef nonnull align 8 dereferenceable(16) %7) #45
  call void @llvm.lifetime.end.p0(ptr %7)
  call void @_ZN7dropbox6oxygen2nnISt10shared_ptrIN5osgeo4proj3crs3CRSEEED2Ev(ptr noundef nonnull align 8 dereferenceable(16) %6) #45
  call void @llvm.lifetime.end.p0(ptr %6)
  call void @_ZNSt12__shared_ptrIN5osgeo4proj3crs3CRSELN9__gnu_cxx12_Lock_policyE2EED2Ev(ptr noundef nonnull align 8 dereferenceable(16) %5) #45
  call void @llvm.lifetime.end.p0(ptr %5)
  call void @_ZNSt12__shared_ptrIN5osgeo4proj3crs3CRSELN9__gnu_cxx12_Lock_policyE2EED2Ev(ptr noundef nonnull align 8 dereferenceable(16) %4) #45
  call void @llvm.lifetime.end.p0(ptr %4)
  resume { ptr, i32 } %110

111:                                              ; preds = %103
  %112 = load ptr, ptr %104, align 8, !tbaa !39
  %113 = icmp eq ptr %112, null
  br i1 %113, label %138, label %114

114:                                              ; preds = %111
  %115 = getelementptr inbounds nuw i8, ptr %112, i64 8
  %116 = load atomic i64, ptr %115 acquire, align 8
  %117 = icmp eq i64 %116, 4294967297
  %118 = trunc i64 %116 to i32
  br i1 %117, label %119, label %127

119:                                              ; preds = %114
  store i32 0, ptr %115, align 8, !tbaa !62
  %120 = getelementptr inbounds nuw i8, ptr %112, i64 12
  store i32 0, ptr %120, align 4, !tbaa !64
  %121 = load ptr, ptr %112, align 8, !tbaa !4
  %122 = getelementptr inbounds nuw i8, ptr %121, i64 16
  %123 = load ptr, ptr %122, align 8
  tail call void %123(ptr noundef nonnull align 8 dereferenceable(16) %112) #45
  %124 = load ptr, ptr %112, align 8, !tbaa !4
  %125 = getelementptr inbounds nuw i8, ptr %124, i64 24
  %126 = load ptr, ptr %125, align 8
  tail call void %126(ptr noundef nonnull align 8 dereferenceable(16) %112) #45
  br label %138

127:                                              ; preds = %114
  %128 = load i8, ptr @__libc_single_threaded, align 1, !tbaa !15
  %129 = icmp eq i8 %128, 0
  br i1 %129, label %132, label %130

130:                                              ; preds = %127
  %131 = add nsw i32 %118, -1
  store i32 %131, ptr %115, align 4, !tbaa !55
  br label %134

132:                                              ; preds = %127
  %133 = atomicrmw volatile add ptr %115, i32 -1 acq_rel, align 4
  br label %134

134:                                              ; preds = %132, %130
  %135 = phi i32 [ %118, %130 ], [ %133, %132 ]
  %136 = icmp eq i32 %135, 1
  br i1 %136, label %137, label %138, !prof !65

137:                                              ; preds = %134
  tail call void @_ZNSt16_Sp_counted_baseILN9__gnu_cxx12_Lock_policyE2EE24_M_release_last_use_coldEv(ptr noundef nonnull align 8 dereferenceable(16) %112) #45
  br label %138

138:                                              ; preds = %137, %134, %119, %111
  call void @llvm.lifetime.end.p0(ptr %7)
  %139 = load ptr, ptr %74, align 8, !tbaa !39
  %140 = icmp eq ptr %139, null
  br i1 %140, label %165, label %141

141:                                              ; preds = %138
  %142 = getelementptr inbounds nuw i8, ptr %139, i64 8
  %143 = load atomic i64, ptr %142 acquire, align 8
  %144 = icmp eq i64 %143, 4294967297
  %145 = trunc i64 %143 to i32
  br i1 %144, label %146, label %154

146:                                              ; preds = %141
  store i32 0, ptr %142, align 8, !tbaa !62
  %147 = getelementptr inbounds nuw i8, ptr %139, i64 12
  store i32 0, ptr %147, align 4, !tbaa !64
  %148 = load ptr, ptr %139, align 8, !tbaa !4
  %149 = getelementptr inbounds nuw i8, ptr %148, i64 16
  %150 = load ptr, ptr %149, align 8
  tail call void %150(ptr noundef nonnull align 8 dereferenceable(16) %139) #45
  %151 = load ptr, ptr %139, align 8, !tbaa !4
  %152 = getelementptr inbounds nuw i8, ptr %151, i64 24
  %153 = load ptr, ptr %152, align 8
  tail call void %153(ptr noundef nonnull align 8 dereferenceable(16) %139) #45
  br label %165

154:                                              ; preds = %141
  %155 = load i8, ptr @__libc_single_threaded, align 1, !tbaa !15
  %156 = icmp eq i8 %155, 0
  br i1 %156, label %159, label %157

157:                                              ; preds = %154
  %158 = add nsw i32 %145, -1
  store i32 %158, ptr %142, align 4, !tbaa !55
  br label %161

159:                                              ; preds = %154
  %160 = atomicrmw volatile add ptr %142, i32 -1 acq_rel, align 4
  br label %161

161:                                              ; preds = %159, %157
  %162 = phi i32 [ %145, %157 ], [ %160, %159 ]
  %163 = icmp eq i32 %162, 1
  br i1 %163, label %164, label %165, !prof !65

164:                                              ; preds = %161
  tail call void @_ZNSt16_Sp_counted_baseILN9__gnu_cxx12_Lock_policyE2EE24_M_release_last_use_coldEv(ptr noundef nonnull align 8 dereferenceable(16) %139) #45
  br label %165

165:                                              ; preds = %164, %161, %146, %138
  call void @llvm.lifetime.end.p0(ptr %6)
  %166 = load ptr, ptr %41, align 8, !tbaa !39
  br label %167

167:                                              ; preds = %165, %71
  %168 = phi ptr [ %72, %71 ], [ %166, %165 ]
  %169 = icmp eq ptr %168, null
  br i1 %169, label %195, label %170

170:                                              ; preds = %167, %65
  %171 = phi ptr [ %168, %167 ], [ %58, %65 ]
  %172 = getelementptr inbounds nuw i8, ptr %171, i64 8
  %173 = load atomic i64, ptr %172 acquire, align 8
  %174 = icmp eq i64 %173, 4294967297
  %175 = trunc i64 %173 to i32
  br i1 %174, label %176, label %184

176:                                              ; preds = %170
  store i32 0, ptr %172, align 8, !tbaa !62
  %177 = getelementptr inbounds nuw i8, ptr %171, i64 12
  store i32 0, ptr %177, align 4, !tbaa !64
  %178 = load ptr, ptr %171, align 8, !tbaa !4
  %179 = getelementptr inbounds nuw i8, ptr %178, i64 16
  %180 = load ptr, ptr %179, align 8
  tail call void %180(ptr noundef nonnull align 8 dereferenceable(16) %171) #45
  %181 = load ptr, ptr %171, align 8, !tbaa !4
  %182 = getelementptr inbounds nuw i8, ptr %181, i64 24
  %183 = load ptr, ptr %182, align 8
  tail call void %183(ptr noundef nonnull align 8 dereferenceable(16) %171) #45
  br label %195

184:                                              ; preds = %170
  %185 = load i8, ptr @__libc_single_threaded, align 1, !tbaa !15
  %186 = icmp eq i8 %185, 0
  br i1 %186, label %189, label %187

187:                                              ; preds = %184
  %188 = add nsw i32 %175, -1
  store i32 %188, ptr %172, align 4, !tbaa !55
  br label %191

189:                                              ; preds = %184
  %190 = atomicrmw volatile add ptr %172, i32 -1 acq_rel, align 4
  br label %191

191:                                              ; preds = %189, %187
  %192 = phi i32 [ %175, %187 ], [ %190, %189 ]
  %193 = icmp eq i32 %192, 1
  br i1 %193, label %194, label %195, !prof !65

194:                                              ; preds = %191
  tail call void @_ZNSt16_Sp_counted_baseILN9__gnu_cxx12_Lock_policyE2EE24_M_release_last_use_coldEv(ptr noundef nonnull align 8 dereferenceable(16) %171) #45
  br label %195

195:                                              ; preds = %194, %191, %176, %167
  call void @llvm.lifetime.end.p0(ptr %5)
  %196 = load ptr, ptr %11, align 8, !tbaa !39
  %197 = icmp eq ptr %196, null
  br i1 %197, label %222, label %198

198:                                              ; preds = %195
  %199 = getelementptr inbounds nuw i8, ptr %196, i64 8
  %200 = load atomic i64, ptr %199 acquire, align 8
  %201 = icmp eq i64 %200, 4294967297
  %202 = trunc i64 %200 to i32
  br i1 %201, label %203, label %211

203:                                              ; preds = %198
  store i32 0, ptr %199, align 8, !tbaa !62
  %204 = getelementptr inbounds nuw i8, ptr %196, i64 12
  store i32 0, ptr %204, align 4, !tbaa !64
  %205 = load ptr, ptr %196, align 8, !tbaa !4
  %206 = getelementptr inbounds nuw i8, ptr %205, i64 16
  %207 = load ptr, ptr %206, align 8
  tail call void %207(ptr noundef nonnull align 8 dereferenceable(16) %196) #45
  %208 = load ptr, ptr %196, align 8, !tbaa !4
  %209 = getelementptr inbounds nuw i8, ptr %208, i64 24
  %210 = load ptr, ptr %209, align 8
  tail call void %210(ptr noundef nonnull align 8 dereferenceable(16) %196) #45
  br label %222

211:                                              ; preds = %198
  %212 = load i8, ptr @__libc_single_threaded, align 1, !tbaa !15
  %213 = icmp eq i8 %212, 0
  br i1 %213, label %216, label %214

214:                                              ; preds = %211
  %215 = add nsw i32 %202, -1
  store i32 %215, ptr %199, align 4, !tbaa !55
  br label %218

216:                                              ; preds = %211
  %217 = atomicrmw volatile add ptr %199, i32 -1 acq_rel, align 4
  br label %218

218:                                              ; preds = %216, %214
  %219 = phi i32 [ %202, %214 ], [ %217, %216 ]
  %220 = icmp eq i32 %219, 1
  br i1 %220, label %221, label %222, !prof !65

221:                                              ; preds = %218
  tail call void @_ZNSt16_Sp_counted_baseILN9__gnu_cxx12_Lock_policyE2EE24_M_release_last_use_coldEv(ptr noundef nonnull align 8 dereferenceable(16) %196) #45
  br label %222

222:                                              ; preds = %221, %218, %203, %195
  call void @llvm.lifetime.end.p0(ptr %4)
  ret void
}

; Function Attrs: mustprogress sspstrong uwtable
define hidden void @_ZN5osgeo4proj9operation19CoordinateOperation24setSourceCoordinateEpochERKNS0_4util8optionalINS0_6common9DataEpochEEE(ptr noundef nonnull readonly align 8 captures(none) dereferenceable(72) %0, ptr noundef nonnull align 8 dereferenceable(16) %1) local_unnamed_addr #0 align 2 personality ptr @__gxx_personality_v0 {
  %3 = tail call noalias noundef nonnull dereferenceable(32) ptr @_Znwm(i64 noundef 32) #47, !noalias !102
  %4 = getelementptr inbounds nuw i8, ptr %3, i64 8
  store i32 1, ptr %4, align 8, !tbaa !62, !noalias !102
  %5 = getelementptr inbounds nuw i8, ptr %3, i64 12
  store i32 1, ptr %5, align 4, !tbaa !64, !noalias !102
  store ptr getelementptr inbounds nuw inrange(-16, 40) (i8, ptr @_ZTVSt23_Sp_counted_ptr_inplaceIN5osgeo4proj4util8optionalINS1_6common9DataEpochEEESaIvELN9__gnu_cxx12_Lock_policyE2EE, i64 16), ptr %3, align 8, !tbaa !4, !noalias !102
  %6 = getelementptr inbounds nuw i8, ptr %3, i64 16
  %7 = load i8, ptr %1, align 8, !tbaa !105, !range !23, !noalias !102, !noundef !24
  store i8 %7, ptr %6, align 8, !tbaa !105, !noalias !102
  %8 = getelementptr inbounds nuw i8, ptr %3, i64 24
  %9 = getelementptr inbounds nuw i8, ptr %1, i64 8
  invoke void @_ZN5osgeo4proj6common9DataEpochC1ERKS2_(ptr noundef nonnull align 8 dereferenceable(8) %8, ptr noundef nonnull align 8 dereferenceable(8) %9)
          to label %12 unwind label %10, !noalias !102

10:                                               ; preds = %2
  %11 = landingpad { ptr, i32 }
          cleanup
  tail call void @_ZdlPvm(ptr noundef nonnull %3, i64 noundef 32) #46, !noalias !102
  resume { ptr, i32 } %11

12:                                               ; preds = %2
  %13 = getelementptr inbounds nuw i8, ptr %0, i64 64
  %14 = load ptr, ptr %13, align 8, !tbaa !28
  %15 = getelementptr inbounds nuw i8, ptr %14, i64 112
  store ptr %6, ptr %15, align 8, !tbaa !115
  %16 = getelementptr inbounds nuw i8, ptr %14, i64 120
  %17 = load ptr, ptr %16, align 8, !tbaa !39
  store ptr %3, ptr %16, align 8, !tbaa !39
  %18 = icmp eq ptr %17, null
  br i1 %18, label %43, label %19

19:                                               ; preds = %12
  %20 = getelementptr inbounds nuw i8, ptr %17, i64 8
  %21 = load atomic i64, ptr %20 acquire, align 8
  %22 = icmp eq i64 %21, 4294967297
  %23 = trunc i64 %21 to i32
  br i1 %22, label %24, label %32

24:                                               ; preds = %19
  store i32 0, ptr %20, align 8, !tbaa !62
  %25 = getelementptr inbounds nuw i8, ptr %17, i64 12
  store i32 0, ptr %25, align 4, !tbaa !64
  %26 = load ptr, ptr %17, align 8, !tbaa !4
  %27 = getelementptr inbounds nuw i8, ptr %26, i64 16
  %28 = load ptr, ptr %27, align 8
  tail call void %28(ptr noundef nonnull align 8 dereferenceable(16) %17) #45
  %29 = load ptr, ptr %17, align 8, !tbaa !4
  %30 = getelementptr inbounds nuw i8, ptr %29, i64 24
  %31 = load ptr, ptr %30, align 8
  tail call void %31(ptr noundef nonnull align 8 dereferenceable(16) %17) #45
  br label %43

32:                                               ; preds = %19
  %33 = load i8, ptr @__libc_single_threaded, align 1, !tbaa !15
  %34 = icmp eq i8 %33, 0
  br i1 %34, label %37, label %35

35:                                               ; preds = %32
  %36 = add nsw i32 %23, -1
  store i32 %36, ptr %20, align 4, !tbaa !55
  br label %39

37:                                               ; preds = %32
  %38 = atomicrmw volatile add ptr %20, i32 -1 acq_rel, align 4
  br label %39

39:                                               ; preds = %37, %35
  %40 = phi i32 [ %23, %35 ], [ %38, %37 ]
  %41 = icmp eq i32 %40, 1
  br i1 %41, label %42, label %43, !prof !65

42:                                               ; preds = %39
  tail call void @_ZNSt16_Sp_counted_baseILN9__gnu_cxx12_Lock_policyE2EE24_M_release_last_use_coldEv(ptr noundef nonnull align 8 dereferenceable(16) %17) #45
  br label %43

43:                                               ; preds = %42, %39, %24, %12
  ret void
}

; Function Attrs: mustprogress sspstrong uwtable
define hidden void @_ZN5osgeo4proj9operation19CoordinateOperation24setTargetCoordinateEpochERKNS0_4util8optionalINS0_6common9DataEpochEEE(ptr noundef nonnull readonly align 8 captures(none) dereferenceable(72) %0, ptr noundef nonnull align 8 dereferenceable(16) %1) local_unnamed_addr #0 align 2 personality ptr @__gxx_personality_v0 {
  %3 = tail call noalias noundef nonnull dereferenceable(32) ptr @_Znwm(i64 noundef 32) #47, !noalias !116
  %4 = getelementptr inbounds nuw i8, ptr %3, i64 8
  store i32 1, ptr %4, align 8, !tbaa !62, !noalias !116
  %5 = getelementptr inbounds nuw i8, ptr %3, i64 12
  store i32 1, ptr %5, align 4, !tbaa !64, !noalias !116
  store ptr getelementptr inbounds nuw inrange(-16, 40) (i8, ptr @_ZTVSt23_Sp_counted_ptr_inplaceIN5osgeo4proj4util8optionalINS1_6common9DataEpochEEESaIvELN9__gnu_cxx12_Lock_policyE2EE, i64 16), ptr %3, align 8, !tbaa !4, !noalias !116
  %6 = getelementptr inbounds nuw i8, ptr %3, i64 16
  %7 = load i8, ptr %1, align 8, !tbaa !105, !range !23, !noalias !116, !noundef !24
  store i8 %7, ptr %6, align 8, !tbaa !105, !noalias !116
  %8 = getelementptr inbounds nuw i8, ptr %3, i64 24
  %9 = getelementptr inbounds nuw i8, ptr %1, i64 8
  invoke void @_ZN5osgeo4proj6common9DataEpochC1ERKS2_(ptr noundef nonnull align 8 dereferenceable(8) %8, ptr noundef nonnull align 8 dereferenceable(8) %9)
          to label %12 unwind label %10, !noalias !116

10:                                               ; preds = %2
  %11 = landingpad { ptr, i32 }
          cleanup
  tail call void @_ZdlPvm(ptr noundef nonnull %3, i64 noundef 32) #46, !noalias !116
  resume { ptr, i32 } %11

12:                                               ; preds = %2
  %13 = getelementptr inbounds nuw i8, ptr %0, i64 64
  %14 = load ptr, ptr %13, align 8, !tbaa !28
  %15 = getelementptr inbounds nuw i8, ptr %14, i64 128
  store ptr %6, ptr %15, align 8, !tbaa !115
  %16 = getelementptr inbounds nuw i8, ptr %14, i64 136
  %17 = load ptr, ptr %16, align 8, !tbaa !39
  store ptr %3, ptr %16, align 8, !tbaa !39
  %18 = icmp eq ptr %17, null
  br i1 %18, label %43, label %19

19:                                               ; preds = %12
  %20 = getelementptr inbounds nuw i8, ptr %17, i64 8
  %21 = load atomic i64, ptr %20 acquire, align 8
  %22 = icmp eq i64 %21, 4294967297
  %23 = trunc i64 %21 to i32
  br i1 %22, label %24, label %32

24:                                               ; preds = %19
  store i32 0, ptr %20, align 8, !tbaa !62
  %25 = getelementptr inbounds nuw i8, ptr %17, i64 12
  store i32 0, ptr %25, align 4, !tbaa !64
  %26 = load ptr, ptr %17, align 8, !tbaa !4
  %27 = getelementptr inbounds nuw i8, ptr %26, i64 16
  %28 = load ptr, ptr %27, align 8
  tail call void %28(ptr noundef nonnull align 8 dereferenceable(16) %17) #45
  %29 = load ptr, ptr %17, align 8, !tbaa !4
  %30 = getelementptr inbounds nuw i8, ptr %29, i64 24
  %31 = load ptr, ptr %30, align 8
  tail call void %31(ptr noundef nonnull align 8 dereferenceable(16) %17) #45
  br label %43

32:                                               ; preds = %19
  %33 = load i8, ptr @__libc_single_threaded, align 1, !tbaa !15
  %34 = icmp eq i8 %33, 0
  br i1 %34, label %37, label %35

35:                                               ; preds = %32
  %36 = add nsw i32 %23, -1
  store i32 %36, ptr %20, align 4, !tbaa !55
  br label %39

37:                                               ; preds = %32
  %38 = atomicrmw volatile add ptr %20, i32 -1 acq_rel, align 4
  br label %39

39:                                               ; preds = %37, %35
  %40 = phi i32 [ %23, %35 ], [ %38, %37 ]
  %41 = icmp eq i32 %40, 1
  br i1 %41, label %42, label %43, !prof !65

42:                                               ; preds = %39
  tail call void @_ZNSt16_Sp_counted_baseILN9__gnu_cxx12_Lock_policyE2EE24_M_release_last_use_coldEv(ptr noundef nonnull align 8 dereferenceable(16) %17) #45
  br label %43

43:                                               ; preds = %42, %39, %24, %12
  ret void
}

; Function Attrs: mustprogress sspstrong uwtable
define hidden void @_ZN5osgeo4proj9operation19CoordinateOperation13setAccuraciesERKSt6vectorIN7dropbox6oxygen2nnISt10shared_ptrINS0_8metadata18PositionalAccuracyEEEESaISB_EE(ptr noundef nonnull readonly align 8 captures(none) dereferenceable(72) %0, ptr noundef nonnull align 8 dereferenceable(24) %1) local_unnamed_addr #0 align 2 {
  %3 = getelementptr inbounds nuw i8, ptr %0, i64 64
  %4 = load ptr, ptr %3, align 8, !tbaa !28
  %5 = getelementptr inbounds nuw i8, ptr %4, i64 40
  %6 = tail call noundef nonnull align 8 dereferenceable(24) ptr @_ZNSt6vectorIN7dropbox6oxygen2nnISt10shared_ptrIN5osgeo4proj8metadata18PositionalAccuracyEEEESaIS9_EEaSERKSB_(ptr noundef nonnull align 8 dereferenceable(24) %5, ptr noundef nonnull align 8 dereferenceable(24) %1)
  ret void
}

; Function Attrs: mustprogress sspstrong uwtable
define linkonce_odr hidden noundef nonnull align 8 dereferenceable(24) ptr @_ZNSt6vectorIN7dropbox6oxygen2nnISt10shared_ptrIN5osgeo4proj8metadata18PositionalAccuracyEEEESaIS9_EEaSERKSB_(ptr noundef nonnull align 8 dereferenceable(24) %0, ptr noundef nonnull align 8 dereferenceable(24) %1) local_unnamed_addr #0 comdat align 2 personality ptr @__gxx_personality_v0 {
  %3 = icmp eq ptr %1, %0
  br i1 %3, label %300, label %4

4:                                                ; preds = %2
  %5 = getelementptr inbounds nuw i8, ptr %1, i64 8
  %6 = load ptr, ptr %5, align 8, !tbaa !119
  %7 = load ptr, ptr %1, align 8, !tbaa !122
  %8 = ptrtoint ptr %6 to i64
  %9 = ptrtoint ptr %7 to i64
  %10 = sub i64 %8, %9
  %11 = ashr exact i64 %10, 4
  %12 = icmp sgt i64 %11, -1
  tail call void @llvm.assume(i1 %12)
  %13 = getelementptr inbounds nuw i8, ptr %0, i64 16
  %14 = load ptr, ptr %13, align 8, !tbaa !123
  %15 = load ptr, ptr %0, align 8, !tbaa !122
  %16 = ptrtoint ptr %14 to i64
  %17 = ptrtoint ptr %15 to i64
  %18 = sub i64 %16, %17
  %19 = ashr exact i64 %18, 4
  %20 = icmp sgt i64 %19, -1
  tail call void @llvm.assume(i1 %20)
  %21 = icmp samesign ugt i64 %11, %19
  br i1 %21, label %22, label %97

22:                                               ; preds = %4
  %23 = tail call noalias noundef nonnull ptr @_Znwm(i64 noundef %10) #47
  %24 = icmp eq ptr %7, %6
  br i1 %24, label %48, label %25

25:                                               ; preds = %42, %22
  %26 = phi ptr [ %43, %42 ], [ %7, %22 ]
  %27 = phi ptr [ %44, %42 ], [ %23, %22 ]
  %28 = load ptr, ptr %26, align 8, !tbaa !124
  store ptr %28, ptr %27, align 8, !tbaa !124
  %29 = getelementptr inbounds nuw i8, ptr %27, i64 8
  %30 = getelementptr inbounds nuw i8, ptr %26, i64 8
  %31 = load ptr, ptr %30, align 8, !tbaa !39
  store ptr %31, ptr %29, align 8, !tbaa !39
  %32 = icmp eq ptr %31, null
  br i1 %32, label %42, label %33

33:                                               ; preds = %25
  %34 = getelementptr inbounds nuw i8, ptr %31, i64 8
  %35 = load i8, ptr @__libc_single_threaded, align 1, !tbaa !15
  %36 = icmp eq i8 %35, 0
  br i1 %36, label %40, label %37

37:                                               ; preds = %33
  %38 = load i32, ptr %34, align 4, !tbaa !55
  %39 = add nsw i32 %38, 1
  store i32 %39, ptr %34, align 4, !tbaa !55
  br label %42

40:                                               ; preds = %33
  %41 = atomicrmw volatile add ptr %34, i32 1 acq_rel, align 4
  br label %42

42:                                               ; preds = %40, %37, %25
  %43 = getelementptr inbounds nuw i8, ptr %26, i64 16
  %44 = getelementptr inbounds nuw i8, ptr %27, i64 16
  %45 = icmp eq ptr %43, %6
  br i1 %45, label %46, label %25, !llvm.loop !127

46:                                               ; preds = %42
  %47 = load ptr, ptr %0, align 8, !tbaa !122
  br label %48

48:                                               ; preds = %46, %22
  %49 = phi ptr [ %47, %46 ], [ %15, %22 ]
  %50 = getelementptr inbounds nuw i8, ptr %0, i64 8
  %51 = load ptr, ptr %50, align 8, !tbaa !119
  %52 = icmp eq ptr %49, %51
  br i1 %52, label %87, label %53

53:                                               ; preds = %82, %48
  %54 = phi ptr [ %83, %82 ], [ %49, %48 ]
  %55 = getelementptr inbounds nuw i8, ptr %54, i64 8
  %56 = load ptr, ptr %55, align 8, !tbaa !39
  %57 = icmp eq ptr %56, null
  br i1 %57, label %82, label %58

58:                                               ; preds = %53
  %59 = getelementptr inbounds nuw i8, ptr %56, i64 8
  %60 = load atomic i64, ptr %59 acquire, align 8
  %61 = icmp eq i64 %60, 4294967297
  %62 = trunc i64 %60 to i32
  br i1 %61, label %63, label %71

63:                                               ; preds = %58
  store i32 0, ptr %59, align 8, !tbaa !62
  %64 = getelementptr inbounds nuw i8, ptr %56, i64 12
  store i32 0, ptr %64, align 4, !tbaa !64
  %65 = load ptr, ptr %56, align 8, !tbaa !4
  %66 = getelementptr inbounds nuw i8, ptr %65, i64 16
  %67 = load ptr, ptr %66, align 8
  tail call void %67(ptr noundef nonnull align 8 dereferenceable(16) %56) #45
  %68 = load ptr, ptr %56, align 8, !tbaa !4
  %69 = getelementptr inbounds nuw i8, ptr %68, i64 24
  %70 = load ptr, ptr %69, align 8
  tail call void %70(ptr noundef nonnull align 8 dereferenceable(16) %56) #45
  br label %82

71:                                               ; preds = %58
  %72 = load i8, ptr @__libc_single_threaded, align 1, !tbaa !15
  %73 = icmp eq i8 %72, 0
  br i1 %73, label %76, label %74

74:                                               ; preds = %71
  %75 = add nsw i32 %62, -1
  store i32 %75, ptr %59, align 4, !tbaa !55
  br label %78

76:                                               ; preds = %71
  %77 = atomicrmw volatile add ptr %59, i32 -1 acq_rel, align 4
  br label %78

78:                                               ; preds = %76, %74
  %79 = phi i32 [ %62, %74 ], [ %77, %76 ]
  %80 = icmp eq i32 %79, 1
  br i1 %80, label %81, label %82, !prof !65

81:                                               ; preds = %78
  tail call void @_ZNSt16_Sp_counted_baseILN9__gnu_cxx12_Lock_policyE2EE24_M_release_last_use_coldEv(ptr noundef nonnull align 8 dereferenceable(16) %56) #45
  br label %82

82:                                               ; preds = %81, %78, %63, %53
  %83 = getelementptr inbounds nuw i8, ptr %54, i64 16
  %84 = icmp eq ptr %83, %51
  br i1 %84, label %85, label %53, !llvm.loop !128

85:                                               ; preds = %82
  %86 = load ptr, ptr %0, align 8, !tbaa !122
  br label %87

87:                                               ; preds = %85, %48
  %88 = phi ptr [ %86, %85 ], [ %49, %48 ]
  %89 = icmp eq ptr %88, null
  br i1 %89, label %95, label %90

90:                                               ; preds = %87
  %91 = load ptr, ptr %13, align 8, !tbaa !123
  %92 = ptrtoint ptr %91 to i64
  %93 = ptrtoint ptr %88 to i64
  %94 = sub i64 %92, %93
  tail call void @_ZdlPvm(ptr noundef nonnull %88, i64 noundef %94) #46
  br label %95

95:                                               ; preds = %90, %87
  store ptr %23, ptr %0, align 8, !tbaa !122
  %96 = getelementptr inbounds nuw i8, ptr %23, i64 %10
  store ptr %96, ptr %13, align 8, !tbaa !123
  br label %296

97:                                               ; preds = %4
  %98 = getelementptr inbounds nuw i8, ptr %0, i64 8
  %99 = load ptr, ptr %98, align 8, !tbaa !119
  %100 = ptrtoint ptr %99 to i64
  %101 = sub i64 %100, %17
  %102 = ashr exact i64 %101, 4
  %103 = icmp sgt i64 %102, -1
  tail call void @llvm.assume(i1 %103)
  %104 = icmp samesign ult i64 %102, %11
  br i1 %104, label %203, label %105

105:                                              ; preds = %97
  %106 = icmp eq ptr %7, %6
  br i1 %106, label %163, label %107

107:                                              ; preds = %156, %105
  %108 = phi ptr [ %157, %156 ], [ %15, %105 ]
  %109 = phi ptr [ %158, %156 ], [ %7, %105 ]
  %110 = load ptr, ptr %109, align 8, !tbaa !124
  store ptr %110, ptr %108, align 8, !tbaa !124
  %111 = getelementptr inbounds nuw i8, ptr %108, i64 8
  %112 = getelementptr inbounds nuw i8, ptr %109, i64 8
  %113 = load ptr, ptr %112, align 8, !tbaa !39
  %114 = load ptr, ptr %111, align 8, !tbaa !39
  %115 = icmp eq ptr %113, %114
  br i1 %115, label %156, label %116

116:                                              ; preds = %107
  %117 = icmp eq ptr %113, null
  br i1 %117, label %128, label %118

118:                                              ; preds = %116
  %119 = getelementptr inbounds nuw i8, ptr %113, i64 8
  %120 = load i8, ptr @__libc_single_threaded, align 1, !tbaa !15
  %121 = icmp eq i8 %120, 0
  br i1 %121, label %125, label %122

122:                                              ; preds = %118
  %123 = load i32, ptr %119, align 4, !tbaa !55
  %124 = add nsw i32 %123, 1
  store i32 %124, ptr %119, align 4, !tbaa !55
  br label %128

125:                                              ; preds = %118
  %126 = atomicrmw volatile add ptr %119, i32 1 acq_rel, align 4
  %127 = load ptr, ptr %111, align 8, !tbaa !39
  br label %128

128:                                              ; preds = %125, %122, %116
  %129 = phi ptr [ %114, %116 ], [ %114, %122 ], [ %127, %125 ]
  %130 = icmp eq ptr %129, null
  br i1 %130, label %155, label %131

131:                                              ; preds = %128
  %132 = getelementptr inbounds nuw i8, ptr %129, i64 8
  %133 = load atomic i64, ptr %132 acquire, align 8
  %134 = icmp eq i64 %133, 4294967297
  %135 = trunc i64 %133 to i32
  br i1 %134, label %136, label %144

136:                                              ; preds = %131
  store i32 0, ptr %132, align 8, !tbaa !62
  %137 = getelementptr inbounds nuw i8, ptr %129, i64 12
  store i32 0, ptr %137, align 4, !tbaa !64
  %138 = load ptr, ptr %129, align 8, !tbaa !4
  %139 = getelementptr inbounds nuw i8, ptr %138, i64 16
  %140 = load ptr, ptr %139, align 8
  tail call void %140(ptr noundef nonnull align 8 dereferenceable(16) %129) #45
  %141 = load ptr, ptr %129, align 8, !tbaa !4
  %142 = getelementptr inbounds nuw i8, ptr %141, i64 24
  %143 = load ptr, ptr %142, align 8
  tail call void %143(ptr noundef nonnull align 8 dereferenceable(16) %129) #45
  br label %155

144:                                              ; preds = %131
  %145 = load i8, ptr @__libc_single_threaded, align 1, !tbaa !15
  %146 = icmp eq i8 %145, 0
  br i1 %146, label %149, label %147

147:                                              ; preds = %144
  %148 = add nsw i32 %135, -1
  store i32 %148, ptr %132, align 4, !tbaa !55
  br label %151

149:                                              ; preds = %144
  %150 = atomicrmw volatile add ptr %132, i32 -1 acq_rel, align 4
  br label %151

151:                                              ; preds = %149, %147
  %152 = phi i32 [ %135, %147 ], [ %150, %149 ]
  %153 = icmp eq i32 %152, 1
  br i1 %153, label %154, label %155, !prof !65

154:                                              ; preds = %151
  tail call void @_ZNSt16_Sp_counted_baseILN9__gnu_cxx12_Lock_policyE2EE24_M_release_last_use_coldEv(ptr noundef nonnull align 8 dereferenceable(16) %129) #45
  br label %155

155:                                              ; preds = %154, %151, %136, %128
  store ptr %113, ptr %111, align 8, !tbaa !39
  br label %156

156:                                              ; preds = %155, %107
  %157 = getelementptr inbounds nuw i8, ptr %108, i64 16
  %158 = getelementptr inbounds nuw i8, ptr %109, i64 16
  %159 = icmp eq ptr %158, %6
  br i1 %159, label %160, label %107, !llvm.loop !129

160:                                              ; preds = %156
  %161 = load ptr, ptr %98, align 8, !tbaa !130
  %162 = ptrtoint ptr %157 to i64
  br label %163

163:                                              ; preds = %160, %105
  %164 = phi i64 [ %162, %160 ], [ %17, %105 ]
  %165 = phi ptr [ %161, %160 ], [ %99, %105 ]
  %166 = phi ptr [ %157, %160 ], [ %15, %105 ]
  %167 = icmp eq ptr %166, %165
  br i1 %167, label %296, label %168

168:                                              ; preds = %163
  %169 = sub i64 %164, %17
  %170 = getelementptr inbounds i8, ptr %15, i64 %169
  br label %171

171:                                              ; preds = %200, %168
  %172 = phi ptr [ %201, %200 ], [ %170, %168 ]
  %173 = getelementptr inbounds nuw i8, ptr %172, i64 8
  %174 = load ptr, ptr %173, align 8, !tbaa !39
  %175 = icmp eq ptr %174, null
  br i1 %175, label %200, label %176

176:                                              ; preds = %171
  %177 = getelementptr inbounds nuw i8, ptr %174, i64 8
  %178 = load atomic i64, ptr %177 acquire, align 8
  %179 = icmp eq i64 %178, 4294967297
  %180 = trunc i64 %178 to i32
  br i1 %179, label %181, label %189

181:                                              ; preds = %176
  store i32 0, ptr %177, align 8, !tbaa !62
  %182 = getelementptr inbounds nuw i8, ptr %174, i64 12
  store i32 0, ptr %182, align 4, !tbaa !64
  %183 = load ptr, ptr %174, align 8, !tbaa !4
  %184 = getelementptr inbounds nuw i8, ptr %183, i64 16
  %185 = load ptr, ptr %184, align 8
  tail call void %185(ptr noundef nonnull align 8 dereferenceable(16) %174) #45
  %186 = load ptr, ptr %174, align 8, !tbaa !4
  %187 = getelementptr inbounds nuw i8, ptr %186, i64 24
  %188 = load ptr, ptr %187, align 8
  tail call void %188(ptr noundef nonnull align 8 dereferenceable(16) %174) #45
  br label %200

189:                                              ; preds = %176
  %190 = load i8, ptr @__libc_single_threaded, align 1, !tbaa !15
  %191 = icmp eq i8 %190, 0
  br i1 %191, label %194, label %192

192:                                              ; preds = %189
  %193 = add nsw i32 %180, -1
  store i32 %193, ptr %177, align 4, !tbaa !55
  br label %196

194:                                              ; preds = %189
  %195 = atomicrmw volatile add ptr %177, i32 -1 acq_rel, align 4
  br label %196

196:                                              ; preds = %194, %192
  %197 = phi i32 [ %180, %192 ], [ %195, %194 ]
  %198 = icmp eq i32 %197, 1
  br i1 %198, label %199, label %200, !prof !65

199:                                              ; preds = %196
  tail call void @_ZNSt16_Sp_counted_baseILN9__gnu_cxx12_Lock_policyE2EE24_M_release_last_use_coldEv(ptr noundef nonnull align 8 dereferenceable(16) %174) #45
  br label %200

200:                                              ; preds = %199, %196, %181, %171
  %201 = getelementptr inbounds nuw i8, ptr %172, i64 16
  %202 = icmp eq ptr %201, %165
  br i1 %202, label %296, label %171, !llvm.loop !131

203:                                              ; preds = %97
  %204 = getelementptr inbounds nuw i8, ptr %7, i64 %101
  %205 = icmp eq ptr %99, %15
  br i1 %205, label %267, label %206

206:                                              ; preds = %255, %203
  %207 = phi ptr [ %256, %255 ], [ %15, %203 ]
  %208 = phi ptr [ %257, %255 ], [ %7, %203 ]
  %209 = load ptr, ptr %208, align 8, !tbaa !124
  store ptr %209, ptr %207, align 8, !tbaa !124
  %210 = getelementptr inbounds nuw i8, ptr %207, i64 8
  %211 = getelementptr inbounds nuw i8, ptr %208, i64 8
  %212 = load ptr, ptr %211, align 8, !tbaa !39
  %213 = load ptr, ptr %210, align 8, !tbaa !39
  %214 = icmp eq ptr %212, %213
  br i1 %214, label %255, label %215

215:                                              ; preds = %206
  %216 = icmp eq ptr %212, null
  br i1 %216, label %227, label %217

217:                                              ; preds = %215
  %218 = getelementptr inbounds nuw i8, ptr %212, i64 8
  %219 = load i8, ptr @__libc_single_threaded, align 1, !tbaa !15
  %220 = icmp eq i8 %219, 0
  br i1 %220, label %224, label %221

221:                                              ; preds = %217
  %222 = load i32, ptr %218, align 4, !tbaa !55
  %223 = add nsw i32 %222, 1
  store i32 %223, ptr %218, align 4, !tbaa !55
  br label %227

224:                                              ; preds = %217
  %225 = atomicrmw volatile add ptr %218, i32 1 acq_rel, align 4
  %226 = load ptr, ptr %210, align 8, !tbaa !39
  br label %227

227:                                              ; preds = %224, %221, %215
  %228 = phi ptr [ %213, %215 ], [ %213, %221 ], [ %226, %224 ]
  %229 = icmp eq ptr %228, null
  br i1 %229, label %254, label %230

230:                                              ; preds = %227
  %231 = getelementptr inbounds nuw i8, ptr %228, i64 8
  %232 = load atomic i64, ptr %231 acquire, align 8
  %233 = icmp eq i64 %232, 4294967297
  %234 = trunc i64 %232 to i32
  br i1 %233, label %235, label %243

235:                                              ; preds = %230
  store i32 0, ptr %231, align 8, !tbaa !62
  %236 = getelementptr inbounds nuw i8, ptr %228, i64 12
  store i32 0, ptr %236, align 4, !tbaa !64
  %237 = load ptr, ptr %228, align 8, !tbaa !4
  %238 = getelementptr inbounds nuw i8, ptr %237, i64 16
  %239 = load ptr, ptr %238, align 8
  tail call void %239(ptr noundef nonnull align 8 dereferenceable(16) %228) #45
  %240 = load ptr, ptr %228, align 8, !tbaa !4
  %241 = getelementptr inbounds nuw i8, ptr %240, i64 24
  %242 = load ptr, ptr %241, align 8
  tail call void %242(ptr noundef nonnull align 8 dereferenceable(16) %228) #45
  br label %254

243:                                              ; preds = %230
  %244 = load i8, ptr @__libc_single_threaded, align 1, !tbaa !15
  %245 = icmp eq i8 %244, 0
  br i1 %245, label %248, label %246

246:                                              ; preds = %243
  %247 = add nsw i32 %234, -1
  store i32 %247, ptr %231, align 4, !tbaa !55
  br label %250

248:                                              ; preds = %243
  %249 = atomicrmw volatile add ptr %231, i32 -1 acq_rel, align 4
  br label %250

250:                                              ; preds = %248, %246
  %251 = phi i32 [ %234, %246 ], [ %249, %248 ]
  %252 = icmp eq i32 %251, 1
  br i1 %252, label %253, label %254, !prof !65

253:                                              ; preds = %250
  tail call void @_ZNSt16_Sp_counted_baseILN9__gnu_cxx12_Lock_policyE2EE24_M_release_last_use_coldEv(ptr noundef nonnull align 8 dereferenceable(16) %228) #45
  br label %254

254:                                              ; preds = %253, %250, %235, %227
  store ptr %212, ptr %210, align 8, !tbaa !39
  br label %255

255:                                              ; preds = %254, %206
  %256 = getelementptr inbounds nuw i8, ptr %207, i64 16
  %257 = getelementptr inbounds nuw i8, ptr %208, i64 16
  %258 = icmp eq ptr %257, %204
  br i1 %258, label %259, label %206, !llvm.loop !132

259:                                              ; preds = %255
  %260 = load ptr, ptr %1, align 8, !tbaa !122
  %261 = load ptr, ptr %98, align 8, !tbaa !119
  %262 = load ptr, ptr %0, align 8, !tbaa !122
  %263 = load ptr, ptr %5, align 8, !tbaa !119
  %264 = ptrtoint ptr %261 to i64
  %265 = ptrtoint ptr %262 to i64
  %266 = sub i64 %264, %265
  br label %267

267:                                              ; preds = %259, %203
  %268 = phi i64 [ %266, %259 ], [ 0, %203 ]
  %269 = phi ptr [ %263, %259 ], [ %6, %203 ]
  %270 = phi ptr [ %261, %259 ], [ %99, %203 ]
  %271 = phi ptr [ %260, %259 ], [ %7, %203 ]
  %272 = icmp sgt i64 %268, -1
  tail call void @llvm.assume(i1 %272)
  %273 = getelementptr inbounds nuw i8, ptr %271, i64 %268
  %274 = icmp eq ptr %273, %269
  br i1 %274, label %296, label %275

275:                                              ; preds = %292, %267
  %276 = phi ptr [ %293, %292 ], [ %273, %267 ]
  %277 = phi ptr [ %294, %292 ], [ %270, %267 ]
  %278 = load ptr, ptr %276, align 8, !tbaa !124
  store ptr %278, ptr %277, align 8, !tbaa !124
  %279 = getelementptr inbounds nuw i8, ptr %277, i64 8
  %280 = getelementptr inbounds nuw i8, ptr %276, i64 8
  %281 = load ptr, ptr %280, align 8, !tbaa !39
  store ptr %281, ptr %279, align 8, !tbaa !39
  %282 = icmp eq ptr %281, null
  br i1 %282, label %292, label %283

283:                                              ; preds = %275
  %284 = getelementptr inbounds nuw i8, ptr %281, i64 8
  %285 = load i8, ptr @__libc_single_threaded, align 1, !tbaa !15
  %286 = icmp eq i8 %285, 0
  br i1 %286, label %290, label %287

287:                                              ; preds = %283
  %288 = load i32, ptr %284, align 4, !tbaa !55
  %289 = add nsw i32 %288, 1
  store i32 %289, ptr %284, align 4, !tbaa !55
  br label %292

290:                                              ; preds = %283
  %291 = atomicrmw volatile add ptr %284, i32 1 acq_rel, align 4
  br label %292

292:                                              ; preds = %290, %287, %275
  %293 = getelementptr inbounds nuw i8, ptr %276, i64 16
  %294 = getelementptr inbounds nuw i8, ptr %277, i64 16
  %295 = icmp eq ptr %293, %269
  br i1 %295, label %296, label %275, !llvm.loop !133

296:                                              ; preds = %292, %267, %200, %163, %95
  %297 = load ptr, ptr %0, align 8, !tbaa !122
  %298 = getelementptr inbounds nuw i8, ptr %297, i64 %10
  %299 = getelementptr inbounds nuw i8, ptr %0, i64 8
  store ptr %298, ptr %299, align 8, !tbaa !119
  br label %300

300:                                              ; preds = %296, %2
  ret ptr %0
}

; Function Attrs: mustprogress sspstrong uwtable
define noundef zeroext i1 @_ZNK5osgeo4proj9operation19CoordinateOperation18isPROJInstantiableERKSt10shared_ptrINS0_2io15DatabaseContextEEb(ptr noundef nonnull align 8 dereferenceable(72) %0, ptr noundef nonnull align 8 dereferenceable(16) %1, i1 noundef zeroext %2) local_unnamed_addr #0 align 2 personality ptr @__gxx_personality_v0 {
  %4 = alloca %"class.std::__cxx11::basic_string", align 8
  %5 = alloca %"class.dropbox::oxygen::nn.86", align 8
  %6 = alloca %"class.std::shared_ptr.95", align 8
  %7 = alloca %"class.std::set", align 8
  call void @llvm.lifetime.start.p0(ptr %5)
  call void @llvm.memset.p0.i64(ptr noundef nonnull align 8 dereferenceable(16) %6, i8 0, i64 16, i1 false)
  invoke void @_ZN5osgeo4proj2io19PROJStringFormatter6createENS2_10ConventionESt10shared_ptrINS1_15DatabaseContextEE(ptr dead_on_unwind nonnull writable sret(%"class.dropbox::oxygen::nn.86") align 8 %5, i32 noundef 0, ptr noundef nonnull %6)
          to label %8 unwind label %62

8:                                                ; preds = %3
  %9 = getelementptr inbounds nuw i8, ptr %0, i64 48
  %10 = load ptr, ptr %5, align 8, !tbaa !134
  invoke void @_ZNK5osgeo4proj2io21IPROJStringExportable18exportToPROJStringB5cxx11EPNS1_19PROJStringFormatterE(ptr dead_on_unwind nonnull writable sret(%"class.std::__cxx11::basic_string") align 8 %4, ptr noundef nonnull align 8 dereferenceable(8) %9, ptr noundef %10)
          to label %11 unwind label %64

11:                                               ; preds = %8
  %12 = load ptr, ptr %4, align 8, !tbaa !21
  %13 = getelementptr inbounds nuw i8, ptr %4, i64 16
  %14 = icmp eq ptr %12, %13
  br i1 %14, label %15, label %19

15:                                               ; preds = %11
  %16 = getelementptr inbounds nuw i8, ptr %4, i64 8
  %17 = load i64, ptr %16, align 8, !tbaa !12
  %18 = icmp ult i64 %17, 16
  call void @llvm.assume(i1 %18)
  br label %22

19:                                               ; preds = %11
  %20 = load i64, ptr %13, align 8, !tbaa !15
  %21 = add i64 %20, 1
  call void @_ZdlPvm(ptr noundef %12, i64 noundef %21) #46
  br label %22

22:                                               ; preds = %19, %15
  %23 = load ptr, ptr %5, align 8, !tbaa !134
  %24 = icmp eq ptr %23, null
  br i1 %24, label %26, label %25

25:                                               ; preds = %22
  call void @_ZN5osgeo4proj2io19PROJStringFormatterD1Ev(ptr noundef nonnull align 8 dereferenceable(8) %23) #45
  call void @_ZdlPvm(ptr noundef nonnull %23, i64 noundef 8) #46
  br label %26

26:                                               ; preds = %25, %22
  store ptr null, ptr %5, align 8, !tbaa !134
  %27 = getelementptr inbounds nuw i8, ptr %6, i64 8
  %28 = load ptr, ptr %27, align 8, !tbaa !39
  %29 = icmp eq ptr %28, null
  br i1 %29, label %54, label %30

30:                                               ; preds = %26
  %31 = getelementptr inbounds nuw i8, ptr %28, i64 8
  %32 = load atomic i64, ptr %31 acquire, align 8
  %33 = icmp eq i64 %32, 4294967297
  %34 = trunc i64 %32 to i32
  br i1 %33, label %35, label %43

35:                                               ; preds = %30
  store i32 0, ptr %31, align 8, !tbaa !62
  %36 = getelementptr inbounds nuw i8, ptr %28, i64 12
  store i32 0, ptr %36, align 4, !tbaa !64
  %37 = load ptr, ptr %28, align 8, !tbaa !4
  %38 = getelementptr inbounds nuw i8, ptr %37, i64 16
  %39 = load ptr, ptr %38, align 8
  call void %39(ptr noundef nonnull align 8 dereferenceable(16) %28) #45
  %40 = load ptr, ptr %28, align 8, !tbaa !4
  %41 = getelementptr inbounds nuw i8, ptr %40, i64 24
  %42 = load ptr, ptr %41, align 8
  call void %42(ptr noundef nonnull align 8 dereferenceable(16) %28) #45
  br label %54

43:                                               ; preds = %30
  %44 = load i8, ptr @__libc_single_threaded, align 1, !tbaa !15
  %45 = icmp eq i8 %44, 0
  br i1 %45, label %48, label %46

46:                                               ; preds = %43
  %47 = add nsw i32 %34, -1
  store i32 %47, ptr %31, align 4, !tbaa !55
  br label %50

48:                                               ; preds = %43
  %49 = atomicrmw volatile add ptr %31, i32 -1 acq_rel, align 4
  br label %50

50:                                               ; preds = %48, %46
  %51 = phi i32 [ %34, %46 ], [ %49, %48 ]
  %52 = icmp eq i32 %51, 1
  br i1 %52, label %53, label %54, !prof !65

53:                                               ; preds = %50
  call void @_ZNSt16_Sp_counted_baseILN9__gnu_cxx12_Lock_policyE2EE24_M_release_last_use_coldEv(ptr noundef nonnull align 8 dereferenceable(16) %28) #45
  br label %54

54:                                               ; preds = %53, %50, %35, %26
  call void @llvm.lifetime.end.p0(ptr %5)
  call void @llvm.lifetime.start.p0(ptr %7)
  %55 = load ptr, ptr %0, align 8, !tbaa !4
  %56 = getelementptr inbounds nuw i8, ptr %55, i64 40
  %57 = load ptr, ptr %56, align 8
  call void %57(ptr dead_on_unwind nonnull writable sret(%"class.std::set") align 8 %7, ptr noundef nonnull align 8 dereferenceable(72) %0, ptr noundef nonnull align 8 dereferenceable(16) %1, i1 noundef zeroext %2)
  %58 = getelementptr inbounds nuw i8, ptr %7, i64 24
  %59 = load ptr, ptr %58, align 8, !tbaa !136
  %60 = getelementptr inbounds nuw i8, ptr %7, i64 8
  %61 = icmp eq ptr %59, %60
  br i1 %61, label %91, label %74

62:                                               ; preds = %3
  %63 = landingpad { ptr, i32 }
          cleanup
          catch ptr @_ZTISt9exception
  br label %66

64:                                               ; preds = %8
  %65 = landingpad { ptr, i32 }
          cleanup
          catch ptr @_ZTISt9exception
  call void @_ZN7dropbox6oxygen2nnISt10unique_ptrIN5osgeo4proj2io19PROJStringFormatterESt14default_deleteIS6_EEED2Ev(ptr noundef nonnull align 8 dereferenceable(8) %5) #45
  br label %66

66:                                               ; preds = %64, %62
  %67 = phi { ptr, i32 } [ %65, %64 ], [ %63, %62 ]
  %68 = extractvalue { ptr, i32 } %67, 1
  call void @_ZNSt12__shared_ptrIN5osgeo4proj2io15DatabaseContextELN9__gnu_cxx12_Lock_policyE2EED2Ev(ptr noundef nonnull align 8 dereferenceable(16) %6) #45
  call void @llvm.lifetime.end.p0(ptr %5)
  %69 = call i32 @llvm.eh.typeid.for.p0(ptr nonnull @_ZTISt9exception) #45
  %70 = icmp eq i32 %68, %69
  br i1 %70, label %71, label %101

71:                                               ; preds = %66
  %72 = extractvalue { ptr, i32 } %67, 0
  %73 = call ptr @__cxa_begin_catch(ptr %72) #45
  call void @__cxa_end_catch()
  br label %99

74:                                               ; preds = %88, %54
  %75 = phi ptr [ %89, %88 ], [ %59, %54 ]
  %76 = getelementptr inbounds nuw i8, ptr %75, i64 32
  %77 = getelementptr inbounds nuw i8, ptr %75, i64 162
  %78 = load i8, ptr %77, align 2, !tbaa !20, !range !23, !noundef !24
  %79 = trunc nuw i8 %78 to i1
  br i1 %79, label %88, label %80

80:                                               ; preds = %74
  %81 = getelementptr inbounds nuw i8, ptr %75, i64 40
  %82 = load i64, ptr %81, align 8, !tbaa !12
  %83 = icmp eq i64 %82, 0
  br i1 %83, label %91, label %84

84:                                               ; preds = %80
  %85 = load ptr, ptr %76, align 8, !tbaa !21
  %86 = load i8, ptr %85, align 1, !tbaa !15
  %87 = icmp eq i8 %86, 64
  br i1 %87, label %88, label %91

88:                                               ; preds = %84, %74
  %89 = call noundef ptr @_ZSt18_Rb_tree_incrementPSt18_Rb_tree_node_base(ptr noundef nonnull %75) #49
  %90 = icmp eq ptr %89, %60
  br i1 %90, label %91, label %74

91:                                               ; preds = %88, %84, %80, %54
  %92 = phi i1 [ true, %54 ], [ false, %84 ], [ false, %80 ], [ true, %88 ]
  %93 = getelementptr inbounds nuw i8, ptr %7, i64 16
  %94 = load ptr, ptr %93, align 8, !tbaa !141
  invoke void @_ZNSt8_Rb_treeIN5osgeo4proj9operation15GridDescriptionES3_St9_IdentityIS3_ESt4lessIS3_ESaIS3_EE8_M_eraseEPSt13_Rb_tree_nodeIS3_E(ptr noundef nonnull align 8 dereferenceable(48) %7, ptr noundef %94)
          to label %98 unwind label %95

95:                                               ; preds = %91
  %96 = landingpad { ptr, i32 }
          catch ptr null
  %97 = extractvalue { ptr, i32 } %96, 0
  call void @__clang_call_terminate(ptr %97) #48
  unreachable

98:                                               ; preds = %91
  call void @llvm.lifetime.end.p0(ptr %7)
  br label %99

99:                                               ; preds = %98, %71
  %100 = phi i1 [ false, %71 ], [ %92, %98 ]
  ret i1 %100

101:                                              ; preds = %66
  resume { ptr, i32 } %67
}

declare void @_ZNK5osgeo4proj2io21IPROJStringExportable18exportToPROJStringB5cxx11EPNS1_19PROJStringFormatterE(ptr dead_on_unwind writable sret(%"class.std::__cxx11::basic_string") align 8, ptr noundef nonnull align 8 dereferenceable(8), ptr noundef) local_unnamed_addr #6

declare void @_ZN5osgeo4proj2io19PROJStringFormatter6createENS2_10ConventionESt10shared_ptrINS1_15DatabaseContextEE(ptr dead_on_unwind writable sret(%"class.dropbox::oxygen::nn.86") align 8, i32 noundef, ptr noundef) local_unnamed_addr #6

; Function Attrs: inlinehint mustprogress nounwind sspstrong uwtable
define linkonce_odr hidden void @_ZN7dropbox6oxygen2nnISt10unique_ptrIN5osgeo4proj2io19PROJStringFormatterESt14default_deleteIS6_EEED2Ev(ptr noundef nonnull align 8 dereferenceable(8) %0) unnamed_addr #16 comdat align 2 personality ptr @__gxx_personality_v0 {
  %2 = load ptr, ptr %0, align 8, !tbaa !134
  %3 = icmp eq ptr %2, null
  br i1 %3, label %5, label %4

4:                                                ; preds = %1
  tail call void @_ZN5osgeo4proj2io19PROJStringFormatterD1Ev(ptr noundef nonnull align 8 dereferenceable(8) %2) #45
  tail call void @_ZdlPvm(ptr noundef nonnull %2, i64 noundef 8) #46
  br label %5

5:                                                ; preds = %4, %1
  store ptr null, ptr %0, align 8, !tbaa !134
  ret void
}

; Function Attrs: mustprogress nounwind sspstrong uwtable
define linkonce_odr void @_ZNSt12__shared_ptrIN5osgeo4proj2io15DatabaseContextELN9__gnu_cxx12_Lock_policyE2EED2Ev(ptr noundef nonnull align 8 dereferenceable(16) %0) unnamed_addr #1 comdat align 2 personality ptr @__gxx_personality_v0 {
  %2 = getelementptr inbounds nuw i8, ptr %0, i64 8
  %3 = load ptr, ptr %2, align 8, !tbaa !39
  %4 = icmp eq ptr %3, null
  br i1 %4, label %29, label %5

5:                                                ; preds = %1
  %6 = getelementptr inbounds nuw i8, ptr %3, i64 8
  %7 = load atomic i64, ptr %6 acquire, align 8
  %8 = icmp eq i64 %7, 4294967297
  %9 = trunc i64 %7 to i32
  br i1 %8, label %10, label %18

10:                                               ; preds = %5
  store i32 0, ptr %6, align 8, !tbaa !62
  %11 = getelementptr inbounds nuw i8, ptr %3, i64 12
  store i32 0, ptr %11, align 4, !tbaa !64
  %12 = load ptr, ptr %3, align 8, !tbaa !4
  %13 = getelementptr inbounds nuw i8, ptr %12, i64 16
  %14 = load ptr, ptr %13, align 8
  tail call void %14(ptr noundef nonnull align 8 dereferenceable(16) %3) #45
  %15 = load ptr, ptr %3, align 8, !tbaa !4
  %16 = getelementptr inbounds nuw i8, ptr %15, i64 24
  %17 = load ptr, ptr %16, align 8
  tail call void %17(ptr noundef nonnull align 8 dereferenceable(16) %3) #45
  br label %29

18:                                               ; preds = %5
  %19 = load i8, ptr @__libc_single_threaded, align 1, !tbaa !15
  %20 = icmp eq i8 %19, 0
  br i1 %20, label %23, label %21

21:                                               ; preds = %18
  %22 = add nsw i32 %9, -1
  store i32 %22, ptr %6, align 4, !tbaa !55
  br label %25

23:                                               ; preds = %18
  %24 = atomicrmw volatile add ptr %6, i32 -1 acq_rel, align 4
  br label %25

25:                                               ; preds = %23, %21
  %26 = phi i32 [ %9, %21 ], [ %24, %23 ]
  %27 = icmp eq i32 %26, 1
  br i1 %27, label %28, label %29, !prof !65

28:                                               ; preds = %25
  tail call void @_ZNSt16_Sp_counted_baseILN9__gnu_cxx12_Lock_policyE2EE24_M_release_last_use_coldEv(ptr noundef nonnull align 8 dereferenceable(16) %3) #45
  br label %29

29:                                               ; preds = %28, %25, %10, %1
  ret void
}

; Function Attrs: nounwind memory(none)
declare i32 @llvm.eh.typeid.for.p0(ptr) #17

declare ptr @__cxa_begin_catch(ptr) local_unnamed_addr

declare void @__cxa_end_catch() local_unnamed_addr

; Function Attrs: mustprogress nounwind sspstrong uwtable
define linkonce_odr hidden void @_ZNSt3setIN5osgeo4proj9operation15GridDescriptionESt4lessIS3_ESaIS3_EED2Ev(ptr noundef nonnull align 8 dereferenceable(48) %0) unnamed_addr #1 comdat align 2 personality ptr @__gxx_personality_v0 {
  %2 = getelementptr inbounds nuw i8, ptr %0, i64 16
  %3 = load ptr, ptr %2, align 8, !tbaa !141
  invoke void @_ZNSt8_Rb_treeIN5osgeo4proj9operation15GridDescriptionES3_St9_IdentityIS3_ESt4lessIS3_ESaIS3_EE8_M_eraseEPSt13_Rb_tree_nodeIS3_E(ptr noundef nonnull align 8 dereferenceable(48) %0, ptr noundef %3)
          to label %7 unwind label %4

4:                                                ; preds = %1
  %5 = landingpad { ptr, i32 }
          catch ptr null
  %6 = extractvalue { ptr, i32 } %5, 0
  tail call void @__clang_call_terminate(ptr %6) #48
  unreachable

7:                                                ; preds = %1
  ret void
}

; Function Attrs: mustprogress nofree norecurse nosync nounwind sspstrong willreturn memory(read, inaccessiblemem: none) uwtable
define noundef zeroext i1 @_ZNK5osgeo4proj9operation19CoordinateOperation25hasBallparkTransformationEv(ptr noundef nonnull readonly align 8 captures(none) dereferenceable(72) %0) local_unnamed_addr #14 align 2 {
  %2 = getelementptr inbounds nuw i8, ptr %0, i64 64
  %3 = load ptr, ptr %2, align 8, !tbaa !28
  %4 = getelementptr inbounds nuw i8, ptr %3, i64 144
  %5 = load i8, ptr %4, align 8, !tbaa !142, !range !23, !noundef !24
  %6 = trunc nuw i8 %5 to i1
  ret i1 %6
}

; Function Attrs: mustprogress nofree norecurse nosync nounwind sspstrong willreturn memory(write, argmem: readwrite, inaccessiblemem: none) uwtable
define hidden void @_ZN5osgeo4proj9operation19CoordinateOperation28setHasBallparkTransformationEb(ptr noundef nonnull readonly align 8 captures(none) dereferenceable(72) %0, i1 noundef zeroext %1) local_unnamed_addr #18 align 2 {
  %3 = zext i1 %1 to i8
  %4 = getelementptr inbounds nuw i8, ptr %0, i64 64
  %5 = load ptr, ptr %4, align 8, !tbaa !28
  %6 = getelementptr inbounds nuw i8, ptr %5, i64 144
  store i8 %3, ptr %6, align 8, !tbaa !142
  ret void
}

; Function Attrs: mustprogress nofree norecurse nosync nounwind sspstrong willreturn memory(read, inaccessiblemem: none) uwtable
define noundef zeroext i1 @_ZNK5osgeo4proj9operation19CoordinateOperation30requiresPerCoordinateInputTimeEv(ptr noundef nonnull readonly align 8 captures(none) dereferenceable(72) %0) local_unnamed_addr #14 align 2 {
  %2 = getelementptr inbounds nuw i8, ptr %0, i64 64
  %3 = load ptr, ptr %2, align 8, !tbaa !28
  %4 = getelementptr inbounds nuw i8, ptr %3, i64 145
  %5 = load i8, ptr %4, align 1, !tbaa !157, !range !23, !noundef !24
  %6 = trunc nuw i8 %5 to i1
  br i1 %6, label %7, label %13

7:                                                ; preds = %1
  %8 = getelementptr inbounds nuw i8, ptr %3, i64 112
  %9 = load ptr, ptr %8, align 8, !tbaa !49
  %10 = load i8, ptr %9, align 8, !tbaa !105, !range !23, !noundef !24
  %11 = trunc nuw i8 %10 to i1
  %12 = xor i1 %11, true
  br label %13

13:                                               ; preds = %7, %1
  %14 = phi i1 [ false, %1 ], [ %12, %7 ]
  ret i1 %14
}

; Function Attrs: mustprogress nofree norecurse nosync nounwind sspstrong willreturn memory(write, argmem: readwrite, inaccessiblemem: none) uwtable
define hidden void @_ZN5osgeo4proj9operation19CoordinateOperation33setRequiresPerCoordinateInputTimeEb(ptr noundef nonnull readonly align 8 captures(none) dereferenceable(72) %0, i1 noundef zeroext %1) local_unnamed_addr #18 align 2 {
  %3 = zext i1 %1 to i8
  %4 = getelementptr inbounds nuw i8, ptr %0, i64 64
  %5 = load ptr, ptr %4, align 8, !tbaa !28
  %6 = getelementptr inbounds nuw i8, ptr %5, i64 145
  store i8 %3, ptr %6, align 1, !tbaa !157
  ret void
}

; Function Attrs: mustprogress sspstrong uwtable
define hidden void @_ZN5osgeo4proj9operation19CoordinateOperation13setPropertiesERKNS0_4util11PropertyMapE(ptr noundef nonnull align 8 dereferenceable(72) %0, ptr noundef nonnull align 8 dereferenceable(8) %1) local_unnamed_addr #0 align 2 {
  tail call void @_ZN5osgeo4proj6common11ObjectUsage13setPropertiesERKNS0_4util11PropertyMapE(ptr noundef nonnull align 8 dereferenceable(48) %0, ptr noundef nonnull align 8 dereferenceable(8) %1)
  %3 = getelementptr inbounds nuw i8, ptr %0, i64 64
  %4 = load ptr, ptr %3, align 8, !tbaa !28
  %5 = tail call noundef zeroext i1 @_ZNK5osgeo4proj4util11PropertyMap14getStringValueERKNSt7__cxx1112basic_stringIcSt11char_traitsIcESaIcEEERNS1_8optionalIS8_EE(ptr noundef nonnull align 8 dereferenceable(8) %1, ptr noundef nonnull align 8 dereferenceable(32) @_ZN5osgeo4proj9operation19CoordinateOperation21OPERATION_VERSION_KEYB5cxx11E, ptr noundef nonnull align 8 dereferenceable(40) %4)
  ret void
}

declare void @_ZN5osgeo4proj6common11ObjectUsage13setPropertiesERKNS0_4util11PropertyMapE(ptr noundef nonnull align 8 dereferenceable(48), ptr noundef nonnull align 8 dereferenceable(8)) local_unnamed_addr #6

declare noundef zeroext i1 @_ZNK5osgeo4proj4util11PropertyMap14getStringValueERKNSt7__cxx1112basic_stringIcSt11char_traitsIcESaIcEEERNS1_8optionalIS8_EE(ptr noundef nonnull align 8 dereferenceable(8), ptr noundef nonnull align 8 dereferenceable(32), ptr noundef nonnull align 8 dereferenceable(40)) local_unnamed_addr #6

; Function Attrs: mustprogress sspstrong uwtable
define void @_ZNK5osgeo4proj9operation19CoordinateOperation25normalizeForVisualizationEv(ptr dead_on_unwind noalias writable writeonly sret(%"class.dropbox::oxygen::nn.49") align 8 captures(none) %0, ptr noundef nonnull align 8 dereferenceable(72) %1) local_unnamed_addr #0 align 2 personality ptr @__gxx_personality_v0 {
  %3 = alloca i64, align 8
  %4 = alloca %"class.std::shared_ptr", align 8
  %5 = alloca %"class.std::shared_ptr", align 8
  %6 = alloca %"class.dropbox::oxygen::nn.49", align 8
  %7 = alloca %"struct.osgeo::proj::util::BaseObjectNNPtr", align 8
  %8 = alloca %"class.std::vector.81", align 8
  %9 = alloca %"class.dropbox::oxygen::nn.121", align 8
  %10 = alloca %"class.dropbox::oxygen::nn", align 8
  %11 = alloca %"class.dropbox::oxygen::nn", align 8
  %12 = alloca %"class.std::shared_ptr", align 8
  %13 = alloca %"class.dropbox::oxygen::nn.121", align 8
  %14 = alloca %"class.dropbox::oxygen::nn", align 8
  %15 = alloca %"class.dropbox::oxygen::nn", align 8
  %16 = alloca %"class.std::shared_ptr", align 8
  %17 = alloca %"class.osgeo::proj::util::PropertyMap", align 8
  %18 = alloca %"class.std::__cxx11::basic_string", align 8
  %19 = alloca %"class.std::vector.81", align 8
  %20 = alloca %"class.std::vector.81", align 8
  %21 = alloca %"class.dropbox::oxygen::nn.133", align 8
  call void @llvm.lifetime.start.p0(ptr %4)
  tail call void @llvm.experimental.noalias.scope.decl(metadata !158)
  %22 = getelementptr inbounds nuw i8, ptr %1, i64 64
  %23 = load ptr, ptr %22, align 8, !tbaa !28, !noalias !158
  %24 = getelementptr inbounds nuw i8, ptr %23, i64 64
  tail call void @llvm.experimental.noalias.scope.decl(metadata !161)
  %25 = getelementptr inbounds nuw i8, ptr %4, i64 8
  %26 = getelementptr inbounds nuw i8, ptr %23, i64 72
  %27 = load ptr, ptr %26, align 8, !tbaa !36, !noalias !164
  store ptr %27, ptr %25, align 8, !tbaa !39, !alias.scope !164
  %28 = icmp eq ptr %27, null
  br i1 %28, label %50, label %29

29:                                               ; preds = %2
  %30 = getelementptr inbounds nuw i8, ptr %27, i64 8
  %31 = load atomic i32, ptr %30 monotonic, align 8, !noalias !164
  br label %32

32:                                               ; preds = %35, %29
  %33 = phi i32 [ %31, %29 ], [ %39, %35 ]
  %34 = icmp eq i32 %33, 0
  br i1 %34, label %40, label %35

35:                                               ; preds = %32
  %36 = add nsw i32 %33, 1
  %37 = cmpxchg weak ptr %30, i32 %33, i32 %36 acq_rel monotonic, align 8, !noalias !164
  %38 = extractvalue { i32, i1 } %37, 1
  %39 = extractvalue { i32, i1 } %37, 0
  br i1 %38, label %41, label %32, !llvm.loop !41

40:                                               ; preds = %32
  store ptr null, ptr %25, align 8, !tbaa !39, !alias.scope !164
  br label %50

41:                                               ; preds = %35
  %42 = load ptr, ptr %25, align 8, !tbaa !39, !alias.scope !164
  %43 = icmp eq ptr %42, null
  br i1 %43, label %50, label %44

44:                                               ; preds = %41
  %45 = getelementptr inbounds nuw i8, ptr %42, i64 8
  %46 = load atomic i32, ptr %45 monotonic, align 8, !noalias !164
  %47 = freeze i32 %46
  %48 = icmp eq i32 %47, 0
  %49 = load ptr, ptr %24, align 8, !noalias !164
  br i1 %48, label %50, label %51

50:                                               ; preds = %44, %41, %40, %2
  br label %51

51:                                               ; preds = %50, %44
  %52 = phi ptr [ null, %50 ], [ %49, %44 ]
  store ptr %52, ptr %4, align 8, !tbaa !43, !alias.scope !164
  call void @llvm.lifetime.start.p0(ptr %5)
  tail call void @llvm.experimental.noalias.scope.decl(metadata !165)
  %53 = load ptr, ptr %22, align 8, !tbaa !28, !noalias !165
  %54 = getelementptr inbounds nuw i8, ptr %53, i64 80
  tail call void @llvm.experimental.noalias.scope.decl(metadata !168)
  %55 = getelementptr inbounds nuw i8, ptr %5, i64 8
  %56 = getelementptr inbounds nuw i8, ptr %53, i64 88
  %57 = load ptr, ptr %56, align 8, !tbaa !36, !noalias !171
  store ptr %57, ptr %55, align 8, !tbaa !39, !alias.scope !171
  %58 = icmp eq ptr %57, null
  br i1 %58, label %85, label %59

59:                                               ; preds = %51
  %60 = getelementptr inbounds nuw i8, ptr %57, i64 8
  %61 = load atomic i32, ptr %60 monotonic, align 8, !noalias !171
  br label %62

62:                                               ; preds = %65, %59
  %63 = phi i32 [ %61, %59 ], [ %69, %65 ]
  %64 = icmp eq i32 %63, 0
  br i1 %64, label %70, label %65

65:                                               ; preds = %62
  %66 = add nsw i32 %63, 1
  %67 = cmpxchg weak ptr %60, i32 %63, i32 %66 acq_rel monotonic, align 8, !noalias !171
  %68 = extractvalue { i32, i1 } %67, 1
  %69 = extractvalue { i32, i1 } %67, 0
  br i1 %68, label %71, label %62, !llvm.loop !41

70:                                               ; preds = %62
  store ptr null, ptr %55, align 8, !tbaa !39, !alias.scope !171
  br label %85

71:                                               ; preds = %65
  %72 = load ptr, ptr %55, align 8, !tbaa !39, !alias.scope !171
  %73 = icmp eq ptr %72, null
  br i1 %73, label %85, label %74

74:                                               ; preds = %71
  %75 = getelementptr inbounds nuw i8, ptr %72, i64 8
  %76 = load atomic i32, ptr %75 monotonic, align 8, !noalias !171
  %77 = freeze i32 %76
  %78 = icmp eq i32 %77, 0
  br i1 %78, label %85, label %79

79:                                               ; preds = %74
  %80 = load ptr, ptr %54, align 8, !noalias !171
  store ptr %80, ptr %5, align 8, !tbaa !43, !alias.scope !171
  %81 = load ptr, ptr %4, align 8, !tbaa !43
  %82 = icmp ne ptr %81, null
  %83 = icmp ne ptr %80, null
  %84 = select i1 %82, i1 %83, i1 false
  br i1 %84, label %93, label %86

85:                                               ; preds = %74, %71, %70, %51
  store ptr null, ptr %5, align 8, !tbaa !43, !alias.scope !171
  br label %86

86:                                               ; preds = %85, %79
  %87 = tail call ptr @__cxa_allocate_exception(i64 40) #45
  invoke void @_ZN5osgeo4proj4util29UnsupportedOperationExceptionC1EPKc(ptr noundef nonnull align 8 dereferenceable(40) %87, ptr noundef nonnull @.str)
          to label %88 unwind label %89

88:                                               ; preds = %86
  invoke void @__cxa_throw(ptr nonnull %87, ptr nonnull @_ZTIN5osgeo4proj4util29UnsupportedOperationExceptionE, ptr nonnull @_ZN5osgeo4proj4util29UnsupportedOperationExceptionD1Ev) #50
          to label %1085 unwind label %91

89:                                               ; preds = %86
  %90 = landingpad { ptr, i32 }
          cleanup
  tail call void @__cxa_free_exception(ptr nonnull %87) #45
  br label %1083

91:                                               ; preds = %88
  %92 = landingpad { ptr, i32 }
          cleanup
  br label %1083

93:                                               ; preds = %79
  %94 = invoke noundef zeroext i1 @_ZNK5osgeo4proj3crs3CRS39mustAxisOrderBeSwitchedForVisualizationEv(ptr noundef nonnull align 8 dereferenceable(64) %81)
          to label %95 unwind label %124

95:                                               ; preds = %93
  %96 = invoke noundef zeroext i1 @_ZNK5osgeo4proj3crs3CRS39mustAxisOrderBeSwitchedForVisualizationEv(ptr noundef nonnull align 8 dereferenceable(64) %80)
          to label %97 unwind label %126

97:                                               ; preds = %95
  call void @llvm.lifetime.start.p0(ptr %6)
  call void @llvm.lifetime.start.p0(ptr %7)
  invoke void @_ZNK5osgeo4proj4util10BaseObject16shared_from_thisEv(ptr dead_on_unwind nonnull writable sret(%"struct.osgeo::proj::util::BaseObjectNNPtr") align 8 %7, ptr noundef nonnull align 8 dereferenceable(16) %1)
          to label %98 unwind label %128

98:                                               ; preds = %97
  %99 = load ptr, ptr %7, align 8, !tbaa !172, !noalias !175
  %100 = icmp eq ptr %99, null
  br i1 %100, label %117, label %101

101:                                              ; preds = %98
  %102 = call ptr @__dynamic_cast(ptr nonnull %99, ptr nonnull @_ZTIN5osgeo4proj4util10BaseObjectE, ptr nonnull @_ZTIN5osgeo4proj9operation19CoordinateOperationE, i64 0) #45, !noalias !175
  %103 = icmp eq ptr %102, null
  br i1 %103, label %117, label %104

104:                                              ; preds = %101
  %105 = getelementptr inbounds nuw i8, ptr %7, i64 8
  %106 = load ptr, ptr %105, align 8, !tbaa !39, !noalias !175
  %107 = icmp eq ptr %106, null
  br i1 %107, label %117, label %108

108:                                              ; preds = %104
  %109 = getelementptr inbounds nuw i8, ptr %106, i64 8
  %110 = load i8, ptr @__libc_single_threaded, align 1, !tbaa !15, !noalias !175
  %111 = icmp eq i8 %110, 0
  br i1 %111, label %115, label %112

112:                                              ; preds = %108
  %113 = load i32, ptr %109, align 4, !tbaa !55, !noalias !175
  %114 = add nsw i32 %113, 1
  store i32 %114, ptr %109, align 4, !tbaa !55, !noalias !175
  br label %117

115:                                              ; preds = %108
  %116 = atomicrmw volatile add ptr %109, i32 1 acq_rel, align 4, !noalias !175
  br label %117

117:                                              ; preds = %115, %112, %104, %101, %98
  %118 = phi ptr [ null, %104 ], [ %106, %115 ], [ %106, %112 ], [ null, %101 ], [ null, %98 ]
  %119 = phi ptr [ %102, %104 ], [ %102, %115 ], [ %102, %112 ], [ null, %101 ], [ null, %98 ]
  store ptr %119, ptr %6, align 8, !tbaa !66
  %120 = getelementptr inbounds nuw i8, ptr %6, i64 8
  store ptr %118, ptr %120, align 8, !tbaa !39
  call void @_ZN5osgeo4proj4util15BaseObjectNNPtrD1Ev(ptr noundef nonnull align 8 dereferenceable(16) %7) #45
  call void @llvm.lifetime.end.p0(ptr %7)
  %121 = or i1 %94, %96
  br i1 %121, label %130, label %122

122:                                              ; preds = %117
  store ptr %119, ptr %0, align 8, !tbaa !66
  %123 = getelementptr inbounds nuw i8, ptr %0, i64 8
  store ptr null, ptr %120, align 8, !tbaa !39
  store ptr %118, ptr %123, align 8, !tbaa !39
  br label %1026

124:                                              ; preds = %93
  %125 = landingpad { ptr, i32 }
          cleanup
  br label %1083

126:                                              ; preds = %95
  %127 = landingpad { ptr, i32 }
          cleanup
  br label %1083

128:                                              ; preds = %97
  %129 = landingpad { ptr, i32 }
          cleanup
  call void @llvm.lifetime.end.p0(ptr %7)
  br label %1081

130:                                              ; preds = %117
  call void @llvm.lifetime.start.p0(ptr %8)
  call void @llvm.memset.p0.i64(ptr noundef nonnull align 8 dereferenceable(24) %8, i8 0, i64 24, i1 false)
  br i1 %94, label %134, label %131

131:                                              ; preds = %130
  %132 = getelementptr inbounds nuw i8, ptr %8, i64 8
  %133 = getelementptr inbounds nuw i8, ptr %8, i64 16
  br label %313

134:                                              ; preds = %130
  call void @llvm.lifetime.start.p0(ptr %9)
  invoke void @_ZN5osgeo4proj9operation10Conversion23createAxisOrderReversalEb(ptr dead_on_unwind nonnull writable sret(%"class.dropbox::oxygen::nn.121") align 8 %9, i1 noundef zeroext false)
          to label %135 unwind label %273

135:                                              ; preds = %134
  %136 = load ptr, ptr %9, align 8, !tbaa !178
  %137 = load ptr, ptr %136, align 8, !tbaa !4
  %138 = getelementptr i8, ptr %137, i64 -24
  %139 = load i64, ptr %138, align 8
  call void @llvm.lifetime.start.p0(ptr %10)
  %140 = load ptr, ptr %4, align 8, !tbaa !43
  invoke void @_ZNK5osgeo4proj3crs3CRS25normalizeForVisualizationEv(ptr dead_on_unwind nonnull writable sret(%"class.dropbox::oxygen::nn") align 8 %10, ptr noundef nonnull align 8 dereferenceable(64) %140)
          to label %141 unwind label %277

141:                                              ; preds = %135
  %142 = getelementptr inbounds i8, ptr %136, i64 %139
  call void @llvm.lifetime.start.p0(ptr %11)
  store ptr %140, ptr %11, align 8, !tbaa !43
  %143 = getelementptr inbounds nuw i8, ptr %11, i64 8
  %144 = load ptr, ptr %25, align 8, !tbaa !39
  store ptr %144, ptr %143, align 8, !tbaa !39
  %145 = icmp eq ptr %144, null
  br i1 %145, label %155, label %146

146:                                              ; preds = %141
  %147 = getelementptr inbounds nuw i8, ptr %144, i64 8
  %148 = load i8, ptr @__libc_single_threaded, align 1, !tbaa !15
  %149 = icmp eq i8 %148, 0
  br i1 %149, label %153, label %150

150:                                              ; preds = %146
  %151 = load i32, ptr %147, align 4, !tbaa !55
  %152 = add nsw i32 %151, 1
  store i32 %152, ptr %147, align 4, !tbaa !55
  br label %155

153:                                              ; preds = %146
  %154 = atomicrmw volatile add ptr %147, i32 1 acq_rel, align 4
  br label %155

155:                                              ; preds = %153, %150, %141
  call void @llvm.lifetime.start.p0(ptr %12)
  call void @llvm.memset.p0.i64(ptr noundef nonnull align 8 dereferenceable(16) %12, i8 0, i64 16, i1 false)
  invoke void @_ZN5osgeo4proj9operation19CoordinateOperation7setCRSsERKN7dropbox6oxygen2nnISt10shared_ptrINS0_3crs3CRSEEEESC_RKS9_(ptr noundef nonnull align 8 dereferenceable(72) %142, ptr noundef nonnull align 8 dereferenceable(16) %10, ptr noundef nonnull align 8 dereferenceable(16) %11, ptr noundef nonnull align 8 dereferenceable(16) %12)
          to label %156 unwind label %279

156:                                              ; preds = %155
  %157 = load ptr, ptr %143, align 8, !tbaa !39
  call void @llvm.lifetime.end.p0(ptr %12)
  %158 = icmp eq ptr %157, null
  br i1 %158, label %183, label %159

159:                                              ; preds = %156
  %160 = getelementptr inbounds nuw i8, ptr %157, i64 8
  %161 = load atomic i64, ptr %160 acquire, align 8
  %162 = icmp eq i64 %161, 4294967297
  %163 = trunc i64 %161 to i32
  br i1 %162, label %164, label %172

164:                                              ; preds = %159
  store i32 0, ptr %160, align 8, !tbaa !62
  %165 = getelementptr inbounds nuw i8, ptr %157, i64 12
  store i32 0, ptr %165, align 4, !tbaa !64
  %166 = load ptr, ptr %157, align 8, !tbaa !4
  %167 = getelementptr inbounds nuw i8, ptr %166, i64 16
  %168 = load ptr, ptr %167, align 8
  call void %168(ptr noundef nonnull align 8 dereferenceable(16) %157) #45
  %169 = load ptr, ptr %157, align 8, !tbaa !4
  %170 = getelementptr inbounds nuw i8, ptr %169, i64 24
  %171 = load ptr, ptr %170, align 8
  call void %171(ptr noundef nonnull align 8 dereferenceable(16) %157) #45
  br label %183

172:                                              ; preds = %159
  %173 = load i8, ptr @__libc_single_threaded, align 1, !tbaa !15
  %174 = icmp eq i8 %173, 0
  br i1 %174, label %177, label %175

175:                                              ; preds = %172
  %176 = add nsw i32 %163, -1
  store i32 %176, ptr %160, align 4, !tbaa !55
  br label %179

177:                                              ; preds = %172
  %178 = atomicrmw volatile add ptr %160, i32 -1 acq_rel, align 4
  br label %179

179:                                              ; preds = %177, %175
  %180 = phi i32 [ %163, %175 ], [ %178, %177 ]
  %181 = icmp eq i32 %180, 1
  br i1 %181, label %182, label %183, !prof !65

182:                                              ; preds = %179
  call void @_ZNSt16_Sp_counted_baseILN9__gnu_cxx12_Lock_policyE2EE24_M_release_last_use_coldEv(ptr noundef nonnull align 8 dereferenceable(16) %157) #45
  br label %183

183:                                              ; preds = %182, %179, %164, %156
  call void @llvm.lifetime.end.p0(ptr %11)
  %184 = getelementptr inbounds nuw i8, ptr %10, i64 8
  %185 = load ptr, ptr %184, align 8, !tbaa !39
  %186 = icmp eq ptr %185, null
  br i1 %186, label %211, label %187

187:                                              ; preds = %183
  %188 = getelementptr inbounds nuw i8, ptr %185, i64 8
  %189 = load atomic i64, ptr %188 acquire, align 8
  %190 = icmp eq i64 %189, 4294967297
  %191 = trunc i64 %189 to i32
  br i1 %190, label %192, label %200

192:                                              ; preds = %187
  store i32 0, ptr %188, align 8, !tbaa !62
  %193 = getelementptr inbounds nuw i8, ptr %185, i64 12
  store i32 0, ptr %193, align 4, !tbaa !64
  %194 = load ptr, ptr %185, align 8, !tbaa !4
  %195 = getelementptr inbounds nuw i8, ptr %194, i64 16
  %196 = load ptr, ptr %195, align 8
  call void %196(ptr noundef nonnull align 8 dereferenceable(16) %185) #45
  %197 = load ptr, ptr %185, align 8, !tbaa !4
  %198 = getelementptr inbounds nuw i8, ptr %197, i64 24
  %199 = load ptr, ptr %198, align 8
  call void %199(ptr noundef nonnull align 8 dereferenceable(16) %185) #45
  br label %211

200:                                              ; preds = %187
  %201 = load i8, ptr @__libc_single_threaded, align 1, !tbaa !15
  %202 = icmp eq i8 %201, 0
  br i1 %202, label %205, label %203

203:                                              ; preds = %200
  %204 = add nsw i32 %191, -1
  store i32 %204, ptr %188, align 4, !tbaa !55
  br label %207

205:                                              ; preds = %200
  %206 = atomicrmw volatile add ptr %188, i32 -1 acq_rel, align 4
  br label %207

207:                                              ; preds = %205, %203
  %208 = phi i32 [ %191, %203 ], [ %206, %205 ]
  %209 = icmp eq i32 %208, 1
  br i1 %209, label %210, label %211, !prof !65

210:                                              ; preds = %207
  call void @_ZNSt16_Sp_counted_baseILN9__gnu_cxx12_Lock_policyE2EE24_M_release_last_use_coldEv(ptr noundef nonnull align 8 dereferenceable(16) %185) #45
  br label %211

211:                                              ; preds = %210, %207, %192, %183
  call void @llvm.lifetime.end.p0(ptr %10)
  %212 = getelementptr inbounds nuw i8, ptr %8, i64 8
  %213 = load ptr, ptr %212, align 8, !tbaa !181
  %214 = getelementptr inbounds nuw i8, ptr %8, i64 16
  %215 = load ptr, ptr %214, align 8, !tbaa !183
  %216 = icmp eq ptr %213, %215
  br i1 %216, label %244, label %217

217:                                              ; preds = %211
  %218 = load ptr, ptr %9, align 8, !tbaa !178
  %219 = icmp eq ptr %218, null
  br i1 %219, label %225, label %220

220:                                              ; preds = %217
  %221 = load ptr, ptr %218, align 8, !tbaa !4
  %222 = getelementptr i8, ptr %221, i64 -24
  %223 = load i64, ptr %222, align 8
  %224 = getelementptr inbounds i8, ptr %218, i64 %223
  br label %225

225:                                              ; preds = %220, %217
  %226 = phi ptr [ %224, %220 ], [ null, %217 ]
  store ptr %226, ptr %213, align 8, !tbaa !66
  %227 = getelementptr inbounds nuw i8, ptr %213, i64 8
  %228 = getelementptr inbounds nuw i8, ptr %9, i64 8
  %229 = load ptr, ptr %228, align 8, !tbaa !39
  store ptr %229, ptr %227, align 8, !tbaa !39
  %230 = icmp eq ptr %229, null
  br i1 %230, label %241, label %231

231:                                              ; preds = %225
  %232 = getelementptr inbounds nuw i8, ptr %229, i64 8
  %233 = load i8, ptr @__libc_single_threaded, align 1, !tbaa !15
  %234 = icmp eq i8 %233, 0
  br i1 %234, label %238, label %235

235:                                              ; preds = %231
  %236 = load i32, ptr %232, align 4, !tbaa !55
  %237 = add nsw i32 %236, 1
  store i32 %237, ptr %232, align 4, !tbaa !55
  br label %241

238:                                              ; preds = %231
  %239 = atomicrmw volatile add ptr %232, i32 1 acq_rel, align 4
  %240 = load ptr, ptr %212, align 8, !tbaa !181
  br label %241

241:                                              ; preds = %238, %235, %225
  %242 = phi ptr [ %213, %225 ], [ %213, %235 ], [ %240, %238 ]
  %243 = getelementptr inbounds nuw i8, ptr %242, i64 16
  store ptr %243, ptr %212, align 8, !tbaa !181
  br label %245

244:                                              ; preds = %211
  invoke void @_ZNSt6vectorIN7dropbox6oxygen2nnISt10shared_ptrIN5osgeo4proj9operation19CoordinateOperationEEEESaIS9_EE17_M_realloc_appendIJRNS2_IS3_INS6_10ConversionEEEEEEEvDpOT_(ptr noundef nonnull align 8 dereferenceable(24) %8, ptr noundef nonnull align 8 dereferenceable(16) %9)
          to label %245 unwind label %275

245:                                              ; preds = %244, %241
  %246 = getelementptr inbounds nuw i8, ptr %9, i64 8
  %247 = load ptr, ptr %246, align 8, !tbaa !39
  %248 = icmp eq ptr %247, null
  br i1 %248, label %287, label %249

249:                                              ; preds = %245
  %250 = getelementptr inbounds nuw i8, ptr %247, i64 8
  %251 = load atomic i64, ptr %250 acquire, align 8
  %252 = icmp eq i64 %251, 4294967297
  %253 = trunc i64 %251 to i32
  br i1 %252, label %254, label %262

254:                                              ; preds = %249
  store i32 0, ptr %250, align 8, !tbaa !62
  %255 = getelementptr inbounds nuw i8, ptr %247, i64 12
  store i32 0, ptr %255, align 4, !tbaa !64
  %256 = load ptr, ptr %247, align 8, !tbaa !4
  %257 = getelementptr inbounds nuw i8, ptr %256, i64 16
  %258 = load ptr, ptr %257, align 8
  call void %258(ptr noundef nonnull align 8 dereferenceable(16) %247) #45
  %259 = load ptr, ptr %247, align 8, !tbaa !4
  %260 = getelementptr inbounds nuw i8, ptr %259, i64 24
  %261 = load ptr, ptr %260, align 8
  call void %261(ptr noundef nonnull align 8 dereferenceable(16) %247) #45
  br label %287

262:                                              ; preds = %249
  %263 = load i8, ptr @__libc_single_threaded, align 1, !tbaa !15
  %264 = icmp eq i8 %263, 0
  br i1 %264, label %267, label %265

265:                                              ; preds = %262
  %266 = add nsw i32 %253, -1
  store i32 %266, ptr %250, align 4, !tbaa !55
  br label %269

267:                                              ; preds = %262
  %268 = atomicrmw volatile add ptr %250, i32 -1 acq_rel, align 4
  br label %269

269:                                              ; preds = %267, %265
  %270 = phi i32 [ %253, %265 ], [ %268, %267 ]
  %271 = icmp eq i32 %270, 1
  br i1 %271, label %272, label %287, !prof !65

272:                                              ; preds = %269
  call void @_ZNSt16_Sp_counted_baseILN9__gnu_cxx12_Lock_policyE2EE24_M_release_last_use_coldEv(ptr noundef nonnull align 8 dereferenceable(16) %247) #45
  br label %287

273:                                              ; preds = %134
  %274 = landingpad { ptr, i32 }
          cleanup
  br label %285

275:                                              ; preds = %244
  %276 = landingpad { ptr, i32 }
          cleanup
  br label %283

277:                                              ; preds = %135
  %278 = landingpad { ptr, i32 }
          cleanup
  br label %281

279:                                              ; preds = %155
  %280 = landingpad { ptr, i32 }
          cleanup
  call void @_ZNSt12__shared_ptrIN5osgeo4proj3crs3CRSELN9__gnu_cxx12_Lock_policyE2EED2Ev(ptr noundef nonnull align 8 dereferenceable(16) %12) #45
  call void @llvm.lifetime.end.p0(ptr %12)
  call void @_ZN7dropbox6oxygen2nnISt10shared_ptrIN5osgeo4proj3crs3CRSEEED2Ev(ptr noundef nonnull align 8 dereferenceable(16) %11) #45
  call void @llvm.lifetime.end.p0(ptr %11)
  call void @_ZN7dropbox6oxygen2nnISt10shared_ptrIN5osgeo4proj3crs3CRSEEED2Ev(ptr noundef nonnull align 8 dereferenceable(16) %10) #45
  br label %281

281:                                              ; preds = %279, %277
  %282 = phi { ptr, i32 } [ %280, %279 ], [ %278, %277 ]
  call void @llvm.lifetime.end.p0(ptr %10)
  br label %283

283:                                              ; preds = %281, %275
  %284 = phi { ptr, i32 } [ %276, %275 ], [ %282, %281 ]
  call void @_ZN7dropbox6oxygen2nnISt10shared_ptrIN5osgeo4proj9operation10ConversionEEED2Ev(ptr noundef nonnull align 8 dereferenceable(16) %9) #45
  br label %285

285:                                              ; preds = %283, %273
  %286 = phi { ptr, i32 } [ %284, %283 ], [ %274, %273 ]
  call void @llvm.lifetime.end.p0(ptr %9)
  br label %997

287:                                              ; preds = %272, %269, %254, %245
  call void @llvm.lifetime.end.p0(ptr %9)
  %288 = load ptr, ptr %212, align 8, !tbaa !181
  %289 = load ptr, ptr %214, align 8, !tbaa !183
  %290 = getelementptr inbounds nuw i8, ptr %8, i64 8
  %291 = getelementptr inbounds nuw i8, ptr %8, i64 16
  %292 = icmp eq ptr %288, %289
  br i1 %292, label %311, label %293

293:                                              ; preds = %287
  %294 = load ptr, ptr %6, align 8, !tbaa !66
  store ptr %294, ptr %288, align 8, !tbaa !66
  %295 = getelementptr inbounds nuw i8, ptr %288, i64 8
  %296 = load ptr, ptr %120, align 8, !tbaa !39
  store ptr %296, ptr %295, align 8, !tbaa !39
  %297 = icmp eq ptr %296, null
  br i1 %297, label %308, label %298

298:                                              ; preds = %293
  %299 = getelementptr inbounds nuw i8, ptr %296, i64 8
  %300 = load i8, ptr @__libc_single_threaded, align 1, !tbaa !15
  %301 = icmp eq i8 %300, 0
  br i1 %301, label %305, label %302

302:                                              ; preds = %298
  %303 = load i32, ptr %299, align 4, !tbaa !55
  %304 = add nsw i32 %303, 1
  store i32 %304, ptr %299, align 4, !tbaa !55
  br label %308

305:                                              ; preds = %298
  %306 = atomicrmw volatile add ptr %299, i32 1 acq_rel, align 4
  %307 = load ptr, ptr %290, align 8, !tbaa !181
  br label %308

308:                                              ; preds = %305, %302, %293
  %309 = phi ptr [ %288, %293 ], [ %288, %302 ], [ %307, %305 ]
  %310 = getelementptr inbounds nuw i8, ptr %309, i64 16
  store ptr %310, ptr %290, align 8, !tbaa !181
  br label %369

311:                                              ; preds = %287
  %312 = load ptr, ptr %8, align 8, !tbaa !184
  br label %313

313:                                              ; preds = %311, %131
  %314 = phi ptr [ %312, %311 ], [ null, %131 ]
  %315 = phi ptr [ %291, %311 ], [ %133, %131 ]
  %316 = phi ptr [ %290, %311 ], [ %132, %131 ]
  %317 = phi ptr [ %289, %311 ], [ null, %131 ]
  %318 = ptrtoint ptr %317 to i64
  %319 = ptrtoint ptr %314 to i64
  %320 = sub i64 %318, %319
  %321 = ashr exact i64 %320, 4
  %322 = icmp sgt i64 %321, -1
  call void @llvm.assume(i1 %322)
  %323 = icmp eq i64 %320, 9223372036854775792
  br i1 %323, label %324, label %326

324:                                              ; preds = %313
  invoke void @_ZSt20__throw_length_errorPKc(ptr noundef nonnull @.str.276) #19
          to label %325 unwind label %512

325:                                              ; preds = %324
  unreachable

326:                                              ; preds = %313
  %327 = call i64 @llvm.umax.i64(i64 %321, i64 1)
  %328 = add nuw nsw i64 %327, %321
  %329 = call noundef i64 @llvm.umin.i64(i64 %328, i64 576460752303423487)
  %330 = shl nuw nsw i64 %329, 4
  %331 = invoke noalias noundef nonnull ptr @_Znwm(i64 noundef %330) #47
          to label %332 unwind label %512

332:                                              ; preds = %326
  %333 = getelementptr inbounds nuw i8, ptr %331, i64 %320
  %334 = load ptr, ptr %6, align 8, !tbaa !66
  store ptr %334, ptr %333, align 8, !tbaa !66
  %335 = getelementptr inbounds nuw i8, ptr %333, i64 8
  %336 = load ptr, ptr %120, align 8, !tbaa !39
  store ptr %336, ptr %335, align 8, !tbaa !39
  %337 = icmp eq ptr %336, null
  br i1 %337, label %347, label %338

338:                                              ; preds = %332
  %339 = getelementptr inbounds nuw i8, ptr %336, i64 8
  %340 = load i8, ptr @__libc_single_threaded, align 1, !tbaa !15
  %341 = icmp eq i8 %340, 0
  br i1 %341, label %345, label %342

342:                                              ; preds = %338
  %343 = load i32, ptr %339, align 4, !tbaa !55
  %344 = add nsw i32 %343, 1
  store i32 %344, ptr %339, align 4, !tbaa !55
  br label %347

345:                                              ; preds = %338
  %346 = atomicrmw volatile add ptr %339, i32 1 acq_rel, align 4
  br label %347

347:                                              ; preds = %345, %342, %332
  %348 = icmp eq ptr %314, %317
  br i1 %348, label %359, label %349

349:                                              ; preds = %349, %347
  %350 = phi ptr [ %357, %349 ], [ %331, %347 ]
  %351 = phi ptr [ %356, %349 ], [ %314, %347 ]
  call void @llvm.experimental.noalias.scope.decl(metadata !185)
  call void @llvm.experimental.noalias.scope.decl(metadata !188)
  %352 = load ptr, ptr %351, align 8, !tbaa !66, !alias.scope !188, !noalias !185
  store ptr %352, ptr %350, align 8, !tbaa !66, !alias.scope !185, !noalias !188
  %353 = getelementptr inbounds nuw i8, ptr %350, i64 8
  %354 = getelementptr inbounds nuw i8, ptr %351, i64 8
  %355 = load ptr, ptr %354, align 8, !tbaa !39, !alias.scope !188, !noalias !185
  store ptr null, ptr %354, align 8, !tbaa !39, !alias.scope !188, !noalias !185
  store ptr %355, ptr %353, align 8, !tbaa !39, !alias.scope !185, !noalias !188
  store ptr null, ptr %351, align 8, !tbaa !66, !alias.scope !188, !noalias !185
  %356 = getelementptr inbounds nuw i8, ptr %351, i64 16
  %357 = getelementptr inbounds nuw i8, ptr %350, i64 16
  %358 = icmp eq ptr %356, %317
  br i1 %358, label %359, label %349, !llvm.loop !190

359:                                              ; preds = %349, %347
  %360 = phi ptr [ %331, %347 ], [ %357, %349 ]
  %361 = icmp eq ptr %314, null
  br i1 %361, label %366, label %362

362:                                              ; preds = %359
  %363 = load ptr, ptr %315, align 8, !tbaa !183
  %364 = ptrtoint ptr %363 to i64
  %365 = sub i64 %364, %319
  call void @_ZdlPvm(ptr noundef nonnull %314, i64 noundef %365) #46
  br label %366

366:                                              ; preds = %362, %359
  %367 = getelementptr inbounds nuw i8, ptr %360, i64 16
  store ptr %331, ptr %8, align 8, !tbaa !184
  store ptr %367, ptr %316, align 8, !tbaa !181
  %368 = getelementptr inbounds nuw %"class.dropbox::oxygen::nn.49", ptr %331, i64 %329
  store ptr %368, ptr %315, align 8, !tbaa !183
  br label %369

369:                                              ; preds = %366, %308
  %370 = phi ptr [ %315, %366 ], [ %291, %308 ]
  %371 = phi ptr [ %316, %366 ], [ %290, %308 ]
  br i1 %96, label %372, label %528

372:                                              ; preds = %369
  call void @llvm.lifetime.start.p0(ptr %13)
  invoke void @_ZN5osgeo4proj9operation10Conversion23createAxisOrderReversalEb(ptr dead_on_unwind nonnull writable sret(%"class.dropbox::oxygen::nn.121") align 8 %13, i1 noundef zeroext false)
          to label %373 unwind label %514

373:                                              ; preds = %372
  %374 = load ptr, ptr %13, align 8, !tbaa !178
  %375 = load ptr, ptr %374, align 8, !tbaa !4
  %376 = getelementptr i8, ptr %375, i64 -24
  %377 = load i64, ptr %376, align 8
  call void @llvm.lifetime.start.p0(ptr %14)
  %378 = load ptr, ptr %5, align 8, !tbaa !43
  store ptr %378, ptr %14, align 8, !tbaa !43
  %379 = getelementptr inbounds nuw i8, ptr %14, i64 8
  %380 = load ptr, ptr %55, align 8, !tbaa !39
  store ptr %380, ptr %379, align 8, !tbaa !39
  %381 = icmp eq ptr %380, null
  br i1 %381, label %392, label %382

382:                                              ; preds = %373
  %383 = getelementptr inbounds nuw i8, ptr %380, i64 8
  %384 = load i8, ptr @__libc_single_threaded, align 1, !tbaa !15
  %385 = icmp eq i8 %384, 0
  br i1 %385, label %389, label %386

386:                                              ; preds = %382
  %387 = load i32, ptr %383, align 4, !tbaa !55
  %388 = add nsw i32 %387, 1
  store i32 %388, ptr %383, align 4, !tbaa !55
  br label %392

389:                                              ; preds = %382
  %390 = atomicrmw volatile add ptr %383, i32 1 acq_rel, align 4
  %391 = load ptr, ptr %5, align 8, !tbaa !43
  br label %392

392:                                              ; preds = %389, %386, %373
  %393 = phi ptr [ %378, %373 ], [ %378, %386 ], [ %391, %389 ]
  call void @llvm.lifetime.start.p0(ptr %15)
  invoke void @_ZNK5osgeo4proj3crs3CRS25normalizeForVisualizationEv(ptr dead_on_unwind nonnull writable sret(%"class.dropbox::oxygen::nn") align 8 %15, ptr noundef nonnull align 8 dereferenceable(64) %393)
          to label %394 unwind label %518

394:                                              ; preds = %392
  %395 = getelementptr inbounds i8, ptr %374, i64 %377
  call void @llvm.lifetime.start.p0(ptr %16)
  call void @llvm.memset.p0.i64(ptr noundef nonnull align 8 dereferenceable(16) %16, i8 0, i64 16, i1 false)
  invoke void @_ZN5osgeo4proj9operation19CoordinateOperation7setCRSsERKN7dropbox6oxygen2nnISt10shared_ptrINS0_3crs3CRSEEEESC_RKS9_(ptr noundef nonnull align 8 dereferenceable(72) %395, ptr noundef nonnull align 8 dereferenceable(16) %14, ptr noundef nonnull align 8 dereferenceable(16) %15, ptr noundef nonnull align 8 dereferenceable(16) %16)
          to label %396 unwind label %520

396:                                              ; preds = %394
  %397 = getelementptr inbounds nuw i8, ptr %15, i64 8
  %398 = load ptr, ptr %397, align 8, !tbaa !39
  call void @llvm.lifetime.end.p0(ptr %16)
  %399 = icmp eq ptr %398, null
  br i1 %399, label %424, label %400

400:                                              ; preds = %396
  %401 = getelementptr inbounds nuw i8, ptr %398, i64 8
  %402 = load atomic i64, ptr %401 acquire, align 8
  %403 = icmp eq i64 %402, 4294967297
  %404 = trunc i64 %402 to i32
  br i1 %403, label %405, label %413

405:                                              ; preds = %400
  store i32 0, ptr %401, align 8, !tbaa !62
  %406 = getelementptr inbounds nuw i8, ptr %398, i64 12
  store i32 0, ptr %406, align 4, !tbaa !64
  %407 = load ptr, ptr %398, align 8, !tbaa !4
  %408 = getelementptr inbounds nuw i8, ptr %407, i64 16
  %409 = load ptr, ptr %408, align 8
  call void %409(ptr noundef nonnull align 8 dereferenceable(16) %398) #45
  %410 = load ptr, ptr %398, align 8, !tbaa !4
  %411 = getelementptr inbounds nuw i8, ptr %410, i64 24
  %412 = load ptr, ptr %411, align 8
  call void %412(ptr noundef nonnull align 8 dereferenceable(16) %398) #45
  br label %424

413:                                              ; preds = %400
  %414 = load i8, ptr @__libc_single_threaded, align 1, !tbaa !15
  %415 = icmp eq i8 %414, 0
  br i1 %415, label %418, label %416

416:                                              ; preds = %413
  %417 = add nsw i32 %404, -1
  store i32 %417, ptr %401, align 4, !tbaa !55
  br label %420

418:                                              ; preds = %413
  %419 = atomicrmw volatile add ptr %401, i32 -1 acq_rel, align 4
  br label %420

420:                                              ; preds = %418, %416
  %421 = phi i32 [ %404, %416 ], [ %419, %418 ]
  %422 = icmp eq i32 %421, 1
  br i1 %422, label %423, label %424, !prof !65

423:                                              ; preds = %420
  call void @_ZNSt16_Sp_counted_baseILN9__gnu_cxx12_Lock_policyE2EE24_M_release_last_use_coldEv(ptr noundef nonnull align 8 dereferenceable(16) %398) #45
  br label %424

424:                                              ; preds = %423, %420, %405, %396
  call void @llvm.lifetime.end.p0(ptr %15)
  %425 = load ptr, ptr %379, align 8, !tbaa !39
  %426 = icmp eq ptr %425, null
  br i1 %426, label %451, label %427

427:                                              ; preds = %424
  %428 = getelementptr inbounds nuw i8, ptr %425, i64 8
  %429 = load atomic i64, ptr %428 acquire, align 8
  %430 = icmp eq i64 %429, 4294967297
  %431 = trunc i64 %429 to i32
  br i1 %430, label %432, label %440

432:                                              ; preds = %427
  store i32 0, ptr %428, align 8, !tbaa !62
  %433 = getelementptr inbounds nuw i8, ptr %425, i64 12
  store i32 0, ptr %433, align 4, !tbaa !64
  %434 = load ptr, ptr %425, align 8, !tbaa !4
  %435 = getelementptr inbounds nuw i8, ptr %434, i64 16
  %436 = load ptr, ptr %435, align 8
  call void %436(ptr noundef nonnull align 8 dereferenceable(16) %425) #45
  %437 = load ptr, ptr %425, align 8, !tbaa !4
  %438 = getelementptr inbounds nuw i8, ptr %437, i64 24
  %439 = load ptr, ptr %438, align 8
  call void %439(ptr noundef nonnull align 8 dereferenceable(16) %425) #45
  br label %451

440:                                              ; preds = %427
  %441 = load i8, ptr @__libc_single_threaded, align 1, !tbaa !15
  %442 = icmp eq i8 %441, 0
  br i1 %442, label %445, label %443

443:                                              ; preds = %440
  %444 = add nsw i32 %431, -1
  store i32 %444, ptr %428, align 4, !tbaa !55
  br label %447

445:                                              ; preds = %440
  %446 = atomicrmw volatile add ptr %428, i32 -1 acq_rel, align 4
  br label %447

447:                                              ; preds = %445, %443
  %448 = phi i32 [ %431, %443 ], [ %446, %445 ]
  %449 = icmp eq i32 %448, 1
  br i1 %449, label %450, label %451, !prof !65

450:                                              ; preds = %447
  call void @_ZNSt16_Sp_counted_baseILN9__gnu_cxx12_Lock_policyE2EE24_M_release_last_use_coldEv(ptr noundef nonnull align 8 dereferenceable(16) %425) #45
  br label %451

451:                                              ; preds = %450, %447, %432, %424
  call void @llvm.lifetime.end.p0(ptr %14)
  %452 = load ptr, ptr %371, align 8, !tbaa !181
  %453 = load ptr, ptr %370, align 8, !tbaa !183
  %454 = icmp eq ptr %452, %453
  br i1 %454, label %482, label %455

455:                                              ; preds = %451
  %456 = load ptr, ptr %13, align 8, !tbaa !178
  %457 = icmp eq ptr %456, null
  br i1 %457, label %463, label %458

458:                                              ; preds = %455
  %459 = load ptr, ptr %456, align 8, !tbaa !4
  %460 = getelementptr i8, ptr %459, i64 -24
  %461 = load i64, ptr %460, align 8
  %462 = getelementptr inbounds i8, ptr %456, i64 %461
  br label %463

463:                                              ; preds = %458, %455
  %464 = phi ptr [ %462, %458 ], [ null, %455 ]
  store ptr %464, ptr %452, align 8, !tbaa !66
  %465 = getelementptr inbounds nuw i8, ptr %452, i64 8
  %466 = getelementptr inbounds nuw i8, ptr %13, i64 8
  %467 = load ptr, ptr %466, align 8, !tbaa !39
  store ptr %467, ptr %465, align 8, !tbaa !39
  %468 = icmp eq ptr %467, null
  br i1 %468, label %479, label %469

469:                                              ; preds = %463
  %470 = getelementptr inbounds nuw i8, ptr %467, i64 8
  %471 = load i8, ptr @__libc_single_threaded, align 1, !tbaa !15
  %472 = icmp eq i8 %471, 0
  br i1 %472, label %476, label %473

473:                                              ; preds = %469
  %474 = load i32, ptr %470, align 4, !tbaa !55
  %475 = add nsw i32 %474, 1
  store i32 %475, ptr %470, align 4, !tbaa !55
  br label %479

476:                                              ; preds = %469
  %477 = atomicrmw volatile add ptr %470, i32 1 acq_rel, align 4
  %478 = load ptr, ptr %371, align 8, !tbaa !181
  br label %479

479:                                              ; preds = %476, %473, %463
  %480 = phi ptr [ %452, %463 ], [ %452, %473 ], [ %478, %476 ]
  %481 = getelementptr inbounds nuw i8, ptr %480, i64 16
  store ptr %481, ptr %371, align 8, !tbaa !181
  br label %483

482:                                              ; preds = %451
  invoke void @_ZNSt6vectorIN7dropbox6oxygen2nnISt10shared_ptrIN5osgeo4proj9operation19CoordinateOperationEEEESaIS9_EE17_M_realloc_appendIJRNS2_IS3_INS6_10ConversionEEEEEEEvDpOT_(ptr noundef nonnull align 8 dereferenceable(24) %8, ptr noundef nonnull align 8 dereferenceable(16) %13)
          to label %483 unwind label %516

483:                                              ; preds = %482, %479
  %484 = getelementptr inbounds nuw i8, ptr %13, i64 8
  %485 = load ptr, ptr %484, align 8, !tbaa !39
  %486 = icmp eq ptr %485, null
  br i1 %486, label %511, label %487

487:                                              ; preds = %483
  %488 = getelementptr inbounds nuw i8, ptr %485, i64 8
  %489 = load atomic i64, ptr %488 acquire, align 8
  %490 = icmp eq i64 %489, 4294967297
  %491 = trunc i64 %489 to i32
  br i1 %490, label %492, label %500

492:                                              ; preds = %487
  store i32 0, ptr %488, align 8, !tbaa !62
  %493 = getelementptr inbounds nuw i8, ptr %485, i64 12
  store i32 0, ptr %493, align 4, !tbaa !64
  %494 = load ptr, ptr %485, align 8, !tbaa !4
  %495 = getelementptr inbounds nuw i8, ptr %494, i64 16
  %496 = load ptr, ptr %495, align 8
  call void %496(ptr noundef nonnull align 8 dereferenceable(16) %485) #45
  %497 = load ptr, ptr %485, align 8, !tbaa !4
  %498 = getelementptr inbounds nuw i8, ptr %497, i64 24
  %499 = load ptr, ptr %498, align 8
  call void %499(ptr noundef nonnull align 8 dereferenceable(16) %485) #45
  br label %511

500:                                              ; preds = %487
  %501 = load i8, ptr @__libc_single_threaded, align 1, !tbaa !15
  %502 = icmp eq i8 %501, 0
  br i1 %502, label %505, label %503

503:                                              ; preds = %500
  %504 = add nsw i32 %491, -1
  store i32 %504, ptr %488, align 4, !tbaa !55
  br label %507

505:                                              ; preds = %500
  %506 = atomicrmw volatile add ptr %488, i32 -1 acq_rel, align 4
  br label %507

507:                                              ; preds = %505, %503
  %508 = phi i32 [ %491, %503 ], [ %506, %505 ]
  %509 = icmp eq i32 %508, 1
  br i1 %509, label %510, label %511, !prof !65

510:                                              ; preds = %507
  call void @_ZNSt16_Sp_counted_baseILN9__gnu_cxx12_Lock_policyE2EE24_M_release_last_use_coldEv(ptr noundef nonnull align 8 dereferenceable(16) %485) #45
  br label %511

511:                                              ; preds = %510, %507, %492, %483
  call void @llvm.lifetime.end.p0(ptr %13)
  br label %528

512:                                              ; preds = %326, %324
  %513 = landingpad { ptr, i32 }
          cleanup
  br label %997

514:                                              ; preds = %372
  %515 = landingpad { ptr, i32 }
          cleanup
  br label %526

516:                                              ; preds = %482
  %517 = landingpad { ptr, i32 }
          cleanup
  br label %524

518:                                              ; preds = %392
  %519 = landingpad { ptr, i32 }
          cleanup
  br label %522

520:                                              ; preds = %394
  %521 = landingpad { ptr, i32 }
          cleanup
  call void @_ZNSt12__shared_ptrIN5osgeo4proj3crs3CRSELN9__gnu_cxx12_Lock_policyE2EED2Ev(ptr noundef nonnull align 8 dereferenceable(16) %16) #45
  call void @llvm.lifetime.end.p0(ptr %16)
  call void @_ZN7dropbox6oxygen2nnISt10shared_ptrIN5osgeo4proj3crs3CRSEEED2Ev(ptr noundef nonnull align 8 dereferenceable(16) %15) #45
  br label %522

522:                                              ; preds = %520, %518
  %523 = phi { ptr, i32 } [ %521, %520 ], [ %519, %518 ]
  call void @llvm.lifetime.end.p0(ptr %15)
  call void @_ZN7dropbox6oxygen2nnISt10shared_ptrIN5osgeo4proj3crs3CRSEEED2Ev(ptr noundef nonnull align 8 dereferenceable(16) %14) #45
  call void @llvm.lifetime.end.p0(ptr %14)
  br label %524

524:                                              ; preds = %522, %516
  %525 = phi { ptr, i32 } [ %517, %516 ], [ %523, %522 ]
  call void @_ZN7dropbox6oxygen2nnISt10shared_ptrIN5osgeo4proj9operation10ConversionEEED2Ev(ptr noundef nonnull align 8 dereferenceable(16) %13) #45
  br label %526

526:                                              ; preds = %524, %514
  %527 = phi { ptr, i32 } [ %525, %524 ], [ %515, %514 ]
  call void @llvm.lifetime.end.p0(ptr %13)
  br label %997

528:                                              ; preds = %511, %369
  call void @llvm.lifetime.start.p0(ptr %17)
  invoke void @_ZN5osgeo4proj4util11PropertyMapC1Ev(ptr noundef nonnull align 8 dereferenceable(8) %17)
          to label %529 unwind label %564

529:                                              ; preds = %528
  %530 = invoke noundef nonnull align 8 dereferenceable(8) ptr @_ZN5osgeo4proj9operation10addDomainsERNS0_4util11PropertyMapEPKNS0_6common11ObjectUsageE(ptr noundef nonnull align 8 dereferenceable(8) %17, ptr noundef nonnull %1)
          to label %531 unwind label %566

531:                                              ; preds = %529
  invoke void @_ZN5osgeo4proj9operation21addModifiedIdentifierERNS0_4util11PropertyMapEPKNS0_6common16IdentifiedObjectEbb(ptr noundef nonnull align 8 dereferenceable(8) %17, ptr noundef nonnull %1, i1 noundef zeroext false, i1 noundef zeroext true)
          to label %532 unwind label %566

532:                                              ; preds = %531
  call void @llvm.lifetime.start.p0(ptr %18)
  %533 = call noundef nonnull align 8 dereferenceable(32) ptr @_ZNK5osgeo4proj6common16IdentifiedObject7nameStrB5cxx11Ev(ptr noundef nonnull align 8 dereferenceable(40) %1) #49
  %534 = getelementptr inbounds nuw i8, ptr %18, i64 16
  store ptr %534, ptr %18, align 8, !tbaa !7
  %535 = load ptr, ptr %533, align 8, !tbaa !21
  %536 = getelementptr inbounds nuw i8, ptr %533, i64 8
  %537 = load i64, ptr %536, align 8, !tbaa !12
  %538 = icmp ult i64 %537, 9223372036854775807
  call void @llvm.assume(i1 %538)
  call void @llvm.lifetime.start.p0(ptr %3)
  store i64 %537, ptr %3, align 8, !tbaa !22
  %539 = icmp samesign ugt i64 %537, 15
  br i1 %539, label %540, label %544

540:                                              ; preds = %532
  %541 = invoke noundef ptr @_ZNSt7__cxx1112basic_stringIcSt11char_traitsIcESaIcEE9_M_createERmm(ptr noundef nonnull align 8 dereferenceable(32) %18, ptr noundef nonnull align 8 dereferenceable(8) %3, i64 noundef 0)
          to label %542 unwind label %568

542:                                              ; preds = %540
  store ptr %541, ptr %18, align 8, !tbaa !21
  %543 = load i64, ptr %3, align 8, !tbaa !22
  store i64 %543, ptr %534, align 8, !tbaa !15
  br label %544

544:                                              ; preds = %542, %532
  %545 = phi i64 [ %543, %542 ], [ %537, %532 ]
  %546 = phi ptr [ %541, %542 ], [ %534, %532 ]
  switch i64 %545, label %549 [
    i64 0, label %547
    i64 -1, label %551
  ]

547:                                              ; preds = %544
  %548 = load i8, ptr %535, align 1, !tbaa !15
  store i8 %548, ptr %546, align 1, !tbaa !15
  br label %551

549:                                              ; preds = %544
  %550 = add nuw i64 %545, 1
  call void @llvm.memcpy.p0.p0.i64(ptr noundef nonnull align 1 dereferenceable(1) %546, ptr noundef nonnull align 1 dereferenceable(1) %535, i64 %550, i1 false)
  br label %551

551:                                              ; preds = %549, %547, %544
  %552 = load i64, ptr %3, align 8, !tbaa !22
  %553 = getelementptr inbounds nuw i8, ptr %18, i64 8
  store i64 %552, ptr %553, align 8, !tbaa !12
  call void @llvm.lifetime.end.p0(ptr %3)
  %554 = icmp eq i64 %552, 0
  br i1 %554, label %572, label %555

555:                                              ; preds = %551
  %556 = icmp ult i64 %552, 9223372036854775807
  call void @llvm.assume(i1 %556)
  %557 = icmp samesign ugt i64 %552, 9223372036854775759
  br i1 %557, label %558, label %560

558:                                              ; preds = %555
  invoke void @_ZSt20__throw_length_errorPKc(ptr noundef nonnull @.str.277) #19
          to label %559 unwind label %570

559:                                              ; preds = %558
  unreachable

560:                                              ; preds = %555
  %561 = invoke noundef nonnull align 8 dereferenceable(32) ptr @_ZNSt7__cxx1112basic_stringIcSt11char_traitsIcESaIcEE9_M_appendEPKcm(ptr noundef nonnull align 8 dereferenceable(32) %18, ptr noundef nonnull @.str.1, i64 noundef 47)
          to label %562 unwind label %570

562:                                              ; preds = %560
  %563 = invoke noundef nonnull align 8 dereferenceable(8) ptr @_ZN5osgeo4proj4util11PropertyMap3setERKNSt7__cxx1112basic_stringIcSt11char_traitsIcESaIcEEESA_(ptr noundef nonnull align 8 dereferenceable(8) %17, ptr noundef nonnull align 8 dereferenceable(32) @_ZN5osgeo4proj6common16IdentifiedObject8NAME_KEYB5cxx11E, ptr noundef nonnull align 8 dereferenceable(32) %18)
          to label %572 unwind label %570

564:                                              ; preds = %528
  %565 = landingpad { ptr, i32 }
          cleanup
  br label %995

566:                                              ; preds = %531, %529
  %567 = landingpad { ptr, i32 }
          cleanup
  br label %993

568:                                              ; preds = %540
  %569 = landingpad { ptr, i32 }
          cleanup
  br label %991

570:                                              ; preds = %562, %560, %558
  %571 = landingpad { ptr, i32 }
          cleanup
  br label %981

572:                                              ; preds = %562, %551
  %573 = call noundef nonnull align 8 dereferenceable(32) ptr @_ZNK5osgeo4proj6common16IdentifiedObject7remarksB5cxx11Ev(ptr noundef nonnull align 8 dereferenceable(40) %1) #49
  %574 = getelementptr inbounds nuw i8, ptr %573, i64 8
  %575 = load i64, ptr %574, align 8, !tbaa !12
  %576 = icmp eq i64 %575, 0
  br i1 %576, label %581, label %577

577:                                              ; preds = %572
  %578 = invoke noundef nonnull align 8 dereferenceable(8) ptr @_ZN5osgeo4proj4util11PropertyMap3setERKNSt7__cxx1112basic_stringIcSt11char_traitsIcESaIcEEESA_(ptr noundef nonnull align 8 dereferenceable(8) %17, ptr noundef nonnull align 8 dereferenceable(32) @_ZN5osgeo4proj6common16IdentifiedObject11REMARKS_KEYB5cxx11E, ptr noundef nonnull align 8 dereferenceable(32) %573)
          to label %581 unwind label %579

579:                                              ; preds = %577
  %580 = landingpad { ptr, i32 }
          cleanup
  br label %981

581:                                              ; preds = %577, %572
  call void @llvm.lifetime.start.p0(ptr %19)
  call void @llvm.memset.p0.i64(ptr noundef nonnull align 8 dereferenceable(24) %19, i8 0, i64 24, i1 false)
  %582 = load ptr, ptr %8, align 8, !tbaa !72
  %583 = load ptr, ptr %371, align 8, !tbaa !72
  %584 = icmp eq ptr %582, %583
  br i1 %584, label %590, label %585

585:                                              ; preds = %581
  %586 = getelementptr inbounds nuw i8, ptr %20, i64 8
  %587 = getelementptr inbounds nuw i8, ptr %20, i64 16
  %588 = getelementptr inbounds nuw i8, ptr %19, i64 8
  %589 = getelementptr inbounds nuw i8, ptr %19, i64 16
  br label %593

590:                                              ; preds = %867, %581
  call void @llvm.lifetime.start.p0(ptr %21)
  %591 = load ptr, ptr %22, align 8, !tbaa !28
  %592 = getelementptr inbounds nuw i8, ptr %591, i64 40
  invoke void @_ZN5osgeo4proj9operation21ConcatenatedOperation6createERKNS0_4util11PropertyMapERKSt6vectorIN7dropbox6oxygen2nnISt10shared_ptrINS1_19CoordinateOperationEEEESaISE_EERKS7_INSA_ISB_INS0_8metadata18PositionalAccuracyEEEESaISM_EE(ptr dead_on_unwind nonnull writable sret(%"class.dropbox::oxygen::nn.133") align 8 %21, ptr noundef nonnull align 8 dereferenceable(8) %17, ptr noundef nonnull align 8 dereferenceable(24) %19, ptr noundef nonnull align 8 dereferenceable(24) %592)
          to label %870 unwind label %977

593:                                              ; preds = %867, %585
  %594 = phi ptr [ %582, %585 ], [ %868, %867 ]
  %595 = load ptr, ptr %594, align 8, !tbaa !66
  %596 = icmp eq ptr %595, null
  br i1 %596, label %791, label %597

597:                                              ; preds = %593
  %598 = load ptr, ptr %595, align 8, !tbaa !4
  %599 = icmp eq ptr %598, getelementptr inbounds nuw inrange(-16, 80) (i8, ptr @_ZTVN5osgeo4proj9operation21ConcatenatedOperationE, i64 16)
  br i1 %599, label %604, label %791

600:                                              ; preds = %823
  %601 = landingpad { ptr, i32 }
          cleanup
  br label %979

602:                                              ; preds = %821
  %603 = landingpad { ptr, i32 }
          cleanup
  br label %979

604:                                              ; preds = %597
  call void @llvm.lifetime.start.p0(ptr %20)
  %605 = invoke noundef nonnull align 8 dereferenceable(24) ptr @_ZNK5osgeo4proj9operation21ConcatenatedOperation10operationsEv(ptr noundef nonnull align 8 dereferenceable(80) %595)
          to label %606 unwind label %699

606:                                              ; preds = %604
  %607 = getelementptr inbounds nuw i8, ptr %605, i64 8
  %608 = load ptr, ptr %607, align 8, !tbaa !181
  %609 = load ptr, ptr %605, align 8, !tbaa !184
  %610 = ptrtoint ptr %608 to i64
  %611 = ptrtoint ptr %609 to i64
  %612 = sub i64 %610, %611
  %613 = icmp sgt i64 %612, -1
  call void @llvm.assume(i1 %613)
  %614 = icmp eq ptr %608, %609
  br i1 %614, label %620, label %615

615:                                              ; preds = %606
  %616 = invoke noalias noundef nonnull ptr @_Znwm(i64 noundef %612) #47
          to label %617 unwind label %699

617:                                              ; preds = %615
  %618 = load ptr, ptr %605, align 8, !tbaa !72
  %619 = load ptr, ptr %607, align 8, !tbaa !72
  br label %620

620:                                              ; preds = %617, %606
  %621 = phi ptr [ %608, %606 ], [ %619, %617 ]
  %622 = phi ptr [ %609, %606 ], [ %618, %617 ]
  %623 = phi ptr [ null, %606 ], [ %616, %617 ]
  store ptr %623, ptr %20, align 8, !tbaa !184
  store ptr %623, ptr %586, align 8, !tbaa !181
  %624 = getelementptr inbounds nuw i8, ptr %623, i64 %612
  store ptr %624, ptr %587, align 8, !tbaa !183
  %625 = icmp eq ptr %622, %621
  br i1 %625, label %690, label %626

626:                                              ; preds = %643, %620
  %627 = phi ptr [ %644, %643 ], [ %622, %620 ]
  %628 = phi ptr [ %645, %643 ], [ %623, %620 ]
  %629 = load ptr, ptr %627, align 8, !tbaa !66
  store ptr %629, ptr %628, align 8, !tbaa !66
  %630 = getelementptr inbounds nuw i8, ptr %628, i64 8
  %631 = getelementptr inbounds nuw i8, ptr %627, i64 8
  %632 = load ptr, ptr %631, align 8, !tbaa !39
  store ptr %632, ptr %630, align 8, !tbaa !39
  %633 = icmp eq ptr %632, null
  br i1 %633, label %643, label %634

634:                                              ; preds = %626
  %635 = getelementptr inbounds nuw i8, ptr %632, i64 8
  %636 = load i8, ptr @__libc_single_threaded, align 1, !tbaa !15
  %637 = icmp eq i8 %636, 0
  br i1 %637, label %641, label %638

638:                                              ; preds = %634
  %639 = load i32, ptr %635, align 4, !tbaa !55
  %640 = add nsw i32 %639, 1
  store i32 %640, ptr %635, align 4, !tbaa !55
  br label %643

641:                                              ; preds = %634
  %642 = atomicrmw volatile add ptr %635, i32 1 acq_rel, align 4
  br label %643

643:                                              ; preds = %641, %638, %626
  %644 = getelementptr inbounds nuw i8, ptr %627, i64 16
  %645 = getelementptr inbounds nuw i8, ptr %628, i64 16
  %646 = icmp eq ptr %644, %621
  br i1 %646, label %647, label %626, !llvm.loop !191

647:                                              ; preds = %643
  %648 = load ptr, ptr %20, align 8, !tbaa !72
  store ptr %645, ptr %586, align 8, !tbaa !181
  %649 = icmp eq ptr %648, %645
  br i1 %649, label %690, label %650

650:                                              ; preds = %647
  %651 = load ptr, ptr %588, align 8, !tbaa !181
  br label %701

652:                                              ; preds = %779
  %653 = load ptr, ptr %20, align 8, !tbaa !184
  %654 = load ptr, ptr %586, align 8, !tbaa !181
  %655 = icmp eq ptr %653, %654
  br i1 %655, label %690, label %656

656:                                              ; preds = %685, %652
  %657 = phi ptr [ %686, %685 ], [ %653, %652 ]
  %658 = getelementptr inbounds nuw i8, ptr %657, i64 8
  %659 = load ptr, ptr %658, align 8, !tbaa !39
  %660 = icmp eq ptr %659, null
  br i1 %660, label %685, label %661

661:                                              ; preds = %656
  %662 = getelementptr inbounds nuw i8, ptr %659, i64 8
  %663 = load atomic i64, ptr %662 acquire, align 8
  %664 = icmp eq i64 %663, 4294967297
  %665 = trunc i64 %663 to i32
  br i1 %664, label %666, label %674

666:                                              ; preds = %661
  store i32 0, ptr %662, align 8, !tbaa !62
  %667 = getelementptr inbounds nuw i8, ptr %659, i64 12
  store i32 0, ptr %667, align 4, !tbaa !64
  %668 = load ptr, ptr %659, align 8, !tbaa !4
  %669 = getelementptr inbounds nuw i8, ptr %668, i64 16
  %670 = load ptr, ptr %669, align 8
  call void %670(ptr noundef nonnull align 8 dereferenceable(16) %659) #45
  %671 = load ptr, ptr %659, align 8, !tbaa !4
  %672 = getelementptr inbounds nuw i8, ptr %671, i64 24
  %673 = load ptr, ptr %672, align 8
  call void %673(ptr noundef nonnull align 8 dereferenceable(16) %659) #45
  br label %685

674:                                              ; preds = %661
  %675 = load i8, ptr @__libc_single_threaded, align 1, !tbaa !15
  %676 = icmp eq i8 %675, 0
  br i1 %676, label %679, label %677

677:                                              ; preds = %674
  %678 = add nsw i32 %665, -1
  store i32 %678, ptr %662, align 4, !tbaa !55
  br label %681

679:                                              ; preds = %674
  %680 = atomicrmw volatile add ptr %662, i32 -1 acq_rel, align 4
  br label %681

681:                                              ; preds = %679, %677
  %682 = phi i32 [ %665, %677 ], [ %680, %679 ]
  %683 = icmp eq i32 %682, 1
  br i1 %683, label %684, label %685, !prof !65

684:                                              ; preds = %681
  call void @_ZNSt16_Sp_counted_baseILN9__gnu_cxx12_Lock_policyE2EE24_M_release_last_use_coldEv(ptr noundef nonnull align 8 dereferenceable(16) %659) #45
  br label %685

685:                                              ; preds = %684, %681, %666, %656
  %686 = getelementptr inbounds nuw i8, ptr %657, i64 16
  %687 = icmp eq ptr %686, %654
  br i1 %687, label %688, label %656, !llvm.loop !192

688:                                              ; preds = %685
  %689 = load ptr, ptr %20, align 8, !tbaa !184
  br label %690

690:                                              ; preds = %688, %652, %647, %620
  %691 = phi ptr [ %689, %688 ], [ %653, %652 ], [ %648, %647 ], [ %623, %620 ]
  %692 = icmp eq ptr %691, null
  br i1 %692, label %698, label %693

693:                                              ; preds = %690
  %694 = load ptr, ptr %587, align 8, !tbaa !183
  %695 = ptrtoint ptr %694 to i64
  %696 = ptrtoint ptr %691 to i64
  %697 = sub i64 %695, %696
  call void @_ZdlPvm(ptr noundef nonnull %691, i64 noundef %697) #46
  br label %698

698:                                              ; preds = %693, %690
  call void @llvm.lifetime.end.p0(ptr %20)
  br label %867

699:                                              ; preds = %615, %604
  %700 = landingpad { ptr, i32 }
          cleanup
  br label %789

701:                                              ; preds = %779, %650
  %702 = phi ptr [ %780, %779 ], [ %651, %650 ]
  %703 = phi ptr [ %781, %779 ], [ %648, %650 ]
  %704 = load ptr, ptr %589, align 8, !tbaa !183
  %705 = icmp eq ptr %702, %704
  br i1 %705, label %725, label %706

706:                                              ; preds = %701
  %707 = load ptr, ptr %703, align 8, !tbaa !66
  store ptr %707, ptr %702, align 8, !tbaa !66
  %708 = getelementptr inbounds nuw i8, ptr %702, i64 8
  %709 = getelementptr inbounds nuw i8, ptr %703, i64 8
  %710 = load ptr, ptr %709, align 8, !tbaa !39
  store ptr %710, ptr %708, align 8, !tbaa !39
  %711 = icmp eq ptr %710, null
  br i1 %711, label %722, label %712

712:                                              ; preds = %706
  %713 = getelementptr inbounds nuw i8, ptr %710, i64 8
  %714 = load i8, ptr @__libc_single_threaded, align 1, !tbaa !15
  %715 = icmp eq i8 %714, 0
  br i1 %715, label %719, label %716

716:                                              ; preds = %712
  %717 = load i32, ptr %713, align 4, !tbaa !55
  %718 = add nsw i32 %717, 1
  store i32 %718, ptr %713, align 4, !tbaa !55
  br label %722

719:                                              ; preds = %712
  %720 = atomicrmw volatile add ptr %713, i32 1 acq_rel, align 4
  %721 = load ptr, ptr %588, align 8, !tbaa !181
  br label %722

722:                                              ; preds = %719, %716, %706
  %723 = phi ptr [ %702, %706 ], [ %702, %716 ], [ %721, %719 ]
  %724 = getelementptr inbounds nuw i8, ptr %723, i64 16
  store ptr %724, ptr %588, align 8, !tbaa !181
  br label %779

725:                                              ; preds = %701
  %726 = load ptr, ptr %19, align 8, !tbaa !184
  %727 = ptrtoint ptr %702 to i64
  %728 = ptrtoint ptr %726 to i64
  %729 = sub i64 %727, %728
  %730 = ashr exact i64 %729, 4
  %731 = icmp sgt i64 %730, -1
  call void @llvm.assume(i1 %731)
  %732 = icmp eq i64 %729, 9223372036854775792
  br i1 %732, label %733, label %735

733:                                              ; preds = %725
  invoke void @_ZSt20__throw_length_errorPKc(ptr noundef nonnull @.str.276) #19
          to label %734 unwind label %785

734:                                              ; preds = %733
  unreachable

735:                                              ; preds = %725
  %736 = call i64 @llvm.umax.i64(i64 %730, i64 1)
  %737 = add nuw nsw i64 %736, %730
  %738 = call noundef i64 @llvm.umin.i64(i64 %737, i64 576460752303423487)
  %739 = shl nuw nsw i64 %738, 4
  %740 = invoke noalias noundef nonnull ptr @_Znwm(i64 noundef %739) #47
          to label %741 unwind label %783

741:                                              ; preds = %735
  %742 = getelementptr inbounds nuw i8, ptr %740, i64 %729
  %743 = load ptr, ptr %703, align 8, !tbaa !66
  store ptr %743, ptr %742, align 8, !tbaa !66
  %744 = getelementptr inbounds nuw i8, ptr %742, i64 8
  %745 = getelementptr inbounds nuw i8, ptr %703, i64 8
  %746 = load ptr, ptr %745, align 8, !tbaa !39
  store ptr %746, ptr %744, align 8, !tbaa !39
  %747 = icmp eq ptr %746, null
  br i1 %747, label %757, label %748

748:                                              ; preds = %741
  %749 = getelementptr inbounds nuw i8, ptr %746, i64 8
  %750 = load i8, ptr @__libc_single_threaded, align 1, !tbaa !15
  %751 = icmp eq i8 %750, 0
  br i1 %751, label %755, label %752

752:                                              ; preds = %748
  %753 = load i32, ptr %749, align 4, !tbaa !55
  %754 = add nsw i32 %753, 1
  store i32 %754, ptr %749, align 4, !tbaa !55
  br label %757

755:                                              ; preds = %748
  %756 = atomicrmw volatile add ptr %749, i32 1 acq_rel, align 4
  br label %757

757:                                              ; preds = %755, %752, %741
  %758 = icmp eq ptr %726, %702
  br i1 %758, label %769, label %759

759:                                              ; preds = %759, %757
  %760 = phi ptr [ %767, %759 ], [ %740, %757 ]
  %761 = phi ptr [ %766, %759 ], [ %726, %757 ]
  call void @llvm.experimental.noalias.scope.decl(metadata !193)
  call void @llvm.experimental.noalias.scope.decl(metadata !196)
  %762 = load ptr, ptr %761, align 8, !tbaa !66, !alias.scope !196, !noalias !193
  store ptr %762, ptr %760, align 8, !tbaa !66, !alias.scope !193, !noalias !196
  %763 = getelementptr inbounds nuw i8, ptr %760, i64 8
  %764 = getelementptr inbounds nuw i8, ptr %761, i64 8
  %765 = load ptr, ptr %764, align 8, !tbaa !39, !alias.scope !196, !noalias !193
  store ptr null, ptr %764, align 8, !tbaa !39, !alias.scope !196, !noalias !193
  store ptr %765, ptr %763, align 8, !tbaa !39, !alias.scope !193, !noalias !196
  store ptr null, ptr %761, align 8, !tbaa !66, !alias.scope !196, !noalias !193
  %766 = getelementptr inbounds nuw i8, ptr %761, i64 16
  %767 = getelementptr inbounds nuw i8, ptr %760, i64 16
  %768 = icmp eq ptr %766, %702
  br i1 %768, label %769, label %759, !llvm.loop !190

769:                                              ; preds = %759, %757
  %770 = phi ptr [ %740, %757 ], [ %767, %759 ]
  %771 = icmp eq ptr %726, null
  br i1 %771, label %776, label %772

772:                                              ; preds = %769
  %773 = load ptr, ptr %589, align 8, !tbaa !183
  %774 = ptrtoint ptr %773 to i64
  %775 = sub i64 %774, %728
  call void @_ZdlPvm(ptr noundef nonnull %726, i64 noundef %775) #46
  br label %776

776:                                              ; preds = %772, %769
  %777 = getelementptr inbounds nuw i8, ptr %770, i64 16
  store ptr %740, ptr %19, align 8, !tbaa !184
  store ptr %777, ptr %588, align 8, !tbaa !181
  %778 = getelementptr inbounds nuw %"class.dropbox::oxygen::nn.49", ptr %740, i64 %738
  store ptr %778, ptr %589, align 8, !tbaa !183
  br label %779

779:                                              ; preds = %776, %722
  %780 = phi ptr [ %777, %776 ], [ %724, %722 ]
  %781 = getelementptr inbounds nuw i8, ptr %703, i64 16
  %782 = icmp eq ptr %703, %628
  br i1 %782, label %652, label %701

783:                                              ; preds = %735
  %784 = landingpad { ptr, i32 }
          cleanup
  br label %787

785:                                              ; preds = %733
  %786 = landingpad { ptr, i32 }
          cleanup
  br label %787

787:                                              ; preds = %785, %783
  %788 = phi { ptr, i32 } [ %784, %783 ], [ %786, %785 ]
  call void @_ZNSt6vectorIN7dropbox6oxygen2nnISt10shared_ptrIN5osgeo4proj9operation19CoordinateOperationEEEESaIS9_EED2Ev(ptr noundef nonnull align 8 dereferenceable(24) %20) #45
  br label %789

789:                                              ; preds = %787, %699
  %790 = phi { ptr, i32 } [ %788, %787 ], [ %700, %699 ]
  call void @llvm.lifetime.end.p0(ptr %20)
  br label %979

791:                                              ; preds = %597, %593
  %792 = load ptr, ptr %588, align 8, !tbaa !181
  %793 = load ptr, ptr %589, align 8, !tbaa !183
  %794 = icmp eq ptr %792, %793
  br i1 %794, label %813, label %795

795:                                              ; preds = %791
  store ptr %595, ptr %792, align 8, !tbaa !66
  %796 = getelementptr inbounds nuw i8, ptr %792, i64 8
  %797 = getelementptr inbounds nuw i8, ptr %594, i64 8
  %798 = load ptr, ptr %797, align 8, !tbaa !39
  store ptr %798, ptr %796, align 8, !tbaa !39
  %799 = icmp eq ptr %798, null
  br i1 %799, label %810, label %800

800:                                              ; preds = %795
  %801 = getelementptr inbounds nuw i8, ptr %798, i64 8
  %802 = load i8, ptr @__libc_single_threaded, align 1, !tbaa !15
  %803 = icmp eq i8 %802, 0
  br i1 %803, label %807, label %804

804:                                              ; preds = %800
  %805 = load i32, ptr %801, align 4, !tbaa !55
  %806 = add nsw i32 %805, 1
  store i32 %806, ptr %801, align 4, !tbaa !55
  br label %810

807:                                              ; preds = %800
  %808 = atomicrmw volatile add ptr %801, i32 1 acq_rel, align 4
  %809 = load ptr, ptr %588, align 8, !tbaa !181
  br label %810

810:                                              ; preds = %807, %804, %795
  %811 = phi ptr [ %792, %795 ], [ %792, %804 ], [ %809, %807 ]
  %812 = getelementptr inbounds nuw i8, ptr %811, i64 16
  store ptr %812, ptr %588, align 8, !tbaa !181
  br label %867

813:                                              ; preds = %791
  %814 = load ptr, ptr %19, align 8, !tbaa !184
  %815 = ptrtoint ptr %792 to i64
  %816 = ptrtoint ptr %814 to i64
  %817 = sub i64 %815, %816
  %818 = ashr exact i64 %817, 4
  %819 = icmp sgt i64 %818, -1
  call void @llvm.assume(i1 %819)
  %820 = icmp eq i64 %817, 9223372036854775792
  br i1 %820, label %821, label %823

821:                                              ; preds = %813
  invoke void @_ZSt20__throw_length_errorPKc(ptr noundef nonnull @.str.276) #19
          to label %822 unwind label %602

822:                                              ; preds = %821
  unreachable

823:                                              ; preds = %813
  %824 = call i64 @llvm.umax.i64(i64 %818, i64 1)
  %825 = add nuw nsw i64 %824, %818
  %826 = call noundef i64 @llvm.umin.i64(i64 %825, i64 576460752303423487)
  %827 = shl nuw nsw i64 %826, 4
  %828 = invoke noalias noundef nonnull ptr @_Znwm(i64 noundef %827) #47
          to label %829 unwind label %600

829:                                              ; preds = %823
  %830 = getelementptr inbounds nuw i8, ptr %828, i64 %817
  %831 = load ptr, ptr %594, align 8, !tbaa !66
  store ptr %831, ptr %830, align 8, !tbaa !66
  %832 = getelementptr inbounds nuw i8, ptr %830, i64 8
  %833 = getelementptr inbounds nuw i8, ptr %594, i64 8
  %834 = load ptr, ptr %833, align 8, !tbaa !39
  store ptr %834, ptr %832, align 8, !tbaa !39
  %835 = icmp eq ptr %834, null
  br i1 %835, label %845, label %836

836:                                              ; preds = %829
  %837 = getelementptr inbounds nuw i8, ptr %834, i64 8
  %838 = load i8, ptr @__libc_single_threaded, align 1, !tbaa !15
  %839 = icmp eq i8 %838, 0
  br i1 %839, label %843, label %840

840:                                              ; preds = %836
  %841 = load i32, ptr %837, align 4, !tbaa !55
  %842 = add nsw i32 %841, 1
  store i32 %842, ptr %837, align 4, !tbaa !55
  br label %845

843:                                              ; preds = %836
  %844 = atomicrmw volatile add ptr %837, i32 1 acq_rel, align 4
  br label %845

845:                                              ; preds = %843, %840, %829
  %846 = icmp eq ptr %814, %792
  br i1 %846, label %857, label %847

847:                                              ; preds = %847, %845
  %848 = phi ptr [ %855, %847 ], [ %828, %845 ]
  %849 = phi ptr [ %854, %847 ], [ %814, %845 ]
  call void @llvm.experimental.noalias.scope.decl(metadata !198)
  call void @llvm.experimental.noalias.scope.decl(metadata !201)
  %850 = load ptr, ptr %849, align 8, !tbaa !66, !alias.scope !201, !noalias !198
  store ptr %850, ptr %848, align 8, !tbaa !66, !alias.scope !198, !noalias !201
  %851 = getelementptr inbounds nuw i8, ptr %848, i64 8
  %852 = getelementptr inbounds nuw i8, ptr %849, i64 8
  %853 = load ptr, ptr %852, align 8, !tbaa !39, !alias.scope !201, !noalias !198
  store ptr null, ptr %852, align 8, !tbaa !39, !alias.scope !201, !noalias !198
  store ptr %853, ptr %851, align 8, !tbaa !39, !alias.scope !198, !noalias !201
  store ptr null, ptr %849, align 8, !tbaa !66, !alias.scope !201, !noalias !198
  %854 = getelementptr inbounds nuw i8, ptr %849, i64 16
  %855 = getelementptr inbounds nuw i8, ptr %848, i64 16
  %856 = icmp eq ptr %854, %792
  br i1 %856, label %857, label %847, !llvm.loop !190

857:                                              ; preds = %847, %845
  %858 = phi ptr [ %828, %845 ], [ %855, %847 ]
  %859 = icmp eq ptr %814, null
  br i1 %859, label %864, label %860

860:                                              ; preds = %857
  %861 = load ptr, ptr %589, align 8, !tbaa !183
  %862 = ptrtoint ptr %861 to i64
  %863 = sub i64 %862, %816
  call void @_ZdlPvm(ptr noundef nonnull %814, i64 noundef %863) #46
  br label %864

864:                                              ; preds = %860, %857
  %865 = getelementptr inbounds nuw i8, ptr %858, i64 16
  store ptr %828, ptr %19, align 8, !tbaa !184
  store ptr %865, ptr %588, align 8, !tbaa !181
  %866 = getelementptr inbounds nuw %"class.dropbox::oxygen::nn.49", ptr %828, i64 %826
  store ptr %866, ptr %589, align 8, !tbaa !183
  br label %867

867:                                              ; preds = %864, %810, %698
  %868 = getelementptr inbounds nuw i8, ptr %594, i64 16
  %869 = icmp eq ptr %868, %583
  br i1 %869, label %590, label %593

870:                                              ; preds = %590
  %871 = load ptr, ptr %21, align 8, !tbaa !203
  store ptr %871, ptr %0, align 8, !tbaa !66
  %872 = getelementptr inbounds nuw i8, ptr %0, i64 8
  %873 = getelementptr inbounds nuw i8, ptr %21, i64 8
  %874 = load ptr, ptr %873, align 8, !tbaa !39
  store ptr %874, ptr %872, align 8, !tbaa !39
  call void @llvm.lifetime.end.p0(ptr %21)
  %875 = load ptr, ptr %19, align 8, !tbaa !184
  %876 = getelementptr inbounds nuw i8, ptr %19, i64 8
  %877 = load ptr, ptr %876, align 8, !tbaa !181
  %878 = icmp eq ptr %875, %877
  br i1 %878, label %913, label %879

879:                                              ; preds = %908, %870
  %880 = phi ptr [ %909, %908 ], [ %875, %870 ]
  %881 = getelementptr inbounds nuw i8, ptr %880, i64 8
  %882 = load ptr, ptr %881, align 8, !tbaa !39
  %883 = icmp eq ptr %882, null
  br i1 %883, label %908, label %884

884:                                              ; preds = %879
  %885 = getelementptr inbounds nuw i8, ptr %882, i64 8
  %886 = load atomic i64, ptr %885 acquire, align 8
  %887 = icmp eq i64 %886, 4294967297
  %888 = trunc i64 %886 to i32
  br i1 %887, label %889, label %897

889:                                              ; preds = %884
  store i32 0, ptr %885, align 8, !tbaa !62
  %890 = getelementptr inbounds nuw i8, ptr %882, i64 12
  store i32 0, ptr %890, align 4, !tbaa !64
  %891 = load ptr, ptr %882, align 8, !tbaa !4
  %892 = getelementptr inbounds nuw i8, ptr %891, i64 16
  %893 = load ptr, ptr %892, align 8
  call void %893(ptr noundef nonnull align 8 dereferenceable(16) %882) #45
  %894 = load ptr, ptr %882, align 8, !tbaa !4
  %895 = getelementptr inbounds nuw i8, ptr %894, i64 24
  %896 = load ptr, ptr %895, align 8
  call void %896(ptr noundef nonnull align 8 dereferenceable(16) %882) #45
  br label %908

897:                                              ; preds = %884
  %898 = load i8, ptr @__libc_single_threaded, align 1, !tbaa !15
  %899 = icmp eq i8 %898, 0
  br i1 %899, label %902, label %900

900:                                              ; preds = %897
  %901 = add nsw i32 %888, -1
  store i32 %901, ptr %885, align 4, !tbaa !55
  br label %904

902:                                              ; preds = %897
  %903 = atomicrmw volatile add ptr %885, i32 -1 acq_rel, align 4
  br label %904

904:                                              ; preds = %902, %900
  %905 = phi i32 [ %888, %900 ], [ %903, %902 ]
  %906 = icmp eq i32 %905, 1
  br i1 %906, label %907, label %908, !prof !65

907:                                              ; preds = %904
  call void @_ZNSt16_Sp_counted_baseILN9__gnu_cxx12_Lock_policyE2EE24_M_release_last_use_coldEv(ptr noundef nonnull align 8 dereferenceable(16) %882) #45
  br label %908

908:                                              ; preds = %907, %904, %889, %879
  %909 = getelementptr inbounds nuw i8, ptr %880, i64 16
  %910 = icmp eq ptr %909, %877
  br i1 %910, label %911, label %879, !llvm.loop !192

911:                                              ; preds = %908
  %912 = load ptr, ptr %19, align 8, !tbaa !184
  br label %913

913:                                              ; preds = %911, %870
  %914 = phi ptr [ %912, %911 ], [ %875, %870 ]
  %915 = icmp eq ptr %914, null
  br i1 %915, label %922, label %916

916:                                              ; preds = %913
  %917 = getelementptr inbounds nuw i8, ptr %19, i64 16
  %918 = load ptr, ptr %917, align 8, !tbaa !183
  %919 = ptrtoint ptr %918 to i64
  %920 = ptrtoint ptr %914 to i64
  %921 = sub i64 %919, %920
  call void @_ZdlPvm(ptr noundef nonnull %914, i64 noundef %921) #46
  br label %922

922:                                              ; preds = %916, %913
  call void @llvm.lifetime.end.p0(ptr %19)
  %923 = load ptr, ptr %18, align 8, !tbaa !21
  %924 = icmp eq ptr %923, %534
  br i1 %924, label %925, label %928

925:                                              ; preds = %922
  %926 = load i64, ptr %553, align 8, !tbaa !12
  %927 = icmp ult i64 %926, 16
  call void @llvm.assume(i1 %927)
  br label %931

928:                                              ; preds = %922
  %929 = load i64, ptr %534, align 8, !tbaa !15
  %930 = add i64 %929, 1
  call void @_ZdlPvm(ptr noundef %923, i64 noundef %930) #46
  br label %931

931:                                              ; preds = %928, %925
  call void @llvm.lifetime.end.p0(ptr %18)
  call void @_ZN5osgeo4proj4util11PropertyMapD1Ev(ptr noundef nonnull align 8 dereferenceable(8) %17) #45
  call void @llvm.lifetime.end.p0(ptr %17)
  %932 = load ptr, ptr %8, align 8, !tbaa !184
  %933 = load ptr, ptr %371, align 8, !tbaa !181
  %934 = icmp eq ptr %932, %933
  br i1 %934, label %969, label %935

935:                                              ; preds = %964, %931
  %936 = phi ptr [ %965, %964 ], [ %932, %931 ]
  %937 = getelementptr inbounds nuw i8, ptr %936, i64 8
  %938 = load ptr, ptr %937, align 8, !tbaa !39
  %939 = icmp eq ptr %938, null
  br i1 %939, label %964, label %940

940:                                              ; preds = %935
  %941 = getelementptr inbounds nuw i8, ptr %938, i64 8
  %942 = load atomic i64, ptr %941 acquire, align 8
  %943 = icmp eq i64 %942, 4294967297
  %944 = trunc i64 %942 to i32
  br i1 %943, label %945, label %953

945:                                              ; preds = %940
  store i32 0, ptr %941, align 8, !tbaa !62
  %946 = getelementptr inbounds nuw i8, ptr %938, i64 12
  store i32 0, ptr %946, align 4, !tbaa !64
  %947 = load ptr, ptr %938, align 8, !tbaa !4
  %948 = getelementptr inbounds nuw i8, ptr %947, i64 16
  %949 = load ptr, ptr %948, align 8
  call void %949(ptr noundef nonnull align 8 dereferenceable(16) %938) #45
  %950 = load ptr, ptr %938, align 8, !tbaa !4
  %951 = getelementptr inbounds nuw i8, ptr %950, i64 24
  %952 = load ptr, ptr %951, align 8
  call void %952(ptr noundef nonnull align 8 dereferenceable(16) %938) #45
  br label %964

953:                                              ; preds = %940
  %954 = load i8, ptr @__libc_single_threaded, align 1, !tbaa !15
  %955 = icmp eq i8 %954, 0
  br i1 %955, label %958, label %956

956:                                              ; preds = %953
  %957 = add nsw i32 %944, -1
  store i32 %957, ptr %941, align 4, !tbaa !55
  br label %960

958:                                              ; preds = %953
  %959 = atomicrmw volatile add ptr %941, i32 -1 acq_rel, align 4
  br label %960

960:                                              ; preds = %958, %956
  %961 = phi i32 [ %944, %956 ], [ %959, %958 ]
  %962 = icmp eq i32 %961, 1
  br i1 %962, label %963, label %964, !prof !65

963:                                              ; preds = %960
  call void @_ZNSt16_Sp_counted_baseILN9__gnu_cxx12_Lock_policyE2EE24_M_release_last_use_coldEv(ptr noundef nonnull align 8 dereferenceable(16) %938) #45
  br label %964

964:                                              ; preds = %963, %960, %945, %935
  %965 = getelementptr inbounds nuw i8, ptr %936, i64 16
  %966 = icmp eq ptr %965, %933
  br i1 %966, label %967, label %935, !llvm.loop !192

967:                                              ; preds = %964
  %968 = load ptr, ptr %8, align 8, !tbaa !184
  br label %969

969:                                              ; preds = %967, %931
  %970 = phi ptr [ %968, %967 ], [ %932, %931 ]
  %971 = icmp eq ptr %970, null
  br i1 %971, label %999, label %972

972:                                              ; preds = %969
  %973 = load ptr, ptr %370, align 8, !tbaa !183
  %974 = ptrtoint ptr %973 to i64
  %975 = ptrtoint ptr %970 to i64
  %976 = sub i64 %974, %975
  call void @_ZdlPvm(ptr noundef nonnull %970, i64 noundef %976) #46
  br label %999

977:                                              ; preds = %590
  %978 = landingpad { ptr, i32 }
          cleanup
  call void @llvm.lifetime.end.p0(ptr %21)
  br label %979

979:                                              ; preds = %977, %789, %602, %600
  %980 = phi { ptr, i32 } [ %978, %977 ], [ %790, %789 ], [ %601, %600 ], [ %603, %602 ]
  call void @_ZNSt6vectorIN7dropbox6oxygen2nnISt10shared_ptrIN5osgeo4proj9operation19CoordinateOperationEEEESaIS9_EED2Ev(ptr noundef nonnull align 8 dereferenceable(24) %19) #45
  call void @llvm.lifetime.end.p0(ptr %19)
  br label %981

981:                                              ; preds = %979, %579, %570
  %982 = phi { ptr, i32 } [ %571, %570 ], [ %980, %979 ], [ %580, %579 ]
  %983 = load ptr, ptr %18, align 8, !tbaa !21
  %984 = icmp eq ptr %983, %534
  br i1 %984, label %985, label %988

985:                                              ; preds = %981
  %986 = load i64, ptr %553, align 8, !tbaa !12
  %987 = icmp ult i64 %986, 16
  call void @llvm.assume(i1 %987)
  br label %991

988:                                              ; preds = %981
  %989 = load i64, ptr %534, align 8, !tbaa !15
  %990 = add i64 %989, 1
  call void @_ZdlPvm(ptr noundef %983, i64 noundef %990) #46
  br label %991

991:                                              ; preds = %988, %985, %568
  %992 = phi { ptr, i32 } [ %569, %568 ], [ %982, %985 ], [ %982, %988 ]
  call void @llvm.lifetime.end.p0(ptr %18)
  br label %993

993:                                              ; preds = %991, %566
  %994 = phi { ptr, i32 } [ %992, %991 ], [ %567, %566 ]
  call void @_ZN5osgeo4proj4util11PropertyMapD1Ev(ptr noundef nonnull align 8 dereferenceable(8) %17) #45
  br label %995

995:                                              ; preds = %993, %564
  %996 = phi { ptr, i32 } [ %994, %993 ], [ %565, %564 ]
  call void @llvm.lifetime.end.p0(ptr %17)
  br label %997

997:                                              ; preds = %995, %526, %512, %285
  %998 = phi { ptr, i32 } [ %996, %995 ], [ %527, %526 ], [ %513, %512 ], [ %286, %285 ]
  call void @_ZNSt6vectorIN7dropbox6oxygen2nnISt10shared_ptrIN5osgeo4proj9operation19CoordinateOperationEEEESaIS9_EED2Ev(ptr noundef nonnull align 8 dereferenceable(24) %8) #45
  call void @llvm.lifetime.end.p0(ptr %8)
  call void @_ZN7dropbox6oxygen2nnISt10shared_ptrIN5osgeo4proj9operation19CoordinateOperationEEED2Ev(ptr noundef nonnull align 8 dereferenceable(16) %6) #45
  br label %1081

999:                                              ; preds = %972, %969
  call void @llvm.lifetime.end.p0(ptr %8)
  %1000 = load ptr, ptr %120, align 8, !tbaa !39
  %1001 = icmp eq ptr %1000, null
  br i1 %1001, label %1026, label %1002

1002:                                             ; preds = %999
  %1003 = getelementptr inbounds nuw i8, ptr %1000, i64 8
  %1004 = load atomic i64, ptr %1003 acquire, align 8
  %1005 = icmp eq i64 %1004, 4294967297
  %1006 = trunc i64 %1004 to i32
  br i1 %1005, label %1007, label %1015

1007:                                             ; preds = %1002
  store i32 0, ptr %1003, align 8, !tbaa !62
  %1008 = getelementptr inbounds nuw i8, ptr %1000, i64 12
  store i32 0, ptr %1008, align 4, !tbaa !64
  %1009 = load ptr, ptr %1000, align 8, !tbaa !4
  %1010 = getelementptr inbounds nuw i8, ptr %1009, i64 16
  %1011 = load ptr, ptr %1010, align 8
  call void %1011(ptr noundef nonnull align 8 dereferenceable(16) %1000) #45
  %1012 = load ptr, ptr %1000, align 8, !tbaa !4
  %1013 = getelementptr inbounds nuw i8, ptr %1012, i64 24
  %1014 = load ptr, ptr %1013, align 8
  call void %1014(ptr noundef nonnull align 8 dereferenceable(16) %1000) #45
  br label %1026

1015:                                             ; preds = %1002
  %1016 = load i8, ptr @__libc_single_threaded, align 1, !tbaa !15
  %1017 = icmp eq i8 %1016, 0
  br i1 %1017, label %1020, label %1018

1018:                                             ; preds = %1015
  %1019 = add nsw i32 %1006, -1
  store i32 %1019, ptr %1003, align 4, !tbaa !55
  br label %1022

1020:                                             ; preds = %1015
  %1021 = atomicrmw volatile add ptr %1003, i32 -1 acq_rel, align 4
  br label %1022

1022:                                             ; preds = %1020, %1018
  %1023 = phi i32 [ %1006, %1018 ], [ %1021, %1020 ]
  %1024 = icmp eq i32 %1023, 1
  br i1 %1024, label %1025, label %1026, !prof !65

1025:                                             ; preds = %1022
  call void @_ZNSt16_Sp_counted_baseILN9__gnu_cxx12_Lock_policyE2EE24_M_release_last_use_coldEv(ptr noundef nonnull align 8 dereferenceable(16) %1000) #45
  br label %1026

1026:                                             ; preds = %1025, %1022, %1007, %999, %122
  call void @llvm.lifetime.end.p0(ptr %6)
  %1027 = load ptr, ptr %55, align 8, !tbaa !39
  %1028 = icmp eq ptr %1027, null
  br i1 %1028, label %1053, label %1029

1029:                                             ; preds = %1026
  %1030 = getelementptr inbounds nuw i8, ptr %1027, i64 8
  %1031 = load atomic i64, ptr %1030 acquire, align 8
  %1032 = icmp eq i64 %1031, 4294967297
  %1033 = trunc i64 %1031 to i32
  br i1 %1032, label %1034, label %1042

1034:                                             ; preds = %1029
  store i32 0, ptr %1030, align 8, !tbaa !62
  %1035 = getelementptr inbounds nuw i8, ptr %1027, i64 12
  store i32 0, ptr %1035, align 4, !tbaa !64
  %1036 = load ptr, ptr %1027, align 8, !tbaa !4
  %1037 = getelementptr inbounds nuw i8, ptr %1036, i64 16
  %1038 = load ptr, ptr %1037, align 8
  call void %1038(ptr noundef nonnull align 8 dereferenceable(16) %1027) #45
  %1039 = load ptr, ptr %1027, align 8, !tbaa !4
  %1040 = getelementptr inbounds nuw i8, ptr %1039, i64 24
  %1041 = load ptr, ptr %1040, align 8
  call void %1041(ptr noundef nonnull align 8 dereferenceable(16) %1027) #45
  br label %1053

1042:                                             ; preds = %1029
  %1043 = load i8, ptr @__libc_single_threaded, align 1, !tbaa !15
  %1044 = icmp eq i8 %1043, 0
  br i1 %1044, label %1047, label %1045

1045:                                             ; preds = %1042
  %1046 = add nsw i32 %1033, -1
  store i32 %1046, ptr %1030, align 4, !tbaa !55
  br label %1049

1047:                                             ; preds = %1042
  %1048 = atomicrmw volatile add ptr %1030, i32 -1 acq_rel, align 4
  br label %1049

1049:                                             ; preds = %1047, %1045
  %1050 = phi i32 [ %1033, %1045 ], [ %1048, %1047 ]
  %1051 = icmp eq i32 %1050, 1
  br i1 %1051, label %1052, label %1053, !prof !65

1052:                                             ; preds = %1049
  call void @_ZNSt16_Sp_counted_baseILN9__gnu_cxx12_Lock_policyE2EE24_M_release_last_use_coldEv(ptr noundef nonnull align 8 dereferenceable(16) %1027) #45
  br label %1053

1053:                                             ; preds = %1052, %1049, %1034, %1026
  call void @llvm.lifetime.end.p0(ptr %5)
  %1054 = load ptr, ptr %25, align 8, !tbaa !39
  %1055 = icmp eq ptr %1054, null
  br i1 %1055, label %1080, label %1056

1056:                                             ; preds = %1053
  %1057 = getelementptr inbounds nuw i8, ptr %1054, i64 8
  %1058 = load atomic i64, ptr %1057 acquire, align 8
  %1059 = icmp eq i64 %1058, 4294967297
  %1060 = trunc i64 %1058 to i32
  br i1 %1059, label %1061, label %1069

1061:                                             ; preds = %1056
  store i32 0, ptr %1057, align 8, !tbaa !62
  %1062 = getelementptr inbounds nuw i8, ptr %1054, i64 12
  store i32 0, ptr %1062, align 4, !tbaa !64
  %1063 = load ptr, ptr %1054, align 8, !tbaa !4
  %1064 = getelementptr inbounds nuw i8, ptr %1063, i64 16
  %1065 = load ptr, ptr %1064, align 8
  call void %1065(ptr noundef nonnull align 8 dereferenceable(16) %1054) #45
  %1066 = load ptr, ptr %1054, align 8, !tbaa !4
  %1067 = getelementptr inbounds nuw i8, ptr %1066, i64 24
  %1068 = load ptr, ptr %1067, align 8
  call void %1068(ptr noundef nonnull align 8 dereferenceable(16) %1054) #45
  br label %1080

1069:                                             ; preds = %1056
  %1070 = load i8, ptr @__libc_single_threaded, align 1, !tbaa !15
  %1071 = icmp eq i8 %1070, 0
  br i1 %1071, label %1074, label %1072

1072:                                             ; preds = %1069
  %1073 = add nsw i32 %1060, -1
  store i32 %1073, ptr %1057, align 4, !tbaa !55
  br label %1076

1074:                                             ; preds = %1069
  %1075 = atomicrmw volatile add ptr %1057, i32 -1 acq_rel, align 4
  br label %1076

1076:                                             ; preds = %1074, %1072
  %1077 = phi i32 [ %1060, %1072 ], [ %1075, %1074 ]
  %1078 = icmp eq i32 %1077, 1
  br i1 %1078, label %1079, label %1080, !prof !65

1079:                                             ; preds = %1076
  call void @_ZNSt16_Sp_counted_baseILN9__gnu_cxx12_Lock_policyE2EE24_M_release_last_use_coldEv(ptr noundef nonnull align 8 dereferenceable(16) %1054) #45
  br label %1080

1080:                                             ; preds = %1079, %1076, %1061, %1053
  call void @llvm.lifetime.end.p0(ptr %4)
  ret void

1081:                                             ; preds = %997, %128
  %1082 = phi { ptr, i32 } [ %998, %997 ], [ %129, %128 ]
  call void @llvm.lifetime.end.p0(ptr %6)
  br label %1083

1083:                                             ; preds = %1081, %126, %124, %91, %89
  %1084 = phi { ptr, i32 } [ %92, %91 ], [ %90, %89 ], [ %125, %124 ], [ %1082, %1081 ], [ %127, %126 ]
  call void @_ZNSt12__shared_ptrIN5osgeo4proj3crs3CRSELN9__gnu_cxx12_Lock_policyE2EED2Ev(ptr noundef nonnull align 8 dereferenceable(16) %5) #45
  call void @llvm.lifetime.end.p0(ptr %5)
  call void @_ZNSt12__shared_ptrIN5osgeo4proj3crs3CRSELN9__gnu_cxx12_Lock_policyE2EED2Ev(ptr noundef nonnull align 8 dereferenceable(16) %4) #45
  call void @llvm.lifetime.end.p0(ptr %4)
  resume { ptr, i32 } %1084

1085:                                             ; preds = %88
  unreachable
}

declare ptr @__cxa_allocate_exception(i64) local_unnamed_addr

declare hidden void @_ZN5osgeo4proj4util29UnsupportedOperationExceptionC1EPKc(ptr noundef nonnull align 8 dereferenceable(40), ptr noundef) unnamed_addr #6

declare void @__cxa_free_exception(ptr) local_unnamed_addr

; Function Attrs: nounwind
declare void @_ZN5osgeo4proj4util29UnsupportedOperationExceptionD1Ev(ptr noundef nonnull align 8 dereferenceable(40)) unnamed_addr #7

; Function Attrs: cold noreturn
declare void @__cxa_throw(ptr, ptr, ptr) local_unnamed_addr #19

declare hidden noundef zeroext i1 @_ZNK5osgeo4proj3crs3CRS39mustAxisOrderBeSwitchedForVisualizationEv(ptr noundef nonnull align 8 dereferenceable(64)) local_unnamed_addr #6

declare hidden void @_ZNK5osgeo4proj4util10BaseObject16shared_from_thisEv(ptr dead_on_unwind writable sret(%"struct.osgeo::proj::util::BaseObjectNNPtr") align 8, ptr noundef nonnull align 8 dereferenceable(16)) local_unnamed_addr #6

; Function Attrs: nounwind
declare void @_ZN5osgeo4proj4util15BaseObjectNNPtrD1Ev(ptr noundef nonnull align 8 dereferenceable(16)) unnamed_addr #7

declare void @_ZN5osgeo4proj9operation10Conversion23createAxisOrderReversalEb(ptr dead_on_unwind writable sret(%"class.dropbox::oxygen::nn.121") align 8, i1 noundef zeroext) local_unnamed_addr #6

declare void @_ZNK5osgeo4proj3crs3CRS25normalizeForVisualizationEv(ptr dead_on_unwind writable sret(%"class.dropbox::oxygen::nn") align 8, ptr noundef nonnull align 8 dereferenceable(64)) local_unnamed_addr #6

; Function Attrs: inlinehint mustprogress nounwind sspstrong uwtable
define linkonce_odr hidden void @_ZN7dropbox6oxygen2nnISt10shared_ptrIN5osgeo4proj9operation10ConversionEEED2Ev(ptr noundef nonnull align 8 dereferenceable(16) %0) unnamed_addr #16 comdat align 2 personality ptr @__gxx_personality_v0 {
  %2 = getelementptr inbounds nuw i8, ptr %0, i64 8
  %3 = load ptr, ptr %2, align 8, !tbaa !39
  %4 = icmp eq ptr %3, null
  br i1 %4, label %29, label %5

5:                                                ; preds = %1
  %6 = getelementptr inbounds nuw i8, ptr %3, i64 8
  %7 = load atomic i64, ptr %6 acquire, align 8
  %8 = icmp eq i64 %7, 4294967297
  %9 = trunc i64 %7 to i32
  br i1 %8, label %10, label %18

10:                                               ; preds = %5
  store i32 0, ptr %6, align 8, !tbaa !62
  %11 = getelementptr inbounds nuw i8, ptr %3, i64 12
  store i32 0, ptr %11, align 4, !tbaa !64
  %12 = load ptr, ptr %3, align 8, !tbaa !4
  %13 = getelementptr inbounds nuw i8, ptr %12, i64 16
  %14 = load ptr, ptr %13, align 8
  tail call void %14(ptr noundef nonnull align 8 dereferenceable(16) %3) #45
  %15 = load ptr, ptr %3, align 8, !tbaa !4
  %16 = getelementptr inbounds nuw i8, ptr %15, i64 24
  %17 = load ptr, ptr %16, align 8
  tail call void %17(ptr noundef nonnull align 8 dereferenceable(16) %3) #45
  br label %29

18:                                               ; preds = %5
  %19 = load i8, ptr @__libc_single_threaded, align 1, !tbaa !15
  %20 = icmp eq i8 %19, 0
  br i1 %20, label %23, label %21

21:                                               ; preds = %18
  %22 = add nsw i32 %9, -1
  store i32 %22, ptr %6, align 4, !tbaa !55
  br label %25

23:                                               ; preds = %18
  %24 = atomicrmw volatile add ptr %6, i32 -1 acq_rel, align 4
  br label %25

25:                                               ; preds = %23, %21
  %26 = phi i32 [ %9, %21 ], [ %24, %23 ]
  %27 = icmp eq i32 %26, 1
  br i1 %27, label %28, label %29, !prof !65

28:                                               ; preds = %25
  tail call void @_ZNSt16_Sp_counted_baseILN9__gnu_cxx12_Lock_policyE2EE24_M_release_last_use_coldEv(ptr noundef nonnull align 8 dereferenceable(16) %3) #45
  br label %29

29:                                               ; preds = %28, %25, %10, %1
  ret void
}

declare void @_ZN5osgeo4proj4util11PropertyMapC1Ev(ptr noundef nonnull align 8 dereferenceable(8)) unnamed_addr #6

declare noundef nonnull align 8 dereferenceable(8) ptr @_ZN5osgeo4proj9operation10addDomainsERNS0_4util11PropertyMapEPKNS0_6common11ObjectUsageE(ptr noundef nonnull align 8 dereferenceable(8), ptr noundef) local_unnamed_addr #6

declare void @_ZN5osgeo4proj9operation21addModifiedIdentifierERNS0_4util11PropertyMapEPKNS0_6common16IdentifiedObjectEbb(ptr noundef nonnull align 8 dereferenceable(8), ptr noundef, i1 noundef zeroext, i1 noundef zeroext) local_unnamed_addr #6

; Function Attrs: mustprogress nofree nounwind willreturn memory(read)
declare noundef nonnull align 8 dereferenceable(32) ptr @_ZNK5osgeo4proj6common16IdentifiedObject7nameStrB5cxx11Ev(ptr noundef nonnull align 8 dereferenceable(40)) local_unnamed_addr #20

declare noundef nonnull align 8 dereferenceable(8) ptr @_ZN5osgeo4proj4util11PropertyMap3setERKNSt7__cxx1112basic_stringIcSt11char_traitsIcESaIcEEESA_(ptr noundef nonnull align 8 dereferenceable(8), ptr noundef nonnull align 8 dereferenceable(32), ptr noundef nonnull align 8 dereferenceable(32)) local_unnamed_addr #6

; Function Attrs: mustprogress nofree nounwind willreturn memory(read)
declare noundef nonnull align 8 dereferenceable(32) ptr @_ZNK5osgeo4proj6common16IdentifiedObject7remarksB5cxx11Ev(ptr noundef nonnull align 8 dereferenceable(40)) local_unnamed_addr #20

; Function Attrs: mustprogress nounwind sspstrong uwtable
define linkonce_odr hidden void @_ZNSt6vectorIN7dropbox6oxygen2nnISt10shared_ptrIN5osgeo4proj9operation19CoordinateOperationEEEESaIS9_EED2Ev(ptr noundef nonnull align 8 dereferenceable(24) %0) unnamed_addr #1 comdat align 2 personality ptr @__gxx_personality_v0 {
  %2 = load ptr, ptr %0, align 8, !tbaa !184
  %3 = getelementptr inbounds nuw i8, ptr %0, i64 8
  %4 = load ptr, ptr %3, align 8, !tbaa !181
  %5 = icmp eq ptr %2, %4
  br i1 %5, label %40, label %6

6:                                                ; preds = %35, %1
  %7 = phi ptr [ %36, %35 ], [ %2, %1 ]
  %8 = getelementptr inbounds nuw i8, ptr %7, i64 8
  %9 = load ptr, ptr %8, align 8, !tbaa !39
  %10 = icmp eq ptr %9, null
  br i1 %10, label %35, label %11

11:                                               ; preds = %6
  %12 = getelementptr inbounds nuw i8, ptr %9, i64 8
  %13 = load atomic i64, ptr %12 acquire, align 8
  %14 = icmp eq i64 %13, 4294967297
  %15 = trunc i64 %13 to i32
  br i1 %14, label %16, label %24

16:                                               ; preds = %11
  store i32 0, ptr %12, align 8, !tbaa !62
  %17 = getelementptr inbounds nuw i8, ptr %9, i64 12
  store i32 0, ptr %17, align 4, !tbaa !64
  %18 = load ptr, ptr %9, align 8, !tbaa !4
  %19 = getelementptr inbounds nuw i8, ptr %18, i64 16
  %20 = load ptr, ptr %19, align 8
  tail call void %20(ptr noundef nonnull align 8 dereferenceable(16) %9) #45
  %21 = load ptr, ptr %9, align 8, !tbaa !4
  %22 = getelementptr inbounds nuw i8, ptr %21, i64 24
  %23 = load ptr, ptr %22, align 8
  tail call void %23(ptr noundef nonnull align 8 dereferenceable(16) %9) #45
  br label %35

24:                                               ; preds = %11
  %25 = load i8, ptr @__libc_single_threaded, align 1, !tbaa !15
  %26 = icmp eq i8 %25, 0
  br i1 %26, label %29, label %27

27:                                               ; preds = %24
  %28 = add nsw i32 %15, -1
  store i32 %28, ptr %12, align 4, !tbaa !55
  br label %31

29:                                               ; preds = %24
  %30 = atomicrmw volatile add ptr %12, i32 -1 acq_rel, align 4
  br label %31

31:                                               ; preds = %29, %27
  %32 = phi i32 [ %15, %27 ], [ %30, %29 ]
  %33 = icmp eq i32 %32, 1
  br i1 %33, label %34, label %35, !prof !65

34:                                               ; preds = %31
  tail call void @_ZNSt16_Sp_counted_baseILN9__gnu_cxx12_Lock_policyE2EE24_M_release_last_use_coldEv(ptr noundef nonnull align 8 dereferenceable(16) %9) #45
  br label %35

35:                                               ; preds = %34, %31, %16, %6
  %36 = getelementptr inbounds nuw i8, ptr %7, i64 16
  %37 = icmp eq ptr %36, %4
  br i1 %37, label %38, label %6, !llvm.loop !192

38:                                               ; preds = %35
  %39 = load ptr, ptr %0, align 8, !tbaa !184
  br label %40

40:                                               ; preds = %38, %1
  %41 = phi ptr [ %39, %38 ], [ %2, %1 ]
  %42 = icmp eq ptr %41, null
  br i1 %42, label %49, label %43

43:                                               ; preds = %40
  %44 = getelementptr inbounds nuw i8, ptr %0, i64 16
  %45 = load ptr, ptr %44, align 8, !tbaa !183
  %46 = ptrtoint ptr %45 to i64
  %47 = ptrtoint ptr %41 to i64
  %48 = sub i64 %46, %47
  tail call void @_ZdlPvm(ptr noundef nonnull %41, i64 noundef %48) #46
  br label %49

49:                                               ; preds = %43, %40
  ret void
}

declare void @_ZN5osgeo4proj9operation21ConcatenatedOperation6createERKNS0_4util11PropertyMapERKSt6vectorIN7dropbox6oxygen2nnISt10shared_ptrINS1_19CoordinateOperationEEEESaISE_EERKS7_INSA_ISB_INS0_8metadata18PositionalAccuracyEEEESaISM_EE(ptr dead_on_unwind writable sret(%"class.dropbox::oxygen::nn.133") align 8, ptr noundef nonnull align 8 dereferenceable(8), ptr noundef nonnull align 8 dereferenceable(24), ptr noundef nonnull align 8 dereferenceable(24)) local_unnamed_addr #6

; Function Attrs: nounwind
declare void @_ZN5osgeo4proj4util11PropertyMapD1Ev(ptr noundef nonnull align 8 dereferenceable(8)) unnamed_addr #7

; Function Attrs: inlinehint mustprogress nounwind sspstrong uwtable
define linkonce_odr hidden void @_ZN7dropbox6oxygen2nnISt10shared_ptrIN5osgeo4proj9operation19CoordinateOperationEEED2Ev(ptr noundef nonnull align 8 dereferenceable(16) %0) unnamed_addr #16 comdat align 2 personality ptr @__gxx_personality_v0 {
  %2 = getelementptr inbounds nuw i8, ptr %0, i64 8
  %3 = load ptr, ptr %2, align 8, !tbaa !39
  %4 = icmp eq ptr %3, null
  br i1 %4, label %29, label %5

5:                                                ; preds = %1
  %6 = getelementptr inbounds nuw i8, ptr %3, i64 8
  %7 = load atomic i64, ptr %6 acquire, align 8
  %8 = icmp eq i64 %7, 4294967297
  %9 = trunc i64 %7 to i32
  br i1 %8, label %10, label %18

10:                                               ; preds = %5
  store i32 0, ptr %6, align 8, !tbaa !62
  %11 = getelementptr inbounds nuw i8, ptr %3, i64 12
  store i32 0, ptr %11, align 4, !tbaa !64
  %12 = load ptr, ptr %3, align 8, !tbaa !4
  %13 = getelementptr inbounds nuw i8, ptr %12, i64 16
  %14 = load ptr, ptr %13, align 8
  tail call void %14(ptr noundef nonnull align 8 dereferenceable(16) %3) #45
  %15 = load ptr, ptr %3, align 8, !tbaa !4
  %16 = getelementptr inbounds nuw i8, ptr %15, i64 24
  %17 = load ptr, ptr %16, align 8
  tail call void %17(ptr noundef nonnull align 8 dereferenceable(16) %3) #45
  br label %29

18:                                               ; preds = %5
  %19 = load i8, ptr @__libc_single_threaded, align 1, !tbaa !15
  %20 = icmp eq i8 %19, 0
  br i1 %20, label %23, label %21

21:                                               ; preds = %18
  %22 = add nsw i32 %9, -1
  store i32 %22, ptr %6, align 4, !tbaa !55
  br label %25

23:                                               ; preds = %18
  %24 = atomicrmw volatile add ptr %6, i32 -1 acq_rel, align 4
  br label %25

25:                                               ; preds = %23, %21
  %26 = phi i32 [ %9, %21 ], [ %24, %23 ]
  %27 = icmp eq i32 %26, 1
  br i1 %27, label %28, label %29, !prof !65

28:                                               ; preds = %25
  tail call void @_ZNSt16_Sp_counted_baseILN9__gnu_cxx12_Lock_policyE2EE24_M_release_last_use_coldEv(ptr noundef nonnull align 8 dereferenceable(16) %3) #45
  br label %29

29:                                               ; preds = %28, %25, %10, %1
  ret void
}

; Function Attrs: mustprogress sspstrong uwtable
define void @_ZNK5osgeo4proj9operation19CoordinateOperation21coordinateTransformerEP6pj_ctx(ptr dead_on_unwind noalias writable sret(%"class.dropbox::oxygen::nn.137") align 8 captures(none) %0, ptr noundef nonnull align 8 dereferenceable(72) %1, ptr noundef %2) local_unnamed_addr #0 align 2 personality ptr @__gxx_personality_v0 {
  %4 = alloca %"class.dropbox::oxygen::nn.49", align 8
  %5 = alloca %"struct.osgeo::proj::util::BaseObjectNNPtr", align 8
  call void @llvm.lifetime.start.p0(ptr %4)
  call void @llvm.lifetime.start.p0(ptr %5)
  call void @_ZNK5osgeo4proj4util10BaseObject16shared_from_thisEv(ptr dead_on_unwind nonnull writable sret(%"struct.osgeo::proj::util::BaseObjectNNPtr") align 8 %5, ptr noundef nonnull align 8 dereferenceable(16) %1)
  %6 = load ptr, ptr %5, align 8, !tbaa !172, !noalias !206
  %7 = icmp eq ptr %6, null
  br i1 %7, label %24, label %8

8:                                                ; preds = %3
  %9 = call ptr @__dynamic_cast(ptr nonnull %6, ptr nonnull @_ZTIN5osgeo4proj4util10BaseObjectE, ptr nonnull @_ZTIN5osgeo4proj9operation19CoordinateOperationE, i64 0) #45, !noalias !206
  %10 = icmp eq ptr %9, null
  br i1 %10, label %24, label %11

11:                                               ; preds = %8
  %12 = getelementptr inbounds nuw i8, ptr %5, i64 8
  %13 = load ptr, ptr %12, align 8, !tbaa !39, !noalias !206
  %14 = icmp eq ptr %13, null
  br i1 %14, label %24, label %15

15:                                               ; preds = %11
  %16 = getelementptr inbounds nuw i8, ptr %13, i64 8
  %17 = load i8, ptr @__libc_single_threaded, align 1, !tbaa !15, !noalias !206
  %18 = icmp eq i8 %17, 0
  br i1 %18, label %22, label %19

19:                                               ; preds = %15
  %20 = load i32, ptr %16, align 4, !tbaa !55, !noalias !206
  %21 = add nsw i32 %20, 1
  store i32 %21, ptr %16, align 4, !tbaa !55, !noalias !206
  br label %24

22:                                               ; preds = %15
  %23 = atomicrmw volatile add ptr %16, i32 1 acq_rel, align 4, !noalias !206
  br label %24

24:                                               ; preds = %22, %19, %11, %8, %3
  %25 = phi ptr [ %9, %11 ], [ %9, %22 ], [ %9, %19 ], [ null, %8 ], [ null, %3 ]
  %26 = phi ptr [ null, %11 ], [ %13, %22 ], [ %13, %19 ], [ null, %8 ], [ null, %3 ]
  store ptr %25, ptr %4, align 8, !tbaa !66
  %27 = getelementptr inbounds nuw i8, ptr %4, i64 8
  store ptr %26, ptr %27, align 8, !tbaa !39
  call void @_ZN5osgeo4proj4util15BaseObjectNNPtrD1Ev(ptr noundef nonnull align 8 dereferenceable(16) %5) #45
  call void @llvm.lifetime.end.p0(ptr %5)
  invoke void @_ZN5osgeo4proj9operation21CoordinateTransformer6createERKN7dropbox6oxygen2nnISt10shared_ptrINS1_19CoordinateOperationEEEEP6pj_ctx(ptr dead_on_unwind writable sret(%"class.dropbox::oxygen::nn.137") align 8 %0, ptr noundef nonnull align 8 dereferenceable(16) %4, ptr noundef %2)
          to label %28 unwind label %55

28:                                               ; preds = %24
  %29 = icmp eq ptr %26, null
  br i1 %29, label %54, label %30

30:                                               ; preds = %28
  %31 = getelementptr inbounds nuw i8, ptr %26, i64 8
  %32 = load atomic i64, ptr %31 acquire, align 8
  %33 = icmp eq i64 %32, 4294967297
  %34 = trunc i64 %32 to i32
  br i1 %33, label %35, label %43

35:                                               ; preds = %30
  store i32 0, ptr %31, align 8, !tbaa !62
  %36 = getelementptr inbounds nuw i8, ptr %26, i64 12
  store i32 0, ptr %36, align 4, !tbaa !64
  %37 = load ptr, ptr %26, align 8, !tbaa !4
  %38 = getelementptr inbounds nuw i8, ptr %37, i64 16
  %39 = load ptr, ptr %38, align 8
  call void %39(ptr noundef nonnull align 8 dereferenceable(16) %26) #45
  %40 = load ptr, ptr %26, align 8, !tbaa !4
  %41 = getelementptr inbounds nuw i8, ptr %40, i64 24
  %42 = load ptr, ptr %41, align 8
  call void %42(ptr noundef nonnull align 8 dereferenceable(16) %26) #45
  br label %54

43:                                               ; preds = %30
  %44 = load i8, ptr @__libc_single_threaded, align 1, !tbaa !15
  %45 = icmp eq i8 %44, 0
  br i1 %45, label %48, label %46

46:                                               ; preds = %43
  %47 = add nsw i32 %34, -1
  store i32 %47, ptr %31, align 4, !tbaa !55
  br label %50

48:                                               ; preds = %43
  %49 = atomicrmw volatile add ptr %31, i32 -1 acq_rel, align 4
  br label %50

50:                                               ; preds = %48, %46
  %51 = phi i32 [ %34, %46 ], [ %49, %48 ]
  %52 = icmp eq i32 %51, 1
  br i1 %52, label %53, label %54, !prof !65

53:                                               ; preds = %50
  call void @_ZNSt16_Sp_counted_baseILN9__gnu_cxx12_Lock_policyE2EE24_M_release_last_use_coldEv(ptr noundef nonnull align 8 dereferenceable(16) %26) #45
  br label %54

54:                                               ; preds = %53, %50, %35, %28
  call void @llvm.lifetime.end.p0(ptr %4)
  ret void

55:                                               ; preds = %24
  %56 = landingpad { ptr, i32 }
          cleanup
  call void @_ZN7dropbox6oxygen2nnISt10shared_ptrIN5osgeo4proj9operation19CoordinateOperationEEED2Ev(ptr noundef nonnull align 8 dereferenceable(16) %4) #45
  call void @llvm.lifetime.end.p0(ptr %4)
  resume { ptr, i32 } %56
}

; Function Attrs: mustprogress sspstrong uwtable
define hidden void @_ZN5osgeo4proj9operation21CoordinateTransformer6createERKN7dropbox6oxygen2nnISt10shared_ptrINS1_19CoordinateOperationEEEEP6pj_ctx(ptr dead_on_unwind noalias writable sret(%"class.dropbox::oxygen::nn.137") align 8 captures(none) %0, ptr noundef nonnull readonly align 8 captures(none) dereferenceable(16) %1, ptr noundef %2) local_unnamed_addr #0 align 2 personality ptr @__gxx_personality_v0 {
  %4 = alloca %"struct.osgeo::proj::util::BaseObjectNNPtr", align 8
  %5 = tail call noalias noundef nonnull dereferenceable(8) ptr @_Znwm(i64 noundef 8) #47, !noalias !209
  tail call void @llvm.experimental.noalias.scope.decl(metadata !212)
  %6 = invoke noalias noundef nonnull dereferenceable(8) ptr @_Znwm(i64 noundef 8) #47
          to label %11 unwind label %9, !noalias !209

7:                                                ; preds = %56, %9
  %8 = phi { ptr, i32 } [ %10, %9 ], [ %57, %56 ]
  resume { ptr, i32 } %8

9:                                                ; preds = %3
  %10 = landingpad { ptr, i32 }
          cleanup
  tail call void @_ZdlPvm(ptr noundef nonnull %5, i64 noundef 8) #46, !noalias !209
  br label %7

11:                                               ; preds = %3
  store i64 0, ptr %6, align 8, !noalias !215
  store ptr %6, ptr %5, align 8, !tbaa !216, !alias.scope !212, !noalias !209
  %12 = ptrtoint ptr %5 to i64
  store i64 %12, ptr %0, align 8, !tbaa !218
  %13 = icmp eq ptr %2, null
  br i1 %13, label %14, label %19

14:                                               ; preds = %11
  %15 = invoke noundef ptr @_Z18pj_get_default_ctxv()
          to label %19 unwind label %16

16:                                               ; preds = %45, %14
  %17 = phi ptr [ %38, %45 ], [ %5, %14 ]
  %18 = landingpad { ptr, i32 }
          cleanup
  br label %53

19:                                               ; preds = %14, %11
  %20 = phi ptr [ %2, %11 ], [ %15, %14 ]
  call void @llvm.lifetime.start.p0(ptr %4)
  %21 = load ptr, ptr %1, align 8, !tbaa !66
  store ptr %21, ptr %4, align 8, !tbaa !172
  %22 = getelementptr inbounds nuw i8, ptr %4, i64 8
  %23 = getelementptr inbounds nuw i8, ptr %1, i64 8
  %24 = load ptr, ptr %23, align 8, !tbaa !39
  store ptr %24, ptr %22, align 8, !tbaa !39
  %25 = icmp eq ptr %24, null
  br i1 %25, label %35, label %26

26:                                               ; preds = %19
  %27 = getelementptr inbounds nuw i8, ptr %24, i64 8
  %28 = load i8, ptr @__libc_single_threaded, align 1, !tbaa !15
  %29 = icmp eq i8 %28, 0
  br i1 %29, label %33, label %30

30:                                               ; preds = %26
  %31 = load i32, ptr %27, align 4, !tbaa !55
  %32 = add nsw i32 %31, 1
  store i32 %32, ptr %27, align 4, !tbaa !55
  br label %35

33:                                               ; preds = %26
  %34 = atomicrmw volatile add ptr %27, i32 1 acq_rel, align 4
  br label %35

35:                                               ; preds = %33, %30, %19
  %36 = invoke noundef ptr @_Z13pj_obj_createP6pj_ctxRKN5osgeo4proj4util15BaseObjectNNPtrE(ptr noundef %20, ptr noundef nonnull align 8 dereferenceable(16) %4)
          to label %37 unwind label %49

37:                                               ; preds = %35
  %38 = load ptr, ptr %0, align 8, !tbaa !218
  %39 = load ptr, ptr %38, align 8, !tbaa !216
  store ptr %36, ptr %39, align 8, !tbaa !220
  call void @_ZN5osgeo4proj4util15BaseObjectNNPtrD1Ev(ptr noundef nonnull align 8 dereferenceable(16) %4) #45
  call void @llvm.lifetime.end.p0(ptr %4)
  %40 = load ptr, ptr %38, align 8, !tbaa !216
  %41 = load ptr, ptr %40, align 8, !tbaa !220
  %42 = icmp eq ptr %41, null
  br i1 %42, label %43, label %48

43:                                               ; preds = %37
  %44 = call ptr @__cxa_allocate_exception(i64 40) #45
  invoke void @_ZN5osgeo4proj4util29UnsupportedOperationExceptionC1EPKc(ptr noundef nonnull align 8 dereferenceable(40) %44, ptr noundef nonnull @.str.2)
          to label %45 unwind label %46

45:                                               ; preds = %43
  invoke void @__cxa_throw(ptr nonnull %44, ptr nonnull @_ZTIN5osgeo4proj4util29UnsupportedOperationExceptionE, ptr nonnull @_ZN5osgeo4proj4util29UnsupportedOperationExceptionD1Ev) #50
          to label %58 unwind label %16

46:                                               ; preds = %43
  %47 = landingpad { ptr, i32 }
          cleanup
  call void @__cxa_free_exception(ptr nonnull %44) #45
  br label %53

48:                                               ; preds = %37
  ret void

49:                                               ; preds = %35
  %50 = landingpad { ptr, i32 }
          cleanup
  call void @_ZN5osgeo4proj4util15BaseObjectNNPtrD1Ev(ptr noundef nonnull align 8 dereferenceable(16) %4) #45
  call void @llvm.lifetime.end.p0(ptr %4)
  %51 = load ptr, ptr %0, align 8, !tbaa !218
  %52 = icmp eq ptr %51, null
  br i1 %52, label %56, label %53

53:                                               ; preds = %49, %46, %16
  %54 = phi { ptr, i32 } [ %50, %49 ], [ %47, %46 ], [ %18, %16 ]
  %55 = phi ptr [ %51, %49 ], [ %38, %46 ], [ %17, %16 ]
  call void @_ZN5osgeo4proj9operation21CoordinateTransformerD1Ev(ptr noundef nonnull align 8 dereferenceable(8) %55) #45
  call void @_ZdlPvm(ptr noundef nonnull %55, i64 noundef 8) #46
  br label %56

56:                                               ; preds = %53, %49
  %57 = phi { ptr, i32 } [ %50, %49 ], [ %54, %53 ]
  store ptr null, ptr %0, align 8, !tbaa !218
  br label %7

58:                                               ; preds = %45
  unreachable
}

; Function Attrs: mustprogress sspstrong uwtable
define void @_ZNK5osgeo4proj9operation19CoordinateOperation12shallowCloneEv(ptr dead_on_unwind noalias writable sret(%"class.dropbox::oxygen::nn.49") align 8 %0, ptr noundef nonnull align 8 dereferenceable(72) %1) local_unnamed_addr #0 align 2 {
  %3 = load ptr, ptr %1, align 8, !tbaa !4
  %4 = getelementptr inbounds nuw i8, ptr %3, i64 48
  %5 = load ptr, ptr %4, align 8
  tail call void %5(ptr dead_on_unwind writable sret(%"class.dropbox::oxygen::nn.49") align 8 %0, ptr noundef nonnull align 8 dereferenceable(72) %1)
  ret void
}

; Function Attrs: mustprogress sspstrong uwtable
define hidden void @_ZN5osgeo4proj9operation21CoordinateTransformerC2Ev(ptr noundef nonnull writeonly align 8 captures(none) dereferenceable(8) initializes((0, 8)) %0) unnamed_addr #0 align 2 personality ptr @__gxx_personality_v0 {
  tail call void @llvm.experimental.noalias.scope.decl(metadata !223)
  %2 = tail call noalias noundef nonnull dereferenceable(8) ptr @_Znwm(i64 noundef 8) #47, !noalias !223
  store i64 0, ptr %2, align 8, !noalias !223
  store ptr %2, ptr %0, align 8, !tbaa !216, !alias.scope !223
  ret void
}

; Function Attrs: mustprogress nounwind sspstrong uwtable
define void @_ZN5osgeo4proj9operation21CoordinateTransformerD2Ev(ptr noundef nonnull align 8 captures(none) dereferenceable(8) %0) unnamed_addr #1 align 2 personality ptr @__gxx_personality_v0 {
  %2 = load ptr, ptr %0, align 8, !tbaa !216
  %3 = load ptr, ptr %2, align 8, !tbaa !220
  %4 = icmp eq ptr %3, null
  br i1 %4, label %15, label %5

5:                                                ; preds = %1
  %6 = invoke noundef ptr @_Z18pj_get_default_ctxv()
          to label %7 unwind label %18

7:                                                ; preds = %5
  invoke void @proj_assign_context(ptr noundef nonnull %3, ptr noundef %6)
          to label %8 unwind label %18

8:                                                ; preds = %7
  %9 = load ptr, ptr %0, align 8, !tbaa !216
  %10 = load ptr, ptr %9, align 8, !tbaa !220
  %11 = invoke ptr @proj_destroy(ptr noundef %10)
          to label %12 unwind label %18

12:                                               ; preds = %8
  %13 = load ptr, ptr %0, align 8, !tbaa !216
  %14 = icmp eq ptr %13, null
  br i1 %14, label %17, label %15

15:                                               ; preds = %12, %1
  %16 = phi ptr [ %13, %12 ], [ %2, %1 ]
  tail call void @_ZdlPvm(ptr noundef nonnull %16, i64 noundef 8) #46
  br label %17

17:                                               ; preds = %15, %12
  store ptr null, ptr %0, align 8, !tbaa !216
  ret void

18:                                               ; preds = %8, %7, %5
  %19 = landingpad { ptr, i32 }
          catch ptr null
  %20 = extractvalue { ptr, i32 } %19, 0
  tail call void @__clang_call_terminate(ptr %20) #48
  unreachable
}

declare void @proj_assign_context(ptr noundef, ptr noundef) local_unnamed_addr #6

declare noundef ptr @_Z18pj_get_default_ctxv() local_unnamed_addr #6

; Function Attrs: noinline noreturn nounwind sspstrong uwtable
define linkonce_odr hidden void @__clang_call_terminate(ptr noundef %0) local_unnamed_addr #21 comdat {
  %2 = tail call ptr @__cxa_begin_catch(ptr %0) #45
  tail call void @_ZSt9terminatev() #48
  unreachable
}

; Function Attrs: cold nofree noreturn
declare void @_ZSt9terminatev() local_unnamed_addr #22

declare ptr @proj_destroy(ptr noundef) local_unnamed_addr #6

declare noundef ptr @_Z13pj_obj_createP6pj_ctxRKN5osgeo4proj4util15BaseObjectNNPtrE(ptr noundef, ptr noundef nonnull align 8 dereferenceable(16)) local_unnamed_addr #6

; Function Attrs: mustprogress sspstrong uwtable
define void @_ZN5osgeo4proj9operation21CoordinateTransformer9transformE8PJ_COORD(ptr dead_on_unwind noalias writable sret(%union.PJ_COORD) align 8 %0, ptr noundef nonnull readonly align 8 captures(none) dereferenceable(8) %1, ptr noundef readonly byval(%union.PJ_COORD) align 8 captures(none) %2) local_unnamed_addr #0 align 2 {
  %4 = load ptr, ptr %1, align 8, !tbaa !216
  %5 = load ptr, ptr %4, align 8, !tbaa !220
  tail call void @proj_trans(ptr dead_on_unwind writable sret(%union.PJ_COORD) align 8 %0, ptr noundef %5, i32 noundef 1, ptr noundef nonnull byval(%union.PJ_COORD) align 8 %2)
  ret void
}

declare void @proj_trans(ptr dead_on_unwind writable sret(%union.PJ_COORD) align 8, ptr noundef, i32 noundef, ptr noundef byval(%union.PJ_COORD) align 8) local_unnamed_addr #6

; Function Attrs: mustprogress sspstrong uwtable
define hidden void @_ZN5osgeo4proj9operation15OperationMethodC2Ev(ptr noundef nonnull align 8 dereferenceable(56) %0) unnamed_addr #0 align 2 personality ptr @__gxx_personality_v0 {
  tail call void @_ZN5osgeo4proj6common16IdentifiedObjectC2Ev(ptr noundef nonnull align 8 dereferenceable(40) %0)
  %2 = getelementptr inbounds nuw i8, ptr %0, i64 40
  store ptr getelementptr inbounds nuw inrange(-16, 48) (i8, ptr @_ZTVN5osgeo4proj9operation15OperationMethodE, i64 16), ptr %0, align 8, !tbaa !4
  %3 = getelementptr inbounds nuw i8, ptr %0, i64 16
  store ptr getelementptr inbounds nuw inrange(-16, 24) (i8, ptr @_ZTVN5osgeo4proj9operation15OperationMethodE, i64 80), ptr %3, align 8, !tbaa !4
  %4 = getelementptr inbounds nuw i8, ptr %0, i64 24
  store ptr getelementptr inbounds nuw inrange(-16, 24) (i8, ptr @_ZTVN5osgeo4proj9operation15OperationMethodE, i64 120), ptr %4, align 8, !tbaa !4
  store ptr getelementptr inbounds nuw inrange(-16, 24) (i8, ptr @_ZTVN5osgeo4proj9operation15OperationMethodE, i64 160), ptr %2, align 8, !tbaa !4
  tail call void @llvm.experimental.noalias.scope.decl(metadata !226)
  %5 = invoke noalias noundef nonnull dereferenceable(128) ptr @_Znwm(i64 noundef 128) #47
          to label %6 unwind label %28

6:                                                ; preds = %1
  %7 = getelementptr inbounds nuw i8, ptr %5, i64 8
  %8 = getelementptr inbounds nuw i8, ptr %5, i64 24
  tail call void @llvm.memset.p0.i64(ptr noundef nonnull align 8 dereferenceable(128) %5, i8 0, i64 128, i1 false), !noalias !226
  store ptr %8, ptr %7, align 8, !tbaa !7, !noalias !226
  %9 = getelementptr inbounds nuw i8, ptr %5, i64 16
  %10 = getelementptr inbounds nuw i8, ptr %5, i64 48
  invoke void @_ZN5osgeo4proj8metadata8CitationC1Ev(ptr noundef nonnull align 8 dereferenceable(24) %10)
          to label %22 unwind label %11, !noalias !226

11:                                               ; preds = %6
  %12 = landingpad { ptr, i32 }
          cleanup
  %13 = load ptr, ptr %7, align 8, !tbaa !21, !noalias !226
  %14 = icmp eq ptr %13, %8
  br i1 %14, label %15, label %18

15:                                               ; preds = %11
  %16 = load i64, ptr %9, align 8, !tbaa !12, !noalias !226
  %17 = icmp ult i64 %16, 16
  tail call void @llvm.assume(i1 %17)
  br label %21

18:                                               ; preds = %11
  %19 = load i64, ptr %8, align 8, !tbaa !15, !noalias !226
  %20 = add i64 %19, 1
  tail call void @_ZdlPvm(ptr noundef %13, i64 noundef %20) #46, !noalias !226
  br label %21

21:                                               ; preds = %18, %15
  tail call void @_ZdlPvm(ptr noundef nonnull %5, i64 noundef 128) #46, !noalias !226
  br label %30

22:                                               ; preds = %6
  %23 = getelementptr inbounds nuw i8, ptr %0, i64 48
  %24 = getelementptr inbounds nuw i8, ptr %5, i64 72
  %25 = getelementptr inbounds nuw i8, ptr %5, i64 96
  %26 = getelementptr inbounds nuw i8, ptr %5, i64 112
  tail call void @llvm.memset.p0.i64(ptr noundef nonnull align 8 dereferenceable(24) %24, i8 0, i64 24, i1 false), !noalias !226
  store ptr %26, ptr %25, align 8, !tbaa !7, !noalias !226
  %27 = getelementptr inbounds nuw i8, ptr %5, i64 104
  store i64 0, ptr %27, align 8, !tbaa !12, !noalias !226
  store i8 0, ptr %26, align 1, !tbaa !15, !noalias !226
  store ptr %5, ptr %23, align 8, !tbaa !229, !alias.scope !226
  ret void

28:                                               ; preds = %1
  %29 = landingpad { ptr, i32 }
          cleanup
  br label %30

30:                                               ; preds = %28, %21
  %31 = phi { ptr, i32 } [ %29, %28 ], [ %12, %21 ]
  tail call void @_ZN5osgeo4proj2io15IJSONExportableD2Ev(ptr noundef nonnull align 8 dereferenceable(8) %2) #45
  tail call void @_ZN5osgeo4proj6common16IdentifiedObjectD2Ev(ptr noundef nonnull align 8 dereferenceable(40) %0) #45
  resume { ptr, i32 } %31
}

declare void @_ZN5osgeo4proj6common16IdentifiedObjectC2Ev(ptr noundef nonnull align 8 dereferenceable(40)) unnamed_addr #6

; Function Attrs: nounwind
declare void @_ZN5osgeo4proj6common16IdentifiedObjectD2Ev(ptr noundef nonnull align 8 dereferenceable(40)) unnamed_addr #7

; Function Attrs: mustprogress sspstrong uwtable
define hidden void @_ZN5osgeo4proj9operation15OperationMethodC2ERKS2_(ptr noundef nonnull align 8 dereferenceable(56) %0, ptr noundef nonnull align 8 dereferenceable(56) %1) unnamed_addr #0 align 2 personality ptr @__gxx_personality_v0 {
  tail call void @_ZN5osgeo4proj6common16IdentifiedObjectC2ERKS2_(ptr noundef nonnull align 8 dereferenceable(40) %0, ptr noundef nonnull align 8 dereferenceable(40) %1)
  %3 = getelementptr inbounds nuw i8, ptr %0, i64 40
  store ptr getelementptr inbounds nuw inrange(-16, 48) (i8, ptr @_ZTVN5osgeo4proj9operation15OperationMethodE, i64 16), ptr %0, align 8, !tbaa !4
  %4 = getelementptr inbounds nuw i8, ptr %0, i64 16
  store ptr getelementptr inbounds nuw inrange(-16, 24) (i8, ptr @_ZTVN5osgeo4proj9operation15OperationMethodE, i64 80), ptr %4, align 8, !tbaa !4
  %5 = getelementptr inbounds nuw i8, ptr %0, i64 24
  store ptr getelementptr inbounds nuw inrange(-16, 24) (i8, ptr @_ZTVN5osgeo4proj9operation15OperationMethodE, i64 120), ptr %5, align 8, !tbaa !4
  store ptr getelementptr inbounds nuw inrange(-16, 24) (i8, ptr @_ZTVN5osgeo4proj9operation15OperationMethodE, i64 160), ptr %3, align 8, !tbaa !4
  %6 = getelementptr inbounds nuw i8, ptr %1, i64 48
  %7 = load ptr, ptr %6, align 8, !tbaa !229
  tail call void @llvm.experimental.noalias.scope.decl(metadata !231)
  %8 = invoke noalias noundef nonnull dereferenceable(128) ptr @_Znwm(i64 noundef 128) #47
          to label %9 unwind label %14

9:                                                ; preds = %2
  invoke void @_ZN5osgeo4proj9operation15OperationMethod7PrivateC2ERKS3_(ptr noundef nonnull align 8 dereferenceable(128) %8, ptr noundef nonnull align 8 dereferenceable(128) %7)
          to label %12 unwind label %10, !noalias !231

10:                                               ; preds = %9
  %11 = landingpad { ptr, i32 }
          cleanup
  tail call void @_ZdlPvm(ptr noundef nonnull %8, i64 noundef 128) #46, !noalias !231
  br label %16

12:                                               ; preds = %9
  %13 = getelementptr inbounds nuw i8, ptr %0, i64 48
  store ptr %8, ptr %13, align 8, !tbaa !229, !alias.scope !231
  ret void

14:                                               ; preds = %2
  %15 = landingpad { ptr, i32 }
          cleanup
  br label %16

16:                                               ; preds = %14, %10
  %17 = phi { ptr, i32 } [ %15, %14 ], [ %11, %10 ]
  tail call void @_ZN5osgeo4proj2io15IJSONExportableD2Ev(ptr noundef nonnull align 8 dereferenceable(8) %3) #45
  tail call void @_ZN5osgeo4proj6common16IdentifiedObjectD2Ev(ptr noundef nonnull align 8 dereferenceable(40) %0) #45
  resume { ptr, i32 } %17
}

declare void @_ZN5osgeo4proj6common16IdentifiedObjectC2ERKS2_(ptr noundef nonnull align 8 dereferenceable(40), ptr noundef nonnull align 8 dereferenceable(40)) unnamed_addr #6

; Function Attrs: mustprogress nounwind sspstrong uwtable
define void @_ZN5osgeo4proj9operation15OperationMethodD2Ev(ptr noundef nonnull align 8 dereferenceable(56) initializes((0, 8), (16, 32), (40, 48)) %0) unnamed_addr #1 align 2 personality ptr @__gxx_personality_v0 {
  store ptr getelementptr inbounds nuw inrange(-16, 48) (i8, ptr @_ZTVN5osgeo4proj9operation15OperationMethodE, i64 16), ptr %0, align 8, !tbaa !4
  %2 = getelementptr inbounds nuw i8, ptr %0, i64 16
  store ptr getelementptr inbounds nuw inrange(-16, 24) (i8, ptr @_ZTVN5osgeo4proj9operation15OperationMethodE, i64 80), ptr %2, align 8, !tbaa !4
  %3 = getelementptr inbounds nuw i8, ptr %0, i64 24
  store ptr getelementptr inbounds nuw inrange(-16, 24) (i8, ptr @_ZTVN5osgeo4proj9operation15OperationMethodE, i64 120), ptr %3, align 8, !tbaa !4
  %4 = getelementptr inbounds nuw i8, ptr %0, i64 40
  store ptr getelementptr inbounds nuw inrange(-16, 24) (i8, ptr @_ZTVN5osgeo4proj9operation15OperationMethodE, i64 160), ptr %4, align 8, !tbaa !4
  %5 = getelementptr inbounds nuw i8, ptr %0, i64 48
  %6 = load ptr, ptr %5, align 8, !tbaa !229
  %7 = icmp eq ptr %6, null
  br i1 %7, label %9, label %8

8:                                                ; preds = %1
  tail call void @_ZN5osgeo4proj9operation15OperationMethod7PrivateD2Ev(ptr noundef nonnull align 8 dereferenceable(128) %6) #45
  tail call void @_ZdlPvm(ptr noundef nonnull %6, i64 noundef 128) #46
  br label %9

9:                                                ; preds = %8, %1
  store ptr null, ptr %5, align 8, !tbaa !229
  tail call void @_ZN5osgeo4proj2io15IJSONExportableD2Ev(ptr noundef nonnull align 8 dereferenceable(8) %4) #45
  tail call void @_ZN5osgeo4proj6common16IdentifiedObjectD2Ev(ptr noundef nonnull align 8 dereferenceable(40) %0) #45
  ret void
}

; Function Attrs: nounwind sspstrong uwtable
define void @_ZThn16_N5osgeo4proj9operation15OperationMethodD1Ev(ptr noundef %0) unnamed_addr #8 align 2 {
  %2 = getelementptr inbounds i8, ptr %0, i64 -16
  tail call void @_ZN5osgeo4proj9operation15OperationMethodD1Ev(ptr noundef nonnull align 8 dereferenceable(56) %2) #45
  ret void
}

; Function Attrs: nounwind sspstrong uwtable
define void @_ZThn24_N5osgeo4proj9operation15OperationMethodD1Ev(ptr noundef %0) unnamed_addr #8 align 2 {
  %2 = getelementptr inbounds i8, ptr %0, i64 -24
  tail call void @_ZN5osgeo4proj9operation15OperationMethodD1Ev(ptr noundef nonnull align 8 dereferenceable(56) %2) #45
  ret void
}

; Function Attrs: nounwind sspstrong uwtable
define void @_ZThn40_N5osgeo4proj9operation15OperationMethodD1Ev(ptr noundef %0) unnamed_addr #8 align 2 {
  %2 = getelementptr inbounds i8, ptr %0, i64 -40
  tail call void @_ZN5osgeo4proj9operation15OperationMethodD1Ev(ptr noundef nonnull align 8 dereferenceable(56) %2) #45
  ret void
}

; Function Attrs: mustprogress nounwind sspstrong uwtable
define void @_ZN5osgeo4proj9operation15OperationMethodD0Ev(ptr noundef nonnull align 8 dereferenceable(56) %0) unnamed_addr #1 align 2 {
  tail call void @_ZN5osgeo4proj9operation15OperationMethodD1Ev(ptr noundef nonnull align 8 dereferenceable(56) %0) #45
  tail call void @_ZdlPvm(ptr noundef nonnull %0, i64 noundef 56) #46
  ret void
}

; Function Attrs: nounwind sspstrong uwtable
define void @_ZThn16_N5osgeo4proj9operation15OperationMethodD0Ev(ptr noundef %0) unnamed_addr #8 align 2 {
  %2 = getelementptr inbounds i8, ptr %0, i64 -16
  tail call void @_ZN5osgeo4proj9operation15OperationMethodD1Ev(ptr noundef nonnull align 8 dereferenceable(56) %2) #45
  tail call void @_ZdlPvm(ptr noundef nonnull align 8 dereferenceable(56) %2, i64 noundef 56) #46
  ret void
}

; Function Attrs: nounwind sspstrong uwtable
define void @_ZThn24_N5osgeo4proj9operation15OperationMethodD0Ev(ptr noundef %0) unnamed_addr #8 align 2 {
  %2 = getelementptr inbounds i8, ptr %0, i64 -24
  tail call void @_ZN5osgeo4proj9operation15OperationMethodD1Ev(ptr noundef nonnull align 8 dereferenceable(56) %2) #45
  tail call void @_ZdlPvm(ptr noundef nonnull align 8 dereferenceable(56) %2, i64 noundef 56) #46
  ret void
}

; Function Attrs: nounwind sspstrong uwtable
define void @_ZThn40_N5osgeo4proj9operation15OperationMethodD0Ev(ptr noundef %0) unnamed_addr #8 align 2 {
  %2 = getelementptr inbounds i8, ptr %0, i64 -40
  tail call void @_ZN5osgeo4proj9operation15OperationMethodD1Ev(ptr noundef nonnull align 8 dereferenceable(56) %2) #45
  tail call void @_ZdlPvm(ptr noundef nonnull align 8 dereferenceable(56) %2, i64 noundef 56) #46
  ret void
}

; Function Attrs: mustprogress nofree norecurse nosync nounwind sspstrong willreturn memory(argmem: read) uwtable
define noundef nonnull align 8 dereferenceable(40) ptr @_ZNK5osgeo4proj9operation15OperationMethod7formulaB5cxx11Ev(ptr noundef nonnull readonly align 8 captures(none) dereferenceable(56) %0) local_unnamed_addr #12 align 2 {
  %2 = getelementptr inbounds nuw i8, ptr %0, i64 48
  %3 = load ptr, ptr %2, align 8, !tbaa !229
  ret ptr %3
}

; Function Attrs: mustprogress nofree norecurse nosync nounwind sspstrong willreturn memory(argmem: read) uwtable
define noundef nonnull align 8 dereferenceable(32) ptr @_ZNK5osgeo4proj9operation15OperationMethod15formulaCitationEv(ptr noundef nonnull readonly align 8 captures(none) dereferenceable(56) %0) local_unnamed_addr #12 align 2 {
  %2 = getelementptr inbounds nuw i8, ptr %0, i64 48
  %3 = load ptr, ptr %2, align 8, !tbaa !229
  %4 = getelementptr inbounds nuw i8, ptr %3, i64 40
  ret ptr %4
}

; Function Attrs: mustprogress nofree norecurse nosync nounwind sspstrong willreturn memory(argmem: read) uwtable
define noundef nonnull align 8 dereferenceable(24) ptr @_ZNK5osgeo4proj9operation15OperationMethod10parametersEv(ptr noundef nonnull readonly align 8 captures(none) dereferenceable(56) %0) local_unnamed_addr #12 align 2 {
  %2 = getelementptr inbounds nuw i8, ptr %0, i64 48
  %3 = load ptr, ptr %2, align 8, !tbaa !229
  %4 = getelementptr inbounds nuw i8, ptr %3, i64 72
  ret ptr %4
}

; Function Attrs: mustprogress sspstrong uwtable
define void @_ZN5osgeo4proj9operation15OperationMethod6createERKNS0_4util11PropertyMapERKSt6vectorIN7dropbox6oxygen2nnISt10shared_ptrINS1_25GeneralOperationParameterEEEESaISE_EE(ptr dead_on_unwind noalias writable sret(%"class.dropbox::oxygen::nn.176") align 8 %0, ptr noundef nonnull align 8 dereferenceable(8) %1, ptr noundef nonnull align 8 dereferenceable(24) %2) local_unnamed_addr #0 align 2 personality ptr @__gxx_personality_v0 {
  %4 = alloca %"struct.osgeo::proj::util::BaseObjectNNPtr", align 8
  %5 = alloca %"class.std::__cxx11::basic_string", align 8
  tail call void @_ZN5osgeo4proj9operation15OperationMethod14nn_make_sharedIS2_JEEEN7dropbox6oxygen2nnISt10shared_ptrIT_EEEDpOT0_(ptr dead_on_unwind writable sret(%"class.dropbox::oxygen::nn.176") align 8 %0)
  %6 = load ptr, ptr %0, align 8, !tbaa !234
  call void @llvm.lifetime.start.p0(ptr %4)
  store ptr %6, ptr %4, align 8, !tbaa !172
  %7 = getelementptr inbounds nuw i8, ptr %4, i64 8
  %8 = getelementptr inbounds nuw i8, ptr %0, i64 8
  %9 = load ptr, ptr %8, align 8, !tbaa !39
  store ptr %9, ptr %7, align 8, !tbaa !39
  %10 = icmp eq ptr %9, null
  br i1 %10, label %20, label %11

11:                                               ; preds = %3
  %12 = getelementptr inbounds nuw i8, ptr %9, i64 8
  %13 = load i8, ptr @__libc_single_threaded, align 1, !tbaa !15
  %14 = icmp eq i8 %13, 0
  br i1 %14, label %18, label %15

15:                                               ; preds = %11
  %16 = load i32, ptr %12, align 4, !tbaa !55
  %17 = add nsw i32 %16, 1
  store i32 %17, ptr %12, align 4, !tbaa !55
  br label %20

18:                                               ; preds = %11
  %19 = atomicrmw volatile add ptr %12, i32 1 acq_rel, align 4
  br label %20

20:                                               ; preds = %18, %15, %3
  invoke void @_ZN5osgeo4proj4util10BaseObject10assignSelfERKNS1_15BaseObjectNNPtrE(ptr noundef nonnull align 8 dereferenceable(16) %6, ptr noundef nonnull align 8 dereferenceable(16) %4)
          to label %21 unwind label %50

21:                                               ; preds = %20
  call void @_ZN5osgeo4proj4util15BaseObjectNNPtrD1Ev(ptr noundef nonnull align 8 dereferenceable(16) %4) #45
  call void @llvm.lifetime.end.p0(ptr %4)
  %22 = load ptr, ptr %0, align 8, !tbaa !234
  invoke void @_ZN5osgeo4proj6common16IdentifiedObject13setPropertiesERKNS0_4util11PropertyMapE(ptr noundef nonnull align 8 dereferenceable(40) %22, ptr noundef nonnull align 8 dereferenceable(8) %1)
          to label %23 unwind label %48

23:                                               ; preds = %21
  %24 = load ptr, ptr %0, align 8, !tbaa !234
  %25 = getelementptr inbounds nuw i8, ptr %24, i64 48
  %26 = load ptr, ptr %25, align 8, !tbaa !229
  %27 = getelementptr inbounds nuw i8, ptr %26, i64 72
  %28 = invoke noundef nonnull align 8 dereferenceable(24) ptr @_ZNSt6vectorIN7dropbox6oxygen2nnISt10shared_ptrIN5osgeo4proj9operation25GeneralOperationParameterEEEESaIS9_EEaSERKSB_(ptr noundef nonnull align 8 dereferenceable(24) %27, ptr noundef nonnull align 8 dereferenceable(24) %2)
          to label %29 unwind label %48

29:                                               ; preds = %23
  call void @llvm.lifetime.start.p0(ptr %5)
  %30 = getelementptr inbounds nuw i8, ptr %5, i64 16
  store ptr %30, ptr %5, align 8, !tbaa !7
  call void @llvm.memcpy.p0.p0.i64(ptr noundef nonnull align 8 dereferenceable(11) %30, ptr noundef nonnull align 1 dereferenceable(11) @.str.3, i64 11, i1 false)
  %31 = getelementptr inbounds nuw i8, ptr %5, i64 8
  store i64 11, ptr %31, align 8, !tbaa !12
  %32 = getelementptr inbounds nuw i8, ptr %5, i64 27
  store i8 0, ptr %32, align 1, !tbaa !15
  %33 = load ptr, ptr %0, align 8, !tbaa !234
  %34 = getelementptr inbounds nuw i8, ptr %33, i64 48
  %35 = load ptr, ptr %34, align 8, !tbaa !229
  %36 = getelementptr inbounds nuw i8, ptr %35, i64 96
  %37 = invoke noundef zeroext i1 @_ZNK5osgeo4proj4util11PropertyMap14getStringValueERKNSt7__cxx1112basic_stringIcSt11char_traitsIcESaIcEEERS8_(ptr noundef nonnull align 8 dereferenceable(8) %1, ptr noundef nonnull align 8 dereferenceable(32) %5, ptr noundef nonnull align 8 dereferenceable(32) %36)
          to label %38 unwind label %52

38:                                               ; preds = %29
  %39 = load ptr, ptr %5, align 8, !tbaa !21
  %40 = icmp eq ptr %39, %30
  br i1 %40, label %41, label %44

41:                                               ; preds = %38
  %42 = load i64, ptr %31, align 8, !tbaa !12
  %43 = icmp ult i64 %42, 16
  call void @llvm.assume(i1 %43)
  br label %47

44:                                               ; preds = %38
  %45 = load i64, ptr %30, align 8, !tbaa !15
  %46 = add i64 %45, 1
  call void @_ZdlPvm(ptr noundef %39, i64 noundef %46) #46
  br label %47

47:                                               ; preds = %44, %41
  call void @llvm.lifetime.end.p0(ptr %5)
  ret void

48:                                               ; preds = %23, %21
  %49 = landingpad { ptr, i32 }
          cleanup
  br label %63

50:                                               ; preds = %20
  %51 = landingpad { ptr, i32 }
          cleanup
  call void @_ZN5osgeo4proj4util15BaseObjectNNPtrD1Ev(ptr noundef nonnull align 8 dereferenceable(16) %4) #45
  call void @llvm.lifetime.end.p0(ptr %4)
  br label %63

52:                                               ; preds = %29
  %53 = landingpad { ptr, i32 }
          cleanup
  %54 = load ptr, ptr %5, align 8, !tbaa !21
  %55 = icmp eq ptr %54, %30
  br i1 %55, label %56, label %59

56:                                               ; preds = %52
  %57 = load i64, ptr %31, align 8, !tbaa !12
  %58 = icmp ult i64 %57, 16
  call void @llvm.assume(i1 %58)
  br label %62

59:                                               ; preds = %52
  %60 = load i64, ptr %30, align 8, !tbaa !15
  %61 = add i64 %60, 1
  call void @_ZdlPvm(ptr noundef %54, i64 noundef %61) #46
  br label %62

62:                                               ; preds = %59, %56
  call void @llvm.lifetime.end.p0(ptr %5)
  br label %63

63:                                               ; preds = %62, %50, %48
  %64 = phi { ptr, i32 } [ %53, %62 ], [ %49, %48 ], [ %51, %50 ]
  call void @_ZN7dropbox6oxygen2nnISt10shared_ptrIN5osgeo4proj9operation15OperationMethodEEED2Ev(ptr noundef nonnull align 8 dereferenceable(16) %0) #45
  resume { ptr, i32 } %64
}

; Function Attrs: mustprogress sspstrong uwtable
define linkonce_odr void @_ZN5osgeo4proj9operation15OperationMethod14nn_make_sharedIS2_JEEEN7dropbox6oxygen2nnISt10shared_ptrIT_EEEDpOT0_(ptr dead_on_unwind noalias writable sret(%"class.dropbox::oxygen::nn.176") align 8 %0) local_unnamed_addr #0 comdat align 2 personality ptr @__gxx_personality_v0 {
  %2 = tail call noalias noundef nonnull dereferenceable(56) ptr @_Znwm(i64 noundef 56) #47
  invoke void @_ZN5osgeo4proj9operation15OperationMethodC2Ev(ptr noundef nonnull align 8 dereferenceable(56) %2)
          to label %3 unwind label %25

3:                                                ; preds = %1
  %4 = invoke noalias noundef nonnull dereferenceable(24) ptr @_Znwm(i64 noundef 24) #47
          to label %20 unwind label %5

5:                                                ; preds = %3
  %6 = landingpad { ptr, i32 }
          catch ptr null
  %7 = extractvalue { ptr, i32 } %6, 0
  %8 = tail call ptr @__cxa_begin_catch(ptr %7) #45
  %9 = load ptr, ptr %2, align 8, !tbaa !4
  %10 = getelementptr inbounds nuw i8, ptr %9, i64 8
  %11 = load ptr, ptr %10, align 8
  tail call void %11(ptr noundef nonnull align 8 dereferenceable(56) %2) #45
  invoke void @__cxa_rethrow() #50
          to label %19 unwind label %12

12:                                               ; preds = %5
  %13 = landingpad { ptr, i32 }
          cleanup
  invoke void @__cxa_end_catch()
          to label %14 unwind label %16

14:                                               ; preds = %25, %12
  %15 = phi { ptr, i32 } [ %26, %25 ], [ %13, %12 ]
  resume { ptr, i32 } %15

16:                                               ; preds = %12
  %17 = landingpad { ptr, i32 }
          catch ptr null
  %18 = extractvalue { ptr, i32 } %17, 0
  tail call void @__clang_call_terminate(ptr %18) #48
  unreachable

19:                                               ; preds = %5
  unreachable

20:                                               ; preds = %3
  %21 = getelementptr inbounds nuw i8, ptr %4, i64 8
  store i32 1, ptr %21, align 8, !tbaa !62
  %22 = getelementptr inbounds nuw i8, ptr %4, i64 12
  store i32 1, ptr %22, align 4, !tbaa !64
  store ptr getelementptr inbounds nuw inrange(-16, 40) (i8, ptr @_ZTVSt15_Sp_counted_ptrIPN5osgeo4proj9operation15OperationMethodELN9__gnu_cxx12_Lock_policyE2EE, i64 16), ptr %4, align 8, !tbaa !4
  %23 = getelementptr inbounds nuw i8, ptr %4, i64 16
  store ptr %2, ptr %23, align 8, !tbaa !237
  store ptr %2, ptr %0, align 8, !tbaa !234
  %24 = getelementptr inbounds nuw i8, ptr %0, i64 8
  store ptr %4, ptr %24, align 8, !tbaa !39
  ret void

25:                                               ; preds = %1
  %26 = landingpad { ptr, i32 }
          cleanup
  tail call void @_ZdlPvm(ptr noundef nonnull %2, i64 noundef 56) #46
  br label %14
}

declare hidden void @_ZN5osgeo4proj4util10BaseObject10assignSelfERKNS1_15BaseObjectNNPtrE(ptr noundef nonnull align 8 dereferenceable(16), ptr noundef nonnull align 8 dereferenceable(16)) local_unnamed_addr #6

declare void @_ZN5osgeo4proj6common16IdentifiedObject13setPropertiesERKNS0_4util11PropertyMapE(ptr noundef nonnull align 8 dereferenceable(40), ptr noundef nonnull align 8 dereferenceable(8)) local_unnamed_addr #6

; Function Attrs: mustprogress sspstrong uwtable
define linkonce_odr hidden noundef nonnull align 8 dereferenceable(24) ptr @_ZNSt6vectorIN7dropbox6oxygen2nnISt10shared_ptrIN5osgeo4proj9operation25GeneralOperationParameterEEEESaIS9_EEaSERKSB_(ptr noundef nonnull align 8 dereferenceable(24) %0, ptr noundef nonnull align 8 dereferenceable(24) %1) local_unnamed_addr #0 comdat align 2 personality ptr @__gxx_personality_v0 {
  %3 = icmp eq ptr %1, %0
  br i1 %3, label %300, label %4

4:                                                ; preds = %2
  %5 = getelementptr inbounds nuw i8, ptr %1, i64 8
  %6 = load ptr, ptr %5, align 8, !tbaa !239
  %7 = load ptr, ptr %1, align 8, !tbaa !242
  %8 = ptrtoint ptr %6 to i64
  %9 = ptrtoint ptr %7 to i64
  %10 = sub i64 %8, %9
  %11 = ashr exact i64 %10, 4
  %12 = icmp sgt i64 %11, -1
  tail call void @llvm.assume(i1 %12)
  %13 = getelementptr inbounds nuw i8, ptr %0, i64 16
  %14 = load ptr, ptr %13, align 8, !tbaa !243
  %15 = load ptr, ptr %0, align 8, !tbaa !242
  %16 = ptrtoint ptr %14 to i64
  %17 = ptrtoint ptr %15 to i64
  %18 = sub i64 %16, %17
  %19 = ashr exact i64 %18, 4
  %20 = icmp sgt i64 %19, -1
  tail call void @llvm.assume(i1 %20)
  %21 = icmp samesign ugt i64 %11, %19
  br i1 %21, label %22, label %97

22:                                               ; preds = %4
  %23 = tail call noalias noundef nonnull ptr @_Znwm(i64 noundef %10) #47
  %24 = icmp eq ptr %7, %6
  br i1 %24, label %48, label %25

25:                                               ; preds = %42, %22
  %26 = phi ptr [ %43, %42 ], [ %7, %22 ]
  %27 = phi ptr [ %44, %42 ], [ %23, %22 ]
  %28 = load ptr, ptr %26, align 8, !tbaa !244
  store ptr %28, ptr %27, align 8, !tbaa !244
  %29 = getelementptr inbounds nuw i8, ptr %27, i64 8
  %30 = getelementptr inbounds nuw i8, ptr %26, i64 8
  %31 = load ptr, ptr %30, align 8, !tbaa !39
  store ptr %31, ptr %29, align 8, !tbaa !39
  %32 = icmp eq ptr %31, null
  br i1 %32, label %42, label %33

33:                                               ; preds = %25
  %34 = getelementptr inbounds nuw i8, ptr %31, i64 8
  %35 = load i8, ptr @__libc_single_threaded, align 1, !tbaa !15
  %36 = icmp eq i8 %35, 0
  br i1 %36, label %40, label %37

37:                                               ; preds = %33
  %38 = load i32, ptr %34, align 4, !tbaa !55
  %39 = add nsw i32 %38, 1
  store i32 %39, ptr %34, align 4, !tbaa !55
  br label %42

40:                                               ; preds = %33
  %41 = atomicrmw volatile add ptr %34, i32 1 acq_rel, align 4
  br label %42

42:                                               ; preds = %40, %37, %25
  %43 = getelementptr inbounds nuw i8, ptr %26, i64 16
  %44 = getelementptr inbounds nuw i8, ptr %27, i64 16
  %45 = icmp eq ptr %43, %6
  br i1 %45, label %46, label %25, !llvm.loop !247

46:                                               ; preds = %42
  %47 = load ptr, ptr %0, align 8, !tbaa !242
  br label %48

48:                                               ; preds = %46, %22
  %49 = phi ptr [ %47, %46 ], [ %15, %22 ]
  %50 = getelementptr inbounds nuw i8, ptr %0, i64 8
  %51 = load ptr, ptr %50, align 8, !tbaa !239
  %52 = icmp eq ptr %49, %51
  br i1 %52, label %87, label %53

53:                                               ; preds = %82, %48
  %54 = phi ptr [ %83, %82 ], [ %49, %48 ]
  %55 = getelementptr inbounds nuw i8, ptr %54, i64 8
  %56 = load ptr, ptr %55, align 8, !tbaa !39
  %57 = icmp eq ptr %56, null
  br i1 %57, label %82, label %58

58:                                               ; preds = %53
  %59 = getelementptr inbounds nuw i8, ptr %56, i64 8
  %60 = load atomic i64, ptr %59 acquire, align 8
  %61 = icmp eq i64 %60, 4294967297
  %62 = trunc i64 %60 to i32
  br i1 %61, label %63, label %71

63:                                               ; preds = %58
  store i32 0, ptr %59, align 8, !tbaa !62
  %64 = getelementptr inbounds nuw i8, ptr %56, i64 12
  store i32 0, ptr %64, align 4, !tbaa !64
  %65 = load ptr, ptr %56, align 8, !tbaa !4
  %66 = getelementptr inbounds nuw i8, ptr %65, i64 16
  %67 = load ptr, ptr %66, align 8
  tail call void %67(ptr noundef nonnull align 8 dereferenceable(16) %56) #45
  %68 = load ptr, ptr %56, align 8, !tbaa !4
  %69 = getelementptr inbounds nuw i8, ptr %68, i64 24
  %70 = load ptr, ptr %69, align 8
  tail call void %70(ptr noundef nonnull align 8 dereferenceable(16) %56) #45
  br label %82

71:                                               ; preds = %58
  %72 = load i8, ptr @__libc_single_threaded, align 1, !tbaa !15
  %73 = icmp eq i8 %72, 0
  br i1 %73, label %76, label %74

74:                                               ; preds = %71
  %75 = add nsw i32 %62, -1
  store i32 %75, ptr %59, align 4, !tbaa !55
  br label %78

76:                                               ; preds = %71
  %77 = atomicrmw volatile add ptr %59, i32 -1 acq_rel, align 4
  br label %78

78:                                               ; preds = %76, %74
  %79 = phi i32 [ %62, %74 ], [ %77, %76 ]
  %80 = icmp eq i32 %79, 1
  br i1 %80, label %81, label %82, !prof !65

81:                                               ; preds = %78
  tail call void @_ZNSt16_Sp_counted_baseILN9__gnu_cxx12_Lock_policyE2EE24_M_release_last_use_coldEv(ptr noundef nonnull align 8 dereferenceable(16) %56) #45
  br label %82

82:                                               ; preds = %81, %78, %63, %53
  %83 = getelementptr inbounds nuw i8, ptr %54, i64 16
  %84 = icmp eq ptr %83, %51
  br i1 %84, label %85, label %53, !llvm.loop !248

85:                                               ; preds = %82
  %86 = load ptr, ptr %0, align 8, !tbaa !242
  br label %87

87:                                               ; preds = %85, %48
  %88 = phi ptr [ %86, %85 ], [ %49, %48 ]
  %89 = icmp eq ptr %88, null
  br i1 %89, label %95, label %90

90:                                               ; preds = %87
  %91 = load ptr, ptr %13, align 8, !tbaa !243
  %92 = ptrtoint ptr %91 to i64
  %93 = ptrtoint ptr %88 to i64
  %94 = sub i64 %92, %93
  tail call void @_ZdlPvm(ptr noundef nonnull %88, i64 noundef %94) #46
  br label %95

95:                                               ; preds = %90, %87
  store ptr %23, ptr %0, align 8, !tbaa !242
  %96 = getelementptr inbounds nuw i8, ptr %23, i64 %10
  store ptr %96, ptr %13, align 8, !tbaa !243
  br label %296

97:                                               ; preds = %4
  %98 = getelementptr inbounds nuw i8, ptr %0, i64 8
  %99 = load ptr, ptr %98, align 8, !tbaa !239
  %100 = ptrtoint ptr %99 to i64
  %101 = sub i64 %100, %17
  %102 = ashr exact i64 %101, 4
  %103 = icmp sgt i64 %102, -1
  tail call void @llvm.assume(i1 %103)
  %104 = icmp samesign ult i64 %102, %11
  br i1 %104, label %203, label %105

105:                                              ; preds = %97
  %106 = icmp eq ptr %7, %6
  br i1 %106, label %163, label %107

107:                                              ; preds = %156, %105
  %108 = phi ptr [ %157, %156 ], [ %15, %105 ]
  %109 = phi ptr [ %158, %156 ], [ %7, %105 ]
  %110 = load ptr, ptr %109, align 8, !tbaa !244
  store ptr %110, ptr %108, align 8, !tbaa !244
  %111 = getelementptr inbounds nuw i8, ptr %108, i64 8
  %112 = getelementptr inbounds nuw i8, ptr %109, i64 8
  %113 = load ptr, ptr %112, align 8, !tbaa !39
  %114 = load ptr, ptr %111, align 8, !tbaa !39
  %115 = icmp eq ptr %113, %114
  br i1 %115, label %156, label %116

116:                                              ; preds = %107
  %117 = icmp eq ptr %113, null
  br i1 %117, label %128, label %118

118:                                              ; preds = %116
  %119 = getelementptr inbounds nuw i8, ptr %113, i64 8
  %120 = load i8, ptr @__libc_single_threaded, align 1, !tbaa !15
  %121 = icmp eq i8 %120, 0
  br i1 %121, label %125, label %122

122:                                              ; preds = %118
  %123 = load i32, ptr %119, align 4, !tbaa !55
  %124 = add nsw i32 %123, 1
  store i32 %124, ptr %119, align 4, !tbaa !55
  br label %128

125:                                              ; preds = %118
  %126 = atomicrmw volatile add ptr %119, i32 1 acq_rel, align 4
  %127 = load ptr, ptr %111, align 8, !tbaa !39
  br label %128

128:                                              ; preds = %125, %122, %116
  %129 = phi ptr [ %114, %116 ], [ %114, %122 ], [ %127, %125 ]
  %130 = icmp eq ptr %129, null
  br i1 %130, label %155, label %131

131:                                              ; preds = %128
  %132 = getelementptr inbounds nuw i8, ptr %129, i64 8
  %133 = load atomic i64, ptr %132 acquire, align 8
  %134 = icmp eq i64 %133, 4294967297
  %135 = trunc i64 %133 to i32
  br i1 %134, label %136, label %144

136:                                              ; preds = %131
  store i32 0, ptr %132, align 8, !tbaa !62
  %137 = getelementptr inbounds nuw i8, ptr %129, i64 12
  store i32 0, ptr %137, align 4, !tbaa !64
  %138 = load ptr, ptr %129, align 8, !tbaa !4
  %139 = getelementptr inbounds nuw i8, ptr %138, i64 16
  %140 = load ptr, ptr %139, align 8
  tail call void %140(ptr noundef nonnull align 8 dereferenceable(16) %129) #45
  %141 = load ptr, ptr %129, align 8, !tbaa !4
  %142 = getelementptr inbounds nuw i8, ptr %141, i64 24
  %143 = load ptr, ptr %142, align 8
  tail call void %143(ptr noundef nonnull align 8 dereferenceable(16) %129) #45
  br label %155

144:                                              ; preds = %131
  %145 = load i8, ptr @__libc_single_threaded, align 1, !tbaa !15
  %146 = icmp eq i8 %145, 0
  br i1 %146, label %149, label %147

147:                                              ; preds = %144
  %148 = add nsw i32 %135, -1
  store i32 %148, ptr %132, align 4, !tbaa !55
  br label %151

149:                                              ; preds = %144
  %150 = atomicrmw volatile add ptr %132, i32 -1 acq_rel, align 4
  br label %151

151:                                              ; preds = %149, %147
  %152 = phi i32 [ %135, %147 ], [ %150, %149 ]
  %153 = icmp eq i32 %152, 1
  br i1 %153, label %154, label %155, !prof !65

154:                                              ; preds = %151
  tail call void @_ZNSt16_Sp_counted_baseILN9__gnu_cxx12_Lock_policyE2EE24_M_release_last_use_coldEv(ptr noundef nonnull align 8 dereferenceable(16) %129) #45
  br label %155

155:                                              ; preds = %154, %151, %136, %128
  store ptr %113, ptr %111, align 8, !tbaa !39
  br label %156

156:                                              ; preds = %155, %107
  %157 = getelementptr inbounds nuw i8, ptr %108, i64 16
  %158 = getelementptr inbounds nuw i8, ptr %109, i64 16
  %159 = icmp eq ptr %158, %6
  br i1 %159, label %160, label %107, !llvm.loop !249

160:                                              ; preds = %156
  %161 = load ptr, ptr %98, align 8, !tbaa !250
  %162 = ptrtoint ptr %157 to i64
  br label %163

163:                                              ; preds = %160, %105
  %164 = phi i64 [ %162, %160 ], [ %17, %105 ]
  %165 = phi ptr [ %161, %160 ], [ %99, %105 ]
  %166 = phi ptr [ %157, %160 ], [ %15, %105 ]
  %167 = icmp eq ptr %166, %165
  br i1 %167, label %296, label %168

168:                                              ; preds = %163
  %169 = sub i64 %164, %17
  %170 = getelementptr inbounds i8, ptr %15, i64 %169
  br label %171

171:                                              ; preds = %200, %168
  %172 = phi ptr [ %201, %200 ], [ %170, %168 ]
  %173 = getelementptr inbounds nuw i8, ptr %172, i64 8
  %174 = load ptr, ptr %173, align 8, !tbaa !39
  %175 = icmp eq ptr %174, null
  br i1 %175, label %200, label %176

176:                                              ; preds = %171
  %177 = getelementptr inbounds nuw i8, ptr %174, i64 8
  %178 = load atomic i64, ptr %177 acquire, align 8
  %179 = icmp eq i64 %178, 4294967297
  %180 = trunc i64 %178 to i32
  br i1 %179, label %181, label %189

181:                                              ; preds = %176
  store i32 0, ptr %177, align 8, !tbaa !62
  %182 = getelementptr inbounds nuw i8, ptr %174, i64 12
  store i32 0, ptr %182, align 4, !tbaa !64
  %183 = load ptr, ptr %174, align 8, !tbaa !4
  %184 = getelementptr inbounds nuw i8, ptr %183, i64 16
  %185 = load ptr, ptr %184, align 8
  tail call void %185(ptr noundef nonnull align 8 dereferenceable(16) %174) #45
  %186 = load ptr, ptr %174, align 8, !tbaa !4
  %187 = getelementptr inbounds nuw i8, ptr %186, i64 24
  %188 = load ptr, ptr %187, align 8
  tail call void %188(ptr noundef nonnull align 8 dereferenceable(16) %174) #45
  br label %200

189:                                              ; preds = %176
  %190 = load i8, ptr @__libc_single_threaded, align 1, !tbaa !15
  %191 = icmp eq i8 %190, 0
  br i1 %191, label %194, label %192

192:                                              ; preds = %189
  %193 = add nsw i32 %180, -1
  store i32 %193, ptr %177, align 4, !tbaa !55
  br label %196

194:                                              ; preds = %189
  %195 = atomicrmw volatile add ptr %177, i32 -1 acq_rel, align 4
  br label %196

196:                                              ; preds = %194, %192
  %197 = phi i32 [ %180, %192 ], [ %195, %194 ]
  %198 = icmp eq i32 %197, 1
  br i1 %198, label %199, label %200, !prof !65

199:                                              ; preds = %196
  tail call void @_ZNSt16_Sp_counted_baseILN9__gnu_cxx12_Lock_policyE2EE24_M_release_last_use_coldEv(ptr noundef nonnull align 8 dereferenceable(16) %174) #45
  br label %200

200:                                              ; preds = %199, %196, %181, %171
  %201 = getelementptr inbounds nuw i8, ptr %172, i64 16
  %202 = icmp eq ptr %201, %165
  br i1 %202, label %296, label %171, !llvm.loop !251

203:                                              ; preds = %97
  %204 = getelementptr inbounds nuw i8, ptr %7, i64 %101
  %205 = icmp eq ptr %99, %15
  br i1 %205, label %267, label %206

206:                                              ; preds = %255, %203
  %207 = phi ptr [ %256, %255 ], [ %15, %203 ]
  %208 = phi ptr [ %257, %255 ], [ %7, %203 ]
  %209 = load ptr, ptr %208, align 8, !tbaa !244
  store ptr %209, ptr %207, align 8, !tbaa !244
  %210 = getelementptr inbounds nuw i8, ptr %207, i64 8
  %211 = getelementptr inbounds nuw i8, ptr %208, i64 8
  %212 = load ptr, ptr %211, align 8, !tbaa !39
  %213 = load ptr, ptr %210, align 8, !tbaa !39
  %214 = icmp eq ptr %212, %213
  br i1 %214, label %255, label %215

215:                                              ; preds = %206
  %216 = icmp eq ptr %212, null
  br i1 %216, label %227, label %217

217:                                              ; preds = %215
  %218 = getelementptr inbounds nuw i8, ptr %212, i64 8
  %219 = load i8, ptr @__libc_single_threaded, align 1, !tbaa !15
  %220 = icmp eq i8 %219, 0
  br i1 %220, label %224, label %221

221:                                              ; preds = %217
  %222 = load i32, ptr %218, align 4, !tbaa !55
  %223 = add nsw i32 %222, 1
  store i32 %223, ptr %218, align 4, !tbaa !55
  br label %227

224:                                              ; preds = %217
  %225 = atomicrmw volatile add ptr %218, i32 1 acq_rel, align 4
  %226 = load ptr, ptr %210, align 8, !tbaa !39
  br label %227

227:                                              ; preds = %224, %221, %215
  %228 = phi ptr [ %213, %215 ], [ %213, %221 ], [ %226, %224 ]
  %229 = icmp eq ptr %228, null
  br i1 %229, label %254, label %230

230:                                              ; preds = %227
  %231 = getelementptr inbounds nuw i8, ptr %228, i64 8
  %232 = load atomic i64, ptr %231 acquire, align 8
  %233 = icmp eq i64 %232, 4294967297
  %234 = trunc i64 %232 to i32
  br i1 %233, label %235, label %243

235:                                              ; preds = %230
  store i32 0, ptr %231, align 8, !tbaa !62
  %236 = getelementptr inbounds nuw i8, ptr %228, i64 12
  store i32 0, ptr %236, align 4, !tbaa !64
  %237 = load ptr, ptr %228, align 8, !tbaa !4
  %238 = getelementptr inbounds nuw i8, ptr %237, i64 16
  %239 = load ptr, ptr %238, align 8
  tail call void %239(ptr noundef nonnull align 8 dereferenceable(16) %228) #45
  %240 = load ptr, ptr %228, align 8, !tbaa !4
  %241 = getelementptr inbounds nuw i8, ptr %240, i64 24
  %242 = load ptr, ptr %241, align 8
  tail call void %242(ptr noundef nonnull align 8 dereferenceable(16) %228) #45
  br label %254

243:                                              ; preds = %230
  %244 = load i8, ptr @__libc_single_threaded, align 1, !tbaa !15
  %245 = icmp eq i8 %244, 0
  br i1 %245, label %248, label %246

246:                                              ; preds = %243
  %247 = add nsw i32 %234, -1
  store i32 %247, ptr %231, align 4, !tbaa !55
  br label %250

248:                                              ; preds = %243
  %249 = atomicrmw volatile add ptr %231, i32 -1 acq_rel, align 4
  br label %250

250:                                              ; preds = %248, %246
  %251 = phi i32 [ %234, %246 ], [ %249, %248 ]
  %252 = icmp eq i32 %251, 1
  br i1 %252, label %253, label %254, !prof !65

253:                                              ; preds = %250
  tail call void @_ZNSt16_Sp_counted_baseILN9__gnu_cxx12_Lock_policyE2EE24_M_release_last_use_coldEv(ptr noundef nonnull align 8 dereferenceable(16) %228) #45
  br label %254

254:                                              ; preds = %253, %250, %235, %227
  store ptr %212, ptr %210, align 8, !tbaa !39
  br label %255

255:                                              ; preds = %254, %206
  %256 = getelementptr inbounds nuw i8, ptr %207, i64 16
  %257 = getelementptr inbounds nuw i8, ptr %208, i64 16
  %258 = icmp eq ptr %257, %204
  br i1 %258, label %259, label %206, !llvm.loop !252

259:                                              ; preds = %255
  %260 = load ptr, ptr %1, align 8, !tbaa !242
  %261 = load ptr, ptr %98, align 8, !tbaa !239
  %262 = load ptr, ptr %0, align 8, !tbaa !242
  %263 = load ptr, ptr %5, align 8, !tbaa !239
  %264 = ptrtoint ptr %261 to i64
  %265 = ptrtoint ptr %262 to i64
  %266 = sub i64 %264, %265
  br label %267

267:                                              ; preds = %259, %203
  %268 = phi i64 [ %266, %259 ], [ 0, %203 ]
  %269 = phi ptr [ %263, %259 ], [ %6, %203 ]
  %270 = phi ptr [ %261, %259 ], [ %99, %203 ]
  %271 = phi ptr [ %260, %259 ], [ %7, %203 ]
  %272 = icmp sgt i64 %268, -1
  tail call void @llvm.assume(i1 %272)
  %273 = getelementptr inbounds nuw i8, ptr %271, i64 %268
  %274 = icmp eq ptr %273, %269
  br i1 %274, label %296, label %275

275:                                              ; preds = %292, %267
  %276 = phi ptr [ %293, %292 ], [ %273, %267 ]
  %277 = phi ptr [ %294, %292 ], [ %270, %267 ]
  %278 = load ptr, ptr %276, align 8, !tbaa !244
  store ptr %278, ptr %277, align 8, !tbaa !244
  %279 = getelementptr inbounds nuw i8, ptr %277, i64 8
  %280 = getelementptr inbounds nuw i8, ptr %276, i64 8
  %281 = load ptr, ptr %280, align 8, !tbaa !39
  store ptr %281, ptr %279, align 8, !tbaa !39
  %282 = icmp eq ptr %281, null
  br i1 %282, label %292, label %283

283:                                              ; preds = %275
  %284 = getelementptr inbounds nuw i8, ptr %281, i64 8
  %285 = load i8, ptr @__libc_single_threaded, align 1, !tbaa !15
  %286 = icmp eq i8 %285, 0
  br i1 %286, label %290, label %287

287:                                              ; preds = %283
  %288 = load i32, ptr %284, align 4, !tbaa !55
  %289 = add nsw i32 %288, 1
  store i32 %289, ptr %284, align 4, !tbaa !55
  br label %292

290:                                              ; preds = %283
  %291 = atomicrmw volatile add ptr %284, i32 1 acq_rel, align 4
  br label %292

292:                                              ; preds = %290, %287, %275
  %293 = getelementptr inbounds nuw i8, ptr %276, i64 16
  %294 = getelementptr inbounds nuw i8, ptr %277, i64 16
  %295 = icmp eq ptr %293, %269
  br i1 %295, label %296, label %275, !llvm.loop !253

296:                                              ; preds = %292, %267, %200, %163, %95
  %297 = load ptr, ptr %0, align 8, !tbaa !242
  %298 = getelementptr inbounds nuw i8, ptr %297, i64 %10
  %299 = getelementptr inbounds nuw i8, ptr %0, i64 8
  store ptr %298, ptr %299, align 8, !tbaa !239
  br label %300

300:                                              ; preds = %296, %2
  ret ptr %0
}

declare noundef zeroext i1 @_ZNK5osgeo4proj4util11PropertyMap14getStringValueERKNSt7__cxx1112basic_stringIcSt11char_traitsIcESaIcEEERS8_(ptr noundef nonnull align 8 dereferenceable(8), ptr noundef nonnull align 8 dereferenceable(32), ptr noundef nonnull align 8 dereferenceable(32)) local_unnamed_addr #6

; Function Attrs: mustprogress sspstrong uwtable
define linkonce_odr void @_ZNSt7__cxx1112basic_stringIcSt11char_traitsIcESaIcEEC2IS3_EEPKcRKS3_(ptr noundef nonnull align 8 dereferenceable(32) %0, ptr noundef %1, ptr noundef nonnull align 1 dereferenceable(1) %2) unnamed_addr #0 comdat align 2 personality ptr @__gxx_personality_v0 {
  %4 = alloca i64, align 8
  %5 = getelementptr inbounds nuw i8, ptr %0, i64 16
  store ptr %5, ptr %0, align 8, !tbaa !7
  %6 = icmp eq ptr %1, null
  br i1 %6, label %7, label %8

7:                                                ; preds = %3
  tail call void @_ZSt19__throw_logic_errorPKc(ptr noundef nonnull @.str.275) #19
  unreachable

8:                                                ; preds = %3
  %9 = tail call noundef i64 @strlen(ptr noundef nonnull dereferenceable(1) %1) #45
  call void @llvm.lifetime.start.p0(ptr %4)
  store i64 %9, ptr %4, align 8, !tbaa !22
  %10 = icmp ugt i64 %9, 15
  br i1 %10, label %11, label %14

11:                                               ; preds = %8
  %12 = call noundef ptr @_ZNSt7__cxx1112basic_stringIcSt11char_traitsIcESaIcEE9_M_createERmm(ptr noundef nonnull align 8 dereferenceable(32) %0, ptr noundef nonnull align 8 dereferenceable(8) %4, i64 noundef 0)
  store ptr %12, ptr %0, align 8, !tbaa !21
  %13 = load i64, ptr %4, align 8, !tbaa !22
  store i64 %13, ptr %5, align 8, !tbaa !15
  br label %14

14:                                               ; preds = %11, %8
  %15 = phi ptr [ %12, %11 ], [ %5, %8 ]
  switch i64 %9, label %18 [
    i64 1, label %16
    i64 0, label %19
  ]

16:                                               ; preds = %14
  %17 = load i8, ptr %1, align 1, !tbaa !15
  store i8 %17, ptr %15, align 1, !tbaa !15
  br label %19

18:                                               ; preds = %14
  call void @llvm.memcpy.p0.p0.i64(ptr align 1 %15, ptr nonnull align 1 %1, i64 %9, i1 false)
  br label %19

19:                                               ; preds = %18, %16, %14
  %20 = load i64, ptr %4, align 8, !tbaa !22
  %21 = getelementptr inbounds nuw i8, ptr %0, i64 8
  store i64 %20, ptr %21, align 8, !tbaa !12
  %22 = load ptr, ptr %0, align 8, !tbaa !21
  %23 = getelementptr inbounds nuw i8, ptr %22, i64 %20
  store i8 0, ptr %23, align 1, !tbaa !15
  call void @llvm.lifetime.end.p0(ptr %4)
  ret void
}

; Function Attrs: inlinehint mustprogress nounwind sspstrong uwtable
define linkonce_odr hidden void @_ZN7dropbox6oxygen2nnISt10shared_ptrIN5osgeo4proj9operation15OperationMethodEEED2Ev(ptr noundef nonnull align 8 dereferenceable(16) %0) unnamed_addr #16 comdat align 2 personality ptr @__gxx_personality_v0 {
  %2 = getelementptr inbounds nuw i8, ptr %0, i64 8
  %3 = load ptr, ptr %2, align 8, !tbaa !39
  %4 = icmp eq ptr %3, null
  br i1 %4, label %29, label %5

5:                                                ; preds = %1
  %6 = getelementptr inbounds nuw i8, ptr %3, i64 8
  %7 = load atomic i64, ptr %6 acquire, align 8
  %8 = icmp eq i64 %7, 4294967297
  %9 = trunc i64 %7 to i32
  br i1 %8, label %10, label %18

10:                                               ; preds = %5
  store i32 0, ptr %6, align 8, !tbaa !62
  %11 = getelementptr inbounds nuw i8, ptr %3, i64 12
  store i32 0, ptr %11, align 4, !tbaa !64
  %12 = load ptr, ptr %3, align 8, !tbaa !4
  %13 = getelementptr inbounds nuw i8, ptr %12, i64 16
  %14 = load ptr, ptr %13, align 8
  tail call void %14(ptr noundef nonnull align 8 dereferenceable(16) %3) #45
  %15 = load ptr, ptr %3, align 8, !tbaa !4
  %16 = getelementptr inbounds nuw i8, ptr %15, i64 24
  %17 = load ptr, ptr %16, align 8
  tail call void %17(ptr noundef nonnull align 8 dereferenceable(16) %3) #45
  br label %29

18:                                               ; preds = %5
  %19 = load i8, ptr @__libc_single_threaded, align 1, !tbaa !15
  %20 = icmp eq i8 %19, 0
  br i1 %20, label %23, label %21

21:                                               ; preds = %18
  %22 = add nsw i32 %9, -1
  store i32 %22, ptr %6, align 4, !tbaa !55
  br label %25

23:                                               ; preds = %18
  %24 = atomicrmw volatile add ptr %6, i32 -1 acq_rel, align 4
  br label %25

25:                                               ; preds = %23, %21
  %26 = phi i32 [ %9, %21 ], [ %24, %23 ]
  %27 = icmp eq i32 %26, 1
  br i1 %27, label %28, label %29, !prof !65

28:                                               ; preds = %25
  tail call void @_ZNSt16_Sp_counted_baseILN9__gnu_cxx12_Lock_policyE2EE24_M_release_last_use_coldEv(ptr noundef nonnull align 8 dereferenceable(16) %3) #45
  br label %29

29:                                               ; preds = %28, %25, %10, %1
  ret void
}

; Function Attrs: mustprogress sspstrong uwtable
define void @_ZN5osgeo4proj9operation15OperationMethod6createERKNS0_4util11PropertyMapERKSt6vectorIN7dropbox6oxygen2nnISt10shared_ptrINS1_18OperationParameterEEEESaISE_EE(ptr dead_on_unwind noalias writable sret(%"class.dropbox::oxygen::nn.176") align 8 %0, ptr noundef nonnull align 8 dereferenceable(8) %1, ptr noundef nonnull readonly align 8 captures(none) dereferenceable(24) %2) local_unnamed_addr #0 align 2 personality ptr @__gxx_personality_v0 {
  %4 = alloca %"class.std::vector.171", align 8
  %5 = alloca %"class.dropbox::oxygen::nn.190", align 8
  call void @llvm.lifetime.start.p0(ptr %4)
  call void @llvm.memset.p0.i64(ptr noundef nonnull align 8 dereferenceable(24) %4, i8 0, i64 24, i1 false)
  %6 = getelementptr inbounds nuw i8, ptr %2, i64 8
  %7 = load ptr, ptr %6, align 8, !tbaa !254
  %8 = load ptr, ptr %2, align 8, !tbaa !257
  %9 = ptrtoint ptr %7 to i64
  %10 = ptrtoint ptr %8 to i64
  %11 = sub i64 %9, %10
  %12 = icmp sgt i64 %11, -1
  tail call void @llvm.assume(i1 %12)
  %13 = getelementptr inbounds nuw i8, ptr %4, i64 16
  %14 = icmp eq ptr %7, %8
  br i1 %14, label %20, label %15

15:                                               ; preds = %3
  %16 = invoke noalias noundef nonnull ptr @_Znwm(i64 noundef %11) #47
          to label %17 unwind label %28

17:                                               ; preds = %15
  %18 = getelementptr inbounds nuw i8, ptr %4, i64 8
  store ptr %16, ptr %4, align 8, !tbaa !242
  store ptr %16, ptr %18, align 8, !tbaa !239
  %19 = getelementptr inbounds nuw i8, ptr %16, i64 %11
  store ptr %19, ptr %13, align 8, !tbaa !243
  br label %20

20:                                               ; preds = %17, %3
  %21 = phi ptr [ %19, %17 ], [ null, %3 ]
  %22 = phi ptr [ %16, %17 ], [ null, %3 ]
  %23 = icmp eq ptr %8, %7
  br i1 %23, label %27, label %24

24:                                               ; preds = %20
  %25 = getelementptr inbounds nuw i8, ptr %5, i64 8
  %26 = getelementptr inbounds nuw i8, ptr %4, i64 8
  br label %30

27:                                               ; preds = %97, %20
  invoke void @_ZN5osgeo4proj9operation15OperationMethod6createERKNS0_4util11PropertyMapERKSt6vectorIN7dropbox6oxygen2nnISt10shared_ptrINS1_25GeneralOperationParameterEEEESaISE_EE(ptr dead_on_unwind writable sret(%"class.dropbox::oxygen::nn.176") align 8 %0, ptr noundef nonnull align 8 dereferenceable(8) %1, ptr noundef nonnull align 8 dereferenceable(24) %4)
          to label %108 unwind label %28

28:                                               ; preds = %27, %15
  %29 = landingpad { ptr, i32 }
          cleanup
  br label %156

30:                                               ; preds = %97, %24
  %31 = phi ptr [ %21, %24 ], [ %98, %97 ]
  %32 = phi ptr [ %22, %24 ], [ %99, %97 ]
  %33 = phi ptr [ %8, %24 ], [ %100, %97 ]
  call void @llvm.lifetime.start.p0(ptr %5)
  %34 = load ptr, ptr %33, align 8, !tbaa !258
  store ptr %34, ptr %5, align 8, !tbaa !244
  %35 = getelementptr inbounds nuw i8, ptr %33, i64 8
  %36 = load ptr, ptr %35, align 8, !tbaa !39
  store ptr %36, ptr %25, align 8, !tbaa !39
  %37 = icmp eq ptr %36, null
  br i1 %37, label %49, label %38

38:                                               ; preds = %30
  %39 = getelementptr inbounds nuw i8, ptr %36, i64 8
  %40 = load i8, ptr @__libc_single_threaded, align 1, !tbaa !15
  %41 = icmp eq i8 %40, 0
  br i1 %41, label %45, label %42

42:                                               ; preds = %38
  %43 = load i32, ptr %39, align 4, !tbaa !55
  %44 = add nsw i32 %43, 1
  store i32 %44, ptr %39, align 4, !tbaa !55
  br label %49

45:                                               ; preds = %38
  %46 = atomicrmw volatile add ptr %39, i32 1 acq_rel, align 4
  %47 = load ptr, ptr %26, align 8, !tbaa !239
  %48 = load ptr, ptr %13, align 8, !tbaa !243
  br label %49

49:                                               ; preds = %45, %42, %30
  %50 = phi ptr [ %48, %45 ], [ %31, %42 ], [ %31, %30 ]
  %51 = phi ptr [ %47, %45 ], [ %32, %42 ], [ %32, %30 ]
  %52 = icmp eq ptr %51, %50
  br i1 %52, label %58, label %53

53:                                               ; preds = %49
  %54 = load ptr, ptr %5, align 8, !tbaa !244
  store ptr %54, ptr %51, align 8, !tbaa !244
  %55 = getelementptr inbounds nuw i8, ptr %51, i64 8
  store ptr null, ptr %55, align 8, !tbaa !39
  %56 = load ptr, ptr %25, align 8, !tbaa !39
  store ptr %56, ptr %55, align 8, !tbaa !39
  %57 = getelementptr inbounds nuw i8, ptr %51, i64 16
  store ptr %57, ptr %26, align 8, !tbaa !239
  br label %97

58:                                               ; preds = %49
  %59 = load ptr, ptr %4, align 8, !tbaa !242
  %60 = ptrtoint ptr %50 to i64
  %61 = ptrtoint ptr %59 to i64
  %62 = sub i64 %60, %61
  %63 = ashr exact i64 %62, 4
  %64 = icmp sgt i64 %63, -1
  tail call void @llvm.assume(i1 %64)
  %65 = icmp eq i64 %62, 9223372036854775792
  br i1 %65, label %66, label %68

66:                                               ; preds = %58
  invoke void @_ZSt20__throw_length_errorPKc(ptr noundef nonnull @.str.276) #19
          to label %67 unwind label %104

67:                                               ; preds = %66
  unreachable

68:                                               ; preds = %58
  %69 = tail call i64 @llvm.umax.i64(i64 %63, i64 1)
  %70 = add nuw nsw i64 %69, %63
  %71 = tail call noundef i64 @llvm.umin.i64(i64 %70, i64 576460752303423487)
  %72 = shl nuw nsw i64 %71, 4
  %73 = invoke noalias noundef nonnull ptr @_Znwm(i64 noundef %72) #47
          to label %74 unwind label %102

74:                                               ; preds = %68
  %75 = getelementptr inbounds nuw i8, ptr %73, i64 %62
  %76 = load ptr, ptr %5, align 8, !tbaa !244
  store ptr %76, ptr %75, align 8, !tbaa !244
  %77 = getelementptr inbounds nuw i8, ptr %75, i64 8
  %78 = load ptr, ptr %25, align 8, !tbaa !39
  store ptr null, ptr %25, align 8, !tbaa !39
  store ptr %78, ptr %77, align 8, !tbaa !39
  %79 = icmp eq ptr %59, %50
  br i1 %79, label %90, label %80

80:                                               ; preds = %80, %74
  %81 = phi ptr [ %88, %80 ], [ %73, %74 ]
  %82 = phi ptr [ %87, %80 ], [ %59, %74 ]
  tail call void @llvm.experimental.noalias.scope.decl(metadata !261)
  tail call void @llvm.experimental.noalias.scope.decl(metadata !264)
  %83 = load ptr, ptr %82, align 8, !tbaa !244, !alias.scope !264, !noalias !261
  store ptr %83, ptr %81, align 8, !tbaa !244, !alias.scope !261, !noalias !264
  %84 = getelementptr inbounds nuw i8, ptr %81, i64 8
  %85 = getelementptr inbounds nuw i8, ptr %82, i64 8
  %86 = load ptr, ptr %85, align 8, !tbaa !39, !alias.scope !264, !noalias !261
  store ptr null, ptr %85, align 8, !tbaa !39, !alias.scope !264, !noalias !261
  store ptr %86, ptr %84, align 8, !tbaa !39, !alias.scope !261, !noalias !264
  store ptr null, ptr %82, align 8, !tbaa !244, !alias.scope !264, !noalias !261
  %87 = getelementptr inbounds nuw i8, ptr %82, i64 16
  %88 = getelementptr inbounds nuw i8, ptr %81, i64 16
  %89 = icmp eq ptr %87, %50
  br i1 %89, label %90, label %80, !llvm.loop !266

90:                                               ; preds = %80, %74
  %91 = phi ptr [ %73, %74 ], [ %88, %80 ]
  %92 = icmp eq ptr %59, null
  br i1 %92, label %94, label %93

93:                                               ; preds = %90
  tail call void @_ZdlPvm(ptr noundef nonnull %59, i64 noundef %62) #46
  br label %94

94:                                               ; preds = %93, %90
  %95 = getelementptr inbounds nuw i8, ptr %91, i64 16
  store ptr %73, ptr %4, align 8, !tbaa !242
  store ptr %95, ptr %26, align 8, !tbaa !239
  %96 = getelementptr inbounds nuw %"class.dropbox::oxygen::nn.190", ptr %73, i64 %71
  store ptr %96, ptr %13, align 8, !tbaa !243
  br label %97

97:                                               ; preds = %94, %53
  %98 = phi ptr [ %50, %53 ], [ %96, %94 ]
  %99 = phi ptr [ %57, %53 ], [ %95, %94 ]
  call void @llvm.lifetime.end.p0(ptr %5)
  %100 = getelementptr inbounds nuw i8, ptr %33, i64 16
  %101 = icmp eq ptr %100, %7
  br i1 %101, label %27, label %30

102:                                              ; preds = %68
  %103 = landingpad { ptr, i32 }
          cleanup
  br label %106

104:                                              ; preds = %66
  %105 = landingpad { ptr, i32 }
          cleanup
  br label %106

106:                                              ; preds = %104, %102
  %107 = phi { ptr, i32 } [ %103, %102 ], [ %105, %104 ]
  call void @_ZN7dropbox6oxygen2nnISt10shared_ptrIN5osgeo4proj9operation25GeneralOperationParameterEEED2Ev(ptr noundef nonnull align 8 dereferenceable(16) %5) #45
  call void @llvm.lifetime.end.p0(ptr %5)
  br label %156

108:                                              ; preds = %27
  %109 = load ptr, ptr %4, align 8, !tbaa !242
  %110 = getelementptr inbounds nuw i8, ptr %4, i64 8
  %111 = load ptr, ptr %110, align 8, !tbaa !239
  %112 = icmp eq ptr %109, %111
  br i1 %112, label %147, label %113

113:                                              ; preds = %142, %108
  %114 = phi ptr [ %143, %142 ], [ %109, %108 ]
  %115 = getelementptr inbounds nuw i8, ptr %114, i64 8
  %116 = load ptr, ptr %115, align 8, !tbaa !39
  %117 = icmp eq ptr %116, null
  br i1 %117, label %142, label %118

118:                                              ; preds = %113
  %119 = getelementptr inbounds nuw i8, ptr %116, i64 8
  %120 = load atomic i64, ptr %119 acquire, align 8
  %121 = icmp eq i64 %120, 4294967297
  %122 = trunc i64 %120 to i32
  br i1 %121, label %123, label %131

123:                                              ; preds = %118
  store i32 0, ptr %119, align 8, !tbaa !62
  %124 = getelementptr inbounds nuw i8, ptr %116, i64 12
  store i32 0, ptr %124, align 4, !tbaa !64
  %125 = load ptr, ptr %116, align 8, !tbaa !4
  %126 = getelementptr inbounds nuw i8, ptr %125, i64 16
  %127 = load ptr, ptr %126, align 8
  call void %127(ptr noundef nonnull align 8 dereferenceable(16) %116) #45
  %128 = load ptr, ptr %116, align 8, !tbaa !4
  %129 = getelementptr inbounds nuw i8, ptr %128, i64 24
  %130 = load ptr, ptr %129, align 8
  call void %130(ptr noundef nonnull align 8 dereferenceable(16) %116) #45
  br label %142

131:                                              ; preds = %118
  %132 = load i8, ptr @__libc_single_threaded, align 1, !tbaa !15
  %133 = icmp eq i8 %132, 0
  br i1 %133, label %136, label %134

134:                                              ; preds = %131
  %135 = add nsw i32 %122, -1
  store i32 %135, ptr %119, align 4, !tbaa !55
  br label %138

136:                                              ; preds = %131
  %137 = atomicrmw volatile add ptr %119, i32 -1 acq_rel, align 4
  br label %138

138:                                              ; preds = %136, %134
  %139 = phi i32 [ %122, %134 ], [ %137, %136 ]
  %140 = icmp eq i32 %139, 1
  br i1 %140, label %141, label %142, !prof !65

141:                                              ; preds = %138
  call void @_ZNSt16_Sp_counted_baseILN9__gnu_cxx12_Lock_policyE2EE24_M_release_last_use_coldEv(ptr noundef nonnull align 8 dereferenceable(16) %116) #45
  br label %142

142:                                              ; preds = %141, %138, %123, %113
  %143 = getelementptr inbounds nuw i8, ptr %114, i64 16
  %144 = icmp eq ptr %143, %111
  br i1 %144, label %145, label %113, !llvm.loop !248

145:                                              ; preds = %142
  %146 = load ptr, ptr %4, align 8, !tbaa !242
  br label %147

147:                                              ; preds = %145, %108
  %148 = phi ptr [ %146, %145 ], [ %109, %108 ]
  %149 = icmp eq ptr %148, null
  br i1 %149, label %155, label %150

150:                                              ; preds = %147
  %151 = load ptr, ptr %13, align 8, !tbaa !243
  %152 = ptrtoint ptr %151 to i64
  %153 = ptrtoint ptr %148 to i64
  %154 = sub i64 %152, %153
  call void @_ZdlPvm(ptr noundef nonnull %148, i64 noundef %154) #46
  br label %155

155:                                              ; preds = %150, %147
  call void @llvm.lifetime.end.p0(ptr %4)
  ret void

156:                                              ; preds = %106, %28
  %157 = phi { ptr, i32 } [ %107, %106 ], [ %29, %28 ]
  call void @_ZNSt6vectorIN7dropbox6oxygen2nnISt10shared_ptrIN5osgeo4proj9operation25GeneralOperationParameterEEEESaIS9_EED2Ev(ptr noundef nonnull align 8 dereferenceable(24) %4) #45
  call void @llvm.lifetime.end.p0(ptr %4)
  resume { ptr, i32 } %157
}

; Function Attrs: inlinehint mustprogress nounwind sspstrong uwtable
define linkonce_odr hidden void @_ZN7dropbox6oxygen2nnISt10shared_ptrIN5osgeo4proj9operation25GeneralOperationParameterEEED2Ev(ptr noundef nonnull align 8 dereferenceable(16) %0) unnamed_addr #16 comdat align 2 personality ptr @__gxx_personality_v0 {
  %2 = getelementptr inbounds nuw i8, ptr %0, i64 8
  %3 = load ptr, ptr %2, align 8, !tbaa !39
  %4 = icmp eq ptr %3, null
  br i1 %4, label %29, label %5

5:                                                ; preds = %1
  %6 = getelementptr inbounds nuw i8, ptr %3, i64 8
  %7 = load atomic i64, ptr %6 acquire, align 8
  %8 = icmp eq i64 %7, 4294967297
  %9 = trunc i64 %7 to i32
  br i1 %8, label %10, label %18

10:                                               ; preds = %5
  store i32 0, ptr %6, align 8, !tbaa !62
  %11 = getelementptr inbounds nuw i8, ptr %3, i64 12
  store i32 0, ptr %11, align 4, !tbaa !64
  %12 = load ptr, ptr %3, align 8, !tbaa !4
  %13 = getelementptr inbounds nuw i8, ptr %12, i64 16
  %14 = load ptr, ptr %13, align 8
  tail call void %14(ptr noundef nonnull align 8 dereferenceable(16) %3) #45
  %15 = load ptr, ptr %3, align 8, !tbaa !4
  %16 = getelementptr inbounds nuw i8, ptr %15, i64 24
  %17 = load ptr, ptr %16, align 8
  tail call void %17(ptr noundef nonnull align 8 dereferenceable(16) %3) #45
  br label %29

18:                                               ; preds = %5
  %19 = load i8, ptr @__libc_single_threaded, align 1, !tbaa !15
  %20 = icmp eq i8 %19, 0
  br i1 %20, label %23, label %21

21:                                               ; preds = %18
  %22 = add nsw i32 %9, -1
  store i32 %22, ptr %6, align 4, !tbaa !55
  br label %25

23:                                               ; preds = %18
  %24 = atomicrmw volatile add ptr %6, i32 -1 acq_rel, align 4
  br label %25

25:                                               ; preds = %23, %21
  %26 = phi i32 [ %9, %21 ], [ %24, %23 ]
  %27 = icmp eq i32 %26, 1
  br i1 %27, label %28, label %29, !prof !65

28:                                               ; preds = %25
  tail call void @_ZNSt16_Sp_counted_baseILN9__gnu_cxx12_Lock_policyE2EE24_M_release_last_use_coldEv(ptr noundef nonnull align 8 dereferenceable(16) %3) #45
  br label %29

29:                                               ; preds = %28, %25, %10, %1
  ret void
}

; Function Attrs: mustprogress nounwind sspstrong uwtable
define linkonce_odr hidden void @_ZNSt6vectorIN7dropbox6oxygen2nnISt10shared_ptrIN5osgeo4proj9operation25GeneralOperationParameterEEEESaIS9_EED2Ev(ptr noundef nonnull align 8 dereferenceable(24) %0) unnamed_addr #1 comdat align 2 personality ptr @__gxx_personality_v0 {
  %2 = load ptr, ptr %0, align 8, !tbaa !242
  %3 = getelementptr inbounds nuw i8, ptr %0, i64 8
  %4 = load ptr, ptr %3, align 8, !tbaa !239
  %5 = icmp eq ptr %2, %4
  br i1 %5, label %40, label %6

6:                                                ; preds = %35, %1
  %7 = phi ptr [ %36, %35 ], [ %2, %1 ]
  %8 = getelementptr inbounds nuw i8, ptr %7, i64 8
  %9 = load ptr, ptr %8, align 8, !tbaa !39
  %10 = icmp eq ptr %9, null
  br i1 %10, label %35, label %11

11:                                               ; preds = %6
  %12 = getelementptr inbounds nuw i8, ptr %9, i64 8
  %13 = load atomic i64, ptr %12 acquire, align 8
  %14 = icmp eq i64 %13, 4294967297
  %15 = trunc i64 %13 to i32
  br i1 %14, label %16, label %24

16:                                               ; preds = %11
  store i32 0, ptr %12, align 8, !tbaa !62
  %17 = getelementptr inbounds nuw i8, ptr %9, i64 12
  store i32 0, ptr %17, align 4, !tbaa !64
  %18 = load ptr, ptr %9, align 8, !tbaa !4
  %19 = getelementptr inbounds nuw i8, ptr %18, i64 16
  %20 = load ptr, ptr %19, align 8
  tail call void %20(ptr noundef nonnull align 8 dereferenceable(16) %9) #45
  %21 = load ptr, ptr %9, align 8, !tbaa !4
  %22 = getelementptr inbounds nuw i8, ptr %21, i64 24
  %23 = load ptr, ptr %22, align 8
  tail call void %23(ptr noundef nonnull align 8 dereferenceable(16) %9) #45
  br label %35

24:                                               ; preds = %11
  %25 = load i8, ptr @__libc_single_threaded, align 1, !tbaa !15
  %26 = icmp eq i8 %25, 0
  br i1 %26, label %29, label %27

27:                                               ; preds = %24
  %28 = add nsw i32 %15, -1
  store i32 %28, ptr %12, align 4, !tbaa !55
  br label %31

29:                                               ; preds = %24
  %30 = atomicrmw volatile add ptr %12, i32 -1 acq_rel, align 4
  br label %31

31:                                               ; preds = %29, %27
  %32 = phi i32 [ %15, %27 ], [ %30, %29 ]
  %33 = icmp eq i32 %32, 1
  br i1 %33, label %34, label %35, !prof !65

34:                                               ; preds = %31
  tail call void @_ZNSt16_Sp_counted_baseILN9__gnu_cxx12_Lock_policyE2EE24_M_release_last_use_coldEv(ptr noundef nonnull align 8 dereferenceable(16) %9) #45
  br label %35

35:                                               ; preds = %34, %31, %16, %6
  %36 = getelementptr inbounds nuw i8, ptr %7, i64 16
  %37 = icmp eq ptr %36, %4
  br i1 %37, label %38, label %6, !llvm.loop !248

38:                                               ; preds = %35
  %39 = load ptr, ptr %0, align 8, !tbaa !242
  br label %40

40:                                               ; preds = %38, %1
  %41 = phi ptr [ %39, %38 ], [ %2, %1 ]
  %42 = icmp eq ptr %41, null
  br i1 %42, label %49, label %43

43:                                               ; preds = %40
  %44 = getelementptr inbounds nuw i8, ptr %0, i64 16
  %45 = load ptr, ptr %44, align 8, !tbaa !243
  %46 = ptrtoint ptr %45 to i64
  %47 = ptrtoint ptr %41 to i64
  %48 = sub i64 %46, %47
  tail call void @_ZdlPvm(ptr noundef nonnull %41, i64 noundef %48) #46
  br label %49

49:                                               ; preds = %43, %40
  ret void
}

; Function Attrs: mustprogress nofree nounwind sspstrong willreturn memory(read) uwtable
define noundef i32 @_ZNK5osgeo4proj9operation15OperationMethod11getEPSGCodeEv(ptr noundef nonnull readonly align 8 dereferenceable(56) %0) local_unnamed_addr #23 align 2 personality ptr @__gxx_personality_v0 {
  %2 = alloca i64, align 8
  %3 = alloca %"class.std::__cxx11::basic_string", align 8
  %4 = alloca %"class.std::__cxx11::basic_string", align 8
  %5 = alloca i64, align 8
  %6 = tail call noundef i32 @_ZNK5osgeo4proj6common16IdentifiedObject11getEPSGCodeEv(ptr noundef nonnull align 8 dereferenceable(40) %0) #49
  %7 = icmp eq i32 %6, 0
  br i1 %7, label %8, label %77

8:                                                ; preds = %1
  call void @llvm.lifetime.start.p0(ptr %3)
  %9 = tail call noundef nonnull align 8 dereferenceable(32) ptr @_ZNK5osgeo4proj6common16IdentifiedObject7nameStrB5cxx11Ev(ptr noundef nonnull align 8 dereferenceable(40) %0) #49
  %10 = getelementptr inbounds nuw i8, ptr %3, i64 16
  store ptr %10, ptr %3, align 8, !tbaa !7
  %11 = load ptr, ptr %9, align 8, !tbaa !21
  %12 = getelementptr inbounds nuw i8, ptr %9, i64 8
  %13 = load i64, ptr %12, align 8, !tbaa !12
  %14 = icmp ult i64 %13, 9223372036854775807
  call void @llvm.assume(i1 %14)
  call void @llvm.lifetime.start.p0(ptr %2)
  store i64 %13, ptr %2, align 8, !tbaa !22
  %15 = icmp samesign ugt i64 %13, 15
  br i1 %15, label %16, label %20

16:                                               ; preds = %8
  %17 = invoke noundef ptr @_ZNSt7__cxx1112basic_stringIcSt11char_traitsIcESaIcEE9_M_createERmm(ptr noundef nonnull align 8 dereferenceable(32) %3, ptr noundef nonnull align 8 dereferenceable(8) %2, i64 noundef 0)
          to label %18 unwind label %80

18:                                               ; preds = %16
  store ptr %17, ptr %3, align 8, !tbaa !21
  %19 = load i64, ptr %2, align 8, !tbaa !22
  store i64 %19, ptr %10, align 8, !tbaa !15
  br label %20

20:                                               ; preds = %18, %8
  %21 = phi i64 [ %19, %18 ], [ %13, %8 ]
  %22 = phi ptr [ %17, %18 ], [ %10, %8 ]
  switch i64 %21, label %25 [
    i64 0, label %23
    i64 -1, label %27
  ]

23:                                               ; preds = %20
  %24 = load i8, ptr %11, align 1, !tbaa !15
  store i8 %24, ptr %22, align 1, !tbaa !15
  br label %27

25:                                               ; preds = %20
  %26 = add nuw i64 %21, 1
  call void @llvm.memcpy.p0.p0.i64(ptr noundef nonnull align 1 dereferenceable(1) %22, ptr noundef nonnull align 1 dereferenceable(1) %11, i64 %26, i1 false)
  br label %27

27:                                               ; preds = %25, %23, %20
  %28 = load i64, ptr %2, align 8, !tbaa !22
  %29 = getelementptr inbounds nuw i8, ptr %3, i64 8
  store i64 %28, ptr %29, align 8, !tbaa !12
  call void @llvm.lifetime.end.p0(ptr %2)
  call void @llvm.lifetime.start.p0(ptr %4)
  %30 = getelementptr inbounds nuw i8, ptr %4, i64 16
  store ptr %30, ptr %4, align 8, !tbaa !7
  call void @llvm.memcpy.p0.p0.i64(ptr noundef nonnull align 8 dereferenceable(5) %30, ptr noundef nonnull align 1 dereferenceable(5) @.str.4, i64 5, i1 false)
  %31 = getelementptr inbounds nuw i8, ptr %4, i64 8
  store i64 5, ptr %31, align 8, !tbaa !12
  %32 = getelementptr inbounds nuw i8, ptr %4, i64 21
  store i8 0, ptr %32, align 1, !tbaa !15
  %33 = call noundef zeroext i1 @_ZN5osgeo4proj8internal9ends_withERKNSt7__cxx1112basic_stringIcSt11char_traitsIcESaIcEEES9_(ptr noundef nonnull align 8 dereferenceable(32) %3, ptr noundef nonnull align 8 dereferenceable(32) %4) #45
  %34 = load ptr, ptr %4, align 8, !tbaa !21
  %35 = icmp eq ptr %34, %30
  br i1 %35, label %36, label %39

36:                                               ; preds = %27
  %37 = load i64, ptr %31, align 8, !tbaa !12
  %38 = icmp ult i64 %37, 16
  call void @llvm.assume(i1 %38)
  br label %42

39:                                               ; preds = %27
  %40 = load i64, ptr %30, align 8, !tbaa !15
  %41 = add i64 %40, 1
  call void @_ZdlPvm(ptr noundef %34, i64 noundef %41) #46
  br label %42

42:                                               ; preds = %39, %36
  call void @llvm.lifetime.end.p0(ptr %4)
  br i1 %33, label %43, label %47

43:                                               ; preds = %42
  %44 = load i64, ptr %29, align 8, !tbaa !12
  %45 = icmp ult i64 %44, 9223372036854775807
  call void @llvm.assume(i1 %45)
  %46 = add nsw i64 %44, -5
  invoke void @_ZNSt7__cxx1112basic_stringIcSt11char_traitsIcESaIcEE6resizeEmc(ptr noundef nonnull align 8 dereferenceable(32) %3, i64 noundef %46, i8 noundef signext 0)
          to label %47 unwind label %80

47:                                               ; preds = %43, %42
  call void @llvm.lifetime.start.p0(ptr %5)
  store i64 0, ptr %5, align 8, !tbaa !22
  %48 = invoke noundef ptr @_ZN5osgeo4proj9operation18getMethodNameCodesERm(ptr noundef nonnull align 8 dereferenceable(8) %5)
          to label %49 unwind label %80

49:                                               ; preds = %47
  %50 = load i64, ptr %5, align 8, !tbaa !22
  %51 = icmp eq i64 %50, 0
  br i1 %51, label %65, label %56

52:                                               ; preds = %56
  %53 = add nuw i64 %57, 1
  %54 = load i64, ptr %5, align 8, !tbaa !22
  %55 = icmp ult i64 %53, %54
  br i1 %55, label %56, label %65, !llvm.loop !267

56:                                               ; preds = %52, %49
  %57 = phi i64 [ %53, %52 ], [ 0, %49 ]
  %58 = getelementptr inbounds nuw %"struct.osgeo::proj::operation::MethodNameCode", ptr %48, i64 %57
  %59 = load ptr, ptr %3, align 8, !tbaa !21
  %60 = load ptr, ptr %58, align 8, !tbaa !268
  %61 = call noundef zeroext i1 @_ZN5osgeo4proj8metadata10Identifier16isEquivalentNameEPKcS4_(ptr noundef %59, ptr noundef %60) #45
  br i1 %61, label %62, label %52

62:                                               ; preds = %56
  %63 = getelementptr inbounds nuw i8, ptr %58, i64 8
  %64 = load i32, ptr %63, align 8, !tbaa !270
  br label %65

65:                                               ; preds = %62, %52, %49
  %66 = phi i1 [ true, %62 ], [ false, %49 ], [ false, %52 ]
  %67 = phi i32 [ %64, %62 ], [ undef, %49 ], [ undef, %52 ]
  call void @llvm.lifetime.end.p0(ptr %5)
  %68 = load ptr, ptr %3, align 8, !tbaa !21
  %69 = icmp eq ptr %68, %10
  br i1 %69, label %70, label %73

70:                                               ; preds = %65
  %71 = load i64, ptr %29, align 8, !tbaa !12
  %72 = icmp ult i64 %71, 16
  call void @llvm.assume(i1 %72)
  br label %76

73:                                               ; preds = %65
  %74 = load i64, ptr %10, align 8, !tbaa !15
  %75 = add i64 %74, 1
  call void @_ZdlPvm(ptr noundef %68, i64 noundef %75) #46
  br label %76

76:                                               ; preds = %73, %70
  call void @llvm.lifetime.end.p0(ptr %3)
  br i1 %66, label %78, label %77

77:                                               ; preds = %76, %1
  br label %78

78:                                               ; preds = %77, %76
  %79 = phi i32 [ %6, %77 ], [ %67, %76 ]
  ret i32 %79

80:                                               ; preds = %47, %43, %16
  %81 = landingpad { ptr, i32 }
          catch ptr null
  %82 = extractvalue { ptr, i32 } %81, 0
  call void @__clang_call_terminate(ptr %82) #48
  unreachable
}

; Function Attrs: mustprogress nofree nounwind willreturn memory(read)
declare noundef i32 @_ZNK5osgeo4proj6common16IdentifiedObject11getEPSGCodeEv(ptr noundef nonnull align 8 dereferenceable(40)) local_unnamed_addr #20

; Function Attrs: nounwind
declare noundef zeroext i1 @_ZN5osgeo4proj8internal9ends_withERKNSt7__cxx1112basic_stringIcSt11char_traitsIcESaIcEEES9_(ptr noundef nonnull align 8 dereferenceable(32), ptr noundef nonnull align 8 dereferenceable(32)) local_unnamed_addr #7

declare noundef ptr @_ZN5osgeo4proj9operation18getMethodNameCodesERm(ptr noundef nonnull align 8 dereferenceable(8)) local_unnamed_addr #6

; Function Attrs: nounwind
declare noundef zeroext i1 @_ZN5osgeo4proj8metadata10Identifier16isEquivalentNameEPKcS4_(ptr noundef, ptr noundef) local_unnamed_addr #7

; Function Attrs: mustprogress sspstrong uwtable
define hidden void @_ZNK5osgeo4proj9operation15OperationMethod12_exportToWKTEPNS0_2io12WKTFormatterE(ptr noundef nonnull align 8 dereferenceable(56) %0, ptr noundef nonnull %1) unnamed_addr #0 align 2 personality ptr @__gxx_personality_v0 {
  %3 = alloca i64, align 8
  %4 = alloca %"class.std::__cxx11::basic_string", align 8
  %5 = alloca %"class.std::__cxx11::basic_string", align 8
  %6 = alloca %"class.std::__cxx11::basic_string", align 8
  %7 = alloca %"class.std::__cxx11::basic_string", align 8
  %8 = alloca %"class.std::__cxx11::basic_string", align 8
  %9 = alloca %"class.std::__cxx11::basic_string", align 8
  %10 = alloca %"class.std::allocator", align 1
  %11 = tail call noundef i32 @_ZNK5osgeo4proj2io12WKTFormatter7versionEv(ptr noundef nonnull align 8 dereferenceable(8) %1)
  %12 = icmp eq i32 %11, 1
  %13 = select i1 %12, ptr @_ZN5osgeo4proj2io12WKTConstants6METHODB5cxx11E, ptr @_ZN5osgeo4proj2io12WKTConstants10PROJECTIONB5cxx11E
  %14 = tail call noundef nonnull align 8 dereferenceable(24) ptr @_ZNK5osgeo4proj6common16IdentifiedObject11identifiersEv(ptr noundef nonnull align 8 dereferenceable(40) %0) #49
  %15 = load ptr, ptr %14, align 8, !tbaa !271
  %16 = getelementptr inbounds nuw i8, ptr %14, i64 8
  %17 = load ptr, ptr %16, align 8, !tbaa !271
  %18 = icmp ne ptr %15, %17
  tail call void @_ZN5osgeo4proj2io12WKTFormatter9startNodeERKNSt7__cxx1112basic_stringIcSt11char_traitsIcESaIcEEEb(ptr noundef nonnull align 8 dereferenceable(8) %1, ptr noundef nonnull align 8 dereferenceable(32) %13, i1 noundef zeroext %18)
  call void @llvm.lifetime.start.p0(ptr %4)
  %19 = tail call noundef nonnull align 8 dereferenceable(32) ptr @_ZNK5osgeo4proj6common16IdentifiedObject7nameStrB5cxx11Ev(ptr noundef nonnull align 8 dereferenceable(40) %0) #49
  %20 = getelementptr inbounds nuw i8, ptr %4, i64 16
  store ptr %20, ptr %4, align 8, !tbaa !7
  %21 = load ptr, ptr %19, align 8, !tbaa !21
  %22 = getelementptr inbounds nuw i8, ptr %19, i64 8
  %23 = load i64, ptr %22, align 8, !tbaa !12
  %24 = icmp ult i64 %23, 9223372036854775807
  call void @llvm.assume(i1 %24)
  call void @llvm.lifetime.start.p0(ptr %3)
  store i64 %23, ptr %3, align 8, !tbaa !22
  %25 = icmp samesign ugt i64 %23, 15
  br i1 %25, label %26, label %29

26:                                               ; preds = %2
  %27 = call noundef ptr @_ZNSt7__cxx1112basic_stringIcSt11char_traitsIcESaIcEE9_M_createERmm(ptr noundef nonnull align 8 dereferenceable(32) %4, ptr noundef nonnull align 8 dereferenceable(8) %3, i64 noundef 0)
  store ptr %27, ptr %4, align 8, !tbaa !21
  %28 = load i64, ptr %3, align 8, !tbaa !22
  store i64 %28, ptr %20, align 8, !tbaa !15
  br label %29

29:                                               ; preds = %26, %2
  %30 = phi i64 [ %28, %26 ], [ %23, %2 ]
  %31 = phi ptr [ %27, %26 ], [ %20, %2 ]
  switch i64 %30, label %34 [
    i64 0, label %32
    i64 -1, label %36
  ]

32:                                               ; preds = %29
  %33 = load i8, ptr %21, align 1, !tbaa !15
  store i8 %33, ptr %31, align 1, !tbaa !15
  br label %36

34:                                               ; preds = %29
  %35 = add nuw i64 %30, 1
  call void @llvm.memcpy.p0.p0.i64(ptr noundef nonnull align 1 dereferenceable(1) %31, ptr noundef nonnull align 1 dereferenceable(1) %21, i64 %35, i1 false)
  br label %36

36:                                               ; preds = %34, %32, %29
  %37 = load i64, ptr %3, align 8, !tbaa !22
  %38 = getelementptr inbounds nuw i8, ptr %4, i64 8
  store i64 %37, ptr %38, align 8, !tbaa !12
  call void @llvm.lifetime.end.p0(ptr %3)
  br i1 %12, label %210, label %39

39:                                               ; preds = %36
  %40 = call noundef ptr @_ZN5osgeo4proj9operation10getMappingEPKNS1_15OperationMethodE(ptr noundef nonnull %0) #45
  %41 = icmp eq ptr %40, null
  br i1 %41, label %42, label %141

42:                                               ; preds = %39
  call void @llvm.lifetime.start.p0(ptr %5)
  call void @llvm.lifetime.start.p0(ptr %6)
  %43 = getelementptr inbounds nuw i8, ptr %6, i64 16
  store ptr %43, ptr %6, align 8, !tbaa !7
  store i8 32, ptr %43, align 8, !tbaa !15
  %44 = getelementptr inbounds nuw i8, ptr %6, i64 8
  store i64 1, ptr %44, align 8, !tbaa !12
  %45 = getelementptr inbounds nuw i8, ptr %6, i64 17
  store i8 0, ptr %45, align 1, !tbaa !15
  call void @llvm.lifetime.start.p0(ptr %7)
  %46 = getelementptr inbounds nuw i8, ptr %7, i64 16
  store ptr %46, ptr %7, align 8, !tbaa !7
  store i8 95, ptr %46, align 8, !tbaa !15
  %47 = getelementptr inbounds nuw i8, ptr %7, i64 8
  store i64 1, ptr %47, align 8, !tbaa !12
  %48 = getelementptr inbounds nuw i8, ptr %7, i64 17
  store i8 0, ptr %48, align 1, !tbaa !15
  invoke void @_ZN5osgeo4proj8internal10replaceAllERKNSt7__cxx1112basic_stringIcSt11char_traitsIcESaIcEEES9_S9_(ptr dead_on_unwind nonnull writable sret(%"class.std::__cxx11::basic_string") align 8 %5, ptr noundef nonnull align 8 dereferenceable(32) %4, ptr noundef nonnull align 8 dereferenceable(32) %6, ptr noundef nonnull align 8 dereferenceable(32) %7)
          to label %49 unwind label %121

49:                                               ; preds = %42
  %50 = load ptr, ptr %4, align 8, !tbaa !21
  %51 = icmp eq ptr %50, %20
  br i1 %51, label %52, label %58

52:                                               ; preds = %49
  %53 = load i64, ptr %38, align 8, !tbaa !12
  %54 = icmp ult i64 %53, 16
  call void @llvm.assume(i1 %54)
  %55 = load ptr, ptr %5, align 8, !tbaa !21
  %56 = getelementptr inbounds nuw i8, ptr %5, i64 16
  %57 = icmp eq ptr %55, %56
  br i1 %57, label %62, label %78

58:                                               ; preds = %49
  %59 = load ptr, ptr %5, align 8, !tbaa !21
  %60 = getelementptr inbounds nuw i8, ptr %5, i64 16
  %61 = icmp eq ptr %59, %60
  br i1 %61, label %62, label %76

62:                                               ; preds = %58, %52
  %63 = phi ptr [ %59, %58 ], [ %55, %52 ]
  %64 = getelementptr inbounds nuw i8, ptr %5, i64 8
  %65 = load i64, ptr %64, align 8, !tbaa !12
  %66 = icmp ult i64 %65, 16
  call void @llvm.assume(i1 %66)
  switch i64 %65, label %69 [
    i64 0, label %70
    i64 1, label %67
  ]

67:                                               ; preds = %62
  %68 = load i8, ptr %63, align 1, !tbaa !15
  store i8 %68, ptr %50, align 1, !tbaa !15
  br label %70

69:                                               ; preds = %62
  call void @llvm.memcpy.p0.p0.i64(ptr align 1 %50, ptr align 1 %63, i64 %65, i1 false)
  br label %70

70:                                               ; preds = %69, %67, %62
  %71 = load i64, ptr %64, align 8, !tbaa !12
  %72 = icmp ult i64 %71, 9223372036854775807
  call void @llvm.assume(i1 %72)
  store i64 %71, ptr %38, align 8, !tbaa !12
  %73 = load ptr, ptr %4, align 8, !tbaa !21
  %74 = getelementptr inbounds nuw i8, ptr %73, i64 %71
  store i8 0, ptr %74, align 1, !tbaa !15
  %75 = load ptr, ptr %5, align 8, !tbaa !21
  br label %90

76:                                               ; preds = %58
  %77 = load i64, ptr %20, align 8, !tbaa !15
  br label %78

78:                                               ; preds = %76, %52
  %79 = phi ptr [ %60, %76 ], [ %56, %52 ]
  %80 = phi ptr [ %59, %76 ], [ %55, %52 ]
  %81 = phi ptr [ %50, %76 ], [ null, %52 ]
  %82 = phi i64 [ %77, %76 ], [ undef, %52 ]
  store ptr %80, ptr %4, align 8, !tbaa !21
  %83 = getelementptr inbounds nuw i8, ptr %5, i64 8
  %84 = load i64, ptr %83, align 8, !tbaa !12
  %85 = icmp ult i64 %84, 9223372036854775807
  call void @llvm.assume(i1 %85)
  store i64 %84, ptr %38, align 8, !tbaa !12
  %86 = load i64, ptr %79, align 8, !tbaa !15
  store i64 %86, ptr %20, align 8, !tbaa !15
  %87 = icmp eq ptr %81, null
  br i1 %87, label %89, label %88

88:                                               ; preds = %78
  store ptr %81, ptr %5, align 8, !tbaa !21
  store i64 %82, ptr %79, align 8, !tbaa !15
  br label %90

89:                                               ; preds = %78
  store ptr %79, ptr %5, align 8, !tbaa !21
  br label %90

90:                                               ; preds = %89, %88, %70
  %91 = phi ptr [ %75, %70 ], [ %81, %88 ], [ %79, %89 ]
  %92 = getelementptr inbounds nuw i8, ptr %5, i64 8
  store i64 0, ptr %92, align 8, !tbaa !12
  store i8 0, ptr %91, align 1, !tbaa !15
  %93 = load ptr, ptr %5, align 8, !tbaa !21
  %94 = getelementptr inbounds nuw i8, ptr %5, i64 16
  %95 = icmp eq ptr %93, %94
  br i1 %95, label %96, label %99

96:                                               ; preds = %90
  %97 = load i64, ptr %92, align 8, !tbaa !12
  %98 = icmp ult i64 %97, 16
  call void @llvm.assume(i1 %98)
  br label %102

99:                                               ; preds = %90
  %100 = load i64, ptr %94, align 8, !tbaa !15
  %101 = add i64 %100, 1
  call void @_ZdlPvm(ptr noundef %93, i64 noundef %101) #46
  br label %102

102:                                              ; preds = %99, %96
  %103 = load ptr, ptr %7, align 8, !tbaa !21
  %104 = icmp eq ptr %103, %46
  br i1 %104, label %105, label %108

105:                                              ; preds = %102
  %106 = load i64, ptr %47, align 8, !tbaa !12
  %107 = icmp ult i64 %106, 16
  call void @llvm.assume(i1 %107)
  br label %111

108:                                              ; preds = %102
  %109 = load i64, ptr %46, align 8, !tbaa !15
  %110 = add i64 %109, 1
  call void @_ZdlPvm(ptr noundef %103, i64 noundef %110) #46
  br label %111

111:                                              ; preds = %108, %105
  call void @llvm.lifetime.end.p0(ptr %7)
  %112 = load ptr, ptr %6, align 8, !tbaa !21
  %113 = icmp eq ptr %112, %43
  br i1 %113, label %114, label %117

114:                                              ; preds = %111
  %115 = load i64, ptr %44, align 8, !tbaa !12
  %116 = icmp ult i64 %115, 16
  call void @llvm.assume(i1 %116)
  br label %120

117:                                              ; preds = %111
  %118 = load i64, ptr %43, align 8, !tbaa !15
  %119 = add i64 %118, 1
  call void @_ZdlPvm(ptr noundef %112, i64 noundef %119) #46
  br label %120

120:                                              ; preds = %117, %114
  call void @llvm.lifetime.end.p0(ptr %6)
  call void @llvm.lifetime.end.p0(ptr %5)
  br label %210

121:                                              ; preds = %42
  %122 = landingpad { ptr, i32 }
          cleanup
  %123 = load ptr, ptr %7, align 8, !tbaa !21
  %124 = icmp eq ptr %123, %46
  br i1 %124, label %125, label %128

125:                                              ; preds = %121
  %126 = load i64, ptr %47, align 8, !tbaa !12
  %127 = icmp ult i64 %126, 16
  call void @llvm.assume(i1 %127)
  br label %131

128:                                              ; preds = %121
  %129 = load i64, ptr %46, align 8, !tbaa !15
  %130 = add i64 %129, 1
  call void @_ZdlPvm(ptr noundef %123, i64 noundef %130) #46
  br label %131

131:                                              ; preds = %128, %125
  call void @llvm.lifetime.end.p0(ptr %7)
  %132 = load ptr, ptr %6, align 8, !tbaa !21
  %133 = icmp eq ptr %132, %43
  br i1 %133, label %134, label %137

134:                                              ; preds = %131
  %135 = load i64, ptr %44, align 8, !tbaa !12
  %136 = icmp ult i64 %135, 16
  call void @llvm.assume(i1 %136)
  br label %140

137:                                              ; preds = %131
  %138 = load i64, ptr %43, align 8, !tbaa !15
  %139 = add i64 %138, 1
  call void @_ZdlPvm(ptr noundef %132, i64 noundef %139) #46
  br label %140

140:                                              ; preds = %137, %134
  call void @llvm.lifetime.end.p0(ptr %6)
  call void @llvm.lifetime.end.p0(ptr %5)
  br label %228

141:                                              ; preds = %39
  %142 = load i64, ptr %38, align 8, !tbaa !12
  %143 = icmp ult i64 %142, 9223372036854775807
  call void @llvm.assume(i1 %143)
  %144 = icmp eq i64 %142, 33
  br i1 %144, label %145, label %151

145:                                              ; preds = %141
  %146 = load ptr, ptr %4, align 8, !tbaa !21
  %147 = call i32 @bcmp(ptr noundef nonnull dereferenceable(33) %146, ptr noundef nonnull dereferenceable(33) @.str.7, i64 33)
  %148 = icmp eq i32 %147, 0
  br i1 %148, label %205, label %151

149:                                              ; preds = %205
  %150 = landingpad { ptr, i32 }
          cleanup
  br label %228

151:                                              ; preds = %145, %141
  %152 = getelementptr inbounds nuw i8, ptr %40, i64 16
  %153 = load ptr, ptr %152, align 8, !tbaa !273
  %154 = icmp eq ptr %153, null
  br i1 %154, label %155, label %203

155:                                              ; preds = %151
  %156 = call ptr @__cxa_allocate_exception(i64 40) #45
  call void @llvm.lifetime.start.p0(ptr %8)
  call void @llvm.lifetime.start.p0(ptr %9)
  call void @llvm.lifetime.start.p0(ptr %10)
  invoke void @_ZNSt7__cxx1112basic_stringIcSt11char_traitsIcESaIcEEC2IS3_EEPKcRKS3_(ptr noundef nonnull align 8 dereferenceable(32) %9, ptr noundef nonnull @.str.9, ptr noundef nonnull align 1 dereferenceable(1) %10)
          to label %157 unwind label %161

157:                                              ; preds = %155
  %158 = load ptr, ptr %40, align 8, !tbaa !277
  invoke void @_ZStplIcSt11char_traitsIcESaIcEENSt7__cxx1112basic_stringIT_T0_T1_EEOS8_PKS5_(ptr dead_on_unwind nonnull writable sret(%"class.std::__cxx11::basic_string") align 8 %8, ptr noundef nonnull align 8 dereferenceable(32) %9, ptr noundef %158)
          to label %159 unwind label %180

159:                                              ; preds = %157
  invoke void @_ZN5osgeo4proj2io19FormattingExceptionC1ERKNSt7__cxx1112basic_stringIcSt11char_traitsIcESaIcEEE(ptr noundef nonnull align 8 dereferenceable(40) %156, ptr noundef nonnull align 8 dereferenceable(32) %8)
          to label %160 unwind label %163

160:                                              ; preds = %159
  invoke void @__cxa_throw(ptr nonnull %156, ptr nonnull @_ZTIN5osgeo4proj2io19FormattingExceptionE, ptr nonnull @_ZN5osgeo4proj2io19FormattingExceptionD1Ev) #50
          to label %239 unwind label %163

161:                                              ; preds = %155
  %162 = landingpad { ptr, i32 }
          cleanup
  br label %199

163:                                              ; preds = %160, %159
  %164 = phi i1 [ false, %160 ], [ true, %159 ]
  %165 = landingpad { ptr, i32 }
          cleanup
  %166 = load ptr, ptr %8, align 8, !tbaa !21
  %167 = getelementptr inbounds nuw i8, ptr %8, i64 16
  %168 = icmp eq ptr %166, %167
  br i1 %168, label %169, label %173

169:                                              ; preds = %163
  %170 = getelementptr inbounds nuw i8, ptr %8, i64 8
  %171 = load i64, ptr %170, align 8, !tbaa !12
  %172 = icmp ult i64 %171, 16
  call void @llvm.assume(i1 %172)
  br label %176

173:                                              ; preds = %163
  %174 = load i64, ptr %167, align 8, !tbaa !15
  %175 = add i64 %174, 1
  call void @_ZdlPvm(ptr noundef %166, i64 noundef %175) #46
  br label %176

176:                                              ; preds = %173, %169
  %177 = load ptr, ptr %9, align 8, !tbaa !21
  %178 = getelementptr inbounds nuw i8, ptr %9, i64 16
  %179 = icmp eq ptr %177, %178
  br i1 %179, label %192, label %196

180:                                              ; preds = %157
  %181 = landingpad { ptr, i32 }
          cleanup
  %182 = load ptr, ptr %9, align 8, !tbaa !21
  %183 = getelementptr inbounds nuw i8, ptr %9, i64 16
  %184 = icmp eq ptr %182, %183
  br i1 %184, label %188, label %185

185:                                              ; preds = %180
  %186 = load i64, ptr %183, align 8, !tbaa !15
  %187 = add i64 %186, 1
  call void @_ZdlPvm(ptr noundef %182, i64 noundef %187) #46
  br label %199

188:                                              ; preds = %180
  %189 = getelementptr inbounds nuw i8, ptr %9, i64 8
  %190 = load i64, ptr %189, align 8, !tbaa !12
  %191 = icmp ult i64 %190, 16
  call void @llvm.assume(i1 %191)
  br label %199

192:                                              ; preds = %176
  %193 = getelementptr inbounds nuw i8, ptr %9, i64 8
  %194 = load i64, ptr %193, align 8, !tbaa !12
  %195 = icmp ult i64 %194, 16
  call void @llvm.assume(i1 %195)
  call void @llvm.lifetime.end.p0(ptr %10)
  call void @llvm.lifetime.end.p0(ptr %9)
  call void @llvm.lifetime.end.p0(ptr %8)
  br i1 %164, label %201, label %228

196:                                              ; preds = %176
  %197 = load i64, ptr %178, align 8, !tbaa !15
  %198 = add i64 %197, 1
  call void @_ZdlPvm(ptr noundef %177, i64 noundef %198) #46
  call void @llvm.lifetime.end.p0(ptr %10)
  call void @llvm.lifetime.end.p0(ptr %9)
  call void @llvm.lifetime.end.p0(ptr %8)
  br i1 %164, label %201, label %228

199:                                              ; preds = %188, %185, %161
  %200 = phi { ptr, i32 } [ %181, %185 ], [ %181, %188 ], [ %162, %161 ]
  call void @llvm.lifetime.end.p0(ptr %10)
  call void @llvm.lifetime.end.p0(ptr %9)
  call void @llvm.lifetime.end.p0(ptr %8)
  br label %201

201:                                              ; preds = %199, %196, %192
  %202 = phi { ptr, i32 } [ %165, %196 ], [ %165, %192 ], [ %200, %199 ]
  call void @__cxa_free_exception(ptr %156) #45
  br label %228

203:                                              ; preds = %151
  %204 = call noundef i64 @strlen(ptr noundef nonnull dereferenceable(1) %153) #45
  br label %205

205:                                              ; preds = %203, %145
  %206 = phi i64 [ %142, %203 ], [ 33, %145 ]
  %207 = phi ptr [ %153, %203 ], [ @.str.8, %145 ]
  %208 = phi i64 [ %204, %203 ], [ 23, %145 ]
  %209 = invoke noundef nonnull align 8 dereferenceable(32) ptr @_ZNSt7__cxx1112basic_stringIcSt11char_traitsIcESaIcEE10_M_replaceEmmPKcm(ptr noundef nonnull align 8 dereferenceable(32) %4, i64 noundef 0, i64 noundef %206, ptr noundef nonnull %207, i64 noundef %208)
          to label %210 unwind label %149

210:                                              ; preds = %205, %120, %36
  invoke void @_ZN5osgeo4proj2io12WKTFormatter15addQuotedStringERKNSt7__cxx1112basic_stringIcSt11char_traitsIcESaIcEEE(ptr noundef nonnull align 8 dereferenceable(8) %1, ptr noundef nonnull align 8 dereferenceable(32) %4)
          to label %211 unwind label %215

211:                                              ; preds = %210
  %212 = invoke noundef zeroext i1 @_ZNK5osgeo4proj2io12WKTFormatter8outputIdEv(ptr noundef nonnull align 8 dereferenceable(8) %1)
          to label %213 unwind label %215

213:                                              ; preds = %211
  br i1 %212, label %214, label %217

214:                                              ; preds = %213
  invoke void @_ZNK5osgeo4proj6common16IdentifiedObject8formatIDEPNS0_2io12WKTFormatterE(ptr noundef nonnull align 8 dereferenceable(40) %0, ptr noundef nonnull %1)
          to label %217 unwind label %215

215:                                              ; preds = %217, %214, %211, %210
  %216 = landingpad { ptr, i32 }
          cleanup
  br label %228

217:                                              ; preds = %214, %213
  invoke void @_ZN5osgeo4proj2io12WKTFormatter7endNodeEv(ptr noundef nonnull align 8 dereferenceable(8) %1)
          to label %218 unwind label %215

218:                                              ; preds = %217
  %219 = load ptr, ptr %4, align 8, !tbaa !21
  %220 = icmp eq ptr %219, %20
  br i1 %220, label %221, label %224

221:                                              ; preds = %218
  %222 = load i64, ptr %38, align 8, !tbaa !12
  %223 = icmp ult i64 %222, 16
  call void @llvm.assume(i1 %223)
  br label %227

224:                                              ; preds = %218
  %225 = load i64, ptr %20, align 8, !tbaa !15
  %226 = add i64 %225, 1
  call void @_ZdlPvm(ptr noundef %219, i64 noundef %226) #46
  br label %227

227:                                              ; preds = %224, %221
  call void @llvm.lifetime.end.p0(ptr %4)
  ret void

228:                                              ; preds = %215, %201, %196, %192, %149, %140
  %229 = phi { ptr, i32 } [ %216, %215 ], [ %122, %140 ], [ %150, %149 ], [ %202, %201 ], [ %165, %196 ], [ %165, %192 ]
  %230 = load ptr, ptr %4, align 8, !tbaa !21
  %231 = icmp eq ptr %230, %20
  br i1 %231, label %232, label %235

232:                                              ; preds = %228
  %233 = load i64, ptr %38, align 8, !tbaa !12
  %234 = icmp ult i64 %233, 16
  call void @llvm.assume(i1 %234)
  br label %238

235:                                              ; preds = %228
  %236 = load i64, ptr %20, align 8, !tbaa !15
  %237 = add i64 %236, 1
  call void @_ZdlPvm(ptr noundef %230, i64 noundef %237) #46
  br label %238

238:                                              ; preds = %235, %232
  call void @llvm.lifetime.end.p0(ptr %4)
  resume { ptr, i32 } %229

239:                                              ; preds = %160
  unreachable
}

declare hidden noundef i32 @_ZNK5osgeo4proj2io12WKTFormatter7versionEv(ptr noundef nonnull align 8 dereferenceable(8)) local_unnamed_addr #6

declare hidden void @_ZN5osgeo4proj2io12WKTFormatter9startNodeERKNSt7__cxx1112basic_stringIcSt11char_traitsIcESaIcEEEb(ptr noundef nonnull align 8 dereferenceable(8), ptr noundef nonnull align 8 dereferenceable(32), i1 noundef zeroext) local_unnamed_addr #6

; Function Attrs: mustprogress nofree nounwind willreturn memory(read)
declare noundef nonnull align 8 dereferenceable(24) ptr @_ZNK5osgeo4proj6common16IdentifiedObject11identifiersEv(ptr noundef nonnull align 8 dereferenceable(40)) local_unnamed_addr #20

; Function Attrs: nounwind
declare noundef ptr @_ZN5osgeo4proj9operation10getMappingEPKNS1_15OperationMethodE(ptr noundef) local_unnamed_addr #7

declare void @_ZN5osgeo4proj8internal10replaceAllERKNSt7__cxx1112basic_stringIcSt11char_traitsIcESaIcEEES9_S9_(ptr dead_on_unwind writable sret(%"class.std::__cxx11::basic_string") align 8, ptr noundef nonnull align 8 dereferenceable(32), ptr noundef nonnull align 8 dereferenceable(32), ptr noundef nonnull align 8 dereferenceable(32)) local_unnamed_addr #6

; Function Attrs: inlinehint mustprogress nounwind sspstrong uwtable
define linkonce_odr noundef zeroext i1 @_ZSteqIcSt11char_traitsIcESaIcEEbRKNSt7__cxx1112basic_stringIT_T0_T1_EEPKS5_(ptr noundef nonnull align 8 dereferenceable(32) %0, ptr noundef %1) local_unnamed_addr #16 comdat personality ptr @__gxx_personality_v0 {
  %3 = getelementptr inbounds nuw i8, ptr %0, i64 8
  %4 = load i64, ptr %3, align 8, !tbaa !12
  %5 = icmp ult i64 %4, 9223372036854775807
  tail call void @llvm.assume(i1 %5)
  %6 = tail call noundef i64 @strlen(ptr noundef nonnull dereferenceable(1) %1) #45
  %7 = icmp eq i64 %4, %6
  br i1 %7, label %8, label %14

8:                                                ; preds = %2
  %9 = icmp eq i64 %4, 0
  br i1 %9, label %14, label %10

10:                                               ; preds = %8
  %11 = load ptr, ptr %0, align 8, !tbaa !21
  %12 = tail call i32 @bcmp(ptr %11, ptr nonnull %1, i64 %4)
  %13 = icmp eq i32 %12, 0
  br label %14

14:                                               ; preds = %10, %8, %2
  %15 = phi i1 [ false, %2 ], [ %13, %10 ], [ true, %8 ]
  ret i1 %15
}

; Function Attrs: inlinehint mustprogress sspstrong uwtable
define linkonce_odr void @_ZStplIcSt11char_traitsIcESaIcEENSt7__cxx1112basic_stringIT_T0_T1_EEOS8_PKS5_(ptr dead_on_unwind noalias writable sret(%"class.std::__cxx11::basic_string") align 8 %0, ptr noundef nonnull align 8 dereferenceable(32) %1, ptr noundef %2) local_unnamed_addr #24 comdat personality ptr @__gxx_personality_v0 {
  %4 = tail call noundef i64 @strlen(ptr noundef nonnull dereferenceable(1) %2) #45
  %5 = getelementptr inbounds nuw i8, ptr %1, i64 8
  %6 = load i64, ptr %5, align 8, !tbaa !12
  %7 = icmp ult i64 %6, 9223372036854775807
  tail call void @llvm.assume(i1 %7)
  %8 = sub nuw nsw i64 9223372036854775806, %6
  %9 = icmp ult i64 %8, %4
  br i1 %9, label %10, label %11

10:                                               ; preds = %3
  tail call void @_ZSt20__throw_length_errorPKc(ptr noundef nonnull @.str.277) #19
  unreachable

11:                                               ; preds = %3
  %12 = tail call noundef nonnull align 8 dereferenceable(32) ptr @_ZNSt7__cxx1112basic_stringIcSt11char_traitsIcESaIcEE9_M_appendEPKcm(ptr noundef nonnull align 8 dereferenceable(32) %1, ptr noundef nonnull %2, i64 noundef %4)
  %13 = getelementptr inbounds nuw i8, ptr %0, i64 16
  store ptr %13, ptr %0, align 8, !tbaa !7
  %14 = load ptr, ptr %12, align 8, !tbaa !21
  %15 = getelementptr inbounds nuw i8, ptr %12, i64 16
  %16 = icmp eq ptr %14, %15
  br i1 %16, label %17, label %22

17:                                               ; preds = %11
  %18 = getelementptr inbounds nuw i8, ptr %12, i64 8
  %19 = load i64, ptr %18, align 8, !tbaa !12
  %20 = icmp ult i64 %19, 16
  tail call void @llvm.assume(i1 %20)
  %21 = add nuw nsw i64 %19, 1
  tail call void @llvm.memcpy.p0.p0.i64(ptr noundef nonnull align 8 dereferenceable(1) %13, ptr noundef nonnull align 8 dereferenceable(1) %15, i64 %21, i1 false)
  br label %26

22:                                               ; preds = %11
  store ptr %14, ptr %0, align 8, !tbaa !21
  %23 = load i64, ptr %15, align 8, !tbaa !15
  store i64 %23, ptr %13, align 8, !tbaa !15
  %24 = getelementptr inbounds nuw i8, ptr %12, i64 8
  %25 = load i64, ptr %24, align 8, !tbaa !12
  br label %26

26:                                               ; preds = %22, %17
  %27 = phi i64 [ %19, %17 ], [ %25, %22 ]
  %28 = getelementptr inbounds nuw i8, ptr %12, i64 8
  %29 = icmp ult i64 %27, 9223372036854775807
  tail call void @llvm.assume(i1 %29)
  %30 = getelementptr inbounds nuw i8, ptr %0, i64 8
  store i64 %27, ptr %30, align 8, !tbaa !12
  store ptr %15, ptr %12, align 8, !tbaa !21
  store i64 0, ptr %28, align 8, !tbaa !12
  store i8 0, ptr %15, align 8, !tbaa !15
  ret void
}

declare hidden void @_ZN5osgeo4proj2io19FormattingExceptionC1ERKNSt7__cxx1112basic_stringIcSt11char_traitsIcESaIcEEE(ptr noundef nonnull align 8 dereferenceable(40), ptr noundef nonnull align 8 dereferenceable(32)) unnamed_addr #6

; Function Attrs: nounwind
declare void @_ZN5osgeo4proj2io19FormattingExceptionD1Ev(ptr noundef nonnull align 8 dereferenceable(40)) unnamed_addr #7

declare hidden void @_ZN5osgeo4proj2io12WKTFormatter15addQuotedStringERKNSt7__cxx1112basic_stringIcSt11char_traitsIcESaIcEEE(ptr noundef nonnull align 8 dereferenceable(8), ptr noundef nonnull align 8 dereferenceable(32)) local_unnamed_addr #6

declare hidden noundef zeroext i1 @_ZNK5osgeo4proj2io12WKTFormatter8outputIdEv(ptr noundef nonnull align 8 dereferenceable(8)) local_unnamed_addr #6

declare void @_ZNK5osgeo4proj6common16IdentifiedObject8formatIDEPNS0_2io12WKTFormatterE(ptr noundef nonnull align 8 dereferenceable(40), ptr noundef) local_unnamed_addr #6

declare hidden void @_ZN5osgeo4proj2io12WKTFormatter7endNodeEv(ptr noundef nonnull align 8 dereferenceable(8)) local_unnamed_addr #6

; Function Attrs: sspstrong uwtable
define hidden void @_ZThn24_NK5osgeo4proj9operation15OperationMethod12_exportToWKTEPNS0_2io12WKTFormatterE(ptr noundef %0, ptr noundef nonnull %1) unnamed_addr #25 align 2 {
  %3 = getelementptr inbounds i8, ptr %0, i64 -24
  tail call void @_ZNK5osgeo4proj9operation15OperationMethod12_exportToWKTEPNS0_2io12WKTFormatterE(ptr noundef nonnull align 8 dereferenceable(56) %3, ptr noundef %1)
  ret void
}

; Function Attrs: mustprogress sspstrong uwtable
define hidden void @_ZNK5osgeo4proj9operation15OperationMethod13_exportToJSONEPNS0_2io13JSONFormatterE(ptr noundef nonnull align 8 dereferenceable(56) %0, ptr noundef nonnull %1) unnamed_addr #0 align 2 personality ptr @__gxx_personality_v0 {
  %3 = alloca %"struct.osgeo::proj::io::JSONFormatter::ObjectContext", align 8
  %4 = alloca %"class.std::__cxx11::basic_string", align 8
  %5 = tail call noundef ptr @_ZNK5osgeo4proj2io13JSONFormatter6writerEv(ptr noundef nonnull align 8 dereferenceable(8) %1)
  call void @llvm.lifetime.start.p0(ptr %3)
  %6 = tail call noundef nonnull align 8 dereferenceable(24) ptr @_ZNK5osgeo4proj6common16IdentifiedObject11identifiersEv(ptr noundef nonnull align 8 dereferenceable(40) %0) #49
  %7 = load ptr, ptr %6, align 8, !tbaa !271
  %8 = getelementptr inbounds nuw i8, ptr %6, i64 8
  %9 = load ptr, ptr %8, align 8, !tbaa !271
  %10 = icmp ne ptr %7, %9
  call void @_ZN5osgeo4proj2io13JSONFormatter13ObjectContextC1ERS2_PKcb(ptr noundef nonnull align 8 dereferenceable(8) %3, ptr noundef nonnull align 8 dereferenceable(8) %1, ptr noundef nonnull @.str.10, i1 noundef zeroext %10)
  call void @llvm.lifetime.start.p0(ptr %4)
  %11 = getelementptr inbounds nuw i8, ptr %4, i64 16
  store ptr %11, ptr %4, align 8, !tbaa !7
  store i32 1701667182, ptr %11, align 8
  %12 = getelementptr inbounds nuw i8, ptr %4, i64 8
  store i64 4, ptr %12, align 8, !tbaa !12
  %13 = getelementptr inbounds nuw i8, ptr %4, i64 20
  store i8 0, ptr %13, align 4, !tbaa !15
  invoke void @_ZN5osgeo4proj22CPLJSonStreamingWriter9AddObjKeyERKNSt7__cxx1112basic_stringIcSt11char_traitsIcESaIcEEE(ptr noundef nonnull align 8 dereferenceable(153) %5, ptr noundef nonnull align 8 dereferenceable(32) %4)
          to label %14 unwind label %29

14:                                               ; preds = %2
  %15 = load ptr, ptr %4, align 8, !tbaa !21
  %16 = icmp eq ptr %15, %11
  br i1 %16, label %17, label %20

17:                                               ; preds = %14
  %18 = load i64, ptr %12, align 8, !tbaa !12
  %19 = icmp ult i64 %18, 16
  call void @llvm.assume(i1 %19)
  br label %23

20:                                               ; preds = %14
  %21 = load i64, ptr %11, align 8, !tbaa !15
  %22 = add i64 %21, 1
  call void @_ZdlPvm(ptr noundef %15, i64 noundef %22) #46
  br label %23

23:                                               ; preds = %20, %17
  call void @llvm.lifetime.end.p0(ptr %4)
  %24 = call noundef nonnull align 8 dereferenceable(32) ptr @_ZNK5osgeo4proj6common16IdentifiedObject7nameStrB5cxx11Ev(ptr noundef nonnull align 8 dereferenceable(40) %0) #49
  invoke void @_ZN5osgeo4proj22CPLJSonStreamingWriter3AddERKNSt7__cxx1112basic_stringIcSt11char_traitsIcESaIcEEE(ptr noundef nonnull align 8 dereferenceable(153) %5, ptr noundef nonnull align 8 dereferenceable(32) %24)
          to label %25 unwind label %40

25:                                               ; preds = %23
  %26 = invoke noundef zeroext i1 @_ZNK5osgeo4proj2io13JSONFormatter8outputIdEv(ptr noundef nonnull align 8 dereferenceable(8) %1)
          to label %27 unwind label %40

27:                                               ; preds = %25
  br i1 %26, label %28, label %42

28:                                               ; preds = %27
  invoke void @_ZNK5osgeo4proj6common16IdentifiedObject8formatIDEPNS0_2io13JSONFormatterE(ptr noundef nonnull align 8 dereferenceable(40) %0, ptr noundef nonnull %1)
          to label %42 unwind label %40

29:                                               ; preds = %2
  %30 = landingpad { ptr, i32 }
          cleanup
  %31 = load ptr, ptr %4, align 8, !tbaa !21
  %32 = icmp eq ptr %31, %11
  br i1 %32, label %33, label %36

33:                                               ; preds = %29
  %34 = load i64, ptr %12, align 8, !tbaa !12
  %35 = icmp ult i64 %34, 16
  call void @llvm.assume(i1 %35)
  br label %39

36:                                               ; preds = %29
  %37 = load i64, ptr %11, align 8, !tbaa !15
  %38 = add i64 %37, 1
  call void @_ZdlPvm(ptr noundef %31, i64 noundef %38) #46
  br label %39

39:                                               ; preds = %36, %33
  call void @llvm.lifetime.end.p0(ptr %4)
  br label %43

40:                                               ; preds = %28, %25, %23
  %41 = landingpad { ptr, i32 }
          cleanup
  br label %43

42:                                               ; preds = %28, %27
  call void @_ZN5osgeo4proj2io13JSONFormatter13ObjectContextD1Ev(ptr noundef nonnull align 8 dereferenceable(8) %3) #45
  call void @llvm.lifetime.end.p0(ptr %3)
  ret void

43:                                               ; preds = %40, %39
  %44 = phi { ptr, i32 } [ %41, %40 ], [ %30, %39 ]
  call void @_ZN5osgeo4proj2io13JSONFormatter13ObjectContextD1Ev(ptr noundef nonnull align 8 dereferenceable(8) %3) #45
  call void @llvm.lifetime.end.p0(ptr %3)
  resume { ptr, i32 } %44
}

declare hidden noundef ptr @_ZNK5osgeo4proj2io13JSONFormatter6writerEv(ptr noundef nonnull align 8 dereferenceable(8)) local_unnamed_addr #6

declare void @_ZN5osgeo4proj22CPLJSonStreamingWriter9AddObjKeyERKNSt7__cxx1112basic_stringIcSt11char_traitsIcESaIcEEE(ptr noundef nonnull align 8 dereferenceable(153), ptr noundef nonnull align 8 dereferenceable(32)) local_unnamed_addr #6

declare void @_ZN5osgeo4proj22CPLJSonStreamingWriter3AddERKNSt7__cxx1112basic_stringIcSt11char_traitsIcESaIcEEE(ptr noundef nonnull align 8 dereferenceable(153), ptr noundef nonnull align 8 dereferenceable(32)) local_unnamed_addr #6

declare hidden noundef zeroext i1 @_ZNK5osgeo4proj2io13JSONFormatter8outputIdEv(ptr noundef nonnull align 8 dereferenceable(8)) local_unnamed_addr #6

declare hidden void @_ZNK5osgeo4proj6common16IdentifiedObject8formatIDEPNS0_2io13JSONFormatterE(ptr noundef nonnull align 8 dereferenceable(40), ptr noundef) local_unnamed_addr #6

; Function Attrs: nounwind
declare void @_ZN5osgeo4proj2io13JSONFormatter13ObjectContextD1Ev(ptr noundef nonnull align 8 dereferenceable(8)) unnamed_addr #7

; Function Attrs: sspstrong uwtable
define hidden void @_ZThn40_NK5osgeo4proj9operation15OperationMethod13_exportToJSONEPNS0_2io13JSONFormatterE(ptr noundef %0, ptr noundef nonnull %1) unnamed_addr #25 align 2 {
  %3 = getelementptr inbounds i8, ptr %0, i64 -40
  tail call void @_ZNK5osgeo4proj9operation15OperationMethod13_exportToJSONEPNS0_2io13JSONFormatterE(ptr noundef nonnull align 8 dereferenceable(56) %3, ptr noundef %1)
  ret void
}

; Function Attrs: mustprogress sspstrong uwtable
