; ModuleID = 'temp/PROJ/static.cpp.ll'
source_filename = "/home/mitch/Documents/PROJ/src/iso19111/static.cpp"
target datalayout = "e-m:e-p270:32:32-p271:32:32-p272:64:64-i64:64-i128:128-f80:128-n8:16:32:64-S128"
target triple = "x86_64-pc-linux-gnu"

%"class.dropbox::oxygen::nn" = type { %"class.std::shared_ptr" }
%"class.std::shared_ptr" = type { %"class.std::__shared_ptr" }
%"class.std::__shared_ptr" = type { ptr, %"class.std::__shared_count" }
%"class.std::__shared_count" = type { ptr }
%"class.std::__cxx11::basic_string" = type { %"struct.std::__cxx11::basic_string<char>::_Alloc_hider", i64, %union.anon }
%"struct.std::__cxx11::basic_string<char>::_Alloc_hider" = type { ptr }
%union.anon = type { i64, [8 x i8] }
%"class.dropbox::oxygen::nn.0" = type { %"class.std::shared_ptr.1" }
%"class.std::shared_ptr.1" = type { %"class.std::__shared_ptr.2" }
%"class.std::__shared_ptr.2" = type { ptr, %"class.std::__shared_count" }
%"class.std::vector" = type { %"struct.std::_Vector_base" }
%"struct.std::_Vector_base" = type { %"struct.std::_Vector_base<std::__cxx11::basic_string<char>, std::allocator<std::__cxx11::basic_string<char>>>::_Vector_impl" }
%"struct.std::_Vector_base<std::__cxx11::basic_string<char>, std::allocator<std::__cxx11::basic_string<char>>>::_Vector_impl" = type { %"struct.std::_Vector_base<std::__cxx11::basic_string<char>, std::allocator<std::__cxx11::basic_string<char>>>::_Vector_impl_data" }
%"struct.std::_Vector_base<std::__cxx11::basic_string<char>, std::allocator<std::__cxx11::basic_string<char>>>::_Vector_impl_data" = type { ptr, ptr, ptr }
%"class.osgeo::proj::common::UnitOfMeasure" = type { %"class.osgeo::proj::util::BaseObject", %"class.std::unique_ptr.9" }
%"class.osgeo::proj::util::BaseObject" = type { ptr, %"class.std::unique_ptr" }
%"class.std::unique_ptr" = type { %"struct.std::__uniq_ptr_data" }
%"struct.std::__uniq_ptr_data" = type { %"class.std::__uniq_ptr_impl" }
%"class.std::__uniq_ptr_impl" = type { %"class.std::tuple" }
%"class.std::tuple" = type { %"struct.std::_Tuple_impl" }
%"struct.std::_Tuple_impl" = type { %"struct.std::_Head_base.8" }
%"struct.std::_Head_base.8" = type { ptr }
%"class.std::unique_ptr.9" = type { %"struct.std::__uniq_ptr_data.10" }
%"struct.std::__uniq_ptr_data.10" = type { %"class.std::__uniq_ptr_impl.11" }
%"class.std::__uniq_ptr_impl.11" = type { %"class.std::tuple.12" }
%"class.std::tuple.12" = type { %"struct.std::_Tuple_impl.13" }
%"struct.std::_Tuple_impl.13" = type { %"struct.std::_Head_base.16" }
%"struct.std::_Head_base.16" = type { ptr }
%"class.std::map" = type { %"class.std::_Rb_tree" }
%"class.std::_Rb_tree" = type { %"struct.std::_Rb_tree<std::__cxx11::basic_string<char>, std::pair<const std::__cxx11::basic_string<char>, const osgeo::proj::cs::AxisDirection *>, std::_Select1st<std::pair<const std::__cxx11::basic_string<char>, const osgeo::proj::cs::AxisDirection *>>, std::less<std::__cxx11::basic_string<char>>>::_Rb_tree_impl" }
%"struct.std::_Rb_tree<std::__cxx11::basic_string<char>, std::pair<const std::__cxx11::basic_string<char>, const osgeo::proj::cs::AxisDirection *>, std::_Select1st<std::pair<const std::__cxx11::basic_string<char>, const osgeo::proj::cs::AxisDirection *>>, std::less<std::__cxx11::basic_string<char>>>::_Rb_tree_impl" = type { [8 x i8], %"struct.std::_Rb_tree_header" }
%"struct.std::_Rb_tree_header" = type { %"struct.std::_Rb_tree_node_base", i64 }
%"struct.std::_Rb_tree_node_base" = type { i32, ptr, ptr, ptr }
%"class.osgeo::proj::cs::AxisDirection" = type { %"class.osgeo::proj::util::CodeList" }
%"class.osgeo::proj::util::CodeList" = type { %"class.std::__cxx11::basic_string" }
%"class.std::map.20" = type { %"class.std::_Rb_tree.21" }
%"class.std::_Rb_tree.21" = type { %"struct.std::_Rb_tree<std::__cxx11::basic_string<char>, std::pair<const std::__cxx11::basic_string<char>, const osgeo::proj::cs::RangeMeaning *>, std::_Select1st<std::pair<const std::__cxx11::basic_string<char>, const osgeo::proj::cs::RangeMeaning *>>, std::less<std::__cxx11::basic_string<char>>>::_Rb_tree_impl" }
%"struct.std::_Rb_tree<std::__cxx11::basic_string<char>, std::pair<const std::__cxx11::basic_string<char>, const osgeo::proj::cs::RangeMeaning *>, std::_Select1st<std::pair<const std::__cxx11::basic_string<char>, const osgeo::proj::cs::RangeMeaning *>>, std::less<std::__cxx11::basic_string<char>>>::_Rb_tree_impl" = type { [8 x i8], %"struct.std::_Rb_tree_header" }
%"class.osgeo::proj::cs::RangeMeaning" = type { %"class.osgeo::proj::util::CodeList" }
%"class.std::map.25" = type { %"class.std::_Rb_tree.26" }
%"class.std::_Rb_tree.26" = type { %"struct.std::_Rb_tree<std::__cxx11::basic_string<char>, std::pair<const std::__cxx11::basic_string<char>, const osgeo::proj::cs::AxisDirectionWKT1 *>, std::_Select1st<std::pair<const std::__cxx11::basic_string<char>, const osgeo::proj::cs::AxisDirectionWKT1 *>>, std::less<std::__cxx11::basic_string<char>>>::_Rb_tree_impl" }
%"struct.std::_Rb_tree<std::__cxx11::basic_string<char>, std::pair<const std::__cxx11::basic_string<char>, const osgeo::proj::cs::AxisDirectionWKT1 *>, std::_Select1st<std::pair<const std::__cxx11::basic_string<char>, const osgeo::proj::cs::AxisDirectionWKT1 *>>, std::less<std::__cxx11::basic_string<char>>>::_Rb_tree_impl" = type { [8 x i8], %"struct.std::_Rb_tree_header" }
%"class.osgeo::proj::cs::AxisDirectionWKT1" = type { %"class.osgeo::proj::util::CodeList" }
%"class.osgeo::proj::datum::RealizationMethod" = type { %"class.osgeo::proj::util::CodeList" }
%"class.dropbox::oxygen::nn.30" = type { %"class.std::shared_ptr.31" }
%"class.std::shared_ptr.31" = type { %"class.std::__shared_ptr.32" }
%"class.std::__shared_ptr.32" = type { ptr, %"class.std::__shared_count" }
%"class.dropbox::oxygen::nn.34" = type { %"class.std::shared_ptr.35" }
%"class.std::shared_ptr.35" = type { %"class.std::__shared_ptr.36" }
%"class.std::__shared_ptr.36" = type { ptr, %"class.std::__shared_count" }
%"class.dropbox::oxygen::nn.38" = type { %"class.std::shared_ptr.39" }
%"class.std::shared_ptr.39" = type { %"class.std::__shared_ptr.40" }
%"class.std::__shared_ptr.40" = type { ptr, %"class.std::__shared_count" }
%"class.dropbox::oxygen::nn.42" = type { %"class.std::shared_ptr.43" }
%"class.std::shared_ptr.43" = type { %"class.std::__shared_ptr.44" }
%"class.std::__shared_ptr.44" = type { ptr, %"class.std::__shared_count" }
%"class.dropbox::oxygen::nn.46" = type { %"class.std::shared_ptr.47" }
%"class.std::shared_ptr.47" = type { %"class.std::__shared_ptr.48" }
%"class.std::__shared_ptr.48" = type { ptr, %"class.std::__shared_count" }
%"class.osgeo::proj::common::Measure" = type { %"class.osgeo::proj::util::BaseObject", %"class.std::unique_ptr.50" }
%"class.std::unique_ptr.50" = type { %"struct.std::__uniq_ptr_data.51" }
%"struct.std::__uniq_ptr_data.51" = type { %"class.std::__uniq_ptr_impl.52" }
%"class.std::__uniq_ptr_impl.52" = type { %"class.std::tuple.53" }
%"class.std::tuple.53" = type { %"struct.std::_Tuple_impl.54" }
%"struct.std::_Tuple_impl.54" = type { %"struct.std::_Head_base.57" }
%"struct.std::_Head_base.57" = type { ptr }
%"class.osgeo::proj::util::optional" = type { i8, %"class.std::__cxx11::basic_string" }

$_ZN7dropbox6oxygen2nnISt10shared_ptrIN5osgeo4proj4util9NameSpaceEEED2Ev = comdat any

$_ZN7dropbox6oxygen2nnISt10shared_ptrIN5osgeo4proj8metadata6ExtentEEED2Ev = comdat any

$_ZNSt6vectorINSt7__cxx1112basic_stringIcSt11char_traitsIcESaIcEEESaIS5_EED2Ev = comdat any

$_ZNSt3mapINSt7__cxx1112basic_stringIcSt11char_traitsIcESaIcEEEPKN5osgeo4proj2cs13AxisDirectionESt4lessIS5_ESaISt4pairIKS5_SB_EEED2Ev = comdat any

$_ZNSt3mapINSt7__cxx1112basic_stringIcSt11char_traitsIcESaIcEEEPKN5osgeo4proj2cs12RangeMeaningESt4lessIS5_ESaISt4pairIKS5_SB_EEED2Ev = comdat any

$_ZNSt3mapINSt7__cxx1112basic_stringIcSt11char_traitsIcESaIcEEEPKN5osgeo4proj2cs17AxisDirectionWKT1ESt4lessIS5_ESaISt4pairIKS5_SB_EEED2Ev = comdat any

$_ZN7dropbox6oxygen2nnISt10shared_ptrIN5osgeo4proj5datum13PrimeMeridianEEED2Ev = comdat any

$_ZN7dropbox6oxygen2nnISt10shared_ptrIN5osgeo4proj5datum9EllipsoidEEED2Ev = comdat any

$_ZN7dropbox6oxygen2nnISt10shared_ptrIN5osgeo4proj5datum22GeodeticReferenceFrameEEED2Ev = comdat any

$_ZN7dropbox6oxygen2nnISt10shared_ptrIN5osgeo4proj3crs11GeodeticCRSEEED2Ev = comdat any

$_ZN7dropbox6oxygen2nnISt10shared_ptrIN5osgeo4proj3crs13GeographicCRSEEED2Ev = comdat any

$__clang_call_terminate = comdat any

$_ZNSt16_Sp_counted_baseILN9__gnu_cxx12_Lock_policyE2EE24_M_release_last_use_coldEv = comdat any

$_ZNSt8_Rb_treeINSt7__cxx1112basic_stringIcSt11char_traitsIcESaIcEEESt4pairIKS5_PKN5osgeo4proj2cs13AxisDirectionEESt10_Select1stISE_ESt4lessIS5_ESaISE_EE8_M_eraseEPSt13_Rb_tree_nodeISE_E = comdat any

$_ZNSt8_Rb_treeINSt7__cxx1112basic_stringIcSt11char_traitsIcESaIcEEESt4pairIKS5_PKN5osgeo4proj2cs12RangeMeaningEESt10_Select1stISE_ESt4lessIS5_ESaISE_EE8_M_eraseEPSt13_Rb_tree_nodeISE_E = comdat any

$_ZNSt8_Rb_treeINSt7__cxx1112basic_stringIcSt11char_traitsIcESaIcEEESt4pairIKS5_PKN5osgeo4proj2cs17AxisDirectionWKT1EESt10_Select1stISE_ESt4lessIS5_ESaISE_EE8_M_eraseEPSt13_Rb_tree_nodeISE_E = comdat any

$_ZNSt6vectorINSt7__cxx1112basic_stringIcSt11char_traitsIcESaIcEEESaIS5_EE17_M_realloc_appendIJS5_EEEvDpOT_ = comdat any

@_ZN5osgeo4proj4util9NameSpace6GLOBALE = hidden global %"class.dropbox::oxygen::nn" zeroinitializer, align 8
@__dso_handle = external hidden global i8
@_ZN5osgeo4proj8metadata10Identifier13AUTHORITY_KEYB5cxx11E = global %"class.std::__cxx11::basic_string" zeroinitializer, align 8
@.str = private unnamed_addr constant [10 x i8] c"authority\00", align 1
@_ZN5osgeo4proj8metadata10Identifier8CODE_KEYB5cxx11E = global %"class.std::__cxx11::basic_string" zeroinitializer, align 8
@_ZN5osgeo4proj8metadata10Identifier13CODESPACE_KEYB5cxx11E = global %"class.std::__cxx11::basic_string" zeroinitializer, align 8
@.str.5 = private unnamed_addr constant [10 x i8] c"codespace\00", align 1
@_ZN5osgeo4proj8metadata10Identifier11VERSION_KEYB5cxx11E = global %"class.std::__cxx11::basic_string" zeroinitializer, align 8
@.str.7 = private unnamed_addr constant [8 x i8] c"version\00", align 1
@_ZN5osgeo4proj8metadata10Identifier15DESCRIPTION_KEYB5cxx11E = global %"class.std::__cxx11::basic_string" zeroinitializer, align 8
@.str.9 = private unnamed_addr constant [12 x i8] c"description\00", align 1
@_ZN5osgeo4proj8metadata10Identifier7URI_KEYB5cxx11E = global %"class.std::__cxx11::basic_string" zeroinitializer, align 8
@.str.11 = private unnamed_addr constant [4 x i8] c"uri\00", align 1
@_ZN5osgeo4proj8metadata10Identifier4EPSGB5cxx11E = global %"class.std::__cxx11::basic_string" zeroinitializer, align 8
@_ZN5osgeo4proj8metadata10Identifier3OGCB5cxx11E = global %"class.std::__cxx11::basic_string" zeroinitializer, align 8
@.str.15 = private unnamed_addr constant [4 x i8] c"OGC\00", align 1
@_ZN5osgeo4proj6common16IdentifiedObject8NAME_KEYB5cxx11E = global %"class.std::__cxx11::basic_string" zeroinitializer, align 8
@_ZN5osgeo4proj6common16IdentifiedObject15IDENTIFIERS_KEYB5cxx11E = global %"class.std::__cxx11::basic_string" zeroinitializer, align 8
@.str.19 = private unnamed_addr constant [12 x i8] c"identifiers\00", align 1
@_ZN5osgeo4proj6common16IdentifiedObject9ALIAS_KEYB5cxx11E = global %"class.std::__cxx11::basic_string" zeroinitializer, align 8
@.str.21 = private unnamed_addr constant [6 x i8] c"alias\00", align 1
@_ZN5osgeo4proj6common16IdentifiedObject11REMARKS_KEYB5cxx11E = global %"class.std::__cxx11::basic_string" zeroinitializer, align 8
@.str.23 = private unnamed_addr constant [8 x i8] c"remarks\00", align 1
@_ZN5osgeo4proj6common16IdentifiedObject14DEPRECATED_KEYB5cxx11E = global %"class.std::__cxx11::basic_string" zeroinitializer, align 8
@.str.25 = private unnamed_addr constant [11 x i8] c"deprecated\00", align 1
@_ZN5osgeo4proj6common11ObjectUsage9SCOPE_KEYB5cxx11E = global %"class.std::__cxx11::basic_string" zeroinitializer, align 8
@.str.27 = private unnamed_addr constant [6 x i8] c"scope\00", align 1
@_ZN5osgeo4proj6common11ObjectUsage22DOMAIN_OF_VALIDITY_KEYB5cxx11E = global %"class.std::__cxx11::basic_string" zeroinitializer, align 8
@.str.29 = private unnamed_addr constant [17 x i8] c"domainOfValidity\00", align 1
@_ZN5osgeo4proj6common11ObjectUsage17OBJECT_DOMAIN_KEYB5cxx11E = global %"class.std::__cxx11::basic_string" zeroinitializer, align 8
@.str.31 = private unnamed_addr constant [13 x i8] c"objectDomain\00", align 1
@_ZN5osgeo4proj8metadata6Extent5WORLDE = global %"class.dropbox::oxygen::nn.0" zeroinitializer, align 8
@.str.33 = private unnamed_addr constant [6 x i8] c"World\00", align 1
@_ZN5osgeo4proj2io12WKTConstants10constants_B5cxx11E = hidden global %"class.std::vector" zeroinitializer, align 8
@_ZN5osgeo4proj2io12WKTConstants6GEOCCSB5cxx11E = hidden global %"class.std::__cxx11::basic_string" zeroinitializer, align 8
@.str.36 = private unnamed_addr constant [7 x i8] c"GEOCCS\00", align 1
@_ZN5osgeo4proj2io12WKTConstants6GEOGCSB5cxx11E = hidden global %"class.std::__cxx11::basic_string" zeroinitializer, align 8
@.str.38 = private unnamed_addr constant [7 x i8] c"GEOGCS\00", align 1
@_ZN5osgeo4proj2io12WKTConstants5DATUMB5cxx11E = hidden global %"class.std::__cxx11::basic_string" zeroinitializer, align 8
@.str.40 = private unnamed_addr constant [6 x i8] c"DATUM\00", align 1
@_ZN5osgeo4proj2io12WKTConstants4UNITB5cxx11E = hidden global %"class.std::__cxx11::basic_string" zeroinitializer, align 8
@.str.42 = private unnamed_addr constant [5 x i8] c"UNIT\00", align 1
@_ZN5osgeo4proj2io12WKTConstants8SPHEROIDB5cxx11E = hidden global %"class.std::__cxx11::basic_string" zeroinitializer, align 8
@.str.44 = private unnamed_addr constant [9 x i8] c"SPHEROID\00", align 1
@_ZN5osgeo4proj2io12WKTConstants4AXISB5cxx11E = hidden global %"class.std::__cxx11::basic_string" zeroinitializer, align 8
@.str.46 = private unnamed_addr constant [5 x i8] c"AXIS\00", align 1
@_ZN5osgeo4proj2io12WKTConstants6PRIMEMB5cxx11E = hidden global %"class.std::__cxx11::basic_string" zeroinitializer, align 8
@.str.48 = private unnamed_addr constant [7 x i8] c"PRIMEM\00", align 1
@_ZN5osgeo4proj2io12WKTConstants9AUTHORITYB5cxx11E = hidden global %"class.std::__cxx11::basic_string" zeroinitializer, align 8
@.str.50 = private unnamed_addr constant [10 x i8] c"AUTHORITY\00", align 1
@_ZN5osgeo4proj2io12WKTConstants6PROJCSB5cxx11E = hidden global %"class.std::__cxx11::basic_string" zeroinitializer, align 8
@.str.52 = private unnamed_addr constant [7 x i8] c"PROJCS\00", align 1
@_ZN5osgeo4proj2io12WKTConstants10PROJECTIONB5cxx11E = hidden global %"class.std::__cxx11::basic_string" zeroinitializer, align 8
@.str.54 = private unnamed_addr constant [11 x i8] c"PROJECTION\00", align 1
@_ZN5osgeo4proj2io12WKTConstants9PARAMETERB5cxx11E = hidden global %"class.std::__cxx11::basic_string" zeroinitializer, align 8
@.str.56 = private unnamed_addr constant [10 x i8] c"PARAMETER\00", align 1
@_ZN5osgeo4proj2io12WKTConstants7VERT_CSB5cxx11E = hidden global %"class.std::__cxx11::basic_string" zeroinitializer, align 8
@.str.58 = private unnamed_addr constant [8 x i8] c"VERT_CS\00", align 1
@_ZN5osgeo4proj2io12WKTConstants6VERTCSB5cxx11E = hidden global %"class.std::__cxx11::basic_string" zeroinitializer, align 8
@.str.60 = private unnamed_addr constant [7 x i8] c"VERTCS\00", align 1
@_ZN5osgeo4proj2io12WKTConstants10VERT_DATUMB5cxx11E = hidden global %"class.std::__cxx11::basic_string" zeroinitializer, align 8
@.str.62 = private unnamed_addr constant [11 x i8] c"VERT_DATUM\00", align 1
@_ZN5osgeo4proj2io12WKTConstants8COMPD_CSB5cxx11E = hidden global %"class.std::__cxx11::basic_string" zeroinitializer, align 8
@.str.64 = private unnamed_addr constant [9 x i8] c"COMPD_CS\00", align 1
@_ZN5osgeo4proj2io12WKTConstants7TOWGS84B5cxx11E = hidden global %"class.std::__cxx11::basic_string" zeroinitializer, align 8
@.str.66 = private unnamed_addr constant [8 x i8] c"TOWGS84\00", align 1
@_ZN5osgeo4proj2io12WKTConstants9EXTENSIONB5cxx11E = hidden global %"class.std::__cxx11::basic_string" zeroinitializer, align 8
@.str.68 = private unnamed_addr constant [10 x i8] c"EXTENSION\00", align 1
@_ZN5osgeo4proj2io12WKTConstants8LOCAL_CSB5cxx11E = hidden global %"class.std::__cxx11::basic_string" zeroinitializer, align 8
@.str.70 = private unnamed_addr constant [9 x i8] c"LOCAL_CS\00", align 1
@_ZN5osgeo4proj2io12WKTConstants11LOCAL_DATUMB5cxx11E = hidden global %"class.std::__cxx11::basic_string" zeroinitializer, align 8
@.str.72 = private unnamed_addr constant [12 x i8] c"LOCAL_DATUM\00", align 1
@_ZN5osgeo4proj2io12WKTConstants7LINUNITB5cxx11E = hidden global %"class.std::__cxx11::basic_string" zeroinitializer, align 8
@.str.74 = private unnamed_addr constant [8 x i8] c"LINUNIT\00", align 1
@_ZN5osgeo4proj2io12WKTConstants7GEODCRSB5cxx11E = hidden global %"class.std::__cxx11::basic_string" zeroinitializer, align 8
@.str.76 = private unnamed_addr constant [8 x i8] c"GEODCRS\00", align 1
@_ZN5osgeo4proj2io12WKTConstants10LENGTHUNITB5cxx11E = hidden global %"class.std::__cxx11::basic_string" zeroinitializer, align 8
@.str.78 = private unnamed_addr constant [11 x i8] c"LENGTHUNIT\00", align 1
@_ZN5osgeo4proj2io12WKTConstants9ANGLEUNITB5cxx11E = hidden global %"class.std::__cxx11::basic_string" zeroinitializer, align 8
@.str.80 = private unnamed_addr constant [10 x i8] c"ANGLEUNIT\00", align 1
@_ZN5osgeo4proj2io12WKTConstants9SCALEUNITB5cxx11E = hidden global %"class.std::__cxx11::basic_string" zeroinitializer, align 8
@.str.82 = private unnamed_addr constant [10 x i8] c"SCALEUNIT\00", align 1
@_ZN5osgeo4proj2io12WKTConstants8TIMEUNITB5cxx11E = hidden global %"class.std::__cxx11::basic_string" zeroinitializer, align 8
@.str.84 = private unnamed_addr constant [9 x i8] c"TIMEUNIT\00", align 1
@_ZN5osgeo4proj2io12WKTConstants9ELLIPSOIDB5cxx11E = hidden global %"class.std::__cxx11::basic_string" zeroinitializer, align 8
@.str.86 = private unnamed_addr constant [10 x i8] c"ELLIPSOID\00", align 1
@_ZN5osgeo4proj2io12WKTConstants3CS_B5cxx11E = hidden global %"class.std::__cxx11::basic_string" zeroinitializer, align 8
@.str.88 = private unnamed_addr constant [3 x i8] c"CS\00", align 1
@_ZN5osgeo4proj2io12WKTConstants2IDB5cxx11E = hidden global %"class.std::__cxx11::basic_string" zeroinitializer, align 8
@.str.90 = private unnamed_addr constant [3 x i8] c"ID\00", align 1
@_ZN5osgeo4proj2io12WKTConstants7PROJCRSB5cxx11E = hidden global %"class.std::__cxx11::basic_string" zeroinitializer, align 8
@.str.92 = private unnamed_addr constant [8 x i8] c"PROJCRS\00", align 1
@_ZN5osgeo4proj2io12WKTConstants11BASEGEODCRSB5cxx11E = hidden global %"class.std::__cxx11::basic_string" zeroinitializer, align 8
@.str.94 = private unnamed_addr constant [12 x i8] c"BASEGEODCRS\00", align 1
@_ZN5osgeo4proj2io12WKTConstants8MERIDIANB5cxx11E = hidden global %"class.std::__cxx11::basic_string" zeroinitializer, align 8
@.str.96 = private unnamed_addr constant [9 x i8] c"MERIDIAN\00", align 1
@_ZN5osgeo4proj2io12WKTConstants5ORDERB5cxx11E = hidden global %"class.std::__cxx11::basic_string" zeroinitializer, align 8
@.str.98 = private unnamed_addr constant [6 x i8] c"ORDER\00", align 1
@_ZN5osgeo4proj2io12WKTConstants6ANCHORB5cxx11E = hidden global %"class.std::__cxx11::basic_string" zeroinitializer, align 8
@.str.100 = private unnamed_addr constant [7 x i8] c"ANCHOR\00", align 1
@_ZN5osgeo4proj2io12WKTConstants11ANCHOREPOCHB5cxx11E = hidden global %"class.std::__cxx11::basic_string" zeroinitializer, align 8
@.str.102 = private unnamed_addr constant [12 x i8] c"ANCHOREPOCH\00", align 1
@_ZN5osgeo4proj2io12WKTConstants10CONVERSIONB5cxx11E = hidden global %"class.std::__cxx11::basic_string" zeroinitializer, align 8
@.str.104 = private unnamed_addr constant [11 x i8] c"CONVERSION\00", align 1
@_ZN5osgeo4proj2io12WKTConstants6METHODB5cxx11E = hidden global %"class.std::__cxx11::basic_string" zeroinitializer, align 8
@.str.106 = private unnamed_addr constant [7 x i8] c"METHOD\00", align 1
@_ZN5osgeo4proj2io12WKTConstants6REMARKB5cxx11E = hidden global %"class.std::__cxx11::basic_string" zeroinitializer, align 8
@.str.108 = private unnamed_addr constant [7 x i8] c"REMARK\00", align 1
@_ZN5osgeo4proj2io12WKTConstants7GEOGCRSB5cxx11E = hidden global %"class.std::__cxx11::basic_string" zeroinitializer, align 8
@.str.110 = private unnamed_addr constant [8 x i8] c"GEOGCRS\00", align 1
@_ZN5osgeo4proj2io12WKTConstants11BASEGEOGCRSB5cxx11E = hidden global %"class.std::__cxx11::basic_string" zeroinitializer, align 8
@.str.112 = private unnamed_addr constant [12 x i8] c"BASEGEOGCRS\00", align 1
@_ZN5osgeo4proj2io12WKTConstants5SCOPEB5cxx11E = hidden global %"class.std::__cxx11::basic_string" zeroinitializer, align 8
@.str.114 = private unnamed_addr constant [6 x i8] c"SCOPE\00", align 1
@_ZN5osgeo4proj2io12WKTConstants4AREAB5cxx11E = hidden global %"class.std::__cxx11::basic_string" zeroinitializer, align 8
@.str.116 = private unnamed_addr constant [5 x i8] c"AREA\00", align 1
@_ZN5osgeo4proj2io12WKTConstants4BBOXB5cxx11E = hidden global %"class.std::__cxx11::basic_string" zeroinitializer, align 8
@.str.118 = private unnamed_addr constant [5 x i8] c"BBOX\00", align 1
@_ZN5osgeo4proj2io12WKTConstants8CITATIONB5cxx11E = hidden global %"class.std::__cxx11::basic_string" zeroinitializer, align 8
@.str.120 = private unnamed_addr constant [9 x i8] c"CITATION\00", align 1
@_ZN5osgeo4proj2io12WKTConstants3URIB5cxx11E = hidden global %"class.std::__cxx11::basic_string" zeroinitializer, align 8
@.str.122 = private unnamed_addr constant [4 x i8] c"URI\00", align 1
@_ZN5osgeo4proj2io12WKTConstants7VERTCRSB5cxx11E = hidden global %"class.std::__cxx11::basic_string" zeroinitializer, align 8
@.str.124 = private unnamed_addr constant [8 x i8] c"VERTCRS\00", align 1
@_ZN5osgeo4proj2io12WKTConstants6VDATUMB5cxx11E = hidden global %"class.std::__cxx11::basic_string" zeroinitializer, align 8
@.str.126 = private unnamed_addr constant [7 x i8] c"VDATUM\00", align 1
@_ZN5osgeo4proj2io12WKTConstants11COMPOUNDCRSB5cxx11E = hidden global %"class.std::__cxx11::basic_string" zeroinitializer, align 8
@.str.128 = private unnamed_addr constant [12 x i8] c"COMPOUNDCRS\00", align 1
@_ZN5osgeo4proj2io12WKTConstants13PARAMETERFILEB5cxx11E = hidden global %"class.std::__cxx11::basic_string" zeroinitializer, align 8
@.str.130 = private unnamed_addr constant [14 x i8] c"PARAMETERFILE\00", align 1
@_ZN5osgeo4proj2io12WKTConstants19COORDINATEOPERATIONB5cxx11E = hidden global %"class.std::__cxx11::basic_string" zeroinitializer, align 8
@.str.132 = private unnamed_addr constant [20 x i8] c"COORDINATEOPERATION\00", align 1
@_ZN5osgeo4proj2io12WKTConstants9SOURCECRSB5cxx11E = hidden global %"class.std::__cxx11::basic_string" zeroinitializer, align 8
@.str.134 = private unnamed_addr constant [10 x i8] c"SOURCECRS\00", align 1
@_ZN5osgeo4proj2io12WKTConstants9TARGETCRSB5cxx11E = hidden global %"class.std::__cxx11::basic_string" zeroinitializer, align 8
@.str.136 = private unnamed_addr constant [10 x i8] c"TARGETCRS\00", align 1
@_ZN5osgeo4proj2io12WKTConstants16INTERPOLATIONCRSB5cxx11E = hidden global %"class.std::__cxx11::basic_string" zeroinitializer, align 8
@.str.138 = private unnamed_addr constant [17 x i8] c"INTERPOLATIONCRS\00", align 1
@_ZN5osgeo4proj2io12WKTConstants17OPERATIONACCURACYB5cxx11E = hidden global %"class.std::__cxx11::basic_string" zeroinitializer, align 8
@.str.140 = private unnamed_addr constant [18 x i8] c"OPERATIONACCURACY\00", align 1
@_ZN5osgeo4proj2io12WKTConstants21CONCATENATEDOPERATIONB5cxx11E = hidden global %"class.std::__cxx11::basic_string" zeroinitializer, align 8
@.str.142 = private unnamed_addr constant [22 x i8] c"CONCATENATEDOPERATION\00", align 1
@_ZN5osgeo4proj2io12WKTConstants4STEPB5cxx11E = hidden global %"class.std::__cxx11::basic_string" zeroinitializer, align 8
@.str.144 = private unnamed_addr constant [5 x i8] c"STEP\00", align 1
@_ZN5osgeo4proj2io12WKTConstants8BOUNDCRSB5cxx11E = hidden global %"class.std::__cxx11::basic_string" zeroinitializer, align 8
@.str.146 = private unnamed_addr constant [9 x i8] c"BOUNDCRS\00", align 1
@_ZN5osgeo4proj2io12WKTConstants22ABRIDGEDTRANSFORMATIONB5cxx11E = hidden global %"class.std::__cxx11::basic_string" zeroinitializer, align 8
@.str.148 = private unnamed_addr constant [23 x i8] c"ABRIDGEDTRANSFORMATION\00", align 1
@_ZN5osgeo4proj2io12WKTConstants18DERIVINGCONVERSIONB5cxx11E = hidden global %"class.std::__cxx11::basic_string" zeroinitializer, align 8
@.str.150 = private unnamed_addr constant [19 x i8] c"DERIVINGCONVERSION\00", align 1
@_ZN5osgeo4proj2io12WKTConstants6TDATUMB5cxx11E = hidden global %"class.std::__cxx11::basic_string" zeroinitializer, align 8
@.str.152 = private unnamed_addr constant [7 x i8] c"TDATUM\00", align 1
@_ZN5osgeo4proj2io12WKTConstants8CALENDARB5cxx11E = hidden global %"class.std::__cxx11::basic_string" zeroinitializer, align 8
@.str.154 = private unnamed_addr constant [9 x i8] c"CALENDAR\00", align 1
@_ZN5osgeo4proj2io12WKTConstants10TIMEORIGINB5cxx11E = hidden global %"class.std::__cxx11::basic_string" zeroinitializer, align 8
@.str.156 = private unnamed_addr constant [11 x i8] c"TIMEORIGIN\00", align 1
@_ZN5osgeo4proj2io12WKTConstants7TIMECRSB5cxx11E = hidden global %"class.std::__cxx11::basic_string" zeroinitializer, align 8
@.str.158 = private unnamed_addr constant [8 x i8] c"TIMECRS\00", align 1
@_ZN5osgeo4proj2io12WKTConstants14VERTICALEXTENTB5cxx11E = hidden global %"class.std::__cxx11::basic_string" zeroinitializer, align 8
@.str.160 = private unnamed_addr constant [15 x i8] c"VERTICALEXTENT\00", align 1
@_ZN5osgeo4proj2io12WKTConstants10TIMEEXTENTB5cxx11E = hidden global %"class.std::__cxx11::basic_string" zeroinitializer, align 8
@.str.162 = private unnamed_addr constant [11 x i8] c"TIMEEXTENT\00", align 1
@_ZN5osgeo4proj2io12WKTConstants5USAGEB5cxx11E = hidden global %"class.std::__cxx11::basic_string" zeroinitializer, align 8
@.str.164 = private unnamed_addr constant [6 x i8] c"USAGE\00", align 1
@_ZN5osgeo4proj2io12WKTConstants7DYNAMICB5cxx11E = hidden global %"class.std::__cxx11::basic_string" zeroinitializer, align 8
@.str.166 = private unnamed_addr constant [8 x i8] c"DYNAMIC\00", align 1
@_ZN5osgeo4proj2io12WKTConstants10FRAMEEPOCHB5cxx11E = hidden global %"class.std::__cxx11::basic_string" zeroinitializer, align 8
@.str.168 = private unnamed_addr constant [11 x i8] c"FRAMEEPOCH\00", align 1
@_ZN5osgeo4proj2io12WKTConstants5MODELB5cxx11E = hidden global %"class.std::__cxx11::basic_string" zeroinitializer, align 8
@.str.170 = private unnamed_addr constant [6 x i8] c"MODEL\00", align 1
@_ZN5osgeo4proj2io12WKTConstants12VELOCITYGRIDB5cxx11E = hidden global %"class.std::__cxx11::basic_string" zeroinitializer, align 8
@.str.172 = private unnamed_addr constant [13 x i8] c"VELOCITYGRID\00", align 1
@_ZN5osgeo4proj2io12WKTConstants8ENSEMBLEB5cxx11E = hidden global %"class.std::__cxx11::basic_string" zeroinitializer, align 8
@.str.174 = private unnamed_addr constant [9 x i8] c"ENSEMBLE\00", align 1
@_ZN5osgeo4proj2io12WKTConstants6MEMBERB5cxx11E = hidden global %"class.std::__cxx11::basic_string" zeroinitializer, align 8
@.str.176 = private unnamed_addr constant [7 x i8] c"MEMBER\00", align 1
@_ZN5osgeo4proj2io12WKTConstants16ENSEMBLEACCURACYB5cxx11E = hidden global %"class.std::__cxx11::basic_string" zeroinitializer, align 8
@.str.178 = private unnamed_addr constant [17 x i8] c"ENSEMBLEACCURACY\00", align 1
@_ZN5osgeo4proj2io12WKTConstants14DERIVEDPROJCRSB5cxx11E = hidden global %"class.std::__cxx11::basic_string" zeroinitializer, align 8
@.str.180 = private unnamed_addr constant [15 x i8] c"DERIVEDPROJCRS\00", align 1
@_ZN5osgeo4proj2io12WKTConstants11BASEPROJCRSB5cxx11E = hidden global %"class.std::__cxx11::basic_string" zeroinitializer, align 8
@.str.182 = private unnamed_addr constant [12 x i8] c"BASEPROJCRS\00", align 1
@_ZN5osgeo4proj2io12WKTConstants6EDATUMB5cxx11E = hidden global %"class.std::__cxx11::basic_string" zeroinitializer, align 8
@.str.184 = private unnamed_addr constant [7 x i8] c"EDATUM\00", align 1
@_ZN5osgeo4proj2io12WKTConstants6ENGCRSB5cxx11E = hidden global %"class.std::__cxx11::basic_string" zeroinitializer, align 8
@.str.186 = private unnamed_addr constant [7 x i8] c"ENGCRS\00", align 1
@_ZN5osgeo4proj2io12WKTConstants6PDATUMB5cxx11E = hidden global %"class.std::__cxx11::basic_string" zeroinitializer, align 8
@.str.188 = private unnamed_addr constant [7 x i8] c"PDATUM\00", align 1
@_ZN5osgeo4proj2io12WKTConstants13PARAMETRICCRSB5cxx11E = hidden global %"class.std::__cxx11::basic_string" zeroinitializer, align 8
@.str.190 = private unnamed_addr constant [14 x i8] c"PARAMETRICCRS\00", align 1
@_ZN5osgeo4proj2io12WKTConstants14PARAMETRICUNITB5cxx11E = hidden global %"class.std::__cxx11::basic_string" zeroinitializer, align 8
@.str.192 = private unnamed_addr constant [15 x i8] c"PARAMETRICUNIT\00", align 1
@_ZN5osgeo4proj2io12WKTConstants11BASEVERTCRSB5cxx11E = hidden global %"class.std::__cxx11::basic_string" zeroinitializer, align 8
@.str.194 = private unnamed_addr constant [12 x i8] c"BASEVERTCRS\00", align 1
@_ZN5osgeo4proj2io12WKTConstants10BASEENGCRSB5cxx11E = hidden global %"class.std::__cxx11::basic_string" zeroinitializer, align 8
@.str.196 = private unnamed_addr constant [11 x i8] c"BASEENGCRS\00", align 1
@_ZN5osgeo4proj2io12WKTConstants12BASEPARAMCRSB5cxx11E = hidden global %"class.std::__cxx11::basic_string" zeroinitializer, align 8
@.str.198 = private unnamed_addr constant [13 x i8] c"BASEPARAMCRS\00", align 1
@_ZN5osgeo4proj2io12WKTConstants11BASETIMECRSB5cxx11E = hidden global %"class.std::__cxx11::basic_string" zeroinitializer, align 8
@.str.200 = private unnamed_addr constant [12 x i8] c"BASETIMECRS\00", align 1
@_ZN5osgeo4proj2io12WKTConstants7VERSIONB5cxx11E = hidden global %"class.std::__cxx11::basic_string" zeroinitializer, align 8
@.str.202 = private unnamed_addr constant [8 x i8] c"VERSION\00", align 1
@_ZN5osgeo4proj2io12WKTConstants10GEOIDMODELB5cxx11E = hidden global %"class.std::__cxx11::basic_string" zeroinitializer, align 8
@.str.204 = private unnamed_addr constant [11 x i8] c"GEOIDMODEL\00", align 1
@_ZN5osgeo4proj2io12WKTConstants18COORDINATEMETADATAB5cxx11E = hidden global %"class.std::__cxx11::basic_string" zeroinitializer, align 8
@.str.206 = private unnamed_addr constant [19 x i8] c"COORDINATEMETADATA\00", align 1
@_ZN5osgeo4proj2io12WKTConstants5EPOCHB5cxx11E = hidden global %"class.std::__cxx11::basic_string" zeroinitializer, align 8
@.str.208 = private unnamed_addr constant [6 x i8] c"EPOCH\00", align 1
@_ZN5osgeo4proj2io12WKTConstants12AXISMINVALUEB5cxx11E = hidden global %"class.std::__cxx11::basic_string" zeroinitializer, align 8
@.str.210 = private unnamed_addr constant [13 x i8] c"AXISMINVALUE\00", align 1
@_ZN5osgeo4proj2io12WKTConstants12AXISMAXVALUEB5cxx11E = hidden global %"class.std::__cxx11::basic_string" zeroinitializer, align 8
@.str.212 = private unnamed_addr constant [13 x i8] c"AXISMAXVALUE\00", align 1
@_ZN5osgeo4proj2io12WKTConstants12RANGEMEANINGB5cxx11E = hidden global %"class.std::__cxx11::basic_string" zeroinitializer, align 8
@.str.214 = private unnamed_addr constant [13 x i8] c"RANGEMEANING\00", align 1
@_ZN5osgeo4proj2io12WKTConstants20POINTMOTIONOPERATIONB5cxx11E = hidden global %"class.std::__cxx11::basic_string" zeroinitializer, align 8
@.str.216 = private unnamed_addr constant [21 x i8] c"POINTMOTIONOPERATION\00", align 1
@_ZN5osgeo4proj2io12WKTConstants11GEODETICCRSB5cxx11E = hidden global %"class.std::__cxx11::basic_string" zeroinitializer, align 8
@.str.218 = private unnamed_addr constant [12 x i8] c"GEODETICCRS\00", align 1
@_ZN5osgeo4proj2io12WKTConstants13GEODETICDATUMB5cxx11E = hidden global %"class.std::__cxx11::basic_string" zeroinitializer, align 8
@.str.220 = private unnamed_addr constant [14 x i8] c"GEODETICDATUM\00", align 1
@_ZN5osgeo4proj2io12WKTConstants12PROJECTEDCRSB5cxx11E = hidden global %"class.std::__cxx11::basic_string" zeroinitializer, align 8
@.str.222 = private unnamed_addr constant [13 x i8] c"PROJECTEDCRS\00", align 1
@_ZN5osgeo4proj2io12WKTConstants13PRIMEMERIDIANB5cxx11E = hidden global %"class.std::__cxx11::basic_string" zeroinitializer, align 8
@.str.224 = private unnamed_addr constant [14 x i8] c"PRIMEMERIDIAN\00", align 1
@_ZN5osgeo4proj2io12WKTConstants13GEOGRAPHICCRSB5cxx11E = hidden global %"class.std::__cxx11::basic_string" zeroinitializer, align 8
@.str.226 = private unnamed_addr constant [14 x i8] c"GEOGRAPHICCRS\00", align 1
@_ZN5osgeo4proj2io12WKTConstants3TRFB5cxx11E = hidden global %"class.std::__cxx11::basic_string" zeroinitializer, align 8
@.str.228 = private unnamed_addr constant [4 x i8] c"TRF\00", align 1
@_ZN5osgeo4proj2io12WKTConstants11VERTICALCRSB5cxx11E = hidden global %"class.std::__cxx11::basic_string" zeroinitializer, align 8
@.str.230 = private unnamed_addr constant [12 x i8] c"VERTICALCRS\00", align 1
@_ZN5osgeo4proj2io12WKTConstants13VERTICALDATUMB5cxx11E = hidden global %"class.std::__cxx11::basic_string" zeroinitializer, align 8
@.str.232 = private unnamed_addr constant [14 x i8] c"VERTICALDATUM\00", align 1
@_ZN5osgeo4proj2io12WKTConstants3VRFB5cxx11E = hidden global %"class.std::__cxx11::basic_string" zeroinitializer, align 8
@.str.234 = private unnamed_addr constant [4 x i8] c"VRF\00", align 1
@_ZN5osgeo4proj2io12WKTConstants9TIMEDATUMB5cxx11E = hidden global %"class.std::__cxx11::basic_string" zeroinitializer, align 8
@.str.236 = private unnamed_addr constant [10 x i8] c"TIMEDATUM\00", align 1
@_ZN5osgeo4proj2io12WKTConstants16TEMPORALQUANTITYB5cxx11E = hidden global %"class.std::__cxx11::basic_string" zeroinitializer, align 8
@.str.238 = private unnamed_addr constant [17 x i8] c"TEMPORALQUANTITY\00", align 1
@_ZN5osgeo4proj2io12WKTConstants16ENGINEERINGDATUMB5cxx11E = hidden global %"class.std::__cxx11::basic_string" zeroinitializer, align 8
@.str.240 = private unnamed_addr constant [17 x i8] c"ENGINEERINGDATUM\00", align 1
@_ZN5osgeo4proj2io12WKTConstants14ENGINEERINGCRSB5cxx11E = hidden global %"class.std::__cxx11::basic_string" zeroinitializer, align 8
@.str.242 = private unnamed_addr constant [15 x i8] c"ENGINEERINGCRS\00", align 1
@_ZN5osgeo4proj2io12WKTConstants15PARAMETRICDATUMB5cxx11E = hidden global %"class.std::__cxx11::basic_string" zeroinitializer, align 8
@.str.244 = private unnamed_addr constant [16 x i8] c"PARAMETRICDATUM\00", align 1
@_ZN5osgeo4proj6common13UnitOfMeasure4NONEE = global %"class.osgeo::proj::common::UnitOfMeasure" zeroinitializer, align 8
@_ZN5osgeo4proj6common13UnitOfMeasure11SCALE_UNITYE = global %"class.osgeo::proj::common::UnitOfMeasure" zeroinitializer, align 8
@.str.248 = private unnamed_addr constant [6 x i8] c"unity\00", align 1
@_ZN5osgeo4proj6common13UnitOfMeasure17PARTS_PER_MILLIONE = global %"class.osgeo::proj::common::UnitOfMeasure" zeroinitializer, align 8
@.str.251 = private unnamed_addr constant [18 x i8] c"parts per million\00", align 1
@_ZN5osgeo4proj6common13UnitOfMeasure5METREE = global %"class.osgeo::proj::common::UnitOfMeasure" zeroinitializer, align 8
@.str.254 = private unnamed_addr constant [6 x i8] c"metre\00", align 1
@_ZN5osgeo4proj6common13UnitOfMeasure4FOOTE = global %"class.osgeo::proj::common::UnitOfMeasure" zeroinitializer, align 8
@_ZN5osgeo4proj6common13UnitOfMeasure7US_FOOTE = global %"class.osgeo::proj::common::UnitOfMeasure" zeroinitializer, align 8
@.str.260 = private unnamed_addr constant [15 x i8] c"US survey foot\00", align 1
@_ZN5osgeo4proj6common13UnitOfMeasure6DEGREEE = global %"class.osgeo::proj::common::UnitOfMeasure" zeroinitializer, align 8
@.str.263 = private unnamed_addr constant [7 x i8] c"degree\00", align 1
@_ZN5osgeo4proj6common13UnitOfMeasure10ARC_SECONDE = global %"class.osgeo::proj::common::UnitOfMeasure" zeroinitializer, align 8
@.str.266 = private unnamed_addr constant [11 x i8] c"arc-second\00", align 1
@_ZN5osgeo4proj6common13UnitOfMeasure4GRADE = global %"class.osgeo::proj::common::UnitOfMeasure" zeroinitializer, align 8
@_ZN5osgeo4proj6common13UnitOfMeasure6RADIANE = global %"class.osgeo::proj::common::UnitOfMeasure" zeroinitializer, align 8
@.str.272 = private unnamed_addr constant [7 x i8] c"radian\00", align 1
@_ZN5osgeo4proj6common13UnitOfMeasure11MICRORADIANE = global %"class.osgeo::proj::common::UnitOfMeasure" zeroinitializer, align 8
@.str.275 = private unnamed_addr constant [12 x i8] c"microradian\00", align 1
@_ZN5osgeo4proj6common13UnitOfMeasure6SECONDE = global %"class.osgeo::proj::common::UnitOfMeasure" zeroinitializer, align 8
@.str.278 = private unnamed_addr constant [7 x i8] c"second\00", align 1
@_ZN5osgeo4proj6common13UnitOfMeasure4YEARE = global %"class.osgeo::proj::common::UnitOfMeasure" zeroinitializer, align 8
@_ZN5osgeo4proj6common13UnitOfMeasure14METRE_PER_YEARE = global %"class.osgeo::proj::common::UnitOfMeasure" zeroinitializer, align 8
@.str.284 = private unnamed_addr constant [16 x i8] c"metres per year\00", align 1
@_ZN5osgeo4proj6common13UnitOfMeasure19ARC_SECOND_PER_YEARE = global %"class.osgeo::proj::common::UnitOfMeasure" zeroinitializer, align 8
@.str.287 = private unnamed_addr constant [21 x i8] c"arc-seconds per year\00", align 1
@_ZN5osgeo4proj6common13UnitOfMeasure12PPM_PER_YEARE = global %"class.osgeo::proj::common::UnitOfMeasure" zeroinitializer, align 8
@.str.290 = private unnamed_addr constant [27 x i8] c"parts per million per year\00", align 1
@_ZN5osgeo4proj2cs13AxisDirection8registryB5cxx11E = hidden global %"class.std::map" zeroinitializer, align 8
@_ZN5osgeo4proj2cs13AxisDirection5NORTHE = global %"class.osgeo::proj::cs::AxisDirection" zeroinitializer, align 8
@.str.294 = private unnamed_addr constant [6 x i8] c"north\00", align 1
@_ZN5osgeo4proj2cs13AxisDirection16NORTH_NORTH_EASTE = global %"class.osgeo::proj::cs::AxisDirection" zeroinitializer, align 8
@.str.296 = private unnamed_addr constant [15 x i8] c"northNorthEast\00", align 1
@_ZN5osgeo4proj2cs13AxisDirection10NORTH_EASTE = global %"class.osgeo::proj::cs::AxisDirection" zeroinitializer, align 8
@.str.298 = private unnamed_addr constant [10 x i8] c"northEast\00", align 1
@_ZN5osgeo4proj2cs13AxisDirection15EAST_NORTH_EASTE = global %"class.osgeo::proj::cs::AxisDirection" zeroinitializer, align 8
@.str.300 = private unnamed_addr constant [14 x i8] c"eastNorthEast\00", align 1
@_ZN5osgeo4proj2cs13AxisDirection4EASTE = global %"class.osgeo::proj::cs::AxisDirection" zeroinitializer, align 8
@_ZN5osgeo4proj2cs13AxisDirection15EAST_SOUTH_EASTE = global %"class.osgeo::proj::cs::AxisDirection" zeroinitializer, align 8
@.str.304 = private unnamed_addr constant [14 x i8] c"eastSouthEast\00", align 1
@_ZN5osgeo4proj2cs13AxisDirection10SOUTH_EASTE = global %"class.osgeo::proj::cs::AxisDirection" zeroinitializer, align 8
@.str.306 = private unnamed_addr constant [10 x i8] c"southEast\00", align 1
@_ZN5osgeo4proj2cs13AxisDirection16SOUTH_SOUTH_EASTE = global %"class.osgeo::proj::cs::AxisDirection" zeroinitializer, align 8
@.str.308 = private unnamed_addr constant [15 x i8] c"southSouthEast\00", align 1
@_ZN5osgeo4proj2cs13AxisDirection5SOUTHE = global %"class.osgeo::proj::cs::AxisDirection" zeroinitializer, align 8
@.str.310 = private unnamed_addr constant [6 x i8] c"south\00", align 1
@_ZN5osgeo4proj2cs13AxisDirection16SOUTH_SOUTH_WESTE = global %"class.osgeo::proj::cs::AxisDirection" zeroinitializer, align 8
@.str.312 = private unnamed_addr constant [15 x i8] c"southSouthWest\00", align 1
@_ZN5osgeo4proj2cs13AxisDirection10SOUTH_WESTE = global %"class.osgeo::proj::cs::AxisDirection" zeroinitializer, align 8
@.str.314 = private unnamed_addr constant [10 x i8] c"southWest\00", align 1
@_ZN5osgeo4proj2cs13AxisDirection15WEST_SOUTH_WESTE = global %"class.osgeo::proj::cs::AxisDirection" zeroinitializer, align 8
@.str.316 = private unnamed_addr constant [14 x i8] c"westSouthWest\00", align 1
@_ZN5osgeo4proj2cs13AxisDirection4WESTE = global %"class.osgeo::proj::cs::AxisDirection" zeroinitializer, align 8
@_ZN5osgeo4proj2cs13AxisDirection15WEST_NORTH_WESTE = global %"class.osgeo::proj::cs::AxisDirection" zeroinitializer, align 8
@.str.320 = private unnamed_addr constant [14 x i8] c"westNorthWest\00", align 1
@_ZN5osgeo4proj2cs13AxisDirection10NORTH_WESTE = global %"class.osgeo::proj::cs::AxisDirection" zeroinitializer, align 8
@.str.322 = private unnamed_addr constant [10 x i8] c"northWest\00", align 1
@_ZN5osgeo4proj2cs13AxisDirection16NORTH_NORTH_WESTE = global %"class.osgeo::proj::cs::AxisDirection" zeroinitializer, align 8
@.str.324 = private unnamed_addr constant [15 x i8] c"northNorthWest\00", align 1
@_ZN5osgeo4proj2cs13AxisDirection2UPE = global %"class.osgeo::proj::cs::AxisDirection" zeroinitializer, align 8
@_ZN5osgeo4proj2cs13AxisDirection4DOWNE = global %"class.osgeo::proj::cs::AxisDirection" zeroinitializer, align 8
@_ZN5osgeo4proj2cs13AxisDirection12GEOCENTRIC_XE = global %"class.osgeo::proj::cs::AxisDirection" zeroinitializer, align 8
@.str.330 = private unnamed_addr constant [12 x i8] c"geocentricX\00", align 1
@_ZN5osgeo4proj2cs13AxisDirection12GEOCENTRIC_YE = global %"class.osgeo::proj::cs::AxisDirection" zeroinitializer, align 8
@.str.332 = private unnamed_addr constant [12 x i8] c"geocentricY\00", align 1
@_ZN5osgeo4proj2cs13AxisDirection12GEOCENTRIC_ZE = global %"class.osgeo::proj::cs::AxisDirection" zeroinitializer, align 8
@.str.334 = private unnamed_addr constant [12 x i8] c"geocentricZ\00", align 1
@_ZN5osgeo4proj2cs13AxisDirection15COLUMN_POSITIVEE = global %"class.osgeo::proj::cs::AxisDirection" zeroinitializer, align 8
@.str.336 = private unnamed_addr constant [15 x i8] c"columnPositive\00", align 1
@_ZN5osgeo4proj2cs13AxisDirection15COLUMN_NEGATIVEE = global %"class.osgeo::proj::cs::AxisDirection" zeroinitializer, align 8
@.str.338 = private unnamed_addr constant [15 x i8] c"columnNegative\00", align 1
@_ZN5osgeo4proj2cs13AxisDirection12ROW_POSITIVEE = global %"class.osgeo::proj::cs::AxisDirection" zeroinitializer, align 8
@.str.340 = private unnamed_addr constant [12 x i8] c"rowPositive\00", align 1
@_ZN5osgeo4proj2cs13AxisDirection12ROW_NEGATIVEE = global %"class.osgeo::proj::cs::AxisDirection" zeroinitializer, align 8
@.str.342 = private unnamed_addr constant [12 x i8] c"rowNegative\00", align 1
@_ZN5osgeo4proj2cs13AxisDirection13DISPLAY_RIGHTE = global %"class.osgeo::proj::cs::AxisDirection" zeroinitializer, align 8
@.str.344 = private unnamed_addr constant [13 x i8] c"displayRight\00", align 1
@_ZN5osgeo4proj2cs13AxisDirection12DISPLAY_LEFTE = global %"class.osgeo::proj::cs::AxisDirection" zeroinitializer, align 8
@.str.346 = private unnamed_addr constant [12 x i8] c"displayLeft\00", align 1
@_ZN5osgeo4proj2cs13AxisDirection10DISPLAY_UPE = global %"class.osgeo::proj::cs::AxisDirection" zeroinitializer, align 8
@.str.348 = private unnamed_addr constant [10 x i8] c"displayUp\00", align 1
@_ZN5osgeo4proj2cs13AxisDirection12DISPLAY_DOWNE = global %"class.osgeo::proj::cs::AxisDirection" zeroinitializer, align 8
@.str.350 = private unnamed_addr constant [12 x i8] c"displayDown\00", align 1
@_ZN5osgeo4proj2cs13AxisDirection7FORWARDE = global %"class.osgeo::proj::cs::AxisDirection" zeroinitializer, align 8
@.str.352 = private unnamed_addr constant [8 x i8] c"forward\00", align 1
@_ZN5osgeo4proj2cs13AxisDirection3AFTE = global %"class.osgeo::proj::cs::AxisDirection" zeroinitializer, align 8
@.str.354 = private unnamed_addr constant [4 x i8] c"aft\00", align 1
@_ZN5osgeo4proj2cs13AxisDirection4PORTE = global %"class.osgeo::proj::cs::AxisDirection" zeroinitializer, align 8
@_ZN5osgeo4proj2cs13AxisDirection9STARBOARDE = global %"class.osgeo::proj::cs::AxisDirection" zeroinitializer, align 8
@.str.358 = private unnamed_addr constant [10 x i8] c"starboard\00", align 1
@_ZN5osgeo4proj2cs13AxisDirection9CLOCKWISEE = global %"class.osgeo::proj::cs::AxisDirection" zeroinitializer, align 8
@.str.360 = private unnamed_addr constant [10 x i8] c"clockwise\00", align 1
@_ZN5osgeo4proj2cs13AxisDirection17COUNTER_CLOCKWISEE = global %"class.osgeo::proj::cs::AxisDirection" zeroinitializer, align 8
@.str.362 = private unnamed_addr constant [17 x i8] c"counterClockwise\00", align 1
@_ZN5osgeo4proj2cs13AxisDirection7TOWARDSE = global %"class.osgeo::proj::cs::AxisDirection" zeroinitializer, align 8
@.str.364 = private unnamed_addr constant [8 x i8] c"towards\00", align 1
@_ZN5osgeo4proj2cs13AxisDirection9AWAY_FROME = global %"class.osgeo::proj::cs::AxisDirection" zeroinitializer, align 8
@_ZN5osgeo4proj2cs13AxisDirection6FUTUREE = global %"class.osgeo::proj::cs::AxisDirection" zeroinitializer, align 8
@.str.368 = private unnamed_addr constant [7 x i8] c"future\00", align 1
@_ZN5osgeo4proj2cs13AxisDirection4PASTE = global %"class.osgeo::proj::cs::AxisDirection" zeroinitializer, align 8
@_ZN5osgeo4proj2cs13AxisDirection11UNSPECIFIEDE = global %"class.osgeo::proj::cs::AxisDirection" zeroinitializer, align 8
@.str.372 = private unnamed_addr constant [12 x i8] c"unspecified\00", align 1
@_ZN5osgeo4proj2cs12RangeMeaning8registryB5cxx11E = hidden global %"class.std::map.20" zeroinitializer, align 8
@_ZN5osgeo4proj2cs12RangeMeaning5EXACTE = global %"class.osgeo::proj::cs::RangeMeaning" zeroinitializer, align 8
@.str.375 = private unnamed_addr constant [6 x i8] c"exact\00", align 1
@_ZN5osgeo4proj2cs12RangeMeaning10WRAPAROUNDE = global %"class.osgeo::proj::cs::RangeMeaning" zeroinitializer, align 8
@.str.377 = private unnamed_addr constant [11 x i8] c"wraparound\00", align 1
@_ZN5osgeo4proj2cs17AxisDirectionWKT18registryB5cxx11E = hidden global %"class.std::map.25" zeroinitializer, align 8
@_ZN5osgeo4proj2cs17AxisDirectionWKT15NORTHE = hidden global %"class.osgeo::proj::cs::AxisDirectionWKT1" zeroinitializer, align 8
@.str.380 = private unnamed_addr constant [6 x i8] c"NORTH\00", align 1
@_ZN5osgeo4proj2cs17AxisDirectionWKT14EASTE = hidden global %"class.osgeo::proj::cs::AxisDirectionWKT1" zeroinitializer, align 8
@_ZN5osgeo4proj2cs17AxisDirectionWKT15SOUTHE = hidden global %"class.osgeo::proj::cs::AxisDirectionWKT1" zeroinitializer, align 8
@.str.384 = private unnamed_addr constant [6 x i8] c"SOUTH\00", align 1
@_ZN5osgeo4proj2cs17AxisDirectionWKT14WESTE = hidden global %"class.osgeo::proj::cs::AxisDirectionWKT1" zeroinitializer, align 8
@_ZN5osgeo4proj2cs17AxisDirectionWKT12UPE = hidden global %"class.osgeo::proj::cs::AxisDirectionWKT1" zeroinitializer, align 8
@_ZN5osgeo4proj2cs17AxisDirectionWKT14DOWNE = hidden global %"class.osgeo::proj::cs::AxisDirectionWKT1" zeroinitializer, align 8
@_ZN5osgeo4proj2cs17AxisDirectionWKT15OTHERE = hidden global %"class.osgeo::proj::cs::AxisDirectionWKT1" zeroinitializer, align 8
@.str.392 = private unnamed_addr constant [6 x i8] c"OTHER\00", align 1
@_ZN5osgeo4proj2cs8AxisName9LongitudeB5cxx11E = hidden global %"class.std::__cxx11::basic_string" zeroinitializer, align 8
@.str.394 = private unnamed_addr constant [10 x i8] c"Longitude\00", align 1
@_ZN5osgeo4proj2cs8AxisName8LatitudeB5cxx11E = hidden global %"class.std::__cxx11::basic_string" zeroinitializer, align 8
@_ZN5osgeo4proj2cs8AxisName7EastingB5cxx11E = hidden global %"class.std::__cxx11::basic_string" zeroinitializer, align 8
@.str.398 = private unnamed_addr constant [8 x i8] c"Easting\00", align 1
@_ZN5osgeo4proj2cs8AxisName8NorthingB5cxx11E = hidden global %"class.std::__cxx11::basic_string" zeroinitializer, align 8
@_ZN5osgeo4proj2cs8AxisName7WestingB5cxx11E = hidden global %"class.std::__cxx11::basic_string" zeroinitializer, align 8
@.str.402 = private unnamed_addr constant [8 x i8] c"Westing\00", align 1
@_ZN5osgeo4proj2cs8AxisName8SouthingB5cxx11E = hidden global %"class.std::__cxx11::basic_string" zeroinitializer, align 8
@_ZN5osgeo4proj2cs8AxisName18Ellipsoidal_heightB5cxx11E = hidden global %"class.std::__cxx11::basic_string" zeroinitializer, align 8
@.str.406 = private unnamed_addr constant [19 x i8] c"Ellipsoidal height\00", align 1
@_ZN5osgeo4proj2cs8AxisName12Geocentric_XB5cxx11E = hidden global %"class.std::__cxx11::basic_string" zeroinitializer, align 8
@.str.408 = private unnamed_addr constant [13 x i8] c"Geocentric X\00", align 1
@_ZN5osgeo4proj2cs8AxisName12Geocentric_YB5cxx11E = hidden global %"class.std::__cxx11::basic_string" zeroinitializer, align 8
@.str.410 = private unnamed_addr constant [13 x i8] c"Geocentric Y\00", align 1
@_ZN5osgeo4proj2cs8AxisName12Geocentric_ZB5cxx11E = hidden global %"class.std::__cxx11::basic_string" zeroinitializer, align 8
@.str.412 = private unnamed_addr constant [13 x i8] c"Geocentric Z\00", align 1
@_ZN5osgeo4proj2cs16AxisAbbreviation3lonB5cxx11E = hidden global %"class.std::__cxx11::basic_string" zeroinitializer, align 8
@.str.414 = private unnamed_addr constant [4 x i8] c"lon\00", align 1
@_ZN5osgeo4proj2cs16AxisAbbreviation3latB5cxx11E = hidden global %"class.std::__cxx11::basic_string" zeroinitializer, align 8
@.str.416 = private unnamed_addr constant [4 x i8] c"lat\00", align 1
@_ZN5osgeo4proj2cs16AxisAbbreviation1EB5cxx11E = hidden global %"class.std::__cxx11::basic_string" zeroinitializer, align 8
@_ZN5osgeo4proj2cs16AxisAbbreviation1NB5cxx11E = hidden global %"class.std::__cxx11::basic_string" zeroinitializer, align 8
@_ZN5osgeo4proj2cs16AxisAbbreviation1hB5cxx11E = hidden global %"class.std::__cxx11::basic_string" zeroinitializer, align 8
@_ZN5osgeo4proj2cs16AxisAbbreviation1XB5cxx11E = hidden global %"class.std::__cxx11::basic_string" zeroinitializer, align 8
@_ZN5osgeo4proj2cs16AxisAbbreviation1YB5cxx11E = hidden global %"class.std::__cxx11::basic_string" zeroinitializer, align 8
@_ZN5osgeo4proj2cs16AxisAbbreviation1ZB5cxx11E = hidden global %"class.std::__cxx11::basic_string" zeroinitializer, align 8
@_ZN5osgeo4proj5datum17RealizationMethod9LEVELLINGE = global %"class.osgeo::proj::datum::RealizationMethod" zeroinitializer, align 8
@.str.430 = private unnamed_addr constant [10 x i8] c"levelling\00", align 1
@_ZN5osgeo4proj5datum17RealizationMethod5GEOIDE = global %"class.osgeo::proj::datum::RealizationMethod" zeroinitializer, align 8
@.str.432 = private unnamed_addr constant [6 x i8] c"geoid\00", align 1
@_ZN5osgeo4proj5datum17RealizationMethod5TIDALE = global %"class.osgeo::proj::datum::RealizationMethod" zeroinitializer, align 8
@.str.434 = private unnamed_addr constant [6 x i8] c"tidal\00", align 1
@_ZN5osgeo4proj5datum13PrimeMeridian9GREENWICHE = global %"class.dropbox::oxygen::nn.30" zeroinitializer, align 8
@_ZN5osgeo4proj5datum13PrimeMeridian18REFERENCE_MERIDIANE = global %"class.dropbox::oxygen::nn.30" zeroinitializer, align 8
@_ZN5osgeo4proj5datum13PrimeMeridian5PARISE = global %"class.dropbox::oxygen::nn.30" zeroinitializer, align 8
@_ZN5osgeo4proj5datum9Ellipsoid5EARTHB5cxx11E = global %"class.std::__cxx11::basic_string" zeroinitializer, align 8
@.str.439 = private unnamed_addr constant [6 x i8] c"Earth\00", align 1
@_ZN5osgeo4proj5datum9Ellipsoid11CLARKE_1866E = global %"class.dropbox::oxygen::nn.34" zeroinitializer, align 8
@_ZN5osgeo4proj5datum9Ellipsoid5WGS84E = global %"class.dropbox::oxygen::nn.34" zeroinitializer, align 8
@_ZN5osgeo4proj5datum9Ellipsoid7GRS1980E = global %"class.dropbox::oxygen::nn.34" zeroinitializer, align 8
@_ZN5osgeo4proj5datum22GeodeticReferenceFrame9EPSG_6267E = global %"class.dropbox::oxygen::nn.38" zeroinitializer, align 8
@_ZN5osgeo4proj5datum22GeodeticReferenceFrame9EPSG_6269E = global %"class.dropbox::oxygen::nn.38" zeroinitializer, align 8
@_ZN5osgeo4proj5datum22GeodeticReferenceFrame9EPSG_6326E = global %"class.dropbox::oxygen::nn.38" zeroinitializer, align 8
@_ZN5osgeo4proj5datum13TemporalDatum28CALENDAR_PROLEPTIC_GREGORIANB5cxx11E = global %"class.std::__cxx11::basic_string" zeroinitializer, align 8
@.str.447 = private unnamed_addr constant [20 x i8] c"proleptic Gregorian\00", align 1
@_ZN5osgeo4proj3crs11GeodeticCRS9EPSG_4978E = global %"class.dropbox::oxygen::nn.42" zeroinitializer, align 8
@_ZN5osgeo4proj3crs13GeographicCRS9EPSG_4267E = global %"class.dropbox::oxygen::nn.46" zeroinitializer, align 8
@_ZN5osgeo4proj3crs13GeographicCRS9EPSG_4269E = global %"class.dropbox::oxygen::nn.46" zeroinitializer, align 8
@_ZN5osgeo4proj3crs13GeographicCRS9EPSG_4326E = global %"class.dropbox::oxygen::nn.46" zeroinitializer, align 8
@_ZN5osgeo4proj3crs13GeographicCRS9OGC_CRS84E = global %"class.dropbox::oxygen::nn.46" zeroinitializer, align 8
@_ZN5osgeo4proj3crs13GeographicCRS9EPSG_4807E = global %"class.dropbox::oxygen::nn.46" zeroinitializer, align 8
@_ZN5osgeo4proj3crs13GeographicCRS9EPSG_4979E = global %"class.dropbox::oxygen::nn.46" zeroinitializer, align 8
@_ZN5osgeo4proj9operation19CoordinateOperation21OPERATION_VERSION_KEYB5cxx11E = global %"class.std::__cxx11::basic_string" zeroinitializer, align 8
@.str.456 = private unnamed_addr constant [17 x i8] c"operationVersion\00", align 1
@_ZN5osgeo4proj9operation11nullMeasureE = hidden global %"class.osgeo::proj::common::Measure" zeroinitializer, align 8
@_ZN5osgeo4proj9operation10INVERSE_OFB5cxx11E = hidden global %"class.std::__cxx11::basic_string" zeroinitializer, align 8
@.str.459 = private unnamed_addr constant [12 x i8] c"Inverse of \00", align 1
@_ZN5osgeo4proj9operation25AXIS_ORDER_CHANGE_2D_NAMEB5cxx11E = hidden global %"class.std::__cxx11::basic_string" zeroinitializer, align 8
@.str.461 = private unnamed_addr constant [23 x i8] c"axis order change (2D)\00", align 1
@_ZN5osgeo4proj9operation25AXIS_ORDER_CHANGE_3D_NAMEB5cxx11E = hidden global %"class.std::__cxx11::basic_string" zeroinitializer, align 8
@.str.463 = private unnamed_addr constant [44 x i8] c"axis order change (geographic3D horizontal)\00", align 1
@__libc_single_threaded = external local_unnamed_addr global i8, align 1
@.str.464 = private unnamed_addr constant [50 x i8] c"basic_string: construction from null is not valid\00", align 1
@.str.465 = private unnamed_addr constant [26 x i8] c"vector::_M_realloc_append\00", align 1
@llvm.global_ctors = appending global [1 x { i32, ptr, ptr }] [{ i32, ptr, ptr } { i32 65535, ptr @_GLOBAL__sub_I_static.cpp, ptr null }]

declare void @_ZN5osgeo4proj4util9NameSpace12createGLOBALEv(ptr dead_on_unwind writable sret(%"class.dropbox::oxygen::nn") align 8) local_unnamed_addr #0

; Function Attrs: inlinehint mustprogress nounwind sspstrong uwtable
define linkonce_odr hidden void @_ZN7dropbox6oxygen2nnISt10shared_ptrIN5osgeo4proj4util9NameSpaceEEED2Ev(ptr noundef nonnull align 8 dereferenceable(16) %0) unnamed_addr #1 comdat align 2 personality ptr @__gxx_personality_v0 {
  %2 = getelementptr inbounds nuw i8, ptr %0, i64 8
  %3 = load ptr, ptr %2, align 8, !tbaa !4
  %4 = icmp eq ptr %3, null
  br i1 %4, label %29, label %5

5:                                                ; preds = %1
  %6 = getelementptr inbounds nuw i8, ptr %3, i64 8
  %7 = load atomic i64, ptr %6 acquire, align 8
  %8 = icmp eq i64 %7, 4294967297
  %9 = trunc i64 %7 to i32
  br i1 %8, label %10, label %18

10:                                               ; preds = %5
  store i32 0, ptr %6, align 8, !tbaa !10
  %11 = getelementptr inbounds nuw i8, ptr %3, i64 12
  store i32 0, ptr %11, align 4, !tbaa !13
  %12 = load ptr, ptr %3, align 8, !tbaa !14
  %13 = getelementptr inbounds nuw i8, ptr %12, i64 16
  %14 = load ptr, ptr %13, align 8
  tail call void %14(ptr noundef nonnull align 8 dereferenceable(16) %3) #20
  %15 = load ptr, ptr %3, align 8, !tbaa !14
  %16 = getelementptr inbounds nuw i8, ptr %15, i64 24
  %17 = load ptr, ptr %16, align 8
  tail call void %17(ptr noundef nonnull align 8 dereferenceable(16) %3) #20
  br label %29

18:                                               ; preds = %5
  %19 = load i8, ptr @__libc_single_threaded, align 1, !tbaa !16
  %20 = icmp eq i8 %19, 0
  br i1 %20, label %23, label %21

21:                                               ; preds = %18
  %22 = add nsw i32 %9, -1
  store i32 %22, ptr %6, align 4, !tbaa !17
  br label %25

23:                                               ; preds = %18
  %24 = atomicrmw volatile add ptr %6, i32 -1 acq_rel, align 4
  br label %25

25:                                               ; preds = %23, %21
  %26 = phi i32 [ %9, %21 ], [ %24, %23 ]
  %27 = icmp eq i32 %26, 1
  br i1 %27, label %28, label %29, !prof !18

28:                                               ; preds = %25
  tail call void @_ZNSt16_Sp_counted_baseILN9__gnu_cxx12_Lock_policyE2EE24_M_release_last_use_coldEv(ptr noundef nonnull align 8 dereferenceable(16) %3) #20
  br label %29

29:                                               ; preds = %28, %25, %10, %1
  ret void
}

; Function Attrs: nofree nounwind
declare i32 @__cxa_atexit(ptr, ptr, ptr) local_unnamed_addr #2

declare i32 @__gxx_personality_v0(...)

; Function Attrs: mustprogress nounwind sspstrong uwtable
declare void @_ZNSt7__cxx1112basic_stringIcSt11char_traitsIcESaIcEED2Ev(ptr noundef nonnull align 8 dereferenceable(32)) unnamed_addr #3 align 2

declare void @_ZN5osgeo4proj8metadata6Extent14createFromBBOXEddddRKNS0_4util8optionalINSt7__cxx1112basic_stringIcSt11char_traitsIcESaIcEEEEE(ptr dead_on_unwind writable sret(%"class.dropbox::oxygen::nn.0") align 8, double noundef, double noundef, double noundef, double noundef, ptr noundef nonnull align 8 dereferenceable(40)) local_unnamed_addr #0

; Function Attrs: inlinehint mustprogress nounwind sspstrong uwtable
define linkonce_odr hidden void @_ZN7dropbox6oxygen2nnISt10shared_ptrIN5osgeo4proj8metadata6ExtentEEED2Ev(ptr noundef nonnull align 8 dereferenceable(16) %0) unnamed_addr #1 comdat align 2 personality ptr @__gxx_personality_v0 {
  %2 = getelementptr inbounds nuw i8, ptr %0, i64 8
  %3 = load ptr, ptr %2, align 8, !tbaa !4
  %4 = icmp eq ptr %3, null
  br i1 %4, label %29, label %5

5:                                                ; preds = %1
  %6 = getelementptr inbounds nuw i8, ptr %3, i64 8
  %7 = load atomic i64, ptr %6 acquire, align 8
  %8 = icmp eq i64 %7, 4294967297
  %9 = trunc i64 %7 to i32
  br i1 %8, label %10, label %18

10:                                               ; preds = %5
  store i32 0, ptr %6, align 8, !tbaa !10
  %11 = getelementptr inbounds nuw i8, ptr %3, i64 12
  store i32 0, ptr %11, align 4, !tbaa !13
  %12 = load ptr, ptr %3, align 8, !tbaa !14
  %13 = getelementptr inbounds nuw i8, ptr %12, i64 16
  %14 = load ptr, ptr %13, align 8
  tail call void %14(ptr noundef nonnull align 8 dereferenceable(16) %3) #20
  %15 = load ptr, ptr %3, align 8, !tbaa !14
  %16 = getelementptr inbounds nuw i8, ptr %15, i64 24
  %17 = load ptr, ptr %16, align 8
  tail call void %17(ptr noundef nonnull align 8 dereferenceable(16) %3) #20
  br label %29

18:                                               ; preds = %5
  %19 = load i8, ptr @__libc_single_threaded, align 1, !tbaa !16
  %20 = icmp eq i8 %19, 0
  br i1 %20, label %23, label %21

21:                                               ; preds = %18
  %22 = add nsw i32 %9, -1
  store i32 %22, ptr %6, align 4, !tbaa !17
  br label %25

23:                                               ; preds = %18
  %24 = atomicrmw volatile add ptr %6, i32 -1 acq_rel, align 4
  br label %25

25:                                               ; preds = %23, %21
  %26 = phi i32 [ %9, %21 ], [ %24, %23 ]
  %27 = icmp eq i32 %26, 1
  br i1 %27, label %28, label %29, !prof !18

28:                                               ; preds = %25
  tail call void @_ZNSt16_Sp_counted_baseILN9__gnu_cxx12_Lock_policyE2EE24_M_release_last_use_coldEv(ptr noundef nonnull align 8 dereferenceable(16) %3) #20
  br label %29

29:                                               ; preds = %28, %25, %10, %1
  ret void
}

; Function Attrs: mustprogress nounwind sspstrong uwtable
define linkonce_odr void @_ZNSt6vectorINSt7__cxx1112basic_stringIcSt11char_traitsIcESaIcEEESaIS5_EED2Ev(ptr noundef nonnull align 8 dereferenceable(24) %0) unnamed_addr #3 comdat align 2 personality ptr @__gxx_personality_v0 {
  %2 = load ptr, ptr %0, align 8, !tbaa !19
  %3 = getelementptr inbounds nuw i8, ptr %0, i64 8
  %4 = load ptr, ptr %3, align 8, !tbaa !22
  %5 = icmp eq ptr %2, %4
  br i1 %5, label %23, label %6

6:                                                ; preds = %18, %1
  %7 = phi ptr [ %19, %18 ], [ %2, %1 ]
  %8 = load ptr, ptr %7, align 8, !tbaa !23
  %9 = getelementptr inbounds nuw i8, ptr %7, i64 16
  %10 = icmp eq ptr %8, %9
  br i1 %10, label %11, label %15

11:                                               ; preds = %6
  %12 = getelementptr inbounds nuw i8, ptr %7, i64 8
  %13 = load i64, ptr %12, align 8, !tbaa !28
  %14 = icmp ult i64 %13, 16
  tail call void @llvm.assume(i1 %14)
  br label %18

15:                                               ; preds = %6
  %16 = load i64, ptr %9, align 8, !tbaa !16
  %17 = add i64 %16, 1
  tail call void @_ZdlPvm(ptr noundef %8, i64 noundef %17) #21
  br label %18

18:                                               ; preds = %15, %11
  %19 = getelementptr inbounds nuw i8, ptr %7, i64 32
  %20 = icmp eq ptr %19, %4
  br i1 %20, label %21, label %6, !llvm.loop !29

21:                                               ; preds = %18
  %22 = load ptr, ptr %0, align 8, !tbaa !19
  br label %23

23:                                               ; preds = %21, %1
  %24 = phi ptr [ %22, %21 ], [ %2, %1 ]
  %25 = icmp eq ptr %24, null
  br i1 %25, label %32, label %26

26:                                               ; preds = %23
  %27 = getelementptr inbounds nuw i8, ptr %0, i64 16
  %28 = load ptr, ptr %27, align 8, !tbaa !31
  %29 = ptrtoint ptr %28 to i64
  %30 = ptrtoint ptr %24 to i64
  %31 = sub i64 %29, %30
  tail call void @_ZdlPvm(ptr noundef nonnull %24, i64 noundef %31) #21
  br label %32

32:                                               ; preds = %26, %23
  ret void
}

; Function Attrs: mustprogress sspstrong uwtable
define hidden noundef ptr @_ZN5osgeo4proj2io12WKTConstants26createAndAddToConstantListEPKc(ptr noundef readonly returned captures(address_is_null, ret: address, provenance) %0) local_unnamed_addr #4 align 2 personality ptr @__gxx_personality_v0 {
  %2 = alloca i64, align 8
  %3 = alloca %"class.std::__cxx11::basic_string", align 8
  call void @llvm.lifetime.start.p0(ptr %3)
  %4 = getelementptr inbounds nuw i8, ptr %3, i64 16
  store ptr %4, ptr %3, align 8, !tbaa !32
  %5 = icmp eq ptr %0, null
  br i1 %5, label %6, label %7

6:                                                ; preds = %1
  call void @_ZSt19__throw_logic_errorPKc(ptr noundef nonnull @.str.464) #22
  unreachable

7:                                                ; preds = %1
  %8 = call noundef i64 @strlen(ptr noundef nonnull dereferenceable(1) %0) #20
  call void @llvm.lifetime.start.p0(ptr %2)
  store i64 %8, ptr %2, align 8, !tbaa !33
  %9 = icmp ugt i64 %8, 15
  br i1 %9, label %10, label %13

10:                                               ; preds = %7
  %11 = call noundef ptr @_ZNSt7__cxx1112basic_stringIcSt11char_traitsIcESaIcEE9_M_createERmm(ptr noundef nonnull align 8 dereferenceable(32) %3, ptr noundef nonnull align 8 dereferenceable(8) %2, i64 noundef 0)
  store ptr %11, ptr %3, align 8, !tbaa !23
  %12 = load i64, ptr %2, align 8, !tbaa !33
  store i64 %12, ptr %4, align 8, !tbaa !16
  br label %13

13:                                               ; preds = %10, %7
  %14 = phi ptr [ %11, %10 ], [ %4, %7 ]
  switch i64 %8, label %17 [
    i64 1, label %15
    i64 0, label %18
  ]

15:                                               ; preds = %13
  %16 = load i8, ptr %0, align 1, !tbaa !16
  store i8 %16, ptr %14, align 1, !tbaa !16
  br label %18

17:                                               ; preds = %13
  call void @llvm.memcpy.p0.p0.i64(ptr align 1 %14, ptr nonnull align 1 %0, i64 %8, i1 false)
  br label %18

18:                                               ; preds = %17, %15, %13
  %19 = load i64, ptr %2, align 8, !tbaa !33
  %20 = getelementptr inbounds nuw i8, ptr %3, i64 8
  store i64 %19, ptr %20, align 8, !tbaa !28
  %21 = load ptr, ptr %3, align 8, !tbaa !23
  %22 = getelementptr inbounds nuw i8, ptr %21, i64 %19
  store i8 0, ptr %22, align 1, !tbaa !16
  call void @llvm.lifetime.end.p0(ptr %2)
  %23 = load ptr, ptr getelementptr inbounds nuw (i8, ptr @_ZN5osgeo4proj2io12WKTConstants10constants_B5cxx11E, i64 8), align 8, !tbaa !22
  %24 = load ptr, ptr getelementptr inbounds nuw (i8, ptr @_ZN5osgeo4proj2io12WKTConstants10constants_B5cxx11E, i64 16), align 8, !tbaa !31
  %25 = icmp eq ptr %23, %24
  br i1 %25, label %42, label %26

26:                                               ; preds = %18
  %27 = getelementptr inbounds nuw i8, ptr %23, i64 16
  store ptr %27, ptr %23, align 8, !tbaa !32
  %28 = load ptr, ptr %3, align 8, !tbaa !23
  %29 = icmp eq ptr %28, %4
  br i1 %29, label %30, label %34

30:                                               ; preds = %26
  %31 = load i64, ptr %20, align 8, !tbaa !28
  %32 = icmp ult i64 %31, 16
  call void @llvm.assume(i1 %32)
  %33 = add nuw nsw i64 %31, 1
  call void @llvm.memcpy.p0.p0.i64(ptr noundef nonnull align 8 dereferenceable(1) %27, ptr noundef nonnull align 8 dereferenceable(1) %4, i64 %33, i1 false)
  br label %37

34:                                               ; preds = %26
  store ptr %28, ptr %23, align 8, !tbaa !23
  %35 = load i64, ptr %4, align 8, !tbaa !16
  store i64 %35, ptr %27, align 8, !tbaa !16
  %36 = load i64, ptr %20, align 8, !tbaa !28
  br label %37

37:                                               ; preds = %34, %30
  %38 = phi i64 [ %36, %34 ], [ %31, %30 ]
  %39 = icmp ult i64 %38, 9223372036854775807
  call void @llvm.assume(i1 %39)
  %40 = getelementptr inbounds nuw i8, ptr %23, i64 8
  store i64 %38, ptr %40, align 8, !tbaa !28
  store i64 0, ptr %20, align 8, !tbaa !28
  %41 = getelementptr inbounds nuw i8, ptr %23, i64 32
  store ptr %41, ptr getelementptr inbounds nuw (i8, ptr @_ZN5osgeo4proj2io12WKTConstants10constants_B5cxx11E, i64 8), align 8, !tbaa !22
  br label %46

42:                                               ; preds = %18
  invoke void @_ZNSt6vectorINSt7__cxx1112basic_stringIcSt11char_traitsIcESaIcEEESaIS5_EE17_M_realloc_appendIJS5_EEEvDpOT_(ptr noundef nonnull align 8 dereferenceable(24) @_ZN5osgeo4proj2io12WKTConstants10constants_B5cxx11E, ptr noundef nonnull align 8 dereferenceable(32) %3)
          to label %43 unwind label %53

43:                                               ; preds = %42
  %44 = load ptr, ptr %3, align 8, !tbaa !23
  %45 = icmp eq ptr %44, %4
  br i1 %45, label %46, label %49

46:                                               ; preds = %43, %37
  %47 = load i64, ptr %20, align 8, !tbaa !28
  %48 = icmp ult i64 %47, 16
  call void @llvm.assume(i1 %48)
  br label %52

49:                                               ; preds = %43
  %50 = load i64, ptr %4, align 8, !tbaa !16
  %51 = add i64 %50, 1
  call void @_ZdlPvm(ptr noundef %44, i64 noundef %51) #21
  br label %52

52:                                               ; preds = %49, %46
  call void @llvm.lifetime.end.p0(ptr %3)
  ret ptr %0

53:                                               ; preds = %42
  %54 = landingpad { ptr, i32 }
          cleanup
  %55 = load ptr, ptr %3, align 8, !tbaa !23
  %56 = icmp eq ptr %55, %4
  br i1 %56, label %57, label %60

57:                                               ; preds = %53
  %58 = load i64, ptr %20, align 8, !tbaa !28
  %59 = icmp ult i64 %58, 16
  call void @llvm.assume(i1 %59)
  br label %63

60:                                               ; preds = %53
  %61 = load i64, ptr %4, align 8, !tbaa !16
  %62 = add i64 %61, 1
  call void @_ZdlPvm(ptr noundef %55, i64 noundef %62) #21
  br label %63

63:                                               ; preds = %60, %57
  call void @llvm.lifetime.end.p0(ptr %3)
  resume { ptr, i32 } %54
}

declare void @_ZN5osgeo4proj6common13UnitOfMeasureC1ERKNSt7__cxx1112basic_stringIcSt11char_traitsIcESaIcEEEdNS2_4TypeESA_SA_(ptr noundef nonnull align 8 dereferenceable(24), ptr noundef nonnull align 8 dereferenceable(32), double noundef, i32 noundef, ptr noundef nonnull align 8 dereferenceable(32), ptr noundef nonnull align 8 dereferenceable(32)) unnamed_addr #0

; Function Attrs: nounwind
declare void @_ZN5osgeo4proj6common13UnitOfMeasureD1Ev(ptr noundef nonnull align 8 dereferenceable(24)) unnamed_addr #5

; Function Attrs: mustprogress nounwind sspstrong uwtable
define linkonce_odr hidden void @_ZNSt3mapINSt7__cxx1112basic_stringIcSt11char_traitsIcESaIcEEEPKN5osgeo4proj2cs13AxisDirectionESt4lessIS5_ESaISt4pairIKS5_SB_EEED2Ev(ptr noundef nonnull align 8 dereferenceable(48) %0) unnamed_addr #3 comdat align 2 personality ptr @__gxx_personality_v0 {
  %2 = getelementptr inbounds nuw i8, ptr %0, i64 16
  %3 = load ptr, ptr %2, align 8, !tbaa !34
  invoke void @_ZNSt8_Rb_treeINSt7__cxx1112basic_stringIcSt11char_traitsIcESaIcEEESt4pairIKS5_PKN5osgeo4proj2cs13AxisDirectionEESt10_Select1stISE_ESt4lessIS5_ESaISE_EE8_M_eraseEPSt13_Rb_tree_nodeISE_E(ptr noundef nonnull align 8 dereferenceable(48) %0, ptr noundef %3)
          to label %7 unwind label %4

4:                                                ; preds = %1
  %5 = landingpad { ptr, i32 }
          catch ptr null
  %6 = extractvalue { ptr, i32 } %5, 0
  tail call void @__clang_call_terminate(ptr %6) #23
  unreachable

7:                                                ; preds = %1
  ret void
}

declare void @_ZN5osgeo4proj2cs13AxisDirectionC1ERKNSt7__cxx1112basic_stringIcSt11char_traitsIcESaIcEEE(ptr noundef nonnull align 8 dereferenceable(32), ptr noundef nonnull align 8 dereferenceable(32)) unnamed_addr #0

; Function Attrs: mustprogress nounwind sspstrong uwtable
define linkonce_odr hidden void @_ZNSt3mapINSt7__cxx1112basic_stringIcSt11char_traitsIcESaIcEEEPKN5osgeo4proj2cs12RangeMeaningESt4lessIS5_ESaISt4pairIKS5_SB_EEED2Ev(ptr noundef nonnull align 8 dereferenceable(48) %0) unnamed_addr #3 comdat align 2 personality ptr @__gxx_personality_v0 {
  %2 = getelementptr inbounds nuw i8, ptr %0, i64 16
  %3 = load ptr, ptr %2, align 8, !tbaa !34
  invoke void @_ZNSt8_Rb_treeINSt7__cxx1112basic_stringIcSt11char_traitsIcESaIcEEESt4pairIKS5_PKN5osgeo4proj2cs12RangeMeaningEESt10_Select1stISE_ESt4lessIS5_ESaISE_EE8_M_eraseEPSt13_Rb_tree_nodeISE_E(ptr noundef nonnull align 8 dereferenceable(48) %0, ptr noundef %3)
          to label %7 unwind label %4

4:                                                ; preds = %1
  %5 = landingpad { ptr, i32 }
          catch ptr null
  %6 = extractvalue { ptr, i32 } %5, 0
  tail call void @__clang_call_terminate(ptr %6) #23
  unreachable

7:                                                ; preds = %1
  ret void
}

declare void @_ZN5osgeo4proj2cs12RangeMeaningC1ERKNSt7__cxx1112basic_stringIcSt11char_traitsIcESaIcEEE(ptr noundef nonnull align 8 dereferenceable(32), ptr noundef nonnull align 8 dereferenceable(32)) unnamed_addr #0

; Function Attrs: mustprogress nounwind sspstrong uwtable
define linkonce_odr hidden void @_ZNSt3mapINSt7__cxx1112basic_stringIcSt11char_traitsIcESaIcEEEPKN5osgeo4proj2cs17AxisDirectionWKT1ESt4lessIS5_ESaISt4pairIKS5_SB_EEED2Ev(ptr noundef nonnull align 8 dereferenceable(48) %0) unnamed_addr #3 comdat align 2 personality ptr @__gxx_personality_v0 {
  %2 = getelementptr inbounds nuw i8, ptr %0, i64 16
  %3 = load ptr, ptr %2, align 8, !tbaa !34
  invoke void @_ZNSt8_Rb_treeINSt7__cxx1112basic_stringIcSt11char_traitsIcESaIcEEESt4pairIKS5_PKN5osgeo4proj2cs17AxisDirectionWKT1EESt10_Select1stISE_ESt4lessIS5_ESaISE_EE8_M_eraseEPSt13_Rb_tree_nodeISE_E(ptr noundef nonnull align 8 dereferenceable(48) %0, ptr noundef %3)
          to label %7 unwind label %4

4:                                                ; preds = %1
  %5 = landingpad { ptr, i32 }
          catch ptr null
  %6 = extractvalue { ptr, i32 } %5, 0
  tail call void @__clang_call_terminate(ptr %6) #23
  unreachable

7:                                                ; preds = %1
  ret void
}

declare void @_ZN5osgeo4proj2cs17AxisDirectionWKT1C1ERKNSt7__cxx1112basic_stringIcSt11char_traitsIcESaIcEEE(ptr noundef nonnull align 8 dereferenceable(32), ptr noundef nonnull align 8 dereferenceable(32)) unnamed_addr #0

declare void @_ZN5osgeo4proj5datum17RealizationMethodC1ERKNSt7__cxx1112basic_stringIcSt11char_traitsIcESaIcEEE(ptr noundef nonnull align 8 dereferenceable(32), ptr noundef nonnull align 8 dereferenceable(32)) unnamed_addr #0

; Function Attrs: nounwind
declare void @_ZN5osgeo4proj4util8CodeListD2Ev(ptr noundef nonnull align 8 dereferenceable(32)) unnamed_addr #5

declare hidden void @_ZN5osgeo4proj5datum13PrimeMeridian15createGREENWICHEv(ptr dead_on_unwind writable sret(%"class.dropbox::oxygen::nn.30") align 8) local_unnamed_addr #0

; Function Attrs: inlinehint mustprogress nounwind sspstrong uwtable
define linkonce_odr hidden void @_ZN7dropbox6oxygen2nnISt10shared_ptrIN5osgeo4proj5datum13PrimeMeridianEEED2Ev(ptr noundef nonnull align 8 dereferenceable(16) %0) unnamed_addr #1 comdat align 2 personality ptr @__gxx_personality_v0 {
  %2 = getelementptr inbounds nuw i8, ptr %0, i64 8
  %3 = load ptr, ptr %2, align 8, !tbaa !4
  %4 = icmp eq ptr %3, null
  br i1 %4, label %29, label %5

5:                                                ; preds = %1
  %6 = getelementptr inbounds nuw i8, ptr %3, i64 8
  %7 = load atomic i64, ptr %6 acquire, align 8
  %8 = icmp eq i64 %7, 4294967297
  %9 = trunc i64 %7 to i32
  br i1 %8, label %10, label %18

10:                                               ; preds = %5
  store i32 0, ptr %6, align 8, !tbaa !10
  %11 = getelementptr inbounds nuw i8, ptr %3, i64 12
  store i32 0, ptr %11, align 4, !tbaa !13
  %12 = load ptr, ptr %3, align 8, !tbaa !14
  %13 = getelementptr inbounds nuw i8, ptr %12, i64 16
  %14 = load ptr, ptr %13, align 8
  tail call void %14(ptr noundef nonnull align 8 dereferenceable(16) %3) #20
  %15 = load ptr, ptr %3, align 8, !tbaa !14
  %16 = getelementptr inbounds nuw i8, ptr %15, i64 24
  %17 = load ptr, ptr %16, align 8
  tail call void %17(ptr noundef nonnull align 8 dereferenceable(16) %3) #20
  br label %29

18:                                               ; preds = %5
  %19 = load i8, ptr @__libc_single_threaded, align 1, !tbaa !16
  %20 = icmp eq i8 %19, 0
  br i1 %20, label %23, label %21

21:                                               ; preds = %18
  %22 = add nsw i32 %9, -1
  store i32 %22, ptr %6, align 4, !tbaa !17
  br label %25

23:                                               ; preds = %18
  %24 = atomicrmw volatile add ptr %6, i32 -1 acq_rel, align 4
  br label %25

25:                                               ; preds = %23, %21
  %26 = phi i32 [ %9, %21 ], [ %24, %23 ]
  %27 = icmp eq i32 %26, 1
  br i1 %27, label %28, label %29, !prof !18

28:                                               ; preds = %25
  tail call void @_ZNSt16_Sp_counted_baseILN9__gnu_cxx12_Lock_policyE2EE24_M_release_last_use_coldEv(ptr noundef nonnull align 8 dereferenceable(16) %3) #20
  br label %29

29:                                               ; preds = %28, %25, %10, %1
  ret void
}

declare hidden void @_ZN5osgeo4proj5datum13PrimeMeridian24createREFERENCE_MERIDIANEv(ptr dead_on_unwind writable sret(%"class.dropbox::oxygen::nn.30") align 8) local_unnamed_addr #0

declare hidden void @_ZN5osgeo4proj5datum13PrimeMeridian11createPARISEv(ptr dead_on_unwind writable sret(%"class.dropbox::oxygen::nn.30") align 8) local_unnamed_addr #0

declare hidden void @_ZN5osgeo4proj5datum9Ellipsoid17createCLARKE_1866Ev(ptr dead_on_unwind writable sret(%"class.dropbox::oxygen::nn.34") align 8) local_unnamed_addr #0

; Function Attrs: inlinehint mustprogress nounwind sspstrong uwtable
define linkonce_odr hidden void @_ZN7dropbox6oxygen2nnISt10shared_ptrIN5osgeo4proj5datum9EllipsoidEEED2Ev(ptr noundef nonnull align 8 dereferenceable(16) %0) unnamed_addr #1 comdat align 2 personality ptr @__gxx_personality_v0 {
  %2 = getelementptr inbounds nuw i8, ptr %0, i64 8
  %3 = load ptr, ptr %2, align 8, !tbaa !4
  %4 = icmp eq ptr %3, null
  br i1 %4, label %29, label %5

5:                                                ; preds = %1
  %6 = getelementptr inbounds nuw i8, ptr %3, i64 8
  %7 = load atomic i64, ptr %6 acquire, align 8
  %8 = icmp eq i64 %7, 4294967297
  %9 = trunc i64 %7 to i32
  br i1 %8, label %10, label %18

10:                                               ; preds = %5
  store i32 0, ptr %6, align 8, !tbaa !10
  %11 = getelementptr inbounds nuw i8, ptr %3, i64 12
  store i32 0, ptr %11, align 4, !tbaa !13
  %12 = load ptr, ptr %3, align 8, !tbaa !14
  %13 = getelementptr inbounds nuw i8, ptr %12, i64 16
  %14 = load ptr, ptr %13, align 8
  tail call void %14(ptr noundef nonnull align 8 dereferenceable(16) %3) #20
  %15 = load ptr, ptr %3, align 8, !tbaa !14
  %16 = getelementptr inbounds nuw i8, ptr %15, i64 24
  %17 = load ptr, ptr %16, align 8
  tail call void %17(ptr noundef nonnull align 8 dereferenceable(16) %3) #20
  br label %29

18:                                               ; preds = %5
  %19 = load i8, ptr @__libc_single_threaded, align 1, !tbaa !16
  %20 = icmp eq i8 %19, 0
  br i1 %20, label %23, label %21

21:                                               ; preds = %18
  %22 = add nsw i32 %9, -1
  store i32 %22, ptr %6, align 4, !tbaa !17
  br label %25

23:                                               ; preds = %18
  %24 = atomicrmw volatile add ptr %6, i32 -1 acq_rel, align 4
  br label %25

25:                                               ; preds = %23, %21
  %26 = phi i32 [ %9, %21 ], [ %24, %23 ]
  %27 = icmp eq i32 %26, 1
  br i1 %27, label %28, label %29, !prof !18

28:                                               ; preds = %25
  tail call void @_ZNSt16_Sp_counted_baseILN9__gnu_cxx12_Lock_policyE2EE24_M_release_last_use_coldEv(ptr noundef nonnull align 8 dereferenceable(16) %3) #20
  br label %29

29:                                               ; preds = %28, %25, %10, %1
  ret void
}

declare hidden void @_ZN5osgeo4proj5datum9Ellipsoid11createWGS84Ev(ptr dead_on_unwind writable sret(%"class.dropbox::oxygen::nn.34") align 8) local_unnamed_addr #0

declare hidden void @_ZN5osgeo4proj5datum9Ellipsoid13createGRS1980Ev(ptr dead_on_unwind writable sret(%"class.dropbox::oxygen::nn.34") align 8) local_unnamed_addr #0

declare hidden void @_ZN5osgeo4proj5datum22GeodeticReferenceFrame15createEPSG_6267Ev(ptr dead_on_unwind writable sret(%"class.dropbox::oxygen::nn.38") align 8) local_unnamed_addr #0

; Function Attrs: inlinehint mustprogress nounwind sspstrong uwtable
define linkonce_odr hidden void @_ZN7dropbox6oxygen2nnISt10shared_ptrIN5osgeo4proj5datum22GeodeticReferenceFrameEEED2Ev(ptr noundef nonnull align 8 dereferenceable(16) %0) unnamed_addr #1 comdat align 2 personality ptr @__gxx_personality_v0 {
  %2 = getelementptr inbounds nuw i8, ptr %0, i64 8
  %3 = load ptr, ptr %2, align 8, !tbaa !4
  %4 = icmp eq ptr %3, null
  br i1 %4, label %29, label %5

5:                                                ; preds = %1
  %6 = getelementptr inbounds nuw i8, ptr %3, i64 8
  %7 = load atomic i64, ptr %6 acquire, align 8
  %8 = icmp eq i64 %7, 4294967297
  %9 = trunc i64 %7 to i32
  br i1 %8, label %10, label %18

10:                                               ; preds = %5
  store i32 0, ptr %6, align 8, !tbaa !10
  %11 = getelementptr inbounds nuw i8, ptr %3, i64 12
  store i32 0, ptr %11, align 4, !tbaa !13
  %12 = load ptr, ptr %3, align 8, !tbaa !14
  %13 = getelementptr inbounds nuw i8, ptr %12, i64 16
  %14 = load ptr, ptr %13, align 8
  tail call void %14(ptr noundef nonnull align 8 dereferenceable(16) %3) #20
  %15 = load ptr, ptr %3, align 8, !tbaa !14
  %16 = getelementptr inbounds nuw i8, ptr %15, i64 24
  %17 = load ptr, ptr %16, align 8
  tail call void %17(ptr noundef nonnull align 8 dereferenceable(16) %3) #20
  br label %29

18:                                               ; preds = %5
  %19 = load i8, ptr @__libc_single_threaded, align 1, !tbaa !16
  %20 = icmp eq i8 %19, 0
  br i1 %20, label %23, label %21

21:                                               ; preds = %18
  %22 = add nsw i32 %9, -1
  store i32 %22, ptr %6, align 4, !tbaa !17
  br label %25

23:                                               ; preds = %18
  %24 = atomicrmw volatile add ptr %6, i32 -1 acq_rel, align 4
  br label %25

25:                                               ; preds = %23, %21
  %26 = phi i32 [ %9, %21 ], [ %24, %23 ]
  %27 = icmp eq i32 %26, 1
  br i1 %27, label %28, label %29, !prof !18

28:                                               ; preds = %25
  tail call void @_ZNSt16_Sp_counted_baseILN9__gnu_cxx12_Lock_policyE2EE24_M_release_last_use_coldEv(ptr noundef nonnull align 8 dereferenceable(16) %3) #20
  br label %29

29:                                               ; preds = %28, %25, %10, %1
  ret void
}

declare hidden void @_ZN5osgeo4proj5datum22GeodeticReferenceFrame15createEPSG_6269Ev(ptr dead_on_unwind writable sret(%"class.dropbox::oxygen::nn.38") align 8) local_unnamed_addr #0

declare hidden void @_ZN5osgeo4proj5datum22GeodeticReferenceFrame15createEPSG_6326Ev(ptr dead_on_unwind writable sret(%"class.dropbox::oxygen::nn.38") align 8) local_unnamed_addr #0

declare hidden void @_ZN5osgeo4proj3crs11GeodeticCRS15createEPSG_4978Ev(ptr dead_on_unwind writable sret(%"class.dropbox::oxygen::nn.42") align 8) local_unnamed_addr #0

; Function Attrs: inlinehint mustprogress nounwind sspstrong uwtable
define linkonce_odr hidden void @_ZN7dropbox6oxygen2nnISt10shared_ptrIN5osgeo4proj3crs11GeodeticCRSEEED2Ev(ptr noundef nonnull align 8 dereferenceable(16) %0) unnamed_addr #1 comdat align 2 personality ptr @__gxx_personality_v0 {
  %2 = getelementptr inbounds nuw i8, ptr %0, i64 8
  %3 = load ptr, ptr %2, align 8, !tbaa !4
  %4 = icmp eq ptr %3, null
  br i1 %4, label %29, label %5

5:                                                ; preds = %1
  %6 = getelementptr inbounds nuw i8, ptr %3, i64 8
  %7 = load atomic i64, ptr %6 acquire, align 8
  %8 = icmp eq i64 %7, 4294967297
  %9 = trunc i64 %7 to i32
  br i1 %8, label %10, label %18

10:                                               ; preds = %5
  store i32 0, ptr %6, align 8, !tbaa !10
  %11 = getelementptr inbounds nuw i8, ptr %3, i64 12
  store i32 0, ptr %11, align 4, !tbaa !13
  %12 = load ptr, ptr %3, align 8, !tbaa !14
  %13 = getelementptr inbounds nuw i8, ptr %12, i64 16
  %14 = load ptr, ptr %13, align 8
  tail call void %14(ptr noundef nonnull align 8 dereferenceable(16) %3) #20
  %15 = load ptr, ptr %3, align 8, !tbaa !14
  %16 = getelementptr inbounds nuw i8, ptr %15, i64 24
  %17 = load ptr, ptr %16, align 8
  tail call void %17(ptr noundef nonnull align 8 dereferenceable(16) %3) #20
  br label %29

18:                                               ; preds = %5
  %19 = load i8, ptr @__libc_single_threaded, align 1, !tbaa !16
  %20 = icmp eq i8 %19, 0
  br i1 %20, label %23, label %21

21:                                               ; preds = %18
  %22 = add nsw i32 %9, -1
  store i32 %22, ptr %6, align 4, !tbaa !17
  br label %25

23:                                               ; preds = %18
  %24 = atomicrmw volatile add ptr %6, i32 -1 acq_rel, align 4
  br label %25

25:                                               ; preds = %23, %21
  %26 = phi i32 [ %9, %21 ], [ %24, %23 ]
  %27 = icmp eq i32 %26, 1
  br i1 %27, label %28, label %29, !prof !18

28:                                               ; preds = %25
  tail call void @_ZNSt16_Sp_counted_baseILN9__gnu_cxx12_Lock_policyE2EE24_M_release_last_use_coldEv(ptr noundef nonnull align 8 dereferenceable(16) %3) #20
  br label %29

29:                                               ; preds = %28, %25, %10, %1
  ret void
}

declare hidden void @_ZN5osgeo4proj3crs13GeographicCRS15createEPSG_4267Ev(ptr dead_on_unwind writable sret(%"class.dropbox::oxygen::nn.46") align 8) local_unnamed_addr #0

; Function Attrs: inlinehint mustprogress nounwind sspstrong uwtable
define linkonce_odr hidden void @_ZN7dropbox6oxygen2nnISt10shared_ptrIN5osgeo4proj3crs13GeographicCRSEEED2Ev(ptr noundef nonnull align 8 dereferenceable(16) %0) unnamed_addr #1 comdat align 2 personality ptr @__gxx_personality_v0 {
  %2 = getelementptr inbounds nuw i8, ptr %0, i64 8
  %3 = load ptr, ptr %2, align 8, !tbaa !4
  %4 = icmp eq ptr %3, null
  br i1 %4, label %29, label %5

5:                                                ; preds = %1
  %6 = getelementptr inbounds nuw i8, ptr %3, i64 8
  %7 = load atomic i64, ptr %6 acquire, align 8
  %8 = icmp eq i64 %7, 4294967297
  %9 = trunc i64 %7 to i32
  br i1 %8, label %10, label %18

10:                                               ; preds = %5
  store i32 0, ptr %6, align 8, !tbaa !10
  %11 = getelementptr inbounds nuw i8, ptr %3, i64 12
  store i32 0, ptr %11, align 4, !tbaa !13
  %12 = load ptr, ptr %3, align 8, !tbaa !14
  %13 = getelementptr inbounds nuw i8, ptr %12, i64 16
  %14 = load ptr, ptr %13, align 8
  tail call void %14(ptr noundef nonnull align 8 dereferenceable(16) %3) #20
  %15 = load ptr, ptr %3, align 8, !tbaa !14
  %16 = getelementptr inbounds nuw i8, ptr %15, i64 24
  %17 = load ptr, ptr %16, align 8
  tail call void %17(ptr noundef nonnull align 8 dereferenceable(16) %3) #20
  br label %29

18:                                               ; preds = %5
  %19 = load i8, ptr @__libc_single_threaded, align 1, !tbaa !16
  %20 = icmp eq i8 %19, 0
  br i1 %20, label %23, label %21

21:                                               ; preds = %18
  %22 = add nsw i32 %9, -1
  store i32 %22, ptr %6, align 4, !tbaa !17
  br label %25

23:                                               ; preds = %18
  %24 = atomicrmw volatile add ptr %6, i32 -1 acq_rel, align 4
  br label %25

25:                                               ; preds = %23, %21
  %26 = phi i32 [ %9, %21 ], [ %24, %23 ]
  %27 = icmp eq i32 %26, 1
  br i1 %27, label %28, label %29, !prof !18

28:                                               ; preds = %25
  tail call void @_ZNSt16_Sp_counted_baseILN9__gnu_cxx12_Lock_policyE2EE24_M_release_last_use_coldEv(ptr noundef nonnull align 8 dereferenceable(16) %3) #20
  br label %29

29:                                               ; preds = %28, %25, %10, %1
  ret void
}

declare hidden void @_ZN5osgeo4proj3crs13GeographicCRS15createEPSG_4269Ev(ptr dead_on_unwind writable sret(%"class.dropbox::oxygen::nn.46") align 8) local_unnamed_addr #0

declare hidden void @_ZN5osgeo4proj3crs13GeographicCRS15createEPSG_4326Ev(ptr dead_on_unwind writable sret(%"class.dropbox::oxygen::nn.46") align 8) local_unnamed_addr #0

declare hidden void @_ZN5osgeo4proj3crs13GeographicCRS15createOGC_CRS84Ev(ptr dead_on_unwind writable sret(%"class.dropbox::oxygen::nn.46") align 8) local_unnamed_addr #0

declare hidden void @_ZN5osgeo4proj3crs13GeographicCRS15createEPSG_4807Ev(ptr dead_on_unwind writable sret(%"class.dropbox::oxygen::nn.46") align 8) local_unnamed_addr #0

declare hidden void @_ZN5osgeo4proj3crs13GeographicCRS15createEPSG_4979Ev(ptr dead_on_unwind writable sret(%"class.dropbox::oxygen::nn.46") align 8) local_unnamed_addr #0

declare void @_ZN5osgeo4proj6common7MeasureC1EdRKNS1_13UnitOfMeasureE(ptr noundef nonnull align 8 dereferenceable(24), double noundef, ptr noundef nonnull align 8 dereferenceable(24)) unnamed_addr #0

; Function Attrs: nounwind
declare void @_ZN5osgeo4proj6common7MeasureD1Ev(ptr noundef nonnull align 8 dereferenceable(24)) unnamed_addr #5

; Function Attrs: noinline noreturn nounwind sspstrong uwtable
define linkonce_odr hidden void @__clang_call_terminate(ptr noundef %0) local_unnamed_addr #6 comdat {
  %2 = tail call ptr @__cxa_begin_catch(ptr %0) #20
  tail call void @_ZSt9terminatev() #23
  unreachable
}

declare ptr @__cxa_begin_catch(ptr) local_unnamed_addr

; Function Attrs: cold nofree noreturn
declare void @_ZSt9terminatev() local_unnamed_addr #7

; Function Attrs: mustprogress noinline nounwind sspstrong uwtable
define linkonce_odr void @_ZNSt16_Sp_counted_baseILN9__gnu_cxx12_Lock_policyE2EE24_M_release_last_use_coldEv(ptr noundef nonnull align 8 dereferenceable(16) %0) local_unnamed_addr #8 comdat align 2 personality ptr @__gxx_personality_v0 {
  %2 = load ptr, ptr %0, align 8, !tbaa !14
  %3 = getelementptr inbounds nuw i8, ptr %2, i64 16
  %4 = load ptr, ptr %3, align 8
  tail call void %4(ptr noundef nonnull align 8 dereferenceable(16) %0) #20
  %5 = getelementptr inbounds nuw i8, ptr %0, i64 12
  %6 = load i8, ptr @__libc_single_threaded, align 1, !tbaa !16
  %7 = icmp eq i8 %6, 0
  br i1 %7, label %11, label %8

8:                                                ; preds = %1
  %9 = load i32, ptr %5, align 4, !tbaa !17
  %10 = add nsw i32 %9, -1
  store i32 %10, ptr %5, align 4, !tbaa !17
  br label %13

11:                                               ; preds = %1
  %12 = atomicrmw volatile add ptr %5, i32 -1 acq_rel, align 4
  br label %13

13:                                               ; preds = %11, %8
  %14 = phi i32 [ %9, %8 ], [ %12, %11 ]
  %15 = icmp eq i32 %14, 1
  br i1 %15, label %16, label %20

16:                                               ; preds = %13
  %17 = load ptr, ptr %0, align 8, !tbaa !14
  %18 = getelementptr inbounds nuw i8, ptr %17, i64 24
  %19 = load ptr, ptr %18, align 8
  tail call void %19(ptr noundef nonnull align 8 dereferenceable(16) %0) #20
  br label %20

20:                                               ; preds = %16, %13
  ret void
}

; Function Attrs: mustprogress sspstrong uwtable
define linkonce_odr hidden void @_ZNSt8_Rb_treeINSt7__cxx1112basic_stringIcSt11char_traitsIcESaIcEEESt4pairIKS5_PKN5osgeo4proj2cs13AxisDirectionEESt10_Select1stISE_ESt4lessIS5_ESaISE_EE8_M_eraseEPSt13_Rb_tree_nodeISE_E(ptr noundef nonnull align 8 dereferenceable(48) %0, ptr noundef %1) local_unnamed_addr #4 comdat align 2 personality ptr @__gxx_personality_v0 {
  %3 = icmp eq ptr %1, null
  br i1 %3, label %23, label %4

4:                                                ; preds = %21, %2
  %5 = phi ptr [ %9, %21 ], [ %1, %2 ]
  %6 = getelementptr inbounds nuw i8, ptr %5, i64 24
  %7 = load ptr, ptr %6, align 8, !tbaa !39
  tail call void @_ZNSt8_Rb_treeINSt7__cxx1112basic_stringIcSt11char_traitsIcESaIcEEESt4pairIKS5_PKN5osgeo4proj2cs13AxisDirectionEESt10_Select1stISE_ESt4lessIS5_ESaISE_EE8_M_eraseEPSt13_Rb_tree_nodeISE_E(ptr noundef nonnull align 8 dereferenceable(48) %0, ptr noundef %7)
  %8 = getelementptr inbounds nuw i8, ptr %5, i64 16
  %9 = load ptr, ptr %8, align 8, !tbaa !40
  %10 = getelementptr inbounds nuw i8, ptr %5, i64 32
  %11 = load ptr, ptr %10, align 8, !tbaa !23
  %12 = getelementptr inbounds nuw i8, ptr %5, i64 48
  %13 = icmp eq ptr %11, %12
  br i1 %13, label %14, label %18

14:                                               ; preds = %4
  %15 = getelementptr inbounds nuw i8, ptr %5, i64 40
  %16 = load i64, ptr %15, align 8, !tbaa !28
  %17 = icmp ult i64 %16, 16
  tail call void @llvm.assume(i1 %17)
  br label %21

18:                                               ; preds = %4
  %19 = load i64, ptr %12, align 8, !tbaa !16
  %20 = add i64 %19, 1
  tail call void @_ZdlPvm(ptr noundef %11, i64 noundef %20) #21
  br label %21

21:                                               ; preds = %18, %14
  tail call void @_ZdlPvm(ptr noundef nonnull %5, i64 noundef 72) #21
  %22 = icmp eq ptr %9, null
  br i1 %22, label %23, label %4, !llvm.loop !41

23:                                               ; preds = %21, %2
  ret void
}

; Function Attrs: nobuiltin nounwind
declare void @_ZdlPvm(ptr noundef, i64 noundef) local_unnamed_addr #9

; Function Attrs: mustprogress sspstrong uwtable
define linkonce_odr hidden void @_ZNSt8_Rb_treeINSt7__cxx1112basic_stringIcSt11char_traitsIcESaIcEEESt4pairIKS5_PKN5osgeo4proj2cs12RangeMeaningEESt10_Select1stISE_ESt4lessIS5_ESaISE_EE8_M_eraseEPSt13_Rb_tree_nodeISE_E(ptr noundef nonnull align 8 dereferenceable(48) %0, ptr noundef %1) local_unnamed_addr #4 comdat align 2 personality ptr @__gxx_personality_v0 {
  %3 = icmp eq ptr %1, null
  br i1 %3, label %23, label %4

4:                                                ; preds = %21, %2
  %5 = phi ptr [ %9, %21 ], [ %1, %2 ]
  %6 = getelementptr inbounds nuw i8, ptr %5, i64 24
  %7 = load ptr, ptr %6, align 8, !tbaa !39
  tail call void @_ZNSt8_Rb_treeINSt7__cxx1112basic_stringIcSt11char_traitsIcESaIcEEESt4pairIKS5_PKN5osgeo4proj2cs12RangeMeaningEESt10_Select1stISE_ESt4lessIS5_ESaISE_EE8_M_eraseEPSt13_Rb_tree_nodeISE_E(ptr noundef nonnull align 8 dereferenceable(48) %0, ptr noundef %7)
  %8 = getelementptr inbounds nuw i8, ptr %5, i64 16
  %9 = load ptr, ptr %8, align 8, !tbaa !40
  %10 = getelementptr inbounds nuw i8, ptr %5, i64 32
  %11 = load ptr, ptr %10, align 8, !tbaa !23
  %12 = getelementptr inbounds nuw i8, ptr %5, i64 48
  %13 = icmp eq ptr %11, %12
  br i1 %13, label %14, label %18

14:                                               ; preds = %4
  %15 = getelementptr inbounds nuw i8, ptr %5, i64 40
  %16 = load i64, ptr %15, align 8, !tbaa !28
  %17 = icmp ult i64 %16, 16
  tail call void @llvm.assume(i1 %17)
  br label %21

18:                                               ; preds = %4
  %19 = load i64, ptr %12, align 8, !tbaa !16
  %20 = add i64 %19, 1
  tail call void @_ZdlPvm(ptr noundef %11, i64 noundef %20) #21
  br label %21

21:                                               ; preds = %18, %14
  tail call void @_ZdlPvm(ptr noundef nonnull %5, i64 noundef 72) #21
  %22 = icmp eq ptr %9, null
  br i1 %22, label %23, label %4, !llvm.loop !42

23:                                               ; preds = %21, %2
  ret void
}

; Function Attrs: mustprogress sspstrong uwtable
define linkonce_odr hidden void @_ZNSt8_Rb_treeINSt7__cxx1112basic_stringIcSt11char_traitsIcESaIcEEESt4pairIKS5_PKN5osgeo4proj2cs17AxisDirectionWKT1EESt10_Select1stISE_ESt4lessIS5_ESaISE_EE8_M_eraseEPSt13_Rb_tree_nodeISE_E(ptr noundef nonnull align 8 dereferenceable(48) %0, ptr noundef %1) local_unnamed_addr #4 comdat align 2 personality ptr @__gxx_personality_v0 {
  %3 = icmp eq ptr %1, null
  br i1 %3, label %23, label %4

4:                                                ; preds = %21, %2
  %5 = phi ptr [ %9, %21 ], [ %1, %2 ]
  %6 = getelementptr inbounds nuw i8, ptr %5, i64 24
  %7 = load ptr, ptr %6, align 8, !tbaa !39
  tail call void @_ZNSt8_Rb_treeINSt7__cxx1112basic_stringIcSt11char_traitsIcESaIcEEESt4pairIKS5_PKN5osgeo4proj2cs17AxisDirectionWKT1EESt10_Select1stISE_ESt4lessIS5_ESaISE_EE8_M_eraseEPSt13_Rb_tree_nodeISE_E(ptr noundef nonnull align 8 dereferenceable(48) %0, ptr noundef %7)
  %8 = getelementptr inbounds nuw i8, ptr %5, i64 16
  %9 = load ptr, ptr %8, align 8, !tbaa !40
  %10 = getelementptr inbounds nuw i8, ptr %5, i64 32
  %11 = load ptr, ptr %10, align 8, !tbaa !23
  %12 = getelementptr inbounds nuw i8, ptr %5, i64 48
  %13 = icmp eq ptr %11, %12
  br i1 %13, label %14, label %18

14:                                               ; preds = %4
  %15 = getelementptr inbounds nuw i8, ptr %5, i64 40
  %16 = load i64, ptr %15, align 8, !tbaa !28
  %17 = icmp ult i64 %16, 16
  tail call void @llvm.assume(i1 %17)
  br label %21

18:                                               ; preds = %4
  %19 = load i64, ptr %12, align 8, !tbaa !16
  %20 = add i64 %19, 1
  tail call void @_ZdlPvm(ptr noundef %11, i64 noundef %20) #21
  br label %21

21:                                               ; preds = %18, %14
  tail call void @_ZdlPvm(ptr noundef nonnull %5, i64 noundef 72) #21
  %22 = icmp eq ptr %9, null
  br i1 %22, label %23, label %4, !llvm.loop !43

23:                                               ; preds = %21, %2
  ret void
}

; Function Attrs: cold noreturn
declare void @_ZSt19__throw_logic_errorPKc(ptr noundef) local_unnamed_addr #10

; Function Attrs: mustprogress nocallback nofree nounwind willreturn memory(argmem: read)
declare i64 @strlen(ptr noundef captures(none)) local_unnamed_addr #11

declare noundef ptr @_ZNSt7__cxx1112basic_stringIcSt11char_traitsIcESaIcEE9_M_createERmm(ptr noundef nonnull align 8 dereferenceable(32), ptr noundef nonnull align 8 dereferenceable(8), i64 noundef) local_unnamed_addr #0

; Function Attrs: nocallback nofree nounwind willreturn memory(argmem: readwrite)
declare void @llvm.memcpy.p0.p0.i64(ptr noalias writeonly captures(none), ptr noalias readonly captures(none), i64, i1 immarg) #12

; Function Attrs: mustprogress sspstrong uwtable
define linkonce_odr void @_ZNSt6vectorINSt7__cxx1112basic_stringIcSt11char_traitsIcESaIcEEESaIS5_EE17_M_realloc_appendIJS5_EEEvDpOT_(ptr noundef nonnull align 8 dereferenceable(24) %0, ptr noundef nonnull align 8 dereferenceable(32) %1) local_unnamed_addr #4 comdat align 2 personality ptr @__gxx_personality_v0 {
  %3 = getelementptr inbounds nuw i8, ptr %0, i64 8
  %4 = load ptr, ptr %3, align 8, !tbaa !22
  %5 = load ptr, ptr %0, align 8, !tbaa !19
  %6 = ptrtoint ptr %4 to i64
  %7 = ptrtoint ptr %5 to i64
  %8 = sub i64 %6, %7
  %9 = ashr exact i64 %8, 5
  %10 = icmp sgt i64 %9, -1
  tail call void @llvm.assume(i1 %10)
  %11 = icmp eq i64 %8, 9223372036854775776
  br i1 %11, label %12, label %13

12:                                               ; preds = %2
  tail call void @_ZSt20__throw_length_errorPKc(ptr noundef nonnull @.str.465) #22
  unreachable

13:                                               ; preds = %2
  %14 = tail call i64 @llvm.umax.i64(i64 %9, i64 1)
  %15 = add nuw nsw i64 %14, %9
  %16 = tail call noundef i64 @llvm.umin.i64(i64 %15, i64 288230376151711743)
  %17 = shl nuw nsw i64 %16, 5
  %18 = tail call noalias noundef nonnull ptr @_Znwm(i64 noundef %17) #24
  %19 = getelementptr inbounds nuw i8, ptr %18, i64 %8
  %20 = getelementptr inbounds nuw i8, ptr %19, i64 16
  store ptr %20, ptr %19, align 8, !tbaa !32
  %21 = load ptr, ptr %1, align 8, !tbaa !23
  %22 = getelementptr inbounds nuw i8, ptr %1, i64 16
  %23 = icmp eq ptr %21, %22
  br i1 %23, label %24, label %29

24:                                               ; preds = %13
  %25 = getelementptr inbounds nuw i8, ptr %1, i64 8
  %26 = load i64, ptr %25, align 8, !tbaa !28
  %27 = icmp ult i64 %26, 16
  tail call void @llvm.assume(i1 %27)
  %28 = add nuw nsw i64 %26, 1
  tail call void @llvm.memcpy.p0.p0.i64(ptr noundef nonnull align 8 dereferenceable(1) %20, ptr noundef nonnull align 8 dereferenceable(1) %22, i64 %28, i1 false)
  br label %33

29:                                               ; preds = %13
  store ptr %21, ptr %19, align 8, !tbaa !23
  %30 = load i64, ptr %22, align 8, !tbaa !16
  store i64 %30, ptr %20, align 8, !tbaa !16
  %31 = getelementptr inbounds nuw i8, ptr %1, i64 8
  %32 = load i64, ptr %31, align 8, !tbaa !28
  br label %33

33:                                               ; preds = %29, %24
  %34 = phi i64 [ %26, %24 ], [ %32, %29 ]
  %35 = getelementptr inbounds nuw i8, ptr %1, i64 8
  %36 = icmp ult i64 %34, 9223372036854775807
  tail call void @llvm.assume(i1 %36)
  %37 = getelementptr inbounds nuw i8, ptr %19, i64 8
  store i64 %34, ptr %37, align 8, !tbaa !28
  store ptr %22, ptr %1, align 8, !tbaa !23
  store i64 0, ptr %35, align 8, !tbaa !28
  store i8 0, ptr %22, align 8, !tbaa !16
  %38 = icmp eq ptr %5, %4
  br i1 %38, label %63, label %39

39:                                               ; preds = %55, %33
  %40 = phi ptr [ %61, %55 ], [ %18, %33 ]
  %41 = phi ptr [ %60, %55 ], [ %5, %33 ]
  tail call void @llvm.experimental.noalias.scope.decl(metadata !44)
  tail call void @llvm.experimental.noalias.scope.decl(metadata !47)
  %42 = getelementptr inbounds nuw i8, ptr %40, i64 16
  store ptr %42, ptr %40, align 8, !tbaa !32, !alias.scope !44, !noalias !47
  %43 = load ptr, ptr %41, align 8, !tbaa !23, !alias.scope !47, !noalias !44
  %44 = getelementptr inbounds nuw i8, ptr %41, i64 16
  %45 = icmp eq ptr %43, %44
  br i1 %45, label %46, label %51

46:                                               ; preds = %39
  %47 = getelementptr inbounds nuw i8, ptr %41, i64 8
  %48 = load i64, ptr %47, align 8, !tbaa !28, !alias.scope !47, !noalias !44
  %49 = icmp ult i64 %48, 16
  tail call void @llvm.assume(i1 %49)
  %50 = add nuw nsw i64 %48, 1
  tail call void @llvm.memcpy.p0.p0.i64(ptr noundef nonnull align 8 dereferenceable(1) %42, ptr noundef nonnull align 8 dereferenceable(1) %44, i64 %50, i1 false), !alias.scope !49
  br label %55

51:                                               ; preds = %39
  store ptr %43, ptr %40, align 8, !tbaa !23, !alias.scope !44, !noalias !47
  %52 = load i64, ptr %44, align 8, !tbaa !16, !alias.scope !47, !noalias !44
  store i64 %52, ptr %42, align 8, !tbaa !16, !alias.scope !44, !noalias !47
  %53 = getelementptr inbounds nuw i8, ptr %41, i64 8
  %54 = load i64, ptr %53, align 8, !tbaa !28, !alias.scope !47, !noalias !44
  br label %55

55:                                               ; preds = %51, %46
  %56 = phi i64 [ %48, %46 ], [ %54, %51 ]
  %57 = getelementptr inbounds nuw i8, ptr %41, i64 8
  %58 = icmp ult i64 %56, 9223372036854775807
  tail call void @llvm.assume(i1 %58)
  %59 = getelementptr inbounds nuw i8, ptr %40, i64 8
  store i64 %56, ptr %59, align 8, !tbaa !28, !alias.scope !44, !noalias !47
  store ptr %44, ptr %41, align 8, !tbaa !23, !alias.scope !47, !noalias !44
  store i64 0, ptr %57, align 8, !tbaa !28, !alias.scope !47, !noalias !44
  store i8 0, ptr %44, align 1, !tbaa !16, !alias.scope !47, !noalias !44
  %60 = getelementptr inbounds nuw i8, ptr %41, i64 32
  %61 = getelementptr inbounds nuw i8, ptr %40, i64 32
  %62 = icmp eq ptr %60, %4
  br i1 %62, label %63, label %39, !llvm.loop !50

63:                                               ; preds = %55, %33
  %64 = phi ptr [ %18, %33 ], [ %61, %55 ]
  %65 = getelementptr inbounds nuw i8, ptr %0, i64 16
  %66 = icmp eq ptr %5, null
  br i1 %66, label %71, label %67

67:                                               ; preds = %63
  %68 = load ptr, ptr %65, align 8, !tbaa !31
  %69 = ptrtoint ptr %68 to i64
  %70 = sub i64 %69, %7
  tail call void @_ZdlPvm(ptr noundef nonnull %5, i64 noundef %70) #21
  br label %71

71:                                               ; preds = %67, %63
  %72 = getelementptr inbounds nuw i8, ptr %64, i64 32
  store ptr %18, ptr %0, align 8, !tbaa !19
  store ptr %72, ptr %3, align 8, !tbaa !22
  %73 = getelementptr inbounds nuw %"class.std::__cxx11::basic_string", ptr %18, i64 %16
  store ptr %73, ptr %65, align 8, !tbaa !31
  ret void
}

; Function Attrs: cold noreturn
declare void @_ZSt20__throw_length_errorPKc(ptr noundef) local_unnamed_addr #10

; Function Attrs: nobuiltin allocsize(0)
declare noalias noundef nonnull ptr @_Znwm(i64 noundef) local_unnamed_addr #13

; Function Attrs: sspstrong uwtable
define internal void @_GLOBAL__sub_I_static.cpp() #14 section ".text.startup" personality ptr @__gxx_personality_v0 {
  %1 = alloca i64, align 8
  %2 = alloca i64, align 8
  %3 = alloca %"class.osgeo::proj::common::UnitOfMeasure", align 8
  %4 = alloca %"class.std::__cxx11::basic_string", align 8
  %5 = alloca %"class.std::__cxx11::basic_string", align 8
  %6 = alloca %"class.std::__cxx11::basic_string", align 8
  %7 = alloca i64, align 8
  %8 = alloca i64, align 8
  %9 = alloca %"class.std::__cxx11::basic_string", align 8
  %10 = alloca %"class.std::__cxx11::basic_string", align 8
  %11 = alloca %"class.std::__cxx11::basic_string", align 8
  %12 = alloca i64, align 8
  %13 = alloca %"class.std::__cxx11::basic_string", align 8
  %14 = alloca %"class.std::__cxx11::basic_string", align 8
  %15 = alloca %"class.std::__cxx11::basic_string", align 8
  %16 = alloca %"class.std::__cxx11::basic_string", align 8
  %17 = alloca %"class.std::__cxx11::basic_string", align 8
  %18 = alloca %"class.std::__cxx11::basic_string", align 8
  %19 = alloca %"class.std::__cxx11::basic_string", align 8
  %20 = alloca %"class.std::__cxx11::basic_string", align 8
  %21 = alloca %"class.std::__cxx11::basic_string", align 8
  %22 = alloca %"class.std::__cxx11::basic_string", align 8
  %23 = alloca %"class.std::__cxx11::basic_string", align 8
  %24 = alloca %"class.std::__cxx11::basic_string", align 8
  %25 = alloca %"class.std::__cxx11::basic_string", align 8
  %26 = alloca %"class.std::__cxx11::basic_string", align 8
  %27 = alloca i64, align 8
  %28 = alloca %"class.std::__cxx11::basic_string", align 8
  %29 = alloca %"class.std::__cxx11::basic_string", align 8
  %30 = alloca %"class.std::__cxx11::basic_string", align 8
  %31 = alloca %"class.std::__cxx11::basic_string", align 8
  %32 = alloca %"class.std::__cxx11::basic_string", align 8
  %33 = alloca %"class.std::__cxx11::basic_string", align 8
  %34 = alloca %"class.std::__cxx11::basic_string", align 8
  %35 = alloca %"class.std::__cxx11::basic_string", align 8
  %36 = alloca %"class.std::__cxx11::basic_string", align 8
  %37 = alloca %"class.std::__cxx11::basic_string", align 8
  %38 = alloca %"class.std::__cxx11::basic_string", align 8
  %39 = alloca %"class.std::__cxx11::basic_string", align 8
  %40 = alloca %"class.std::__cxx11::basic_string", align 8
  %41 = alloca %"class.std::__cxx11::basic_string", align 8
  %42 = alloca %"class.std::__cxx11::basic_string", align 8
  %43 = alloca %"class.std::__cxx11::basic_string", align 8
  %44 = alloca %"class.std::__cxx11::basic_string", align 8
  %45 = alloca %"class.std::__cxx11::basic_string", align 8
  %46 = alloca %"class.std::__cxx11::basic_string", align 8
  %47 = alloca %"class.std::__cxx11::basic_string", align 8
  %48 = alloca %"class.std::__cxx11::basic_string", align 8
  %49 = alloca %"class.std::__cxx11::basic_string", align 8
  %50 = alloca %"class.std::__cxx11::basic_string", align 8
  %51 = alloca %"class.std::__cxx11::basic_string", align 8
  %52 = alloca %"class.std::__cxx11::basic_string", align 8
  %53 = alloca %"class.std::__cxx11::basic_string", align 8
  %54 = alloca %"class.std::__cxx11::basic_string", align 8
  %55 = alloca %"class.std::__cxx11::basic_string", align 8
  %56 = alloca %"class.std::__cxx11::basic_string", align 8
  %57 = alloca %"class.std::__cxx11::basic_string", align 8
  %58 = alloca %"class.std::__cxx11::basic_string", align 8
  %59 = alloca %"class.std::__cxx11::basic_string", align 8
  %60 = alloca %"class.std::__cxx11::basic_string", align 8
  %61 = alloca %"class.std::__cxx11::basic_string", align 8
  %62 = alloca %"class.std::__cxx11::basic_string", align 8
  %63 = alloca i64, align 8
  %64 = alloca %"class.std::__cxx11::basic_string", align 8
  %65 = alloca %"class.std::__cxx11::basic_string", align 8
  %66 = alloca i64, align 8
  %67 = alloca %"class.std::__cxx11::basic_string", align 8
  %68 = alloca %"class.std::__cxx11::basic_string", align 8
  %69 = alloca %"class.std::__cxx11::basic_string", align 8
  %70 = alloca %"class.std::__cxx11::basic_string", align 8
  %71 = alloca %"class.std::__cxx11::basic_string", align 8
  %72 = alloca %"class.std::__cxx11::basic_string", align 8
  %73 = alloca %"class.std::__cxx11::basic_string", align 8
  %74 = alloca %"class.std::__cxx11::basic_string", align 8
  %75 = alloca %"class.std::__cxx11::basic_string", align 8
  %76 = alloca %"class.std::__cxx11::basic_string", align 8
  %77 = alloca %"class.std::__cxx11::basic_string", align 8
  %78 = alloca %"class.std::__cxx11::basic_string", align 8
  %79 = alloca %"class.std::__cxx11::basic_string", align 8
  %80 = alloca %"class.std::__cxx11::basic_string", align 8
  %81 = alloca %"class.std::__cxx11::basic_string", align 8
  %82 = alloca %"class.std::__cxx11::basic_string", align 8
  %83 = alloca %"class.std::__cxx11::basic_string", align 8
  %84 = alloca %"class.std::__cxx11::basic_string", align 8
  %85 = alloca %"class.std::__cxx11::basic_string", align 8
  %86 = alloca %"class.std::__cxx11::basic_string", align 8
  %87 = alloca %"class.std::__cxx11::basic_string", align 8
  %88 = alloca %"class.std::__cxx11::basic_string", align 8
  %89 = alloca %"class.std::__cxx11::basic_string", align 8
  %90 = alloca %"class.std::__cxx11::basic_string", align 8
  %91 = alloca i64, align 8
  %92 = alloca %"class.std::__cxx11::basic_string", align 8
  %93 = alloca %"class.std::__cxx11::basic_string", align 8
  %94 = alloca %"class.std::__cxx11::basic_string", align 8
  %95 = alloca %"class.std::__cxx11::basic_string", align 8
  %96 = alloca %"class.std::__cxx11::basic_string", align 8
  %97 = alloca %"class.std::__cxx11::basic_string", align 8
  %98 = alloca %"class.std::__cxx11::basic_string", align 8
  %99 = alloca i64, align 8
  %100 = alloca i64, align 8
  %101 = alloca i64, align 8
  %102 = alloca i64, align 8
  %103 = alloca i64, align 8
  %104 = alloca i64, align 8
  %105 = alloca i64, align 8
  %106 = alloca i64, align 8
  %107 = alloca i64, align 8
  %108 = alloca i64, align 8
  %109 = alloca i64, align 8
  %110 = alloca %"class.osgeo::proj::util::optional", align 8
  %111 = alloca %"class.std::__cxx11::basic_string", align 8
  %112 = alloca i64, align 8
  tail call void @_ZN5osgeo4proj4util9NameSpace12createGLOBALEv(ptr dead_on_unwind nonnull writable sret(%"class.dropbox::oxygen::nn") align 8 @_ZN5osgeo4proj4util9NameSpace6GLOBALE)
  %113 = tail call i32 @__cxa_atexit(ptr nonnull @_ZN7dropbox6oxygen2nnISt10shared_ptrIN5osgeo4proj4util9NameSpaceEEED2Ev, ptr nonnull @_ZN5osgeo4proj4util9NameSpace6GLOBALE, ptr nonnull @__dso_handle) #20
  store ptr getelementptr inbounds nuw (i8, ptr @_ZN5osgeo4proj8metadata10Identifier13AUTHORITY_KEYB5cxx11E, i64 16), ptr @_ZN5osgeo4proj8metadata10Identifier13AUTHORITY_KEYB5cxx11E, align 8, !tbaa !32
  tail call void @llvm.memcpy.p0.p0.i64(ptr noundef nonnull align 8 dereferenceable(9) getelementptr inbounds nuw (i8, ptr @_ZN5osgeo4proj8metadata10Identifier13AUTHORITY_KEYB5cxx11E, i64 16), ptr noundef nonnull align 1 dereferenceable(9) @.str, i64 9, i1 false)
  store i64 9, ptr getelementptr inbounds nuw (i8, ptr @_ZN5osgeo4proj8metadata10Identifier13AUTHORITY_KEYB5cxx11E, i64 8), align 8, !tbaa !28
  store i8 0, ptr getelementptr inbounds nuw (i8, ptr @_ZN5osgeo4proj8metadata10Identifier13AUTHORITY_KEYB5cxx11E, i64 25), align 1, !tbaa !16
  %114 = tail call i32 @__cxa_atexit(ptr nonnull @_ZNSt7__cxx1112basic_stringIcSt11char_traitsIcESaIcEED2Ev, ptr nonnull @_ZN5osgeo4proj8metadata10Identifier13AUTHORITY_KEYB5cxx11E, ptr nonnull @__dso_handle) #20
  store ptr getelementptr inbounds nuw (i8, ptr @_ZN5osgeo4proj8metadata10Identifier8CODE_KEYB5cxx11E, i64 16), ptr @_ZN5osgeo4proj8metadata10Identifier8CODE_KEYB5cxx11E, align 8, !tbaa !32
  store i32 1701080931, ptr getelementptr inbounds nuw (i8, ptr @_ZN5osgeo4proj8metadata10Identifier8CODE_KEYB5cxx11E, i64 16), align 8
  store i64 4, ptr getelementptr inbounds nuw (i8, ptr @_ZN5osgeo4proj8metadata10Identifier8CODE_KEYB5cxx11E, i64 8), align 8, !tbaa !28
  store i8 0, ptr getelementptr inbounds nuw (i8, ptr @_ZN5osgeo4proj8metadata10Identifier8CODE_KEYB5cxx11E, i64 20), align 4, !tbaa !16
  %115 = tail call i32 @__cxa_atexit(ptr nonnull @_ZNSt7__cxx1112basic_stringIcSt11char_traitsIcESaIcEED2Ev, ptr nonnull @_ZN5osgeo4proj8metadata10Identifier8CODE_KEYB5cxx11E, ptr nonnull @__dso_handle) #20
  store ptr getelementptr inbounds nuw (i8, ptr @_ZN5osgeo4proj8metadata10Identifier13CODESPACE_KEYB5cxx11E, i64 16), ptr @_ZN5osgeo4proj8metadata10Identifier13CODESPACE_KEYB5cxx11E, align 8, !tbaa !32
  tail call void @llvm.memcpy.p0.p0.i64(ptr noundef nonnull align 8 dereferenceable(9) getelementptr inbounds nuw (i8, ptr @_ZN5osgeo4proj8metadata10Identifier13CODESPACE_KEYB5cxx11E, i64 16), ptr noundef nonnull align 1 dereferenceable(9) @.str.5, i64 9, i1 false)
  store i64 9, ptr getelementptr inbounds nuw (i8, ptr @_ZN5osgeo4proj8metadata10Identifier13CODESPACE_KEYB5cxx11E, i64 8), align 8, !tbaa !28
  store i8 0, ptr getelementptr inbounds nuw (i8, ptr @_ZN5osgeo4proj8metadata10Identifier13CODESPACE_KEYB5cxx11E, i64 25), align 1, !tbaa !16
  %116 = tail call i32 @__cxa_atexit(ptr nonnull @_ZNSt7__cxx1112basic_stringIcSt11char_traitsIcESaIcEED2Ev, ptr nonnull @_ZN5osgeo4proj8metadata10Identifier13CODESPACE_KEYB5cxx11E, ptr nonnull @__dso_handle) #20
  store ptr getelementptr inbounds nuw (i8, ptr @_ZN5osgeo4proj8metadata10Identifier11VERSION_KEYB5cxx11E, i64 16), ptr @_ZN5osgeo4proj8metadata10Identifier11VERSION_KEYB5cxx11E, align 8, !tbaa !32
  tail call void @llvm.memcpy.p0.p0.i64(ptr noundef nonnull align 8 dereferenceable(7) getelementptr inbounds nuw (i8, ptr @_ZN5osgeo4proj8metadata10Identifier11VERSION_KEYB5cxx11E, i64 16), ptr noundef nonnull align 1 dereferenceable(7) @.str.7, i64 7, i1 false)
  store i64 7, ptr getelementptr inbounds nuw (i8, ptr @_ZN5osgeo4proj8metadata10Identifier11VERSION_KEYB5cxx11E, i64 8), align 8, !tbaa !28
  store i8 0, ptr getelementptr inbounds nuw (i8, ptr @_ZN5osgeo4proj8metadata10Identifier11VERSION_KEYB5cxx11E, i64 23), align 1, !tbaa !16
  %117 = tail call i32 @__cxa_atexit(ptr nonnull @_ZNSt7__cxx1112basic_stringIcSt11char_traitsIcESaIcEED2Ev, ptr nonnull @_ZN5osgeo4proj8metadata10Identifier11VERSION_KEYB5cxx11E, ptr nonnull @__dso_handle) #20
  store ptr getelementptr inbounds nuw (i8, ptr @_ZN5osgeo4proj8metadata10Identifier15DESCRIPTION_KEYB5cxx11E, i64 16), ptr @_ZN5osgeo4proj8metadata10Identifier15DESCRIPTION_KEYB5cxx11E, align 8, !tbaa !32
  tail call void @llvm.memcpy.p0.p0.i64(ptr noundef nonnull align 8 dereferenceable(11) getelementptr inbounds nuw (i8, ptr @_ZN5osgeo4proj8metadata10Identifier15DESCRIPTION_KEYB5cxx11E, i64 16), ptr noundef nonnull align 1 dereferenceable(11) @.str.9, i64 11, i1 false)
  store i64 11, ptr getelementptr inbounds nuw (i8, ptr @_ZN5osgeo4proj8metadata10Identifier15DESCRIPTION_KEYB5cxx11E, i64 8), align 8, !tbaa !28
  store i8 0, ptr getelementptr inbounds nuw (i8, ptr @_ZN5osgeo4proj8metadata10Identifier15DESCRIPTION_KEYB5cxx11E, i64 27), align 1, !tbaa !16
  %118 = tail call i32 @__cxa_atexit(ptr nonnull @_ZNSt7__cxx1112basic_stringIcSt11char_traitsIcESaIcEED2Ev, ptr nonnull @_ZN5osgeo4proj8metadata10Identifier15DESCRIPTION_KEYB5cxx11E, ptr nonnull @__dso_handle) #20
  store ptr getelementptr inbounds nuw (i8, ptr @_ZN5osgeo4proj8metadata10Identifier7URI_KEYB5cxx11E, i64 16), ptr @_ZN5osgeo4proj8metadata10Identifier7URI_KEYB5cxx11E, align 8, !tbaa !32
  tail call void @llvm.memcpy.p0.p0.i64(ptr noundef nonnull align 8 dereferenceable(3) getelementptr inbounds nuw (i8, ptr @_ZN5osgeo4proj8metadata10Identifier7URI_KEYB5cxx11E, i64 16), ptr noundef nonnull align 1 dereferenceable(3) @.str.11, i64 3, i1 false)
  store i64 3, ptr getelementptr inbounds nuw (i8, ptr @_ZN5osgeo4proj8metadata10Identifier7URI_KEYB5cxx11E, i64 8), align 8, !tbaa !28
  store i8 0, ptr getelementptr inbounds nuw (i8, ptr @_ZN5osgeo4proj8metadata10Identifier7URI_KEYB5cxx11E, i64 19), align 1, !tbaa !16
  %119 = tail call i32 @__cxa_atexit(ptr nonnull @_ZNSt7__cxx1112basic_stringIcSt11char_traitsIcESaIcEED2Ev, ptr nonnull @_ZN5osgeo4proj8metadata10Identifier7URI_KEYB5cxx11E, ptr nonnull @__dso_handle) #20
  store ptr getelementptr inbounds nuw (i8, ptr @_ZN5osgeo4proj8metadata10Identifier4EPSGB5cxx11E, i64 16), ptr @_ZN5osgeo4proj8metadata10Identifier4EPSGB5cxx11E, align 8, !tbaa !32
  store i32 1196642373, ptr getelementptr inbounds nuw (i8, ptr @_ZN5osgeo4proj8metadata10Identifier4EPSGB5cxx11E, i64 16), align 8
  store i64 4, ptr getelementptr inbounds nuw (i8, ptr @_ZN5osgeo4proj8metadata10Identifier4EPSGB5cxx11E, i64 8), align 8, !tbaa !28
  store i8 0, ptr getelementptr inbounds nuw (i8, ptr @_ZN5osgeo4proj8metadata10Identifier4EPSGB5cxx11E, i64 20), align 4, !tbaa !16
  %120 = tail call i32 @__cxa_atexit(ptr nonnull @_ZNSt7__cxx1112basic_stringIcSt11char_traitsIcESaIcEED2Ev, ptr nonnull @_ZN5osgeo4proj8metadata10Identifier4EPSGB5cxx11E, ptr nonnull @__dso_handle) #20
  store ptr getelementptr inbounds nuw (i8, ptr @_ZN5osgeo4proj8metadata10Identifier3OGCB5cxx11E, i64 16), ptr @_ZN5osgeo4proj8metadata10Identifier3OGCB5cxx11E, align 8, !tbaa !32
  tail call void @llvm.memcpy.p0.p0.i64(ptr noundef nonnull align 8 dereferenceable(3) getelementptr inbounds nuw (i8, ptr @_ZN5osgeo4proj8metadata10Identifier3OGCB5cxx11E, i64 16), ptr noundef nonnull align 1 dereferenceable(3) @.str.15, i64 3, i1 false)
  store i64 3, ptr getelementptr inbounds nuw (i8, ptr @_ZN5osgeo4proj8metadata10Identifier3OGCB5cxx11E, i64 8), align 8, !tbaa !28
  store i8 0, ptr getelementptr inbounds nuw (i8, ptr @_ZN5osgeo4proj8metadata10Identifier3OGCB5cxx11E, i64 19), align 1, !tbaa !16
  %121 = tail call i32 @__cxa_atexit(ptr nonnull @_ZNSt7__cxx1112basic_stringIcSt11char_traitsIcESaIcEED2Ev, ptr nonnull @_ZN5osgeo4proj8metadata10Identifier3OGCB5cxx11E, ptr nonnull @__dso_handle) #20
  store ptr getelementptr inbounds nuw (i8, ptr @_ZN5osgeo4proj6common16IdentifiedObject8NAME_KEYB5cxx11E, i64 16), ptr @_ZN5osgeo4proj6common16IdentifiedObject8NAME_KEYB5cxx11E, align 8, !tbaa !32
  store i32 1701667182, ptr getelementptr inbounds nuw (i8, ptr @_ZN5osgeo4proj6common16IdentifiedObject8NAME_KEYB5cxx11E, i64 16), align 8
  store i64 4, ptr getelementptr inbounds nuw (i8, ptr @_ZN5osgeo4proj6common16IdentifiedObject8NAME_KEYB5cxx11E, i64 8), align 8, !tbaa !28
  store i8 0, ptr getelementptr inbounds nuw (i8, ptr @_ZN5osgeo4proj6common16IdentifiedObject8NAME_KEYB5cxx11E, i64 20), align 4, !tbaa !16
  %122 = tail call i32 @__cxa_atexit(ptr nonnull @_ZNSt7__cxx1112basic_stringIcSt11char_traitsIcESaIcEED2Ev, ptr nonnull @_ZN5osgeo4proj6common16IdentifiedObject8NAME_KEYB5cxx11E, ptr nonnull @__dso_handle) #20
  store ptr getelementptr inbounds nuw (i8, ptr @_ZN5osgeo4proj6common16IdentifiedObject15IDENTIFIERS_KEYB5cxx11E, i64 16), ptr @_ZN5osgeo4proj6common16IdentifiedObject15IDENTIFIERS_KEYB5cxx11E, align 8, !tbaa !32
  tail call void @llvm.memcpy.p0.p0.i64(ptr noundef nonnull align 8 dereferenceable(11) getelementptr inbounds nuw (i8, ptr @_ZN5osgeo4proj6common16IdentifiedObject15IDENTIFIERS_KEYB5cxx11E, i64 16), ptr noundef nonnull align 1 dereferenceable(11) @.str.19, i64 11, i1 false)
  store i64 11, ptr getelementptr inbounds nuw (i8, ptr @_ZN5osgeo4proj6common16IdentifiedObject15IDENTIFIERS_KEYB5cxx11E, i64 8), align 8, !tbaa !28
  store i8 0, ptr getelementptr inbounds nuw (i8, ptr @_ZN5osgeo4proj6common16IdentifiedObject15IDENTIFIERS_KEYB5cxx11E, i64 27), align 1, !tbaa !16
  %123 = tail call i32 @__cxa_atexit(ptr nonnull @_ZNSt7__cxx1112basic_stringIcSt11char_traitsIcESaIcEED2Ev, ptr nonnull @_ZN5osgeo4proj6common16IdentifiedObject15IDENTIFIERS_KEYB5cxx11E, ptr nonnull @__dso_handle) #20
  store ptr getelementptr inbounds nuw (i8, ptr @_ZN5osgeo4proj6common16IdentifiedObject9ALIAS_KEYB5cxx11E, i64 16), ptr @_ZN5osgeo4proj6common16IdentifiedObject9ALIAS_KEYB5cxx11E, align 8, !tbaa !32
  tail call void @llvm.memcpy.p0.p0.i64(ptr noundef nonnull align 8 dereferenceable(5) getelementptr inbounds nuw (i8, ptr @_ZN5osgeo4proj6common16IdentifiedObject9ALIAS_KEYB5cxx11E, i64 16), ptr noundef nonnull align 1 dereferenceable(5) @.str.21, i64 5, i1 false)
  store i64 5, ptr getelementptr inbounds nuw (i8, ptr @_ZN5osgeo4proj6common16IdentifiedObject9ALIAS_KEYB5cxx11E, i64 8), align 8, !tbaa !28
  store i8 0, ptr getelementptr inbounds nuw (i8, ptr @_ZN5osgeo4proj6common16IdentifiedObject9ALIAS_KEYB5cxx11E, i64 21), align 1, !tbaa !16
  %124 = tail call i32 @__cxa_atexit(ptr nonnull @_ZNSt7__cxx1112basic_stringIcSt11char_traitsIcESaIcEED2Ev, ptr nonnull @_ZN5osgeo4proj6common16IdentifiedObject9ALIAS_KEYB5cxx11E, ptr nonnull @__dso_handle) #20
  store ptr getelementptr inbounds nuw (i8, ptr @_ZN5osgeo4proj6common16IdentifiedObject11REMARKS_KEYB5cxx11E, i64 16), ptr @_ZN5osgeo4proj6common16IdentifiedObject11REMARKS_KEYB5cxx11E, align 8, !tbaa !32
  tail call void @llvm.memcpy.p0.p0.i64(ptr noundef nonnull align 8 dereferenceable(7) getelementptr inbounds nuw (i8, ptr @_ZN5osgeo4proj6common16IdentifiedObject11REMARKS_KEYB5cxx11E, i64 16), ptr noundef nonnull align 1 dereferenceable(7) @.str.23, i64 7, i1 false)
  store i64 7, ptr getelementptr inbounds nuw (i8, ptr @_ZN5osgeo4proj6common16IdentifiedObject11REMARKS_KEYB5cxx11E, i64 8), align 8, !tbaa !28
  store i8 0, ptr getelementptr inbounds nuw (i8, ptr @_ZN5osgeo4proj6common16IdentifiedObject11REMARKS_KEYB5cxx11E, i64 23), align 1, !tbaa !16
  %125 = tail call i32 @__cxa_atexit(ptr nonnull @_ZNSt7__cxx1112basic_stringIcSt11char_traitsIcESaIcEED2Ev, ptr nonnull @_ZN5osgeo4proj6common16IdentifiedObject11REMARKS_KEYB5cxx11E, ptr nonnull @__dso_handle) #20
  store ptr getelementptr inbounds nuw (i8, ptr @_ZN5osgeo4proj6common16IdentifiedObject14DEPRECATED_KEYB5cxx11E, i64 16), ptr @_ZN5osgeo4proj6common16IdentifiedObject14DEPRECATED_KEYB5cxx11E, align 8, !tbaa !32
  tail call void @llvm.memcpy.p0.p0.i64(ptr noundef nonnull align 8 dereferenceable(10) getelementptr inbounds nuw (i8, ptr @_ZN5osgeo4proj6common16IdentifiedObject14DEPRECATED_KEYB5cxx11E, i64 16), ptr noundef nonnull align 1 dereferenceable(10) @.str.25, i64 10, i1 false)
  store i64 10, ptr getelementptr inbounds nuw (i8, ptr @_ZN5osgeo4proj6common16IdentifiedObject14DEPRECATED_KEYB5cxx11E, i64 8), align 8, !tbaa !28
  store i8 0, ptr getelementptr inbounds nuw (i8, ptr @_ZN5osgeo4proj6common16IdentifiedObject14DEPRECATED_KEYB5cxx11E, i64 26), align 2, !tbaa !16
  %126 = tail call i32 @__cxa_atexit(ptr nonnull @_ZNSt7__cxx1112basic_stringIcSt11char_traitsIcESaIcEED2Ev, ptr nonnull @_ZN5osgeo4proj6common16IdentifiedObject14DEPRECATED_KEYB5cxx11E, ptr nonnull @__dso_handle) #20
  store ptr getelementptr inbounds nuw (i8, ptr @_ZN5osgeo4proj6common11ObjectUsage9SCOPE_KEYB5cxx11E, i64 16), ptr @_ZN5osgeo4proj6common11ObjectUsage9SCOPE_KEYB5cxx11E, align 8, !tbaa !32
  tail call void @llvm.memcpy.p0.p0.i64(ptr noundef nonnull align 8 dereferenceable(5) getelementptr inbounds nuw (i8, ptr @_ZN5osgeo4proj6common11ObjectUsage9SCOPE_KEYB5cxx11E, i64 16), ptr noundef nonnull align 1 dereferenceable(5) @.str.27, i64 5, i1 false)
  store i64 5, ptr getelementptr inbounds nuw (i8, ptr @_ZN5osgeo4proj6common11ObjectUsage9SCOPE_KEYB5cxx11E, i64 8), align 8, !tbaa !28
  store i8 0, ptr getelementptr inbounds nuw (i8, ptr @_ZN5osgeo4proj6common11ObjectUsage9SCOPE_KEYB5cxx11E, i64 21), align 1, !tbaa !16
  %127 = tail call i32 @__cxa_atexit(ptr nonnull @_ZNSt7__cxx1112basic_stringIcSt11char_traitsIcESaIcEED2Ev, ptr nonnull @_ZN5osgeo4proj6common11ObjectUsage9SCOPE_KEYB5cxx11E, ptr nonnull @__dso_handle) #20
  store ptr getelementptr inbounds nuw (i8, ptr @_ZN5osgeo4proj6common11ObjectUsage22DOMAIN_OF_VALIDITY_KEYB5cxx11E, i64 16), ptr @_ZN5osgeo4proj6common11ObjectUsage22DOMAIN_OF_VALIDITY_KEYB5cxx11E, align 8, !tbaa !32
  call void @llvm.lifetime.start.p0(ptr %112)
  store i64 16, ptr %112, align 8, !tbaa !33
  %128 = call noundef ptr @_ZNSt7__cxx1112basic_stringIcSt11char_traitsIcESaIcEE9_M_createERmm(ptr noundef nonnull align 8 dereferenceable(32) @_ZN5osgeo4proj6common11ObjectUsage22DOMAIN_OF_VALIDITY_KEYB5cxx11E, ptr noundef nonnull align 8 dereferenceable(8) %112, i64 noundef 0)
  store ptr %128, ptr @_ZN5osgeo4proj6common11ObjectUsage22DOMAIN_OF_VALIDITY_KEYB5cxx11E, align 8, !tbaa !23
  %129 = load i64, ptr %112, align 8, !tbaa !33
  store i64 %129, ptr getelementptr inbounds nuw (i8, ptr @_ZN5osgeo4proj6common11ObjectUsage22DOMAIN_OF_VALIDITY_KEYB5cxx11E, i64 16), align 8, !tbaa !16
  call void @llvm.memcpy.p0.p0.i64(ptr noundef nonnull align 1 dereferenceable(16) %128, ptr noundef nonnull align 1 dereferenceable(16) @.str.29, i64 16, i1 false)
  store i64 %129, ptr getelementptr inbounds nuw (i8, ptr @_ZN5osgeo4proj6common11ObjectUsage22DOMAIN_OF_VALIDITY_KEYB5cxx11E, i64 8), align 8, !tbaa !28
  %130 = load ptr, ptr @_ZN5osgeo4proj6common11ObjectUsage22DOMAIN_OF_VALIDITY_KEYB5cxx11E, align 8, !tbaa !23
  %131 = getelementptr inbounds nuw i8, ptr %130, i64 %129
  store i8 0, ptr %131, align 1, !tbaa !16
  call void @llvm.lifetime.end.p0(ptr %112)
  %132 = call i32 @__cxa_atexit(ptr nonnull @_ZNSt7__cxx1112basic_stringIcSt11char_traitsIcESaIcEED2Ev, ptr nonnull @_ZN5osgeo4proj6common11ObjectUsage22DOMAIN_OF_VALIDITY_KEYB5cxx11E, ptr nonnull @__dso_handle) #20
  store ptr getelementptr inbounds nuw (i8, ptr @_ZN5osgeo4proj6common11ObjectUsage17OBJECT_DOMAIN_KEYB5cxx11E, i64 16), ptr @_ZN5osgeo4proj6common11ObjectUsage17OBJECT_DOMAIN_KEYB5cxx11E, align 8, !tbaa !32
  call void @llvm.memcpy.p0.p0.i64(ptr noundef nonnull align 8 dereferenceable(12) getelementptr inbounds nuw (i8, ptr @_ZN5osgeo4proj6common11ObjectUsage17OBJECT_DOMAIN_KEYB5cxx11E, i64 16), ptr noundef nonnull align 1 dereferenceable(12) @.str.31, i64 12, i1 false)
  store i64 12, ptr getelementptr inbounds nuw (i8, ptr @_ZN5osgeo4proj6common11ObjectUsage17OBJECT_DOMAIN_KEYB5cxx11E, i64 8), align 8, !tbaa !28
  store i8 0, ptr getelementptr inbounds nuw (i8, ptr @_ZN5osgeo4proj6common11ObjectUsage17OBJECT_DOMAIN_KEYB5cxx11E, i64 28), align 4, !tbaa !16
  %133 = call i32 @__cxa_atexit(ptr nonnull @_ZNSt7__cxx1112basic_stringIcSt11char_traitsIcESaIcEED2Ev, ptr nonnull @_ZN5osgeo4proj6common11ObjectUsage17OBJECT_DOMAIN_KEYB5cxx11E, ptr nonnull @__dso_handle) #20
  call void @llvm.lifetime.start.p0(ptr %110)
  call void @llvm.lifetime.start.p0(ptr %111)
  %134 = getelementptr inbounds nuw i8, ptr %111, i64 16
  call void @llvm.memcpy.p0.p0.i64(ptr noundef nonnull align 8 dereferenceable(5) %134, ptr noundef nonnull align 1 dereferenceable(5) @.str.33, i64 5, i1 false)
  %135 = getelementptr inbounds nuw i8, ptr %111, i64 8
  %136 = getelementptr inbounds nuw i8, ptr %111, i64 21
  store i8 0, ptr %136, align 1, !tbaa !16
  store i8 1, ptr %110, align 8, !tbaa !51
  %137 = getelementptr inbounds nuw i8, ptr %110, i64 8
  %138 = getelementptr inbounds nuw i8, ptr %110, i64 24
  store ptr %138, ptr %137, align 8, !tbaa !32
  call void @llvm.memcpy.p0.p0.i64(ptr noundef nonnull align 8 dereferenceable(6) %138, ptr noundef nonnull align 8 dereferenceable(6) %134, i64 6, i1 false)
  %139 = getelementptr inbounds nuw i8, ptr %110, i64 16
  store i64 5, ptr %139, align 8, !tbaa !28
  store ptr %134, ptr %111, align 8, !tbaa !23
  store i64 0, ptr %135, align 8, !tbaa !28
  store i8 0, ptr %134, align 8, !tbaa !16
  invoke void @_ZN5osgeo4proj8metadata6Extent14createFromBBOXEddddRKNS0_4util8optionalINSt7__cxx1112basic_stringIcSt11char_traitsIcESaIcEEEEE(ptr dead_on_unwind nonnull writable sret(%"class.dropbox::oxygen::nn.0") align 8 @_ZN5osgeo4proj8metadata6Extent5WORLDE, double noundef -1.800000e+02, double noundef -9.000000e+01, double noundef 1.800000e+02, double noundef 9.000000e+01, ptr noundef nonnull align 8 dereferenceable(40) %110)
          to label %140 unwind label %158

140:                                              ; preds = %0
  %141 = load ptr, ptr %137, align 8, !tbaa !23
  %142 = icmp eq ptr %141, %138
  br i1 %142, label %143, label %146

143:                                              ; preds = %140
  %144 = load i64, ptr %139, align 8, !tbaa !28
  %145 = icmp ult i64 %144, 16
  call void @llvm.assume(i1 %145)
  br label %149

146:                                              ; preds = %140
  %147 = load i64, ptr %138, align 8, !tbaa !16
  %148 = add i64 %147, 1
  call void @_ZdlPvm(ptr noundef %141, i64 noundef %148) #21
  br label %149

149:                                              ; preds = %146, %143
  %150 = load ptr, ptr %111, align 8, !tbaa !23
  %151 = icmp eq ptr %150, %134
  br i1 %151, label %152, label %155

152:                                              ; preds = %149
  %153 = load i64, ptr %135, align 8, !tbaa !28
  %154 = icmp ult i64 %153, 16
  call void @llvm.assume(i1 %154)
  br label %180

155:                                              ; preds = %149
  %156 = load i64, ptr %134, align 8, !tbaa !16
  %157 = add i64 %156, 1
  call void @_ZdlPvm(ptr noundef %150, i64 noundef %157) #21
  br label %180

158:                                              ; preds = %0
  %159 = landingpad { ptr, i32 }
          cleanup
  %160 = load ptr, ptr %137, align 8, !tbaa !23
  %161 = icmp eq ptr %160, %138
  br i1 %161, label %162, label %165

162:                                              ; preds = %158
  %163 = load i64, ptr %139, align 8, !tbaa !28
  %164 = icmp ult i64 %163, 16
  call void @llvm.assume(i1 %164)
  br label %168

165:                                              ; preds = %158
  %166 = load i64, ptr %138, align 8, !tbaa !16
  %167 = add i64 %166, 1
  call void @_ZdlPvm(ptr noundef %160, i64 noundef %167) #21
  br label %168

168:                                              ; preds = %165, %162
  %169 = load ptr, ptr %111, align 8, !tbaa !23
  %170 = icmp eq ptr %169, %134
  br i1 %170, label %171, label %174

171:                                              ; preds = %168
  %172 = load i64, ptr %135, align 8, !tbaa !28
  %173 = icmp ult i64 %172, 16
  call void @llvm.assume(i1 %173)
  br label %179

174:                                              ; preds = %168
  %175 = load i64, ptr %134, align 8, !tbaa !16
  %176 = add i64 %175, 1
  call void @_ZdlPvm(ptr noundef %169, i64 noundef %176) #21
  br label %179

177:                                              ; preds = %2621, %2525, %2500, %2475, %2428, %2403, %2378, %2353, %2328, %2303, %2278, %2252, %2227, %2201, %2176, %2151, %2126, %2101, %2076, %2048, %2023, %1998, %1973, %1948, %1923, %1898, %1873, %1848, %1823, %1798, %1773, %1748, %1723, %1698, %1673, %1648, %1623, %1598, %1573, %1548, %1523, %1498, %1473, %1448, %1423, %1398, %1373, %1348, %1323, %1298, %1273, %1248, %1223, %1197, %1148, %1099, %1053, %1007, %961, %915, %869, %823, %777, %731, %685, %639, %593, %544, %498, %179
  %178 = phi { ptr, i32 } [ %159, %179 ], [ %471, %498 ], [ %526, %544 ], [ %575, %593 ], [ %621, %639 ], [ %667, %685 ], [ %713, %731 ], [ %759, %777 ], [ %805, %823 ], [ %851, %869 ], [ %897, %915 ], [ %943, %961 ], [ %989, %1007 ], [ %1035, %1053 ], [ %1081, %1099 ], [ %1130, %1148 ], [ %1179, %1197 ], [ %1214, %1223 ], [ %1239, %1248 ], [ %1264, %1273 ], [ %1289, %1298 ], [ %1314, %1323 ], [ %1339, %1348 ], [ %1364, %1373 ], [ %1389, %1398 ], [ %1414, %1423 ], [ %1439, %1448 ], [ %1464, %1473 ], [ %1489, %1498 ], [ %1514, %1523 ], [ %1539, %1548 ], [ %1564, %1573 ], [ %1589, %1598 ], [ %1614, %1623 ], [ %1639, %1648 ], [ %1664, %1673 ], [ %1689, %1698 ], [ %1714, %1723 ], [ %1739, %1748 ], [ %1764, %1773 ], [ %1789, %1798 ], [ %1814, %1823 ], [ %1839, %1848 ], [ %1864, %1873 ], [ %1889, %1898 ], [ %1914, %1923 ], [ %1939, %1948 ], [ %1964, %1973 ], [ %1989, %1998 ], [ %2014, %2023 ], [ %2039, %2048 ], [ %2067, %2076 ], [ %2092, %2101 ], [ %2117, %2126 ], [ %2142, %2151 ], [ %2167, %2176 ], [ %2192, %2201 ], [ %2218, %2227 ], [ %2243, %2252 ], [ %2269, %2278 ], [ %2294, %2303 ], [ %2319, %2328 ], [ %2344, %2353 ], [ %2369, %2378 ], [ %2394, %2403 ], [ %2419, %2428 ], [ %2466, %2475 ], [ %2491, %2500 ], [ %2516, %2525 ], [ %2594, %2621 ]
  resume { ptr, i32 } %178

179:                                              ; preds = %174, %171
  call void @llvm.lifetime.end.p0(ptr %111)
  call void @llvm.lifetime.end.p0(ptr %110)
  br label %177

180:                                              ; preds = %155, %152
  call void @llvm.lifetime.end.p0(ptr %111)
  call void @llvm.lifetime.end.p0(ptr %110)
  %181 = call i32 @__cxa_atexit(ptr nonnull @_ZN7dropbox6oxygen2nnISt10shared_ptrIN5osgeo4proj8metadata6ExtentEEED2Ev, ptr nonnull @_ZN5osgeo4proj8metadata6Extent5WORLDE, ptr nonnull @__dso_handle) #20
  call void @llvm.memset.p0.i64(ptr noundef nonnull align 8 dereferenceable(24) @_ZN5osgeo4proj2io12WKTConstants10constants_B5cxx11E, i8 0, i64 24, i1 false)
  %182 = call i32 @__cxa_atexit(ptr nonnull @_ZNSt6vectorINSt7__cxx1112basic_stringIcSt11char_traitsIcESaIcEEESaIS5_EED2Ev, ptr nonnull @_ZN5osgeo4proj2io12WKTConstants10constants_B5cxx11E, ptr nonnull @__dso_handle) #20
  %183 = call noundef ptr @_ZN5osgeo4proj2io12WKTConstants26createAndAddToConstantListEPKc(ptr noundef nonnull @.str.36)
  store ptr getelementptr inbounds nuw (i8, ptr @_ZN5osgeo4proj2io12WKTConstants6GEOCCSB5cxx11E, i64 16), ptr @_ZN5osgeo4proj2io12WKTConstants6GEOCCSB5cxx11E, align 8, !tbaa !32
  call void @llvm.memcpy.p0.p0.i64(ptr noundef nonnull align 8 dereferenceable(6) getelementptr inbounds nuw (i8, ptr @_ZN5osgeo4proj2io12WKTConstants6GEOCCSB5cxx11E, i64 16), ptr noundef nonnull align 1 dereferenceable(6) @.str.36, i64 6, i1 false)
  store i64 6, ptr getelementptr inbounds nuw (i8, ptr @_ZN5osgeo4proj2io12WKTConstants6GEOCCSB5cxx11E, i64 8), align 8, !tbaa !28
  store i8 0, ptr getelementptr inbounds nuw (i8, ptr @_ZN5osgeo4proj2io12WKTConstants6GEOCCSB5cxx11E, i64 22), align 2, !tbaa !16
  %184 = call i32 @__cxa_atexit(ptr nonnull @_ZNSt7__cxx1112basic_stringIcSt11char_traitsIcESaIcEED2Ev, ptr nonnull @_ZN5osgeo4proj2io12WKTConstants6GEOCCSB5cxx11E, ptr nonnull @__dso_handle) #20
  %185 = call noundef ptr @_ZN5osgeo4proj2io12WKTConstants26createAndAddToConstantListEPKc(ptr noundef nonnull @.str.38)
  store ptr getelementptr inbounds nuw (i8, ptr @_ZN5osgeo4proj2io12WKTConstants6GEOGCSB5cxx11E, i64 16), ptr @_ZN5osgeo4proj2io12WKTConstants6GEOGCSB5cxx11E, align 8, !tbaa !32
  call void @llvm.memcpy.p0.p0.i64(ptr noundef nonnull align 8 dereferenceable(6) getelementptr inbounds nuw (i8, ptr @_ZN5osgeo4proj2io12WKTConstants6GEOGCSB5cxx11E, i64 16), ptr noundef nonnull align 1 dereferenceable(6) @.str.38, i64 6, i1 false)
  store i64 6, ptr getelementptr inbounds nuw (i8, ptr @_ZN5osgeo4proj2io12WKTConstants6GEOGCSB5cxx11E, i64 8), align 8, !tbaa !28
  store i8 0, ptr getelementptr inbounds nuw (i8, ptr @_ZN5osgeo4proj2io12WKTConstants6GEOGCSB5cxx11E, i64 22), align 2, !tbaa !16
  %186 = call i32 @__cxa_atexit(ptr nonnull @_ZNSt7__cxx1112basic_stringIcSt11char_traitsIcESaIcEED2Ev, ptr nonnull @_ZN5osgeo4proj2io12WKTConstants6GEOGCSB5cxx11E, ptr nonnull @__dso_handle) #20
  %187 = call noundef ptr @_ZN5osgeo4proj2io12WKTConstants26createAndAddToConstantListEPKc(ptr noundef nonnull @.str.40)
  store ptr getelementptr inbounds nuw (i8, ptr @_ZN5osgeo4proj2io12WKTConstants5DATUMB5cxx11E, i64 16), ptr @_ZN5osgeo4proj2io12WKTConstants5DATUMB5cxx11E, align 8, !tbaa !32
  call void @llvm.memcpy.p0.p0.i64(ptr noundef nonnull align 8 dereferenceable(5) getelementptr inbounds nuw (i8, ptr @_ZN5osgeo4proj2io12WKTConstants5DATUMB5cxx11E, i64 16), ptr noundef nonnull align 1 dereferenceable(5) @.str.40, i64 5, i1 false)
  store i64 5, ptr getelementptr inbounds nuw (i8, ptr @_ZN5osgeo4proj2io12WKTConstants5DATUMB5cxx11E, i64 8), align 8, !tbaa !28
  store i8 0, ptr getelementptr inbounds nuw (i8, ptr @_ZN5osgeo4proj2io12WKTConstants5DATUMB5cxx11E, i64 21), align 1, !tbaa !16
  %188 = call i32 @__cxa_atexit(ptr nonnull @_ZNSt7__cxx1112basic_stringIcSt11char_traitsIcESaIcEED2Ev, ptr nonnull @_ZN5osgeo4proj2io12WKTConstants5DATUMB5cxx11E, ptr nonnull @__dso_handle) #20
  %189 = call noundef ptr @_ZN5osgeo4proj2io12WKTConstants26createAndAddToConstantListEPKc(ptr noundef nonnull @.str.42)
  store ptr getelementptr inbounds nuw (i8, ptr @_ZN5osgeo4proj2io12WKTConstants4UNITB5cxx11E, i64 16), ptr @_ZN5osgeo4proj2io12WKTConstants4UNITB5cxx11E, align 8, !tbaa !32
  store i32 1414090325, ptr getelementptr inbounds nuw (i8, ptr @_ZN5osgeo4proj2io12WKTConstants4UNITB5cxx11E, i64 16), align 8
  store i64 4, ptr getelementptr inbounds nuw (i8, ptr @_ZN5osgeo4proj2io12WKTConstants4UNITB5cxx11E, i64 8), align 8, !tbaa !28
  store i8 0, ptr getelementptr inbounds nuw (i8, ptr @_ZN5osgeo4proj2io12WKTConstants4UNITB5cxx11E, i64 20), align 4, !tbaa !16
  %190 = call i32 @__cxa_atexit(ptr nonnull @_ZNSt7__cxx1112basic_stringIcSt11char_traitsIcESaIcEED2Ev, ptr nonnull @_ZN5osgeo4proj2io12WKTConstants4UNITB5cxx11E, ptr nonnull @__dso_handle) #20
  %191 = call noundef ptr @_ZN5osgeo4proj2io12WKTConstants26createAndAddToConstantListEPKc(ptr noundef nonnull @.str.44)
  store ptr getelementptr inbounds nuw (i8, ptr @_ZN5osgeo4proj2io12WKTConstants8SPHEROIDB5cxx11E, i64 16), ptr @_ZN5osgeo4proj2io12WKTConstants8SPHEROIDB5cxx11E, align 8, !tbaa !32
  store i64 4920551282647257171, ptr getelementptr inbounds nuw (i8, ptr @_ZN5osgeo4proj2io12WKTConstants8SPHEROIDB5cxx11E, i64 16), align 8
  store i64 8, ptr getelementptr inbounds nuw (i8, ptr @_ZN5osgeo4proj2io12WKTConstants8SPHEROIDB5cxx11E, i64 8), align 8, !tbaa !28
  store i8 0, ptr getelementptr inbounds nuw (i8, ptr @_ZN5osgeo4proj2io12WKTConstants8SPHEROIDB5cxx11E, i64 24), align 8, !tbaa !16
  %192 = call i32 @__cxa_atexit(ptr nonnull @_ZNSt7__cxx1112basic_stringIcSt11char_traitsIcESaIcEED2Ev, ptr nonnull @_ZN5osgeo4proj2io12WKTConstants8SPHEROIDB5cxx11E, ptr nonnull @__dso_handle) #20
  %193 = call noundef ptr @_ZN5osgeo4proj2io12WKTConstants26createAndAddToConstantListEPKc(ptr noundef nonnull @.str.46)
  store ptr getelementptr inbounds nuw (i8, ptr @_ZN5osgeo4proj2io12WKTConstants4AXISB5cxx11E, i64 16), ptr @_ZN5osgeo4proj2io12WKTConstants4AXISB5cxx11E, align 8, !tbaa !32
  store i32 1397315649, ptr getelementptr inbounds nuw (i8, ptr @_ZN5osgeo4proj2io12WKTConstants4AXISB5cxx11E, i64 16), align 8
  store i64 4, ptr getelementptr inbounds nuw (i8, ptr @_ZN5osgeo4proj2io12WKTConstants4AXISB5cxx11E, i64 8), align 8, !tbaa !28
  store i8 0, ptr getelementptr inbounds nuw (i8, ptr @_ZN5osgeo4proj2io12WKTConstants4AXISB5cxx11E, i64 20), align 4, !tbaa !16
  %194 = call i32 @__cxa_atexit(ptr nonnull @_ZNSt7__cxx1112basic_stringIcSt11char_traitsIcESaIcEED2Ev, ptr nonnull @_ZN5osgeo4proj2io12WKTConstants4AXISB5cxx11E, ptr nonnull @__dso_handle) #20
  %195 = call noundef ptr @_ZN5osgeo4proj2io12WKTConstants26createAndAddToConstantListEPKc(ptr noundef nonnull @.str.48)
  store ptr getelementptr inbounds nuw (i8, ptr @_ZN5osgeo4proj2io12WKTConstants6PRIMEMB5cxx11E, i64 16), ptr @_ZN5osgeo4proj2io12WKTConstants6PRIMEMB5cxx11E, align 8, !tbaa !32
  call void @llvm.memcpy.p0.p0.i64(ptr noundef nonnull align 8 dereferenceable(6) getelementptr inbounds nuw (i8, ptr @_ZN5osgeo4proj2io12WKTConstants6PRIMEMB5cxx11E, i64 16), ptr noundef nonnull align 1 dereferenceable(6) @.str.48, i64 6, i1 false)
  store i64 6, ptr getelementptr inbounds nuw (i8, ptr @_ZN5osgeo4proj2io12WKTConstants6PRIMEMB5cxx11E, i64 8), align 8, !tbaa !28
  store i8 0, ptr getelementptr inbounds nuw (i8, ptr @_ZN5osgeo4proj2io12WKTConstants6PRIMEMB5cxx11E, i64 22), align 2, !tbaa !16
  %196 = call i32 @__cxa_atexit(ptr nonnull @_ZNSt7__cxx1112basic_stringIcSt11char_traitsIcESaIcEED2Ev, ptr nonnull @_ZN5osgeo4proj2io12WKTConstants6PRIMEMB5cxx11E, ptr nonnull @__dso_handle) #20
  %197 = call noundef ptr @_ZN5osgeo4proj2io12WKTConstants26createAndAddToConstantListEPKc(ptr noundef nonnull @.str.50)
  store ptr getelementptr inbounds nuw (i8, ptr @_ZN5osgeo4proj2io12WKTConstants9AUTHORITYB5cxx11E, i64 16), ptr @_ZN5osgeo4proj2io12WKTConstants9AUTHORITYB5cxx11E, align 8, !tbaa !32
  call void @llvm.memcpy.p0.p0.i64(ptr noundef nonnull align 8 dereferenceable(9) getelementptr inbounds nuw (i8, ptr @_ZN5osgeo4proj2io12WKTConstants9AUTHORITYB5cxx11E, i64 16), ptr noundef nonnull align 1 dereferenceable(9) @.str.50, i64 9, i1 false)
  store i64 9, ptr getelementptr inbounds nuw (i8, ptr @_ZN5osgeo4proj2io12WKTConstants9AUTHORITYB5cxx11E, i64 8), align 8, !tbaa !28
  store i8 0, ptr getelementptr inbounds nuw (i8, ptr @_ZN5osgeo4proj2io12WKTConstants9AUTHORITYB5cxx11E, i64 25), align 1, !tbaa !16
  %198 = call i32 @__cxa_atexit(ptr nonnull @_ZNSt7__cxx1112basic_stringIcSt11char_traitsIcESaIcEED2Ev, ptr nonnull @_ZN5osgeo4proj2io12WKTConstants9AUTHORITYB5cxx11E, ptr nonnull @__dso_handle) #20
  %199 = call noundef ptr @_ZN5osgeo4proj2io12WKTConstants26createAndAddToConstantListEPKc(ptr noundef nonnull @.str.52)
  store ptr getelementptr inbounds nuw (i8, ptr @_ZN5osgeo4proj2io12WKTConstants6PROJCSB5cxx11E, i64 16), ptr @_ZN5osgeo4proj2io12WKTConstants6PROJCSB5cxx11E, align 8, !tbaa !32
  call void @llvm.memcpy.p0.p0.i64(ptr noundef nonnull align 8 dereferenceable(6) getelementptr inbounds nuw (i8, ptr @_ZN5osgeo4proj2io12WKTConstants6PROJCSB5cxx11E, i64 16), ptr noundef nonnull align 1 dereferenceable(6) @.str.52, i64 6, i1 false)
  store i64 6, ptr getelementptr inbounds nuw (i8, ptr @_ZN5osgeo4proj2io12WKTConstants6PROJCSB5cxx11E, i64 8), align 8, !tbaa !28
  store i8 0, ptr getelementptr inbounds nuw (i8, ptr @_ZN5osgeo4proj2io12WKTConstants6PROJCSB5cxx11E, i64 22), align 2, !tbaa !16
  %200 = call i32 @__cxa_atexit(ptr nonnull @_ZNSt7__cxx1112basic_stringIcSt11char_traitsIcESaIcEED2Ev, ptr nonnull @_ZN5osgeo4proj2io12WKTConstants6PROJCSB5cxx11E, ptr nonnull @__dso_handle) #20
  %201 = call noundef ptr @_ZN5osgeo4proj2io12WKTConstants26createAndAddToConstantListEPKc(ptr noundef nonnull @.str.54)
  store ptr getelementptr inbounds nuw (i8, ptr @_ZN5osgeo4proj2io12WKTConstants10PROJECTIONB5cxx11E, i64 16), ptr @_ZN5osgeo4proj2io12WKTConstants10PROJECTIONB5cxx11E, align 8, !tbaa !32
  call void @llvm.memcpy.p0.p0.i64(ptr noundef nonnull align 8 dereferenceable(10) getelementptr inbounds nuw (i8, ptr @_ZN5osgeo4proj2io12WKTConstants10PROJECTIONB5cxx11E, i64 16), ptr noundef nonnull align 1 dereferenceable(10) @.str.54, i64 10, i1 false)
  store i64 10, ptr getelementptr inbounds nuw (i8, ptr @_ZN5osgeo4proj2io12WKTConstants10PROJECTIONB5cxx11E, i64 8), align 8, !tbaa !28
  store i8 0, ptr getelementptr inbounds nuw (i8, ptr @_ZN5osgeo4proj2io12WKTConstants10PROJECTIONB5cxx11E, i64 26), align 2, !tbaa !16
  %202 = call i32 @__cxa_atexit(ptr nonnull @_ZNSt7__cxx1112basic_stringIcSt11char_traitsIcESaIcEED2Ev, ptr nonnull @_ZN5osgeo4proj2io12WKTConstants10PROJECTIONB5cxx11E, ptr nonnull @__dso_handle) #20
  %203 = call noundef ptr @_ZN5osgeo4proj2io12WKTConstants26createAndAddToConstantListEPKc(ptr noundef nonnull @.str.56)
  store ptr getelementptr inbounds nuw (i8, ptr @_ZN5osgeo4proj2io12WKTConstants9PARAMETERB5cxx11E, i64 16), ptr @_ZN5osgeo4proj2io12WKTConstants9PARAMETERB5cxx11E, align 8, !tbaa !32
  call void @llvm.memcpy.p0.p0.i64(ptr noundef nonnull align 8 dereferenceable(9) getelementptr inbounds nuw (i8, ptr @_ZN5osgeo4proj2io12WKTConstants9PARAMETERB5cxx11E, i64 16), ptr noundef nonnull align 1 dereferenceable(9) @.str.56, i64 9, i1 false)
  store i64 9, ptr getelementptr inbounds nuw (i8, ptr @_ZN5osgeo4proj2io12WKTConstants9PARAMETERB5cxx11E, i64 8), align 8, !tbaa !28
  store i8 0, ptr getelementptr inbounds nuw (i8, ptr @_ZN5osgeo4proj2io12WKTConstants9PARAMETERB5cxx11E, i64 25), align 1, !tbaa !16
  %204 = call i32 @__cxa_atexit(ptr nonnull @_ZNSt7__cxx1112basic_stringIcSt11char_traitsIcESaIcEED2Ev, ptr nonnull @_ZN5osgeo4proj2io12WKTConstants9PARAMETERB5cxx11E, ptr nonnull @__dso_handle) #20
  %205 = call noundef ptr @_ZN5osgeo4proj2io12WKTConstants26createAndAddToConstantListEPKc(ptr noundef nonnull @.str.58)
  store ptr getelementptr inbounds nuw (i8, ptr @_ZN5osgeo4proj2io12WKTConstants7VERT_CSB5cxx11E, i64 16), ptr @_ZN5osgeo4proj2io12WKTConstants7VERT_CSB5cxx11E, align 8, !tbaa !32
  call void @llvm.memcpy.p0.p0.i64(ptr noundef nonnull align 8 dereferenceable(7) getelementptr inbounds nuw (i8, ptr @_ZN5osgeo4proj2io12WKTConstants7VERT_CSB5cxx11E, i64 16), ptr noundef nonnull align 1 dereferenceable(7) @.str.58, i64 7, i1 false)
  store i64 7, ptr getelementptr inbounds nuw (i8, ptr @_ZN5osgeo4proj2io12WKTConstants7VERT_CSB5cxx11E, i64 8), align 8, !tbaa !28
  store i8 0, ptr getelementptr inbounds nuw (i8, ptr @_ZN5osgeo4proj2io12WKTConstants7VERT_CSB5cxx11E, i64 23), align 1, !tbaa !16
  %206 = call i32 @__cxa_atexit(ptr nonnull @_ZNSt7__cxx1112basic_stringIcSt11char_traitsIcESaIcEED2Ev, ptr nonnull @_ZN5osgeo4proj2io12WKTConstants7VERT_CSB5cxx11E, ptr nonnull @__dso_handle) #20
  %207 = call noundef ptr @_ZN5osgeo4proj2io12WKTConstants26createAndAddToConstantListEPKc(ptr noundef nonnull @.str.60)
  store ptr getelementptr inbounds nuw (i8, ptr @_ZN5osgeo4proj2io12WKTConstants6VERTCSB5cxx11E, i64 16), ptr @_ZN5osgeo4proj2io12WKTConstants6VERTCSB5cxx11E, align 8, !tbaa !32
  call void @llvm.memcpy.p0.p0.i64(ptr noundef nonnull align 8 dereferenceable(6) getelementptr inbounds nuw (i8, ptr @_ZN5osgeo4proj2io12WKTConstants6VERTCSB5cxx11E, i64 16), ptr noundef nonnull align 1 dereferenceable(6) @.str.60, i64 6, i1 false)
  store i64 6, ptr getelementptr inbounds nuw (i8, ptr @_ZN5osgeo4proj2io12WKTConstants6VERTCSB5cxx11E, i64 8), align 8, !tbaa !28
  store i8 0, ptr getelementptr inbounds nuw (i8, ptr @_ZN5osgeo4proj2io12WKTConstants6VERTCSB5cxx11E, i64 22), align 2, !tbaa !16
  %208 = call i32 @__cxa_atexit(ptr nonnull @_ZNSt7__cxx1112basic_stringIcSt11char_traitsIcESaIcEED2Ev, ptr nonnull @_ZN5osgeo4proj2io12WKTConstants6VERTCSB5cxx11E, ptr nonnull @__dso_handle) #20
  %209 = call noundef ptr @_ZN5osgeo4proj2io12WKTConstants26createAndAddToConstantListEPKc(ptr noundef nonnull @.str.62)
  store ptr getelementptr inbounds nuw (i8, ptr @_ZN5osgeo4proj2io12WKTConstants10VERT_DATUMB5cxx11E, i64 16), ptr @_ZN5osgeo4proj2io12WKTConstants10VERT_DATUMB5cxx11E, align 8, !tbaa !32
  call void @llvm.memcpy.p0.p0.i64(ptr noundef nonnull align 8 dereferenceable(10) getelementptr inbounds nuw (i8, ptr @_ZN5osgeo4proj2io12WKTConstants10VERT_DATUMB5cxx11E, i64 16), ptr noundef nonnull align 1 dereferenceable(10) @.str.62, i64 10, i1 false)
  store i64 10, ptr getelementptr inbounds nuw (i8, ptr @_ZN5osgeo4proj2io12WKTConstants10VERT_DATUMB5cxx11E, i64 8), align 8, !tbaa !28
  store i8 0, ptr getelementptr inbounds nuw (i8, ptr @_ZN5osgeo4proj2io12WKTConstants10VERT_DATUMB5cxx11E, i64 26), align 2, !tbaa !16
  %210 = call i32 @__cxa_atexit(ptr nonnull @_ZNSt7__cxx1112basic_stringIcSt11char_traitsIcESaIcEED2Ev, ptr nonnull @_ZN5osgeo4proj2io12WKTConstants10VERT_DATUMB5cxx11E, ptr nonnull @__dso_handle) #20
  %211 = call noundef ptr @_ZN5osgeo4proj2io12WKTConstants26createAndAddToConstantListEPKc(ptr noundef nonnull @.str.64)
  store ptr getelementptr inbounds nuw (i8, ptr @_ZN5osgeo4proj2io12WKTConstants8COMPD_CSB5cxx11E, i64 16), ptr @_ZN5osgeo4proj2io12WKTConstants8COMPD_CSB5cxx11E, align 8, !tbaa !32
  store i64 5999743875597291331, ptr getelementptr inbounds nuw (i8, ptr @_ZN5osgeo4proj2io12WKTConstants8COMPD_CSB5cxx11E, i64 16), align 8
  store i64 8, ptr getelementptr inbounds nuw (i8, ptr @_ZN5osgeo4proj2io12WKTConstants8COMPD_CSB5cxx11E, i64 8), align 8, !tbaa !28
  store i8 0, ptr getelementptr inbounds nuw (i8, ptr @_ZN5osgeo4proj2io12WKTConstants8COMPD_CSB5cxx11E, i64 24), align 8, !tbaa !16
  %212 = call i32 @__cxa_atexit(ptr nonnull @_ZNSt7__cxx1112basic_stringIcSt11char_traitsIcESaIcEED2Ev, ptr nonnull @_ZN5osgeo4proj2io12WKTConstants8COMPD_CSB5cxx11E, ptr nonnull @__dso_handle) #20
  %213 = call noundef ptr @_ZN5osgeo4proj2io12WKTConstants26createAndAddToConstantListEPKc(ptr noundef nonnull @.str.66)
  store ptr getelementptr inbounds nuw (i8, ptr @_ZN5osgeo4proj2io12WKTConstants7TOWGS84B5cxx11E, i64 16), ptr @_ZN5osgeo4proj2io12WKTConstants7TOWGS84B5cxx11E, align 8, !tbaa !32
  call void @llvm.memcpy.p0.p0.i64(ptr noundef nonnull align 8 dereferenceable(7) getelementptr inbounds nuw (i8, ptr @_ZN5osgeo4proj2io12WKTConstants7TOWGS84B5cxx11E, i64 16), ptr noundef nonnull align 1 dereferenceable(7) @.str.66, i64 7, i1 false)
  store i64 7, ptr getelementptr inbounds nuw (i8, ptr @_ZN5osgeo4proj2io12WKTConstants7TOWGS84B5cxx11E, i64 8), align 8, !tbaa !28
  store i8 0, ptr getelementptr inbounds nuw (i8, ptr @_ZN5osgeo4proj2io12WKTConstants7TOWGS84B5cxx11E, i64 23), align 1, !tbaa !16
  %214 = call i32 @__cxa_atexit(ptr nonnull @_ZNSt7__cxx1112basic_stringIcSt11char_traitsIcESaIcEED2Ev, ptr nonnull @_ZN5osgeo4proj2io12WKTConstants7TOWGS84B5cxx11E, ptr nonnull @__dso_handle) #20
  %215 = call noundef ptr @_ZN5osgeo4proj2io12WKTConstants26createAndAddToConstantListEPKc(ptr noundef nonnull @.str.68)
  store ptr getelementptr inbounds nuw (i8, ptr @_ZN5osgeo4proj2io12WKTConstants9EXTENSIONB5cxx11E, i64 16), ptr @_ZN5osgeo4proj2io12WKTConstants9EXTENSIONB5cxx11E, align 8, !tbaa !32
  call void @llvm.memcpy.p0.p0.i64(ptr noundef nonnull align 8 dereferenceable(9) getelementptr inbounds nuw (i8, ptr @_ZN5osgeo4proj2io12WKTConstants9EXTENSIONB5cxx11E, i64 16), ptr noundef nonnull align 1 dereferenceable(9) @.str.68, i64 9, i1 false)
  store i64 9, ptr getelementptr inbounds nuw (i8, ptr @_ZN5osgeo4proj2io12WKTConstants9EXTENSIONB5cxx11E, i64 8), align 8, !tbaa !28
  store i8 0, ptr getelementptr inbounds nuw (i8, ptr @_ZN5osgeo4proj2io12WKTConstants9EXTENSIONB5cxx11E, i64 25), align 1, !tbaa !16
  %216 = call i32 @__cxa_atexit(ptr nonnull @_ZNSt7__cxx1112basic_stringIcSt11char_traitsIcESaIcEED2Ev, ptr nonnull @_ZN5osgeo4proj2io12WKTConstants9EXTENSIONB5cxx11E, ptr nonnull @__dso_handle) #20
  %217 = call noundef ptr @_ZN5osgeo4proj2io12WKTConstants26createAndAddToConstantListEPKc(ptr noundef nonnull @.str.70)
  store ptr getelementptr inbounds nuw (i8, ptr @_ZN5osgeo4proj2io12WKTConstants8LOCAL_CSB5cxx11E, i64 16), ptr @_ZN5osgeo4proj2io12WKTConstants8LOCAL_CSB5cxx11E, align 8, !tbaa !32
  store i64 5999743909704716108, ptr getelementptr inbounds nuw (i8, ptr @_ZN5osgeo4proj2io12WKTConstants8LOCAL_CSB5cxx11E, i64 16), align 8
  store i64 8, ptr getelementptr inbounds nuw (i8, ptr @_ZN5osgeo4proj2io12WKTConstants8LOCAL_CSB5cxx11E, i64 8), align 8, !tbaa !28
  store i8 0, ptr getelementptr inbounds nuw (i8, ptr @_ZN5osgeo4proj2io12WKTConstants8LOCAL_CSB5cxx11E, i64 24), align 8, !tbaa !16
  %218 = call i32 @__cxa_atexit(ptr nonnull @_ZNSt7__cxx1112basic_stringIcSt11char_traitsIcESaIcEED2Ev, ptr nonnull @_ZN5osgeo4proj2io12WKTConstants8LOCAL_CSB5cxx11E, ptr nonnull @__dso_handle) #20
  %219 = call noundef ptr @_ZN5osgeo4proj2io12WKTConstants26createAndAddToConstantListEPKc(ptr noundef nonnull @.str.72)
  store ptr getelementptr inbounds nuw (i8, ptr @_ZN5osgeo4proj2io12WKTConstants11LOCAL_DATUMB5cxx11E, i64 16), ptr @_ZN5osgeo4proj2io12WKTConstants11LOCAL_DATUMB5cxx11E, align 8, !tbaa !32
  call void @llvm.memcpy.p0.p0.i64(ptr noundef nonnull align 8 dereferenceable(11) getelementptr inbounds nuw (i8, ptr @_ZN5osgeo4proj2io12WKTConstants11LOCAL_DATUMB5cxx11E, i64 16), ptr noundef nonnull align 1 dereferenceable(11) @.str.72, i64 11, i1 false)
  store i64 11, ptr getelementptr inbounds nuw (i8, ptr @_ZN5osgeo4proj2io12WKTConstants11LOCAL_DATUMB5cxx11E, i64 8), align 8, !tbaa !28
  store i8 0, ptr getelementptr inbounds nuw (i8, ptr @_ZN5osgeo4proj2io12WKTConstants11LOCAL_DATUMB5cxx11E, i64 27), align 1, !tbaa !16
  %220 = call i32 @__cxa_atexit(ptr nonnull @_ZNSt7__cxx1112basic_stringIcSt11char_traitsIcESaIcEED2Ev, ptr nonnull @_ZN5osgeo4proj2io12WKTConstants11LOCAL_DATUMB5cxx11E, ptr nonnull @__dso_handle) #20
  %221 = call noundef ptr @_ZN5osgeo4proj2io12WKTConstants26createAndAddToConstantListEPKc(ptr noundef nonnull @.str.74)
  store ptr getelementptr inbounds nuw (i8, ptr @_ZN5osgeo4proj2io12WKTConstants7LINUNITB5cxx11E, i64 16), ptr @_ZN5osgeo4proj2io12WKTConstants7LINUNITB5cxx11E, align 8, !tbaa !32
  call void @llvm.memcpy.p0.p0.i64(ptr noundef nonnull align 8 dereferenceable(7) getelementptr inbounds nuw (i8, ptr @_ZN5osgeo4proj2io12WKTConstants7LINUNITB5cxx11E, i64 16), ptr noundef nonnull align 1 dereferenceable(7) @.str.74, i64 7, i1 false)
  store i64 7, ptr getelementptr inbounds nuw (i8, ptr @_ZN5osgeo4proj2io12WKTConstants7LINUNITB5cxx11E, i64 8), align 8, !tbaa !28
  store i8 0, ptr getelementptr inbounds nuw (i8, ptr @_ZN5osgeo4proj2io12WKTConstants7LINUNITB5cxx11E, i64 23), align 1, !tbaa !16
  %222 = call i32 @__cxa_atexit(ptr nonnull @_ZNSt7__cxx1112basic_stringIcSt11char_traitsIcESaIcEED2Ev, ptr nonnull @_ZN5osgeo4proj2io12WKTConstants7LINUNITB5cxx11E, ptr nonnull @__dso_handle) #20
  %223 = call noundef ptr @_ZN5osgeo4proj2io12WKTConstants26createAndAddToConstantListEPKc(ptr noundef nonnull @.str.76)
  store ptr getelementptr inbounds nuw (i8, ptr @_ZN5osgeo4proj2io12WKTConstants7GEODCRSB5cxx11E, i64 16), ptr @_ZN5osgeo4proj2io12WKTConstants7GEODCRSB5cxx11E, align 8, !tbaa !32
  call void @llvm.memcpy.p0.p0.i64(ptr noundef nonnull align 8 dereferenceable(7) getelementptr inbounds nuw (i8, ptr @_ZN5osgeo4proj2io12WKTConstants7GEODCRSB5cxx11E, i64 16), ptr noundef nonnull align 1 dereferenceable(7) @.str.76, i64 7, i1 false)
  store i64 7, ptr getelementptr inbounds nuw (i8, ptr @_ZN5osgeo4proj2io12WKTConstants7GEODCRSB5cxx11E, i64 8), align 8, !tbaa !28
  store i8 0, ptr getelementptr inbounds nuw (i8, ptr @_ZN5osgeo4proj2io12WKTConstants7GEODCRSB5cxx11E, i64 23), align 1, !tbaa !16
  %224 = call i32 @__cxa_atexit(ptr nonnull @_ZNSt7__cxx1112basic_stringIcSt11char_traitsIcESaIcEED2Ev, ptr nonnull @_ZN5osgeo4proj2io12WKTConstants7GEODCRSB5cxx11E, ptr nonnull @__dso_handle) #20
  %225 = call noundef ptr @_ZN5osgeo4proj2io12WKTConstants26createAndAddToConstantListEPKc(ptr noundef nonnull @.str.78)
  store ptr getelementptr inbounds nuw (i8, ptr @_ZN5osgeo4proj2io12WKTConstants10LENGTHUNITB5cxx11E, i64 16), ptr @_ZN5osgeo4proj2io12WKTConstants10LENGTHUNITB5cxx11E, align 8, !tbaa !32
  call void @llvm.memcpy.p0.p0.i64(ptr noundef nonnull align 8 dereferenceable(10) getelementptr inbounds nuw (i8, ptr @_ZN5osgeo4proj2io12WKTConstants10LENGTHUNITB5cxx11E, i64 16), ptr noundef nonnull align 1 dereferenceable(10) @.str.78, i64 10, i1 false)
  store i64 10, ptr getelementptr inbounds nuw (i8, ptr @_ZN5osgeo4proj2io12WKTConstants10LENGTHUNITB5cxx11E, i64 8), align 8, !tbaa !28
  store i8 0, ptr getelementptr inbounds nuw (i8, ptr @_ZN5osgeo4proj2io12WKTConstants10LENGTHUNITB5cxx11E, i64 26), align 2, !tbaa !16
  %226 = call i32 @__cxa_atexit(ptr nonnull @_ZNSt7__cxx1112basic_stringIcSt11char_traitsIcESaIcEED2Ev, ptr nonnull @_ZN5osgeo4proj2io12WKTConstants10LENGTHUNITB5cxx11E, ptr nonnull @__dso_handle) #20
  %227 = call noundef ptr @_ZN5osgeo4proj2io12WKTConstants26createAndAddToConstantListEPKc(ptr noundef nonnull @.str.80)
  store ptr getelementptr inbounds nuw (i8, ptr @_ZN5osgeo4proj2io12WKTConstants9ANGLEUNITB5cxx11E, i64 16), ptr @_ZN5osgeo4proj2io12WKTConstants9ANGLEUNITB5cxx11E, align 8, !tbaa !32
  call void @llvm.memcpy.p0.p0.i64(ptr noundef nonnull align 8 dereferenceable(9) getelementptr inbounds nuw (i8, ptr @_ZN5osgeo4proj2io12WKTConstants9ANGLEUNITB5cxx11E, i64 16), ptr noundef nonnull align 1 dereferenceable(9) @.str.80, i64 9, i1 false)
  store i64 9, ptr getelementptr inbounds nuw (i8, ptr @_ZN5osgeo4proj2io12WKTConstants9ANGLEUNITB5cxx11E, i64 8), align 8, !tbaa !28
  store i8 0, ptr getelementptr inbounds nuw (i8, ptr @_ZN5osgeo4proj2io12WKTConstants9ANGLEUNITB5cxx11E, i64 25), align 1, !tbaa !16
  %228 = call i32 @__cxa_atexit(ptr nonnull @_ZNSt7__cxx1112basic_stringIcSt11char_traitsIcESaIcEED2Ev, ptr nonnull @_ZN5osgeo4proj2io12WKTConstants9ANGLEUNITB5cxx11E, ptr nonnull @__dso_handle) #20
  %229 = call noundef ptr @_ZN5osgeo4proj2io12WKTConstants26createAndAddToConstantListEPKc(ptr noundef nonnull @.str.82)
  store ptr getelementptr inbounds nuw (i8, ptr @_ZN5osgeo4proj2io12WKTConstants9SCALEUNITB5cxx11E, i64 16), ptr @_ZN5osgeo4proj2io12WKTConstants9SCALEUNITB5cxx11E, align 8, !tbaa !32
  call void @llvm.memcpy.p0.p0.i64(ptr noundef nonnull align 8 dereferenceable(9) getelementptr inbounds nuw (i8, ptr @_ZN5osgeo4proj2io12WKTConstants9SCALEUNITB5cxx11E, i64 16), ptr noundef nonnull align 1 dereferenceable(9) @.str.82, i64 9, i1 false)
  store i64 9, ptr getelementptr inbounds nuw (i8, ptr @_ZN5osgeo4proj2io12WKTConstants9SCALEUNITB5cxx11E, i64 8), align 8, !tbaa !28
  store i8 0, ptr getelementptr inbounds nuw (i8, ptr @_ZN5osgeo4proj2io12WKTConstants9SCALEUNITB5cxx11E, i64 25), align 1, !tbaa !16
  %230 = call i32 @__cxa_atexit(ptr nonnull @_ZNSt7__cxx1112basic_stringIcSt11char_traitsIcESaIcEED2Ev, ptr nonnull @_ZN5osgeo4proj2io12WKTConstants9SCALEUNITB5cxx11E, ptr nonnull @__dso_handle) #20
  %231 = call noundef ptr @_ZN5osgeo4proj2io12WKTConstants26createAndAddToConstantListEPKc(ptr noundef nonnull @.str.84)
  store ptr getelementptr inbounds nuw (i8, ptr @_ZN5osgeo4proj2io12WKTConstants8TIMEUNITB5cxx11E, i64 16), ptr @_ZN5osgeo4proj2io12WKTConstants8TIMEUNITB5cxx11E, align 8, !tbaa !32
  store i64 6073471700627704148, ptr getelementptr inbounds nuw (i8, ptr @_ZN5osgeo4proj2io12WKTConstants8TIMEUNITB5cxx11E, i64 16), align 8
  store i64 8, ptr getelementptr inbounds nuw (i8, ptr @_ZN5osgeo4proj2io12WKTConstants8TIMEUNITB5cxx11E, i64 8), align 8, !tbaa !28
  store i8 0, ptr getelementptr inbounds nuw (i8, ptr @_ZN5osgeo4proj2io12WKTConstants8TIMEUNITB5cxx11E, i64 24), align 8, !tbaa !16
  %232 = call i32 @__cxa_atexit(ptr nonnull @_ZNSt7__cxx1112basic_stringIcSt11char_traitsIcESaIcEED2Ev, ptr nonnull @_ZN5osgeo4proj2io12WKTConstants8TIMEUNITB5cxx11E, ptr nonnull @__dso_handle) #20
  %233 = call noundef ptr @_ZN5osgeo4proj2io12WKTConstants26createAndAddToConstantListEPKc(ptr noundef nonnull @.str.86)
  store ptr getelementptr inbounds nuw (i8, ptr @_ZN5osgeo4proj2io12WKTConstants9ELLIPSOIDB5cxx11E, i64 16), ptr @_ZN5osgeo4proj2io12WKTConstants9ELLIPSOIDB5cxx11E, align 8, !tbaa !32
  call void @llvm.memcpy.p0.p0.i64(ptr noundef nonnull align 8 dereferenceable(9) getelementptr inbounds nuw (i8, ptr @_ZN5osgeo4proj2io12WKTConstants9ELLIPSOIDB5cxx11E, i64 16), ptr noundef nonnull align 1 dereferenceable(9) @.str.86, i64 9, i1 false)
  store i64 9, ptr getelementptr inbounds nuw (i8, ptr @_ZN5osgeo4proj2io12WKTConstants9ELLIPSOIDB5cxx11E, i64 8), align 8, !tbaa !28
  store i8 0, ptr getelementptr inbounds nuw (i8, ptr @_ZN5osgeo4proj2io12WKTConstants9ELLIPSOIDB5cxx11E, i64 25), align 1, !tbaa !16
  %234 = call i32 @__cxa_atexit(ptr nonnull @_ZNSt7__cxx1112basic_stringIcSt11char_traitsIcESaIcEED2Ev, ptr nonnull @_ZN5osgeo4proj2io12WKTConstants9ELLIPSOIDB5cxx11E, ptr nonnull @__dso_handle) #20
  %235 = call noundef ptr @_ZN5osgeo4proj2io12WKTConstants26createAndAddToConstantListEPKc(ptr noundef nonnull @.str.88)
  store ptr getelementptr inbounds nuw (i8, ptr @_ZN5osgeo4proj2io12WKTConstants3CS_B5cxx11E, i64 16), ptr @_ZN5osgeo4proj2io12WKTConstants3CS_B5cxx11E, align 8, !tbaa !32
  store i16 21315, ptr getelementptr inbounds nuw (i8, ptr @_ZN5osgeo4proj2io12WKTConstants3CS_B5cxx11E, i64 16), align 8
  store i64 2, ptr getelementptr inbounds nuw (i8, ptr @_ZN5osgeo4proj2io12WKTConstants3CS_B5cxx11E, i64 8), align 8, !tbaa !28
  store i8 0, ptr getelementptr inbounds nuw (i8, ptr @_ZN5osgeo4proj2io12WKTConstants3CS_B5cxx11E, i64 18), align 2, !tbaa !16
  %236 = call i32 @__cxa_atexit(ptr nonnull @_ZNSt7__cxx1112basic_stringIcSt11char_traitsIcESaIcEED2Ev, ptr nonnull @_ZN5osgeo4proj2io12WKTConstants3CS_B5cxx11E, ptr nonnull @__dso_handle) #20
  %237 = call noundef ptr @_ZN5osgeo4proj2io12WKTConstants26createAndAddToConstantListEPKc(ptr noundef nonnull @.str.90)
  store ptr getelementptr inbounds nuw (i8, ptr @_ZN5osgeo4proj2io12WKTConstants2IDB5cxx11E, i64 16), ptr @_ZN5osgeo4proj2io12WKTConstants2IDB5cxx11E, align 8, !tbaa !32
  store i16 17481, ptr getelementptr inbounds nuw (i8, ptr @_ZN5osgeo4proj2io12WKTConstants2IDB5cxx11E, i64 16), align 8
  store i64 2, ptr getelementptr inbounds nuw (i8, ptr @_ZN5osgeo4proj2io12WKTConstants2IDB5cxx11E, i64 8), align 8, !tbaa !28
  store i8 0, ptr getelementptr inbounds nuw (i8, ptr @_ZN5osgeo4proj2io12WKTConstants2IDB5cxx11E, i64 18), align 2, !tbaa !16
  %238 = call i32 @__cxa_atexit(ptr nonnull @_ZNSt7__cxx1112basic_stringIcSt11char_traitsIcESaIcEED2Ev, ptr nonnull @_ZN5osgeo4proj2io12WKTConstants2IDB5cxx11E, ptr nonnull @__dso_handle) #20
  %239 = call noundef ptr @_ZN5osgeo4proj2io12WKTConstants26createAndAddToConstantListEPKc(ptr noundef nonnull @.str.92)
  store ptr getelementptr inbounds nuw (i8, ptr @_ZN5osgeo4proj2io12WKTConstants7PROJCRSB5cxx11E, i64 16), ptr @_ZN5osgeo4proj2io12WKTConstants7PROJCRSB5cxx11E, align 8, !tbaa !32
  call void @llvm.memcpy.p0.p0.i64(ptr noundef nonnull align 8 dereferenceable(7) getelementptr inbounds nuw (i8, ptr @_ZN5osgeo4proj2io12WKTConstants7PROJCRSB5cxx11E, i64 16), ptr noundef nonnull align 1 dereferenceable(7) @.str.92, i64 7, i1 false)
  store i64 7, ptr getelementptr inbounds nuw (i8, ptr @_ZN5osgeo4proj2io12WKTConstants7PROJCRSB5cxx11E, i64 8), align 8, !tbaa !28
  store i8 0, ptr getelementptr inbounds nuw (i8, ptr @_ZN5osgeo4proj2io12WKTConstants7PROJCRSB5cxx11E, i64 23), align 1, !tbaa !16
  %240 = call i32 @__cxa_atexit(ptr nonnull @_ZNSt7__cxx1112basic_stringIcSt11char_traitsIcESaIcEED2Ev, ptr nonnull @_ZN5osgeo4proj2io12WKTConstants7PROJCRSB5cxx11E, ptr nonnull @__dso_handle) #20
  %241 = call noundef ptr @_ZN5osgeo4proj2io12WKTConstants26createAndAddToConstantListEPKc(ptr noundef nonnull @.str.94)
  store ptr getelementptr inbounds nuw (i8, ptr @_ZN5osgeo4proj2io12WKTConstants11BASEGEODCRSB5cxx11E, i64 16), ptr @_ZN5osgeo4proj2io12WKTConstants11BASEGEODCRSB5cxx11E, align 8, !tbaa !32
  call void @llvm.memcpy.p0.p0.i64(ptr noundef nonnull align 8 dereferenceable(11) getelementptr inbounds nuw (i8, ptr @_ZN5osgeo4proj2io12WKTConstants11BASEGEODCRSB5cxx11E, i64 16), ptr noundef nonnull align 1 dereferenceable(11) @.str.94, i64 11, i1 false)
  store i64 11, ptr getelementptr inbounds nuw (i8, ptr @_ZN5osgeo4proj2io12WKTConstants11BASEGEODCRSB5cxx11E, i64 8), align 8, !tbaa !28
  store i8 0, ptr getelementptr inbounds nuw (i8, ptr @_ZN5osgeo4proj2io12WKTConstants11BASEGEODCRSB5cxx11E, i64 27), align 1, !tbaa !16
  %242 = call i32 @__cxa_atexit(ptr nonnull @_ZNSt7__cxx1112basic_stringIcSt11char_traitsIcESaIcEED2Ev, ptr nonnull @_ZN5osgeo4proj2io12WKTConstants11BASEGEODCRSB5cxx11E, ptr nonnull @__dso_handle) #20
  %243 = call noundef ptr @_ZN5osgeo4proj2io12WKTConstants26createAndAddToConstantListEPKc(ptr noundef nonnull @.str.96)
  store ptr getelementptr inbounds nuw (i8, ptr @_ZN5osgeo4proj2io12WKTConstants8MERIDIANB5cxx11E, i64 16), ptr @_ZN5osgeo4proj2io12WKTConstants8MERIDIANB5cxx11E, align 8, !tbaa !32
  store i64 5638868766081303885, ptr getelementptr inbounds nuw (i8, ptr @_ZN5osgeo4proj2io12WKTConstants8MERIDIANB5cxx11E, i64 16), align 8
  store i64 8, ptr getelementptr inbounds nuw (i8, ptr @_ZN5osgeo4proj2io12WKTConstants8MERIDIANB5cxx11E, i64 8), align 8, !tbaa !28
  store i8 0, ptr getelementptr inbounds nuw (i8, ptr @_ZN5osgeo4proj2io12WKTConstants8MERIDIANB5cxx11E, i64 24), align 8, !tbaa !16
  %244 = call i32 @__cxa_atexit(ptr nonnull @_ZNSt7__cxx1112basic_stringIcSt11char_traitsIcESaIcEED2Ev, ptr nonnull @_ZN5osgeo4proj2io12WKTConstants8MERIDIANB5cxx11E, ptr nonnull @__dso_handle) #20
  %245 = call noundef ptr @_ZN5osgeo4proj2io12WKTConstants26createAndAddToConstantListEPKc(ptr noundef nonnull @.str.98)
  store ptr getelementptr inbounds nuw (i8, ptr @_ZN5osgeo4proj2io12WKTConstants5ORDERB5cxx11E, i64 16), ptr @_ZN5osgeo4proj2io12WKTConstants5ORDERB5cxx11E, align 8, !tbaa !32
  call void @llvm.memcpy.p0.p0.i64(ptr noundef nonnull align 8 dereferenceable(5) getelementptr inbounds nuw (i8, ptr @_ZN5osgeo4proj2io12WKTConstants5ORDERB5cxx11E, i64 16), ptr noundef nonnull align 1 dereferenceable(5) @.str.98, i64 5, i1 false)
  store i64 5, ptr getelementptr inbounds nuw (i8, ptr @_ZN5osgeo4proj2io12WKTConstants5ORDERB5cxx11E, i64 8), align 8, !tbaa !28
  store i8 0, ptr getelementptr inbounds nuw (i8, ptr @_ZN5osgeo4proj2io12WKTConstants5ORDERB5cxx11E, i64 21), align 1, !tbaa !16
  %246 = call i32 @__cxa_atexit(ptr nonnull @_ZNSt7__cxx1112basic_stringIcSt11char_traitsIcESaIcEED2Ev, ptr nonnull @_ZN5osgeo4proj2io12WKTConstants5ORDERB5cxx11E, ptr nonnull @__dso_handle) #20
  %247 = call noundef ptr @_ZN5osgeo4proj2io12WKTConstants26createAndAddToConstantListEPKc(ptr noundef nonnull @.str.100)
  store ptr getelementptr inbounds nuw (i8, ptr @_ZN5osgeo4proj2io12WKTConstants6ANCHORB5cxx11E, i64 16), ptr @_ZN5osgeo4proj2io12WKTConstants6ANCHORB5cxx11E, align 8, !tbaa !32
  call void @llvm.memcpy.p0.p0.i64(ptr noundef nonnull align 8 dereferenceable(6) getelementptr inbounds nuw (i8, ptr @_ZN5osgeo4proj2io12WKTConstants6ANCHORB5cxx11E, i64 16), ptr noundef nonnull align 1 dereferenceable(6) @.str.100, i64 6, i1 false)
  store i64 6, ptr getelementptr inbounds nuw (i8, ptr @_ZN5osgeo4proj2io12WKTConstants6ANCHORB5cxx11E, i64 8), align 8, !tbaa !28
  store i8 0, ptr getelementptr inbounds nuw (i8, ptr @_ZN5osgeo4proj2io12WKTConstants6ANCHORB5cxx11E, i64 22), align 2, !tbaa !16
  %248 = call i32 @__cxa_atexit(ptr nonnull @_ZNSt7__cxx1112basic_stringIcSt11char_traitsIcESaIcEED2Ev, ptr nonnull @_ZN5osgeo4proj2io12WKTConstants6ANCHORB5cxx11E, ptr nonnull @__dso_handle) #20
  %249 = call noundef ptr @_ZN5osgeo4proj2io12WKTConstants26createAndAddToConstantListEPKc(ptr noundef nonnull @.str.102)
  store ptr getelementptr inbounds nuw (i8, ptr @_ZN5osgeo4proj2io12WKTConstants11ANCHOREPOCHB5cxx11E, i64 16), ptr @_ZN5osgeo4proj2io12WKTConstants11ANCHOREPOCHB5cxx11E, align 8, !tbaa !32
  call void @llvm.memcpy.p0.p0.i64(ptr noundef nonnull align 8 dereferenceable(11) getelementptr inbounds nuw (i8, ptr @_ZN5osgeo4proj2io12WKTConstants11ANCHOREPOCHB5cxx11E, i64 16), ptr noundef nonnull align 1 dereferenceable(11) @.str.102, i64 11, i1 false)
  store i64 11, ptr getelementptr inbounds nuw (i8, ptr @_ZN5osgeo4proj2io12WKTConstants11ANCHOREPOCHB5cxx11E, i64 8), align 8, !tbaa !28
  store i8 0, ptr getelementptr inbounds nuw (i8, ptr @_ZN5osgeo4proj2io12WKTConstants11ANCHOREPOCHB5cxx11E, i64 27), align 1, !tbaa !16
  %250 = call i32 @__cxa_atexit(ptr nonnull @_ZNSt7__cxx1112basic_stringIcSt11char_traitsIcESaIcEED2Ev, ptr nonnull @_ZN5osgeo4proj2io12WKTConstants11ANCHOREPOCHB5cxx11E, ptr nonnull @__dso_handle) #20
  %251 = call noundef ptr @_ZN5osgeo4proj2io12WKTConstants26createAndAddToConstantListEPKc(ptr noundef nonnull @.str.104)
  store ptr getelementptr inbounds nuw (i8, ptr @_ZN5osgeo4proj2io12WKTConstants10CONVERSIONB5cxx11E, i64 16), ptr @_ZN5osgeo4proj2io12WKTConstants10CONVERSIONB5cxx11E, align 8, !tbaa !32
  call void @llvm.memcpy.p0.p0.i64(ptr noundef nonnull align 8 dereferenceable(10) getelementptr inbounds nuw (i8, ptr @_ZN5osgeo4proj2io12WKTConstants10CONVERSIONB5cxx11E, i64 16), ptr noundef nonnull align 1 dereferenceable(10) @.str.104, i64 10, i1 false)
  store i64 10, ptr getelementptr inbounds nuw (i8, ptr @_ZN5osgeo4proj2io12WKTConstants10CONVERSIONB5cxx11E, i64 8), align 8, !tbaa !28
  store i8 0, ptr getelementptr inbounds nuw (i8, ptr @_ZN5osgeo4proj2io12WKTConstants10CONVERSIONB5cxx11E, i64 26), align 2, !tbaa !16
  %252 = call i32 @__cxa_atexit(ptr nonnull @_ZNSt7__cxx1112basic_stringIcSt11char_traitsIcESaIcEED2Ev, ptr nonnull @_ZN5osgeo4proj2io12WKTConstants10CONVERSIONB5cxx11E, ptr nonnull @__dso_handle) #20
  %253 = call noundef ptr @_ZN5osgeo4proj2io12WKTConstants26createAndAddToConstantListEPKc(ptr noundef nonnull @.str.106)
  store ptr getelementptr inbounds nuw (i8, ptr @_ZN5osgeo4proj2io12WKTConstants6METHODB5cxx11E, i64 16), ptr @_ZN5osgeo4proj2io12WKTConstants6METHODB5cxx11E, align 8, !tbaa !32
  call void @llvm.memcpy.p0.p0.i64(ptr noundef nonnull align 8 dereferenceable(6) getelementptr inbounds nuw (i8, ptr @_ZN5osgeo4proj2io12WKTConstants6METHODB5cxx11E, i64 16), ptr noundef nonnull align 1 dereferenceable(6) @.str.106, i64 6, i1 false)
  store i64 6, ptr getelementptr inbounds nuw (i8, ptr @_ZN5osgeo4proj2io12WKTConstants6METHODB5cxx11E, i64 8), align 8, !tbaa !28
  store i8 0, ptr getelementptr inbounds nuw (i8, ptr @_ZN5osgeo4proj2io12WKTConstants6METHODB5cxx11E, i64 22), align 2, !tbaa !16
  %254 = call i32 @__cxa_atexit(ptr nonnull @_ZNSt7__cxx1112basic_stringIcSt11char_traitsIcESaIcEED2Ev, ptr nonnull @_ZN5osgeo4proj2io12WKTConstants6METHODB5cxx11E, ptr nonnull @__dso_handle) #20
  %255 = call noundef ptr @_ZN5osgeo4proj2io12WKTConstants26createAndAddToConstantListEPKc(ptr noundef nonnull @.str.108)
  store ptr getelementptr inbounds nuw (i8, ptr @_ZN5osgeo4proj2io12WKTConstants6REMARKB5cxx11E, i64 16), ptr @_ZN5osgeo4proj2io12WKTConstants6REMARKB5cxx11E, align 8, !tbaa !32
  call void @llvm.memcpy.p0.p0.i64(ptr noundef nonnull align 8 dereferenceable(6) getelementptr inbounds nuw (i8, ptr @_ZN5osgeo4proj2io12WKTConstants6REMARKB5cxx11E, i64 16), ptr noundef nonnull align 1 dereferenceable(6) @.str.108, i64 6, i1 false)
  store i64 6, ptr getelementptr inbounds nuw (i8, ptr @_ZN5osgeo4proj2io12WKTConstants6REMARKB5cxx11E, i64 8), align 8, !tbaa !28
  store i8 0, ptr getelementptr inbounds nuw (i8, ptr @_ZN5osgeo4proj2io12WKTConstants6REMARKB5cxx11E, i64 22), align 2, !tbaa !16
  %256 = call i32 @__cxa_atexit(ptr nonnull @_ZNSt7__cxx1112basic_stringIcSt11char_traitsIcESaIcEED2Ev, ptr nonnull @_ZN5osgeo4proj2io12WKTConstants6REMARKB5cxx11E, ptr nonnull @__dso_handle) #20
  %257 = call noundef ptr @_ZN5osgeo4proj2io12WKTConstants26createAndAddToConstantListEPKc(ptr noundef nonnull @.str.110)
  store ptr getelementptr inbounds nuw (i8, ptr @_ZN5osgeo4proj2io12WKTConstants7GEOGCRSB5cxx11E, i64 16), ptr @_ZN5osgeo4proj2io12WKTConstants7GEOGCRSB5cxx11E, align 8, !tbaa !32
  call void @llvm.memcpy.p0.p0.i64(ptr noundef nonnull align 8 dereferenceable(7) getelementptr inbounds nuw (i8, ptr @_ZN5osgeo4proj2io12WKTConstants7GEOGCRSB5cxx11E, i64 16), ptr noundef nonnull align 1 dereferenceable(7) @.str.110, i64 7, i1 false)
  store i64 7, ptr getelementptr inbounds nuw (i8, ptr @_ZN5osgeo4proj2io12WKTConstants7GEOGCRSB5cxx11E, i64 8), align 8, !tbaa !28
  store i8 0, ptr getelementptr inbounds nuw (i8, ptr @_ZN5osgeo4proj2io12WKTConstants7GEOGCRSB5cxx11E, i64 23), align 1, !tbaa !16
  %258 = call i32 @__cxa_atexit(ptr nonnull @_ZNSt7__cxx1112basic_stringIcSt11char_traitsIcESaIcEED2Ev, ptr nonnull @_ZN5osgeo4proj2io12WKTConstants7GEOGCRSB5cxx11E, ptr nonnull @__dso_handle) #20
  %259 = call noundef ptr @_ZN5osgeo4proj2io12WKTConstants26createAndAddToConstantListEPKc(ptr noundef nonnull @.str.112)
  store ptr getelementptr inbounds nuw (i8, ptr @_ZN5osgeo4proj2io12WKTConstants11BASEGEOGCRSB5cxx11E, i64 16), ptr @_ZN5osgeo4proj2io12WKTConstants11BASEGEOGCRSB5cxx11E, align 8, !tbaa !32
  call void @llvm.memcpy.p0.p0.i64(ptr noundef nonnull align 8 dereferenceable(11) getelementptr inbounds nuw (i8, ptr @_ZN5osgeo4proj2io12WKTConstants11BASEGEOGCRSB5cxx11E, i64 16), ptr noundef nonnull align 1 dereferenceable(11) @.str.112, i64 11, i1 false)
  store i64 11, ptr getelementptr inbounds nuw (i8, ptr @_ZN5osgeo4proj2io12WKTConstants11BASEGEOGCRSB5cxx11E, i64 8), align 8, !tbaa !28
  store i8 0, ptr getelementptr inbounds nuw (i8, ptr @_ZN5osgeo4proj2io12WKTConstants11BASEGEOGCRSB5cxx11E, i64 27), align 1, !tbaa !16
  %260 = call i32 @__cxa_atexit(ptr nonnull @_ZNSt7__cxx1112basic_stringIcSt11char_traitsIcESaIcEED2Ev, ptr nonnull @_ZN5osgeo4proj2io12WKTConstants11BASEGEOGCRSB5cxx11E, ptr nonnull @__dso_handle) #20
  %261 = call noundef ptr @_ZN5osgeo4proj2io12WKTConstants26createAndAddToConstantListEPKc(ptr noundef nonnull @.str.114)
  store ptr getelementptr inbounds nuw (i8, ptr @_ZN5osgeo4proj2io12WKTConstants5SCOPEB5cxx11E, i64 16), ptr @_ZN5osgeo4proj2io12WKTConstants5SCOPEB5cxx11E, align 8, !tbaa !32
  call void @llvm.memcpy.p0.p0.i64(ptr noundef nonnull align 8 dereferenceable(5) getelementptr inbounds nuw (i8, ptr @_ZN5osgeo4proj2io12WKTConstants5SCOPEB5cxx11E, i64 16), ptr noundef nonnull align 1 dereferenceable(5) @.str.114, i64 5, i1 false)
  store i64 5, ptr getelementptr inbounds nuw (i8, ptr @_ZN5osgeo4proj2io12WKTConstants5SCOPEB5cxx11E, i64 8), align 8, !tbaa !28
  store i8 0, ptr getelementptr inbounds nuw (i8, ptr @_ZN5osgeo4proj2io12WKTConstants5SCOPEB5cxx11E, i64 21), align 1, !tbaa !16
  %262 = call i32 @__cxa_atexit(ptr nonnull @_ZNSt7__cxx1112basic_stringIcSt11char_traitsIcESaIcEED2Ev, ptr nonnull @_ZN5osgeo4proj2io12WKTConstants5SCOPEB5cxx11E, ptr nonnull @__dso_handle) #20
  %263 = call noundef ptr @_ZN5osgeo4proj2io12WKTConstants26createAndAddToConstantListEPKc(ptr noundef nonnull @.str.116)
  store ptr getelementptr inbounds nuw (i8, ptr @_ZN5osgeo4proj2io12WKTConstants4AREAB5cxx11E, i64 16), ptr @_ZN5osgeo4proj2io12WKTConstants4AREAB5cxx11E, align 8, !tbaa !32
  store i32 1095062081, ptr getelementptr inbounds nuw (i8, ptr @_ZN5osgeo4proj2io12WKTConstants4AREAB5cxx11E, i64 16), align 8
  store i64 4, ptr getelementptr inbounds nuw (i8, ptr @_ZN5osgeo4proj2io12WKTConstants4AREAB5cxx11E, i64 8), align 8, !tbaa !28
  store i8 0, ptr getelementptr inbounds nuw (i8, ptr @_ZN5osgeo4proj2io12WKTConstants4AREAB5cxx11E, i64 20), align 4, !tbaa !16
  %264 = call i32 @__cxa_atexit(ptr nonnull @_ZNSt7__cxx1112basic_stringIcSt11char_traitsIcESaIcEED2Ev, ptr nonnull @_ZN5osgeo4proj2io12WKTConstants4AREAB5cxx11E, ptr nonnull @__dso_handle) #20
  %265 = call noundef ptr @_ZN5osgeo4proj2io12WKTConstants26createAndAddToConstantListEPKc(ptr noundef nonnull @.str.118)
  store ptr getelementptr inbounds nuw (i8, ptr @_ZN5osgeo4proj2io12WKTConstants4BBOXB5cxx11E, i64 16), ptr @_ZN5osgeo4proj2io12WKTConstants4BBOXB5cxx11E, align 8, !tbaa !32
  store i32 1481589314, ptr getelementptr inbounds nuw (i8, ptr @_ZN5osgeo4proj2io12WKTConstants4BBOXB5cxx11E, i64 16), align 8
  store i64 4, ptr getelementptr inbounds nuw (i8, ptr @_ZN5osgeo4proj2io12WKTConstants4BBOXB5cxx11E, i64 8), align 8, !tbaa !28
  store i8 0, ptr getelementptr inbounds nuw (i8, ptr @_ZN5osgeo4proj2io12WKTConstants4BBOXB5cxx11E, i64 20), align 4, !tbaa !16
  %266 = call i32 @__cxa_atexit(ptr nonnull @_ZNSt7__cxx1112basic_stringIcSt11char_traitsIcESaIcEED2Ev, ptr nonnull @_ZN5osgeo4proj2io12WKTConstants4BBOXB5cxx11E, ptr nonnull @__dso_handle) #20
  %267 = call noundef ptr @_ZN5osgeo4proj2io12WKTConstants26createAndAddToConstantListEPKc(ptr noundef nonnull @.str.120)
  store ptr getelementptr inbounds nuw (i8, ptr @_ZN5osgeo4proj2io12WKTConstants8CITATIONB5cxx11E, i64 16), ptr @_ZN5osgeo4proj2io12WKTConstants8CITATIONB5cxx11E, align 8, !tbaa !32
  store i64 5642809484340644163, ptr getelementptr inbounds nuw (i8, ptr @_ZN5osgeo4proj2io12WKTConstants8CITATIONB5cxx11E, i64 16), align 8
  store i64 8, ptr getelementptr inbounds nuw (i8, ptr @_ZN5osgeo4proj2io12WKTConstants8CITATIONB5cxx11E, i64 8), align 8, !tbaa !28
  store i8 0, ptr getelementptr inbounds nuw (i8, ptr @_ZN5osgeo4proj2io12WKTConstants8CITATIONB5cxx11E, i64 24), align 8, !tbaa !16
  %268 = call i32 @__cxa_atexit(ptr nonnull @_ZNSt7__cxx1112basic_stringIcSt11char_traitsIcESaIcEED2Ev, ptr nonnull @_ZN5osgeo4proj2io12WKTConstants8CITATIONB5cxx11E, ptr nonnull @__dso_handle) #20
  %269 = call noundef ptr @_ZN5osgeo4proj2io12WKTConstants26createAndAddToConstantListEPKc(ptr noundef nonnull @.str.122)
  store ptr getelementptr inbounds nuw (i8, ptr @_ZN5osgeo4proj2io12WKTConstants3URIB5cxx11E, i64 16), ptr @_ZN5osgeo4proj2io12WKTConstants3URIB5cxx11E, align 8, !tbaa !32
  call void @llvm.memcpy.p0.p0.i64(ptr noundef nonnull align 8 dereferenceable(3) getelementptr inbounds nuw (i8, ptr @_ZN5osgeo4proj2io12WKTConstants3URIB5cxx11E, i64 16), ptr noundef nonnull align 1 dereferenceable(3) @.str.122, i64 3, i1 false)
  store i64 3, ptr getelementptr inbounds nuw (i8, ptr @_ZN5osgeo4proj2io12WKTConstants3URIB5cxx11E, i64 8), align 8, !tbaa !28
  store i8 0, ptr getelementptr inbounds nuw (i8, ptr @_ZN5osgeo4proj2io12WKTConstants3URIB5cxx11E, i64 19), align 1, !tbaa !16
  %270 = call i32 @__cxa_atexit(ptr nonnull @_ZNSt7__cxx1112basic_stringIcSt11char_traitsIcESaIcEED2Ev, ptr nonnull @_ZN5osgeo4proj2io12WKTConstants3URIB5cxx11E, ptr nonnull @__dso_handle) #20
  %271 = call noundef ptr @_ZN5osgeo4proj2io12WKTConstants26createAndAddToConstantListEPKc(ptr noundef nonnull @.str.124)
  store ptr getelementptr inbounds nuw (i8, ptr @_ZN5osgeo4proj2io12WKTConstants7VERTCRSB5cxx11E, i64 16), ptr @_ZN5osgeo4proj2io12WKTConstants7VERTCRSB5cxx11E, align 8, !tbaa !32
  call void @llvm.memcpy.p0.p0.i64(ptr noundef nonnull align 8 dereferenceable(7) getelementptr inbounds nuw (i8, ptr @_ZN5osgeo4proj2io12WKTConstants7VERTCRSB5cxx11E, i64 16), ptr noundef nonnull align 1 dereferenceable(7) @.str.124, i64 7, i1 false)
  store i64 7, ptr getelementptr inbounds nuw (i8, ptr @_ZN5osgeo4proj2io12WKTConstants7VERTCRSB5cxx11E, i64 8), align 8, !tbaa !28
  store i8 0, ptr getelementptr inbounds nuw (i8, ptr @_ZN5osgeo4proj2io12WKTConstants7VERTCRSB5cxx11E, i64 23), align 1, !tbaa !16
  %272 = call i32 @__cxa_atexit(ptr nonnull @_ZNSt7__cxx1112basic_stringIcSt11char_traitsIcESaIcEED2Ev, ptr nonnull @_ZN5osgeo4proj2io12WKTConstants7VERTCRSB5cxx11E, ptr nonnull @__dso_handle) #20
  %273 = call noundef ptr @_ZN5osgeo4proj2io12WKTConstants26createAndAddToConstantListEPKc(ptr noundef nonnull @.str.126)
  store ptr getelementptr inbounds nuw (i8, ptr @_ZN5osgeo4proj2io12WKTConstants6VDATUMB5cxx11E, i64 16), ptr @_ZN5osgeo4proj2io12WKTConstants6VDATUMB5cxx11E, align 8, !tbaa !32
  call void @llvm.memcpy.p0.p0.i64(ptr noundef nonnull align 8 dereferenceable(6) getelementptr inbounds nuw (i8, ptr @_ZN5osgeo4proj2io12WKTConstants6VDATUMB5cxx11E, i64 16), ptr noundef nonnull align 1 dereferenceable(6) @.str.126, i64 6, i1 false)
  store i64 6, ptr getelementptr inbounds nuw (i8, ptr @_ZN5osgeo4proj2io12WKTConstants6VDATUMB5cxx11E, i64 8), align 8, !tbaa !28
  store i8 0, ptr getelementptr inbounds nuw (i8, ptr @_ZN5osgeo4proj2io12WKTConstants6VDATUMB5cxx11E, i64 22), align 2, !tbaa !16
  %274 = call i32 @__cxa_atexit(ptr nonnull @_ZNSt7__cxx1112basic_stringIcSt11char_traitsIcESaIcEED2Ev, ptr nonnull @_ZN5osgeo4proj2io12WKTConstants6VDATUMB5cxx11E, ptr nonnull @__dso_handle) #20
  %275 = call noundef ptr @_ZN5osgeo4proj2io12WKTConstants26createAndAddToConstantListEPKc(ptr noundef nonnull @.str.128)
  store ptr getelementptr inbounds nuw (i8, ptr @_ZN5osgeo4proj2io12WKTConstants11COMPOUNDCRSB5cxx11E, i64 16), ptr @_ZN5osgeo4proj2io12WKTConstants11COMPOUNDCRSB5cxx11E, align 8, !tbaa !32
  call void @llvm.memcpy.p0.p0.i64(ptr noundef nonnull align 8 dereferenceable(11) getelementptr inbounds nuw (i8, ptr @_ZN5osgeo4proj2io12WKTConstants11COMPOUNDCRSB5cxx11E, i64 16), ptr noundef nonnull align 1 dereferenceable(11) @.str.128, i64 11, i1 false)
  store i64 11, ptr getelementptr inbounds nuw (i8, ptr @_ZN5osgeo4proj2io12WKTConstants11COMPOUNDCRSB5cxx11E, i64 8), align 8, !tbaa !28
  store i8 0, ptr getelementptr inbounds nuw (i8, ptr @_ZN5osgeo4proj2io12WKTConstants11COMPOUNDCRSB5cxx11E, i64 27), align 1, !tbaa !16
  %276 = call i32 @__cxa_atexit(ptr nonnull @_ZNSt7__cxx1112basic_stringIcSt11char_traitsIcESaIcEED2Ev, ptr nonnull @_ZN5osgeo4proj2io12WKTConstants11COMPOUNDCRSB5cxx11E, ptr nonnull @__dso_handle) #20
  %277 = call noundef ptr @_ZN5osgeo4proj2io12WKTConstants26createAndAddToConstantListEPKc(ptr noundef nonnull @.str.130)
  store ptr getelementptr inbounds nuw (i8, ptr @_ZN5osgeo4proj2io12WKTConstants13PARAMETERFILEB5cxx11E, i64 16), ptr @_ZN5osgeo4proj2io12WKTConstants13PARAMETERFILEB5cxx11E, align 8, !tbaa !32
  call void @llvm.memcpy.p0.p0.i64(ptr noundef nonnull align 8 dereferenceable(13) getelementptr inbounds nuw (i8, ptr @_ZN5osgeo4proj2io12WKTConstants13PARAMETERFILEB5cxx11E, i64 16), ptr noundef nonnull align 1 dereferenceable(13) @.str.130, i64 13, i1 false)
  store i64 13, ptr getelementptr inbounds nuw (i8, ptr @_ZN5osgeo4proj2io12WKTConstants13PARAMETERFILEB5cxx11E, i64 8), align 8, !tbaa !28
  store i8 0, ptr getelementptr inbounds nuw (i8, ptr @_ZN5osgeo4proj2io12WKTConstants13PARAMETERFILEB5cxx11E, i64 29), align 1, !tbaa !16
  %278 = call i32 @__cxa_atexit(ptr nonnull @_ZNSt7__cxx1112basic_stringIcSt11char_traitsIcESaIcEED2Ev, ptr nonnull @_ZN5osgeo4proj2io12WKTConstants13PARAMETERFILEB5cxx11E, ptr nonnull @__dso_handle) #20
  %279 = call noundef ptr @_ZN5osgeo4proj2io12WKTConstants26createAndAddToConstantListEPKc(ptr noundef nonnull @.str.132)
  store ptr getelementptr inbounds nuw (i8, ptr @_ZN5osgeo4proj2io12WKTConstants19COORDINATEOPERATIONB5cxx11E, i64 16), ptr @_ZN5osgeo4proj2io12WKTConstants19COORDINATEOPERATIONB5cxx11E, align 8, !tbaa !32
  call void @llvm.lifetime.start.p0(ptr %109)
  store i64 19, ptr %109, align 8, !tbaa !33
  %280 = call noundef ptr @_ZNSt7__cxx1112basic_stringIcSt11char_traitsIcESaIcEE9_M_createERmm(ptr noundef nonnull align 8 dereferenceable(32) @_ZN5osgeo4proj2io12WKTConstants19COORDINATEOPERATIONB5cxx11E, ptr noundef nonnull align 8 dereferenceable(8) %109, i64 noundef 0)
  store ptr %280, ptr @_ZN5osgeo4proj2io12WKTConstants19COORDINATEOPERATIONB5cxx11E, align 8, !tbaa !23
  %281 = load i64, ptr %109, align 8, !tbaa !33
  store i64 %281, ptr getelementptr inbounds nuw (i8, ptr @_ZN5osgeo4proj2io12WKTConstants19COORDINATEOPERATIONB5cxx11E, i64 16), align 8, !tbaa !16
  call void @llvm.memcpy.p0.p0.i64(ptr noundef nonnull align 1 dereferenceable(19) %280, ptr noundef nonnull align 1 dereferenceable(19) @.str.132, i64 19, i1 false)
  store i64 %281, ptr getelementptr inbounds nuw (i8, ptr @_ZN5osgeo4proj2io12WKTConstants19COORDINATEOPERATIONB5cxx11E, i64 8), align 8, !tbaa !28
  %282 = load ptr, ptr @_ZN5osgeo4proj2io12WKTConstants19COORDINATEOPERATIONB5cxx11E, align 8, !tbaa !23
  %283 = getelementptr inbounds nuw i8, ptr %282, i64 %281
  store i8 0, ptr %283, align 1, !tbaa !16
  call void @llvm.lifetime.end.p0(ptr %109)
  %284 = call i32 @__cxa_atexit(ptr nonnull @_ZNSt7__cxx1112basic_stringIcSt11char_traitsIcESaIcEED2Ev, ptr nonnull @_ZN5osgeo4proj2io12WKTConstants19COORDINATEOPERATIONB5cxx11E, ptr nonnull @__dso_handle) #20
  %285 = call noundef ptr @_ZN5osgeo4proj2io12WKTConstants26createAndAddToConstantListEPKc(ptr noundef nonnull @.str.134)
  store ptr getelementptr inbounds nuw (i8, ptr @_ZN5osgeo4proj2io12WKTConstants9SOURCECRSB5cxx11E, i64 16), ptr @_ZN5osgeo4proj2io12WKTConstants9SOURCECRSB5cxx11E, align 8, !tbaa !32
  call void @llvm.memcpy.p0.p0.i64(ptr noundef nonnull align 8 dereferenceable(9) getelementptr inbounds nuw (i8, ptr @_ZN5osgeo4proj2io12WKTConstants9SOURCECRSB5cxx11E, i64 16), ptr noundef nonnull align 1 dereferenceable(9) @.str.134, i64 9, i1 false)
  store i64 9, ptr getelementptr inbounds nuw (i8, ptr @_ZN5osgeo4proj2io12WKTConstants9SOURCECRSB5cxx11E, i64 8), align 8, !tbaa !28
  store i8 0, ptr getelementptr inbounds nuw (i8, ptr @_ZN5osgeo4proj2io12WKTConstants9SOURCECRSB5cxx11E, i64 25), align 1, !tbaa !16
  %286 = call i32 @__cxa_atexit(ptr nonnull @_ZNSt7__cxx1112basic_stringIcSt11char_traitsIcESaIcEED2Ev, ptr nonnull @_ZN5osgeo4proj2io12WKTConstants9SOURCECRSB5cxx11E, ptr nonnull @__dso_handle) #20
  %287 = call noundef ptr @_ZN5osgeo4proj2io12WKTConstants26createAndAddToConstantListEPKc(ptr noundef nonnull @.str.136)
  store ptr getelementptr inbounds nuw (i8, ptr @_ZN5osgeo4proj2io12WKTConstants9TARGETCRSB5cxx11E, i64 16), ptr @_ZN5osgeo4proj2io12WKTConstants9TARGETCRSB5cxx11E, align 8, !tbaa !32
  call void @llvm.memcpy.p0.p0.i64(ptr noundef nonnull align 8 dereferenceable(9) getelementptr inbounds nuw (i8, ptr @_ZN5osgeo4proj2io12WKTConstants9TARGETCRSB5cxx11E, i64 16), ptr noundef nonnull align 1 dereferenceable(9) @.str.136, i64 9, i1 false)
  store i64 9, ptr getelementptr inbounds nuw (i8, ptr @_ZN5osgeo4proj2io12WKTConstants9TARGETCRSB5cxx11E, i64 8), align 8, !tbaa !28
  store i8 0, ptr getelementptr inbounds nuw (i8, ptr @_ZN5osgeo4proj2io12WKTConstants9TARGETCRSB5cxx11E, i64 25), align 1, !tbaa !16
  %288 = call i32 @__cxa_atexit(ptr nonnull @_ZNSt7__cxx1112basic_stringIcSt11char_traitsIcESaIcEED2Ev, ptr nonnull @_ZN5osgeo4proj2io12WKTConstants9TARGETCRSB5cxx11E, ptr nonnull @__dso_handle) #20
  %289 = call noundef ptr @_ZN5osgeo4proj2io12WKTConstants26createAndAddToConstantListEPKc(ptr noundef nonnull @.str.138)
  store ptr getelementptr inbounds nuw (i8, ptr @_ZN5osgeo4proj2io12WKTConstants16INTERPOLATIONCRSB5cxx11E, i64 16), ptr @_ZN5osgeo4proj2io12WKTConstants16INTERPOLATIONCRSB5cxx11E, align 8, !tbaa !32
  call void @llvm.lifetime.start.p0(ptr %108)
  store i64 16, ptr %108, align 8, !tbaa !33
  %290 = call noundef ptr @_ZNSt7__cxx1112basic_stringIcSt11char_traitsIcESaIcEE9_M_createERmm(ptr noundef nonnull align 8 dereferenceable(32) @_ZN5osgeo4proj2io12WKTConstants16INTERPOLATIONCRSB5cxx11E, ptr noundef nonnull align 8 dereferenceable(8) %108, i64 noundef 0)
  store ptr %290, ptr @_ZN5osgeo4proj2io12WKTConstants16INTERPOLATIONCRSB5cxx11E, align 8, !tbaa !23
  %291 = load i64, ptr %108, align 8, !tbaa !33
  store i64 %291, ptr getelementptr inbounds nuw (i8, ptr @_ZN5osgeo4proj2io12WKTConstants16INTERPOLATIONCRSB5cxx11E, i64 16), align 8, !tbaa !16
  call void @llvm.memcpy.p0.p0.i64(ptr noundef nonnull align 1 dereferenceable(16) %290, ptr noundef nonnull align 1 dereferenceable(16) @.str.138, i64 16, i1 false)
  store i64 %291, ptr getelementptr inbounds nuw (i8, ptr @_ZN5osgeo4proj2io12WKTConstants16INTERPOLATIONCRSB5cxx11E, i64 8), align 8, !tbaa !28
  %292 = load ptr, ptr @_ZN5osgeo4proj2io12WKTConstants16INTERPOLATIONCRSB5cxx11E, align 8, !tbaa !23
  %293 = getelementptr inbounds nuw i8, ptr %292, i64 %291
  store i8 0, ptr %293, align 1, !tbaa !16
  call void @llvm.lifetime.end.p0(ptr %108)
  %294 = call i32 @__cxa_atexit(ptr nonnull @_ZNSt7__cxx1112basic_stringIcSt11char_traitsIcESaIcEED2Ev, ptr nonnull @_ZN5osgeo4proj2io12WKTConstants16INTERPOLATIONCRSB5cxx11E, ptr nonnull @__dso_handle) #20
  %295 = call noundef ptr @_ZN5osgeo4proj2io12WKTConstants26createAndAddToConstantListEPKc(ptr noundef nonnull @.str.140)
  store ptr getelementptr inbounds nuw (i8, ptr @_ZN5osgeo4proj2io12WKTConstants17OPERATIONACCURACYB5cxx11E, i64 16), ptr @_ZN5osgeo4proj2io12WKTConstants17OPERATIONACCURACYB5cxx11E, align 8, !tbaa !32
  call void @llvm.lifetime.start.p0(ptr %107)
  store i64 17, ptr %107, align 8, !tbaa !33
  %296 = call noundef ptr @_ZNSt7__cxx1112basic_stringIcSt11char_traitsIcESaIcEE9_M_createERmm(ptr noundef nonnull align 8 dereferenceable(32) @_ZN5osgeo4proj2io12WKTConstants17OPERATIONACCURACYB5cxx11E, ptr noundef nonnull align 8 dereferenceable(8) %107, i64 noundef 0)
  store ptr %296, ptr @_ZN5osgeo4proj2io12WKTConstants17OPERATIONACCURACYB5cxx11E, align 8, !tbaa !23
  %297 = load i64, ptr %107, align 8, !tbaa !33
  store i64 %297, ptr getelementptr inbounds nuw (i8, ptr @_ZN5osgeo4proj2io12WKTConstants17OPERATIONACCURACYB5cxx11E, i64 16), align 8, !tbaa !16
  call void @llvm.memcpy.p0.p0.i64(ptr noundef nonnull align 1 dereferenceable(17) %296, ptr noundef nonnull align 1 dereferenceable(17) @.str.140, i64 17, i1 false)
  store i64 %297, ptr getelementptr inbounds nuw (i8, ptr @_ZN5osgeo4proj2io12WKTConstants17OPERATIONACCURACYB5cxx11E, i64 8), align 8, !tbaa !28
  %298 = load ptr, ptr @_ZN5osgeo4proj2io12WKTConstants17OPERATIONACCURACYB5cxx11E, align 8, !tbaa !23
  %299 = getelementptr inbounds nuw i8, ptr %298, i64 %297
  store i8 0, ptr %299, align 1, !tbaa !16
  call void @llvm.lifetime.end.p0(ptr %107)
  %300 = call i32 @__cxa_atexit(ptr nonnull @_ZNSt7__cxx1112basic_stringIcSt11char_traitsIcESaIcEED2Ev, ptr nonnull @_ZN5osgeo4proj2io12WKTConstants17OPERATIONACCURACYB5cxx11E, ptr nonnull @__dso_handle) #20
  %301 = call noundef ptr @_ZN5osgeo4proj2io12WKTConstants26createAndAddToConstantListEPKc(ptr noundef nonnull @.str.142)
  store ptr getelementptr inbounds nuw (i8, ptr @_ZN5osgeo4proj2io12WKTConstants21CONCATENATEDOPERATIONB5cxx11E, i64 16), ptr @_ZN5osgeo4proj2io12WKTConstants21CONCATENATEDOPERATIONB5cxx11E, align 8, !tbaa !32
  call void @llvm.lifetime.start.p0(ptr %106)
  store i64 21, ptr %106, align 8, !tbaa !33
  %302 = call noundef ptr @_ZNSt7__cxx1112basic_stringIcSt11char_traitsIcESaIcEE9_M_createERmm(ptr noundef nonnull align 8 dereferenceable(32) @_ZN5osgeo4proj2io12WKTConstants21CONCATENATEDOPERATIONB5cxx11E, ptr noundef nonnull align 8 dereferenceable(8) %106, i64 noundef 0)
  store ptr %302, ptr @_ZN5osgeo4proj2io12WKTConstants21CONCATENATEDOPERATIONB5cxx11E, align 8, !tbaa !23
  %303 = load i64, ptr %106, align 8, !tbaa !33
  store i64 %303, ptr getelementptr inbounds nuw (i8, ptr @_ZN5osgeo4proj2io12WKTConstants21CONCATENATEDOPERATIONB5cxx11E, i64 16), align 8, !tbaa !16
  call void @llvm.memcpy.p0.p0.i64(ptr noundef nonnull align 1 dereferenceable(21) %302, ptr noundef nonnull align 1 dereferenceable(21) @.str.142, i64 21, i1 false)
  store i64 %303, ptr getelementptr inbounds nuw (i8, ptr @_ZN5osgeo4proj2io12WKTConstants21CONCATENATEDOPERATIONB5cxx11E, i64 8), align 8, !tbaa !28
  %304 = load ptr, ptr @_ZN5osgeo4proj2io12WKTConstants21CONCATENATEDOPERATIONB5cxx11E, align 8, !tbaa !23
  %305 = getelementptr inbounds nuw i8, ptr %304, i64 %303
  store i8 0, ptr %305, align 1, !tbaa !16
  call void @llvm.lifetime.end.p0(ptr %106)
  %306 = call i32 @__cxa_atexit(ptr nonnull @_ZNSt7__cxx1112basic_stringIcSt11char_traitsIcESaIcEED2Ev, ptr nonnull @_ZN5osgeo4proj2io12WKTConstants21CONCATENATEDOPERATIONB5cxx11E, ptr nonnull @__dso_handle) #20
  %307 = call noundef ptr @_ZN5osgeo4proj2io12WKTConstants26createAndAddToConstantListEPKc(ptr noundef nonnull @.str.144)
  store ptr getelementptr inbounds nuw (i8, ptr @_ZN5osgeo4proj2io12WKTConstants4STEPB5cxx11E, i64 16), ptr @_ZN5osgeo4proj2io12WKTConstants4STEPB5cxx11E, align 8, !tbaa !32
  store i32 1346720851, ptr getelementptr inbounds nuw (i8, ptr @_ZN5osgeo4proj2io12WKTConstants4STEPB5cxx11E, i64 16), align 8
  store i64 4, ptr getelementptr inbounds nuw (i8, ptr @_ZN5osgeo4proj2io12WKTConstants4STEPB5cxx11E, i64 8), align 8, !tbaa !28
  store i8 0, ptr getelementptr inbounds nuw (i8, ptr @_ZN5osgeo4proj2io12WKTConstants4STEPB5cxx11E, i64 20), align 4, !tbaa !16
  %308 = call i32 @__cxa_atexit(ptr nonnull @_ZNSt7__cxx1112basic_stringIcSt11char_traitsIcESaIcEED2Ev, ptr nonnull @_ZN5osgeo4proj2io12WKTConstants4STEPB5cxx11E, ptr nonnull @__dso_handle) #20
  %309 = call noundef ptr @_ZN5osgeo4proj2io12WKTConstants26createAndAddToConstantListEPKc(ptr noundef nonnull @.str.146)
  store ptr getelementptr inbounds nuw (i8, ptr @_ZN5osgeo4proj2io12WKTConstants8BOUNDCRSB5cxx11E, i64 16), ptr @_ZN5osgeo4proj2io12WKTConstants8BOUNDCRSB5cxx11E, align 8, !tbaa !32
  store i64 6003935213889343298, ptr getelementptr inbounds nuw (i8, ptr @_ZN5osgeo4proj2io12WKTConstants8BOUNDCRSB5cxx11E, i64 16), align 8
  store i64 8, ptr getelementptr inbounds nuw (i8, ptr @_ZN5osgeo4proj2io12WKTConstants8BOUNDCRSB5cxx11E, i64 8), align 8, !tbaa !28
  store i8 0, ptr getelementptr inbounds nuw (i8, ptr @_ZN5osgeo4proj2io12WKTConstants8BOUNDCRSB5cxx11E, i64 24), align 8, !tbaa !16
  %310 = call i32 @__cxa_atexit(ptr nonnull @_ZNSt7__cxx1112basic_stringIcSt11char_traitsIcESaIcEED2Ev, ptr nonnull @_ZN5osgeo4proj2io12WKTConstants8BOUNDCRSB5cxx11E, ptr nonnull @__dso_handle) #20
  %311 = call noundef ptr @_ZN5osgeo4proj2io12WKTConstants26createAndAddToConstantListEPKc(ptr noundef nonnull @.str.148)
  store ptr getelementptr inbounds nuw (i8, ptr @_ZN5osgeo4proj2io12WKTConstants22ABRIDGEDTRANSFORMATIONB5cxx11E, i64 16), ptr @_ZN5osgeo4proj2io12WKTConstants22ABRIDGEDTRANSFORMATIONB5cxx11E, align 8, !tbaa !32
  call void @llvm.lifetime.start.p0(ptr %105)
  store i64 22, ptr %105, align 8, !tbaa !33
  %312 = call noundef ptr @_ZNSt7__cxx1112basic_stringIcSt11char_traitsIcESaIcEE9_M_createERmm(ptr noundef nonnull align 8 dereferenceable(32) @_ZN5osgeo4proj2io12WKTConstants22ABRIDGEDTRANSFORMATIONB5cxx11E, ptr noundef nonnull align 8 dereferenceable(8) %105, i64 noundef 0)
  store ptr %312, ptr @_ZN5osgeo4proj2io12WKTConstants22ABRIDGEDTRANSFORMATIONB5cxx11E, align 8, !tbaa !23
  %313 = load i64, ptr %105, align 8, !tbaa !33
  store i64 %313, ptr getelementptr inbounds nuw (i8, ptr @_ZN5osgeo4proj2io12WKTConstants22ABRIDGEDTRANSFORMATIONB5cxx11E, i64 16), align 8, !tbaa !16
  call void @llvm.memcpy.p0.p0.i64(ptr noundef nonnull align 1 dereferenceable(22) %312, ptr noundef nonnull align 1 dereferenceable(22) @.str.148, i64 22, i1 false)
  store i64 %313, ptr getelementptr inbounds nuw (i8, ptr @_ZN5osgeo4proj2io12WKTConstants22ABRIDGEDTRANSFORMATIONB5cxx11E, i64 8), align 8, !tbaa !28
  %314 = load ptr, ptr @_ZN5osgeo4proj2io12WKTConstants22ABRIDGEDTRANSFORMATIONB5cxx11E, align 8, !tbaa !23
  %315 = getelementptr inbounds nuw i8, ptr %314, i64 %313
  store i8 0, ptr %315, align 1, !tbaa !16
  call void @llvm.lifetime.end.p0(ptr %105)
  %316 = call i32 @__cxa_atexit(ptr nonnull @_ZNSt7__cxx1112basic_stringIcSt11char_traitsIcESaIcEED2Ev, ptr nonnull @_ZN5osgeo4proj2io12WKTConstants22ABRIDGEDTRANSFORMATIONB5cxx11E, ptr nonnull @__dso_handle) #20
  %317 = call noundef ptr @_ZN5osgeo4proj2io12WKTConstants26createAndAddToConstantListEPKc(ptr noundef nonnull @.str.150)
  store ptr getelementptr inbounds nuw (i8, ptr @_ZN5osgeo4proj2io12WKTConstants18DERIVINGCONVERSIONB5cxx11E, i64 16), ptr @_ZN5osgeo4proj2io12WKTConstants18DERIVINGCONVERSIONB5cxx11E, align 8, !tbaa !32
  call void @llvm.lifetime.start.p0(ptr %104)
  store i64 18, ptr %104, align 8, !tbaa !33
  %318 = call noundef ptr @_ZNSt7__cxx1112basic_stringIcSt11char_traitsIcESaIcEE9_M_createERmm(ptr noundef nonnull align 8 dereferenceable(32) @_ZN5osgeo4proj2io12WKTConstants18DERIVINGCONVERSIONB5cxx11E, ptr noundef nonnull align 8 dereferenceable(8) %104, i64 noundef 0)
  store ptr %318, ptr @_ZN5osgeo4proj2io12WKTConstants18DERIVINGCONVERSIONB5cxx11E, align 8, !tbaa !23
  %319 = load i64, ptr %104, align 8, !tbaa !33
  store i64 %319, ptr getelementptr inbounds nuw (i8, ptr @_ZN5osgeo4proj2io12WKTConstants18DERIVINGCONVERSIONB5cxx11E, i64 16), align 8, !tbaa !16
  call void @llvm.memcpy.p0.p0.i64(ptr noundef nonnull align 1 dereferenceable(18) %318, ptr noundef nonnull align 1 dereferenceable(18) @.str.150, i64 18, i1 false)
  store i64 %319, ptr getelementptr inbounds nuw (i8, ptr @_ZN5osgeo4proj2io12WKTConstants18DERIVINGCONVERSIONB5cxx11E, i64 8), align 8, !tbaa !28
  %320 = load ptr, ptr @_ZN5osgeo4proj2io12WKTConstants18DERIVINGCONVERSIONB5cxx11E, align 8, !tbaa !23
  %321 = getelementptr inbounds nuw i8, ptr %320, i64 %319
  store i8 0, ptr %321, align 1, !tbaa !16
  call void @llvm.lifetime.end.p0(ptr %104)
  %322 = call i32 @__cxa_atexit(ptr nonnull @_ZNSt7__cxx1112basic_stringIcSt11char_traitsIcESaIcEED2Ev, ptr nonnull @_ZN5osgeo4proj2io12WKTConstants18DERIVINGCONVERSIONB5cxx11E, ptr nonnull @__dso_handle) #20
  %323 = call noundef ptr @_ZN5osgeo4proj2io12WKTConstants26createAndAddToConstantListEPKc(ptr noundef nonnull @.str.152)
  store ptr getelementptr inbounds nuw (i8, ptr @_ZN5osgeo4proj2io12WKTConstants6TDATUMB5cxx11E, i64 16), ptr @_ZN5osgeo4proj2io12WKTConstants6TDATUMB5cxx11E, align 8, !tbaa !32
  call void @llvm.memcpy.p0.p0.i64(ptr noundef nonnull align 8 dereferenceable(6) getelementptr inbounds nuw (i8, ptr @_ZN5osgeo4proj2io12WKTConstants6TDATUMB5cxx11E, i64 16), ptr noundef nonnull align 1 dereferenceable(6) @.str.152, i64 6, i1 false)
  store i64 6, ptr getelementptr inbounds nuw (i8, ptr @_ZN5osgeo4proj2io12WKTConstants6TDATUMB5cxx11E, i64 8), align 8, !tbaa !28
  store i8 0, ptr getelementptr inbounds nuw (i8, ptr @_ZN5osgeo4proj2io12WKTConstants6TDATUMB5cxx11E, i64 22), align 2, !tbaa !16
  %324 = call i32 @__cxa_atexit(ptr nonnull @_ZNSt7__cxx1112basic_stringIcSt11char_traitsIcESaIcEED2Ev, ptr nonnull @_ZN5osgeo4proj2io12WKTConstants6TDATUMB5cxx11E, ptr nonnull @__dso_handle) #20
  %325 = call noundef ptr @_ZN5osgeo4proj2io12WKTConstants26createAndAddToConstantListEPKc(ptr noundef nonnull @.str.154)
  store ptr getelementptr inbounds nuw (i8, ptr @_ZN5osgeo4proj2io12WKTConstants8CALENDARB5cxx11E, i64 16), ptr @_ZN5osgeo4proj2io12WKTConstants8CALENDARB5cxx11E, align 8, !tbaa !32
  store i64 5927093687557046595, ptr getelementptr inbounds nuw (i8, ptr @_ZN5osgeo4proj2io12WKTConstants8CALENDARB5cxx11E, i64 16), align 8
  store i64 8, ptr getelementptr inbounds nuw (i8, ptr @_ZN5osgeo4proj2io12WKTConstants8CALENDARB5cxx11E, i64 8), align 8, !tbaa !28
  store i8 0, ptr getelementptr inbounds nuw (i8, ptr @_ZN5osgeo4proj2io12WKTConstants8CALENDARB5cxx11E, i64 24), align 8, !tbaa !16
  %326 = call i32 @__cxa_atexit(ptr nonnull @_ZNSt7__cxx1112basic_stringIcSt11char_traitsIcESaIcEED2Ev, ptr nonnull @_ZN5osgeo4proj2io12WKTConstants8CALENDARB5cxx11E, ptr nonnull @__dso_handle) #20
  %327 = call noundef ptr @_ZN5osgeo4proj2io12WKTConstants26createAndAddToConstantListEPKc(ptr noundef nonnull @.str.156)
  store ptr getelementptr inbounds nuw (i8, ptr @_ZN5osgeo4proj2io12WKTConstants10TIMEORIGINB5cxx11E, i64 16), ptr @_ZN5osgeo4proj2io12WKTConstants10TIMEORIGINB5cxx11E, align 8, !tbaa !32
  call void @llvm.memcpy.p0.p0.i64(ptr noundef nonnull align 8 dereferenceable(10) getelementptr inbounds nuw (i8, ptr @_ZN5osgeo4proj2io12WKTConstants10TIMEORIGINB5cxx11E, i64 16), ptr noundef nonnull align 1 dereferenceable(10) @.str.156, i64 10, i1 false)
  store i64 10, ptr getelementptr inbounds nuw (i8, ptr @_ZN5osgeo4proj2io12WKTConstants10TIMEORIGINB5cxx11E, i64 8), align 8, !tbaa !28
  store i8 0, ptr getelementptr inbounds nuw (i8, ptr @_ZN5osgeo4proj2io12WKTConstants10TIMEORIGINB5cxx11E, i64 26), align 2, !tbaa !16
  %328 = call i32 @__cxa_atexit(ptr nonnull @_ZNSt7__cxx1112basic_stringIcSt11char_traitsIcESaIcEED2Ev, ptr nonnull @_ZN5osgeo4proj2io12WKTConstants10TIMEORIGINB5cxx11E, ptr nonnull @__dso_handle) #20
  %329 = call noundef ptr @_ZN5osgeo4proj2io12WKTConstants26createAndAddToConstantListEPKc(ptr noundef nonnull @.str.158)
  store ptr getelementptr inbounds nuw (i8, ptr @_ZN5osgeo4proj2io12WKTConstants7TIMECRSB5cxx11E, i64 16), ptr @_ZN5osgeo4proj2io12WKTConstants7TIMECRSB5cxx11E, align 8, !tbaa !32
  call void @llvm.memcpy.p0.p0.i64(ptr noundef nonnull align 8 dereferenceable(7) getelementptr inbounds nuw (i8, ptr @_ZN5osgeo4proj2io12WKTConstants7TIMECRSB5cxx11E, i64 16), ptr noundef nonnull align 1 dereferenceable(7) @.str.158, i64 7, i1 false)
  store i64 7, ptr getelementptr inbounds nuw (i8, ptr @_ZN5osgeo4proj2io12WKTConstants7TIMECRSB5cxx11E, i64 8), align 8, !tbaa !28
  store i8 0, ptr getelementptr inbounds nuw (i8, ptr @_ZN5osgeo4proj2io12WKTConstants7TIMECRSB5cxx11E, i64 23), align 1, !tbaa !16
  %330 = call i32 @__cxa_atexit(ptr nonnull @_ZNSt7__cxx1112basic_stringIcSt11char_traitsIcESaIcEED2Ev, ptr nonnull @_ZN5osgeo4proj2io12WKTConstants7TIMECRSB5cxx11E, ptr nonnull @__dso_handle) #20
  %331 = call noundef ptr @_ZN5osgeo4proj2io12WKTConstants26createAndAddToConstantListEPKc(ptr noundef nonnull @.str.160)
  store ptr getelementptr inbounds nuw (i8, ptr @_ZN5osgeo4proj2io12WKTConstants14VERTICALEXTENTB5cxx11E, i64 16), ptr @_ZN5osgeo4proj2io12WKTConstants14VERTICALEXTENTB5cxx11E, align 8, !tbaa !32
  call void @llvm.memcpy.p0.p0.i64(ptr noundef nonnull align 8 dereferenceable(14) getelementptr inbounds nuw (i8, ptr @_ZN5osgeo4proj2io12WKTConstants14VERTICALEXTENTB5cxx11E, i64 16), ptr noundef nonnull align 1 dereferenceable(14) @.str.160, i64 14, i1 false)
  store i64 14, ptr getelementptr inbounds nuw (i8, ptr @_ZN5osgeo4proj2io12WKTConstants14VERTICALEXTENTB5cxx11E, i64 8), align 8, !tbaa !28
  store i8 0, ptr getelementptr inbounds nuw (i8, ptr @_ZN5osgeo4proj2io12WKTConstants14VERTICALEXTENTB5cxx11E, i64 30), align 2, !tbaa !16
  %332 = call i32 @__cxa_atexit(ptr nonnull @_ZNSt7__cxx1112basic_stringIcSt11char_traitsIcESaIcEED2Ev, ptr nonnull @_ZN5osgeo4proj2io12WKTConstants14VERTICALEXTENTB5cxx11E, ptr nonnull @__dso_handle) #20
  %333 = call noundef ptr @_ZN5osgeo4proj2io12WKTConstants26createAndAddToConstantListEPKc(ptr noundef nonnull @.str.162)
  store ptr getelementptr inbounds nuw (i8, ptr @_ZN5osgeo4proj2io12WKTConstants10TIMEEXTENTB5cxx11E, i64 16), ptr @_ZN5osgeo4proj2io12WKTConstants10TIMEEXTENTB5cxx11E, align 8, !tbaa !32
  call void @llvm.memcpy.p0.p0.i64(ptr noundef nonnull align 8 dereferenceable(10) getelementptr inbounds nuw (i8, ptr @_ZN5osgeo4proj2io12WKTConstants10TIMEEXTENTB5cxx11E, i64 16), ptr noundef nonnull align 1 dereferenceable(10) @.str.162, i64 10, i1 false)
  store i64 10, ptr getelementptr inbounds nuw (i8, ptr @_ZN5osgeo4proj2io12WKTConstants10TIMEEXTENTB5cxx11E, i64 8), align 8, !tbaa !28
  store i8 0, ptr getelementptr inbounds nuw (i8, ptr @_ZN5osgeo4proj2io12WKTConstants10TIMEEXTENTB5cxx11E, i64 26), align 2, !tbaa !16
  %334 = call i32 @__cxa_atexit(ptr nonnull @_ZNSt7__cxx1112basic_stringIcSt11char_traitsIcESaIcEED2Ev, ptr nonnull @_ZN5osgeo4proj2io12WKTConstants10TIMEEXTENTB5cxx11E, ptr nonnull @__dso_handle) #20
  %335 = call noundef ptr @_ZN5osgeo4proj2io12WKTConstants26createAndAddToConstantListEPKc(ptr noundef nonnull @.str.164)
  store ptr getelementptr inbounds nuw (i8, ptr @_ZN5osgeo4proj2io12WKTConstants5USAGEB5cxx11E, i64 16), ptr @_ZN5osgeo4proj2io12WKTConstants5USAGEB5cxx11E, align 8, !tbaa !32
  call void @llvm.memcpy.p0.p0.i64(ptr noundef nonnull align 8 dereferenceable(5) getelementptr inbounds nuw (i8, ptr @_ZN5osgeo4proj2io12WKTConstants5USAGEB5cxx11E, i64 16), ptr noundef nonnull align 1 dereferenceable(5) @.str.164, i64 5, i1 false)
  store i64 5, ptr getelementptr inbounds nuw (i8, ptr @_ZN5osgeo4proj2io12WKTConstants5USAGEB5cxx11E, i64 8), align 8, !tbaa !28
  store i8 0, ptr getelementptr inbounds nuw (i8, ptr @_ZN5osgeo4proj2io12WKTConstants5USAGEB5cxx11E, i64 21), align 1, !tbaa !16
  %336 = call i32 @__cxa_atexit(ptr nonnull @_ZNSt7__cxx1112basic_stringIcSt11char_traitsIcESaIcEED2Ev, ptr nonnull @_ZN5osgeo4proj2io12WKTConstants5USAGEB5cxx11E, ptr nonnull @__dso_handle) #20
  %337 = call noundef ptr @_ZN5osgeo4proj2io12WKTConstants26createAndAddToConstantListEPKc(ptr noundef nonnull @.str.166)
  store ptr getelementptr inbounds nuw (i8, ptr @_ZN5osgeo4proj2io12WKTConstants7DYNAMICB5cxx11E, i64 16), ptr @_ZN5osgeo4proj2io12WKTConstants7DYNAMICB5cxx11E, align 8, !tbaa !32
  call void @llvm.memcpy.p0.p0.i64(ptr noundef nonnull align 8 dereferenceable(7) getelementptr inbounds nuw (i8, ptr @_ZN5osgeo4proj2io12WKTConstants7DYNAMICB5cxx11E, i64 16), ptr noundef nonnull align 1 dereferenceable(7) @.str.166, i64 7, i1 false)
  store i64 7, ptr getelementptr inbounds nuw (i8, ptr @_ZN5osgeo4proj2io12WKTConstants7DYNAMICB5cxx11E, i64 8), align 8, !tbaa !28
  store i8 0, ptr getelementptr inbounds nuw (i8, ptr @_ZN5osgeo4proj2io12WKTConstants7DYNAMICB5cxx11E, i64 23), align 1, !tbaa !16
  %338 = call i32 @__cxa_atexit(ptr nonnull @_ZNSt7__cxx1112basic_stringIcSt11char_traitsIcESaIcEED2Ev, ptr nonnull @_ZN5osgeo4proj2io12WKTConstants7DYNAMICB5cxx11E, ptr nonnull @__dso_handle) #20
  %339 = call noundef ptr @_ZN5osgeo4proj2io12WKTConstants26createAndAddToConstantListEPKc(ptr noundef nonnull @.str.168)
  store ptr getelementptr inbounds nuw (i8, ptr @_ZN5osgeo4proj2io12WKTConstants10FRAMEEPOCHB5cxx11E, i64 16), ptr @_ZN5osgeo4proj2io12WKTConstants10FRAMEEPOCHB5cxx11E, align 8, !tbaa !32
  call void @llvm.memcpy.p0.p0.i64(ptr noundef nonnull align 8 dereferenceable(10) getelementptr inbounds nuw (i8, ptr @_ZN5osgeo4proj2io12WKTConstants10FRAMEEPOCHB5cxx11E, i64 16), ptr noundef nonnull align 1 dereferenceable(10) @.str.168, i64 10, i1 false)
  store i64 10, ptr getelementptr inbounds nuw (i8, ptr @_ZN5osgeo4proj2io12WKTConstants10FRAMEEPOCHB5cxx11E, i64 8), align 8, !tbaa !28
  store i8 0, ptr getelementptr inbounds nuw (i8, ptr @_ZN5osgeo4proj2io12WKTConstants10FRAMEEPOCHB5cxx11E, i64 26), align 2, !tbaa !16
  %340 = call i32 @__cxa_atexit(ptr nonnull @_ZNSt7__cxx1112basic_stringIcSt11char_traitsIcESaIcEED2Ev, ptr nonnull @_ZN5osgeo4proj2io12WKTConstants10FRAMEEPOCHB5cxx11E, ptr nonnull @__dso_handle) #20
  %341 = call noundef ptr @_ZN5osgeo4proj2io12WKTConstants26createAndAddToConstantListEPKc(ptr noundef nonnull @.str.170)
  store ptr getelementptr inbounds nuw (i8, ptr @_ZN5osgeo4proj2io12WKTConstants5MODELB5cxx11E, i64 16), ptr @_ZN5osgeo4proj2io12WKTConstants5MODELB5cxx11E, align 8, !tbaa !32
  call void @llvm.memcpy.p0.p0.i64(ptr noundef nonnull align 8 dereferenceable(5) getelementptr inbounds nuw (i8, ptr @_ZN5osgeo4proj2io12WKTConstants5MODELB5cxx11E, i64 16), ptr noundef nonnull align 1 dereferenceable(5) @.str.170, i64 5, i1 false)
  store i64 5, ptr getelementptr inbounds nuw (i8, ptr @_ZN5osgeo4proj2io12WKTConstants5MODELB5cxx11E, i64 8), align 8, !tbaa !28
  store i8 0, ptr getelementptr inbounds nuw (i8, ptr @_ZN5osgeo4proj2io12WKTConstants5MODELB5cxx11E, i64 21), align 1, !tbaa !16
  %342 = call i32 @__cxa_atexit(ptr nonnull @_ZNSt7__cxx1112basic_stringIcSt11char_traitsIcESaIcEED2Ev, ptr nonnull @_ZN5osgeo4proj2io12WKTConstants5MODELB5cxx11E, ptr nonnull @__dso_handle) #20
  %343 = call noundef ptr @_ZN5osgeo4proj2io12WKTConstants26createAndAddToConstantListEPKc(ptr noundef nonnull @.str.172)
  store ptr getelementptr inbounds nuw (i8, ptr @_ZN5osgeo4proj2io12WKTConstants12VELOCITYGRIDB5cxx11E, i64 16), ptr @_ZN5osgeo4proj2io12WKTConstants12VELOCITYGRIDB5cxx11E, align 8, !tbaa !32
  call void @llvm.memcpy.p0.p0.i64(ptr noundef nonnull align 8 dereferenceable(12) getelementptr inbounds nuw (i8, ptr @_ZN5osgeo4proj2io12WKTConstants12VELOCITYGRIDB5cxx11E, i64 16), ptr noundef nonnull align 1 dereferenceable(12) @.str.172, i64 12, i1 false)
  store i64 12, ptr getelementptr inbounds nuw (i8, ptr @_ZN5osgeo4proj2io12WKTConstants12VELOCITYGRIDB5cxx11E, i64 8), align 8, !tbaa !28
  store i8 0, ptr getelementptr inbounds nuw (i8, ptr @_ZN5osgeo4proj2io12WKTConstants12VELOCITYGRIDB5cxx11E, i64 28), align 4, !tbaa !16
  %344 = call i32 @__cxa_atexit(ptr nonnull @_ZNSt7__cxx1112basic_stringIcSt11char_traitsIcESaIcEED2Ev, ptr nonnull @_ZN5osgeo4proj2io12WKTConstants12VELOCITYGRIDB5cxx11E, ptr nonnull @__dso_handle) #20
  %345 = call noundef ptr @_ZN5osgeo4proj2io12WKTConstants26createAndAddToConstantListEPKc(ptr noundef nonnull @.str.174)
  store ptr getelementptr inbounds nuw (i8, ptr @_ZN5osgeo4proj2io12WKTConstants8ENSEMBLEB5cxx11E, i64 16), ptr @_ZN5osgeo4proj2io12WKTConstants8ENSEMBLEB5cxx11E, align 8, !tbaa !32
  store i64 4993438986490039877, ptr getelementptr inbounds nuw (i8, ptr @_ZN5osgeo4proj2io12WKTConstants8ENSEMBLEB5cxx11E, i64 16), align 8
  store i64 8, ptr getelementptr inbounds nuw (i8, ptr @_ZN5osgeo4proj2io12WKTConstants8ENSEMBLEB5cxx11E, i64 8), align 8, !tbaa !28
  store i8 0, ptr getelementptr inbounds nuw (i8, ptr @_ZN5osgeo4proj2io12WKTConstants8ENSEMBLEB5cxx11E, i64 24), align 8, !tbaa !16
  %346 = call i32 @__cxa_atexit(ptr nonnull @_ZNSt7__cxx1112basic_stringIcSt11char_traitsIcESaIcEED2Ev, ptr nonnull @_ZN5osgeo4proj2io12WKTConstants8ENSEMBLEB5cxx11E, ptr nonnull @__dso_handle) #20
  %347 = call noundef ptr @_ZN5osgeo4proj2io12WKTConstants26createAndAddToConstantListEPKc(ptr noundef nonnull @.str.176)
  store ptr getelementptr inbounds nuw (i8, ptr @_ZN5osgeo4proj2io12WKTConstants6MEMBERB5cxx11E, i64 16), ptr @_ZN5osgeo4proj2io12WKTConstants6MEMBERB5cxx11E, align 8, !tbaa !32
  call void @llvm.memcpy.p0.p0.i64(ptr noundef nonnull align 8 dereferenceable(6) getelementptr inbounds nuw (i8, ptr @_ZN5osgeo4proj2io12WKTConstants6MEMBERB5cxx11E, i64 16), ptr noundef nonnull align 1 dereferenceable(6) @.str.176, i64 6, i1 false)
  store i64 6, ptr getelementptr inbounds nuw (i8, ptr @_ZN5osgeo4proj2io12WKTConstants6MEMBERB5cxx11E, i64 8), align 8, !tbaa !28
  store i8 0, ptr getelementptr inbounds nuw (i8, ptr @_ZN5osgeo4proj2io12WKTConstants6MEMBERB5cxx11E, i64 22), align 2, !tbaa !16
  %348 = call i32 @__cxa_atexit(ptr nonnull @_ZNSt7__cxx1112basic_stringIcSt11char_traitsIcESaIcEED2Ev, ptr nonnull @_ZN5osgeo4proj2io12WKTConstants6MEMBERB5cxx11E, ptr nonnull @__dso_handle) #20
  %349 = call noundef ptr @_ZN5osgeo4proj2io12WKTConstants26createAndAddToConstantListEPKc(ptr noundef nonnull @.str.178)
  store ptr getelementptr inbounds nuw (i8, ptr @_ZN5osgeo4proj2io12WKTConstants16ENSEMBLEACCURACYB5cxx11E, i64 16), ptr @_ZN5osgeo4proj2io12WKTConstants16ENSEMBLEACCURACYB5cxx11E, align 8, !tbaa !32
  call void @llvm.lifetime.start.p0(ptr %103)
  store i64 16, ptr %103, align 8, !tbaa !33
  %350 = call noundef ptr @_ZNSt7__cxx1112basic_stringIcSt11char_traitsIcESaIcEE9_M_createERmm(ptr noundef nonnull align 8 dereferenceable(32) @_ZN5osgeo4proj2io12WKTConstants16ENSEMBLEACCURACYB5cxx11E, ptr noundef nonnull align 8 dereferenceable(8) %103, i64 noundef 0)
  store ptr %350, ptr @_ZN5osgeo4proj2io12WKTConstants16ENSEMBLEACCURACYB5cxx11E, align 8, !tbaa !23
  %351 = load i64, ptr %103, align 8, !tbaa !33
  store i64 %351, ptr getelementptr inbounds nuw (i8, ptr @_ZN5osgeo4proj2io12WKTConstants16ENSEMBLEACCURACYB5cxx11E, i64 16), align 8, !tbaa !16
  call void @llvm.memcpy.p0.p0.i64(ptr noundef nonnull align 1 dereferenceable(16) %350, ptr noundef nonnull align 1 dereferenceable(16) @.str.178, i64 16, i1 false)
  store i64 %351, ptr getelementptr inbounds nuw (i8, ptr @_ZN5osgeo4proj2io12WKTConstants16ENSEMBLEACCURACYB5cxx11E, i64 8), align 8, !tbaa !28
  %352 = load ptr, ptr @_ZN5osgeo4proj2io12WKTConstants16ENSEMBLEACCURACYB5cxx11E, align 8, !tbaa !23
  %353 = getelementptr inbounds nuw i8, ptr %352, i64 %351
  store i8 0, ptr %353, align 1, !tbaa !16
  call void @llvm.lifetime.end.p0(ptr %103)
  %354 = call i32 @__cxa_atexit(ptr nonnull @_ZNSt7__cxx1112basic_stringIcSt11char_traitsIcESaIcEED2Ev, ptr nonnull @_ZN5osgeo4proj2io12WKTConstants16ENSEMBLEACCURACYB5cxx11E, ptr nonnull @__dso_handle) #20
  %355 = call noundef ptr @_ZN5osgeo4proj2io12WKTConstants26createAndAddToConstantListEPKc(ptr noundef nonnull @.str.180)
  store ptr getelementptr inbounds nuw (i8, ptr @_ZN5osgeo4proj2io12WKTConstants14DERIVEDPROJCRSB5cxx11E, i64 16), ptr @_ZN5osgeo4proj2io12WKTConstants14DERIVEDPROJCRSB5cxx11E, align 8, !tbaa !32
  call void @llvm.memcpy.p0.p0.i64(ptr noundef nonnull align 8 dereferenceable(14) getelementptr inbounds nuw (i8, ptr @_ZN5osgeo4proj2io12WKTConstants14DERIVEDPROJCRSB5cxx11E, i64 16), ptr noundef nonnull align 1 dereferenceable(14) @.str.180, i64 14, i1 false)
  store i64 14, ptr getelementptr inbounds nuw (i8, ptr @_ZN5osgeo4proj2io12WKTConstants14DERIVEDPROJCRSB5cxx11E, i64 8), align 8, !tbaa !28
  store i8 0, ptr getelementptr inbounds nuw (i8, ptr @_ZN5osgeo4proj2io12WKTConstants14DERIVEDPROJCRSB5cxx11E, i64 30), align 2, !tbaa !16
  %356 = call i32 @__cxa_atexit(ptr nonnull @_ZNSt7__cxx1112basic_stringIcSt11char_traitsIcESaIcEED2Ev, ptr nonnull @_ZN5osgeo4proj2io12WKTConstants14DERIVEDPROJCRSB5cxx11E, ptr nonnull @__dso_handle) #20
  %357 = call noundef ptr @_ZN5osgeo4proj2io12WKTConstants26createAndAddToConstantListEPKc(ptr noundef nonnull @.str.182)
  store ptr getelementptr inbounds nuw (i8, ptr @_ZN5osgeo4proj2io12WKTConstants11BASEPROJCRSB5cxx11E, i64 16), ptr @_ZN5osgeo4proj2io12WKTConstants11BASEPROJCRSB5cxx11E, align 8, !tbaa !32
  call void @llvm.memcpy.p0.p0.i64(ptr noundef nonnull align 8 dereferenceable(11) getelementptr inbounds nuw (i8, ptr @_ZN5osgeo4proj2io12WKTConstants11BASEPROJCRSB5cxx11E, i64 16), ptr noundef nonnull align 1 dereferenceable(11) @.str.182, i64 11, i1 false)
  store i64 11, ptr getelementptr inbounds nuw (i8, ptr @_ZN5osgeo4proj2io12WKTConstants11BASEPROJCRSB5cxx11E, i64 8), align 8, !tbaa !28
  store i8 0, ptr getelementptr inbounds nuw (i8, ptr @_ZN5osgeo4proj2io12WKTConstants11BASEPROJCRSB5cxx11E, i64 27), align 1, !tbaa !16
  %358 = call i32 @__cxa_atexit(ptr nonnull @_ZNSt7__cxx1112basic_stringIcSt11char_traitsIcESaIcEED2Ev, ptr nonnull @_ZN5osgeo4proj2io12WKTConstants11BASEPROJCRSB5cxx11E, ptr nonnull @__dso_handle) #20
  %359 = call noundef ptr @_ZN5osgeo4proj2io12WKTConstants26createAndAddToConstantListEPKc(ptr noundef nonnull @.str.184)
  store ptr getelementptr inbounds nuw (i8, ptr @_ZN5osgeo4proj2io12WKTConstants6EDATUMB5cxx11E, i64 16), ptr @_ZN5osgeo4proj2io12WKTConstants6EDATUMB5cxx11E, align 8, !tbaa !32
  call void @llvm.memcpy.p0.p0.i64(ptr noundef nonnull align 8 dereferenceable(6) getelementptr inbounds nuw (i8, ptr @_ZN5osgeo4proj2io12WKTConstants6EDATUMB5cxx11E, i64 16), ptr noundef nonnull align 1 dereferenceable(6) @.str.184, i64 6, i1 false)
  store i64 6, ptr getelementptr inbounds nuw (i8, ptr @_ZN5osgeo4proj2io12WKTConstants6EDATUMB5cxx11E, i64 8), align 8, !tbaa !28
  store i8 0, ptr getelementptr inbounds nuw (i8, ptr @_ZN5osgeo4proj2io12WKTConstants6EDATUMB5cxx11E, i64 22), align 2, !tbaa !16
  %360 = call i32 @__cxa_atexit(ptr nonnull @_ZNSt7__cxx1112basic_stringIcSt11char_traitsIcESaIcEED2Ev, ptr nonnull @_ZN5osgeo4proj2io12WKTConstants6EDATUMB5cxx11E, ptr nonnull @__dso_handle) #20
  %361 = call noundef ptr @_ZN5osgeo4proj2io12WKTConstants26createAndAddToConstantListEPKc(ptr noundef nonnull @.str.186)
  store ptr getelementptr inbounds nuw (i8, ptr @_ZN5osgeo4proj2io12WKTConstants6ENGCRSB5cxx11E, i64 16), ptr @_ZN5osgeo4proj2io12WKTConstants6ENGCRSB5cxx11E, align 8, !tbaa !32
  call void @llvm.memcpy.p0.p0.i64(ptr noundef nonnull align 8 dereferenceable(6) getelementptr inbounds nuw (i8, ptr @_ZN5osgeo4proj2io12WKTConstants6ENGCRSB5cxx11E, i64 16), ptr noundef nonnull align 1 dereferenceable(6) @.str.186, i64 6, i1 false)
  store i64 6, ptr getelementptr inbounds nuw (i8, ptr @_ZN5osgeo4proj2io12WKTConstants6ENGCRSB5cxx11E, i64 8), align 8, !tbaa !28
  store i8 0, ptr getelementptr inbounds nuw (i8, ptr @_ZN5osgeo4proj2io12WKTConstants6ENGCRSB5cxx11E, i64 22), align 2, !tbaa !16
  %362 = call i32 @__cxa_atexit(ptr nonnull @_ZNSt7__cxx1112basic_stringIcSt11char_traitsIcESaIcEED2Ev, ptr nonnull @_ZN5osgeo4proj2io12WKTConstants6ENGCRSB5cxx11E, ptr nonnull @__dso_handle) #20
  %363 = call noundef ptr @_ZN5osgeo4proj2io12WKTConstants26createAndAddToConstantListEPKc(ptr noundef nonnull @.str.188)
  store ptr getelementptr inbounds nuw (i8, ptr @_ZN5osgeo4proj2io12WKTConstants6PDATUMB5cxx11E, i64 16), ptr @_ZN5osgeo4proj2io12WKTConstants6PDATUMB5cxx11E, align 8, !tbaa !32
  call void @llvm.memcpy.p0.p0.i64(ptr noundef nonnull align 8 dereferenceable(6) getelementptr inbounds nuw (i8, ptr @_ZN5osgeo4proj2io12WKTConstants6PDATUMB5cxx11E, i64 16), ptr noundef nonnull align 1 dereferenceable(6) @.str.188, i64 6, i1 false)
  store i64 6, ptr getelementptr inbounds nuw (i8, ptr @_ZN5osgeo4proj2io12WKTConstants6PDATUMB5cxx11E, i64 8), align 8, !tbaa !28
  store i8 0, ptr getelementptr inbounds nuw (i8, ptr @_ZN5osgeo4proj2io12WKTConstants6PDATUMB5cxx11E, i64 22), align 2, !tbaa !16
  %364 = call i32 @__cxa_atexit(ptr nonnull @_ZNSt7__cxx1112basic_stringIcSt11char_traitsIcESaIcEED2Ev, ptr nonnull @_ZN5osgeo4proj2io12WKTConstants6PDATUMB5cxx11E, ptr nonnull @__dso_handle) #20
  %365 = call noundef ptr @_ZN5osgeo4proj2io12WKTConstants26createAndAddToConstantListEPKc(ptr noundef nonnull @.str.190)
  store ptr getelementptr inbounds nuw (i8, ptr @_ZN5osgeo4proj2io12WKTConstants13PARAMETRICCRSB5cxx11E, i64 16), ptr @_ZN5osgeo4proj2io12WKTConstants13PARAMETRICCRSB5cxx11E, align 8, !tbaa !32
  call void @llvm.memcpy.p0.p0.i64(ptr noundef nonnull align 8 dereferenceable(13) getelementptr inbounds nuw (i8, ptr @_ZN5osgeo4proj2io12WKTConstants13PARAMETRICCRSB5cxx11E, i64 16), ptr noundef nonnull align 1 dereferenceable(13) @.str.190, i64 13, i1 false)
  store i64 13, ptr getelementptr inbounds nuw (i8, ptr @_ZN5osgeo4proj2io12WKTConstants13PARAMETRICCRSB5cxx11E, i64 8), align 8, !tbaa !28
  store i8 0, ptr getelementptr inbounds nuw (i8, ptr @_ZN5osgeo4proj2io12WKTConstants13PARAMETRICCRSB5cxx11E, i64 29), align 1, !tbaa !16
  %366 = call i32 @__cxa_atexit(ptr nonnull @_ZNSt7__cxx1112basic_stringIcSt11char_traitsIcESaIcEED2Ev, ptr nonnull @_ZN5osgeo4proj2io12WKTConstants13PARAMETRICCRSB5cxx11E, ptr nonnull @__dso_handle) #20
  %367 = call noundef ptr @_ZN5osgeo4proj2io12WKTConstants26createAndAddToConstantListEPKc(ptr noundef nonnull @.str.192)
  store ptr getelementptr inbounds nuw (i8, ptr @_ZN5osgeo4proj2io12WKTConstants14PARAMETRICUNITB5cxx11E, i64 16), ptr @_ZN5osgeo4proj2io12WKTConstants14PARAMETRICUNITB5cxx11E, align 8, !tbaa !32
  call void @llvm.memcpy.p0.p0.i64(ptr noundef nonnull align 8 dereferenceable(14) getelementptr inbounds nuw (i8, ptr @_ZN5osgeo4proj2io12WKTConstants14PARAMETRICUNITB5cxx11E, i64 16), ptr noundef nonnull align 1 dereferenceable(14) @.str.192, i64 14, i1 false)
  store i64 14, ptr getelementptr inbounds nuw (i8, ptr @_ZN5osgeo4proj2io12WKTConstants14PARAMETRICUNITB5cxx11E, i64 8), align 8, !tbaa !28
  store i8 0, ptr getelementptr inbounds nuw (i8, ptr @_ZN5osgeo4proj2io12WKTConstants14PARAMETRICUNITB5cxx11E, i64 30), align 2, !tbaa !16
  %368 = call i32 @__cxa_atexit(ptr nonnull @_ZNSt7__cxx1112basic_stringIcSt11char_traitsIcESaIcEED2Ev, ptr nonnull @_ZN5osgeo4proj2io12WKTConstants14PARAMETRICUNITB5cxx11E, ptr nonnull @__dso_handle) #20
  %369 = call noundef ptr @_ZN5osgeo4proj2io12WKTConstants26createAndAddToConstantListEPKc(ptr noundef nonnull @.str.194)
  store ptr getelementptr inbounds nuw (i8, ptr @_ZN5osgeo4proj2io12WKTConstants11BASEVERTCRSB5cxx11E, i64 16), ptr @_ZN5osgeo4proj2io12WKTConstants11BASEVERTCRSB5cxx11E, align 8, !tbaa !32
  call void @llvm.memcpy.p0.p0.i64(ptr noundef nonnull align 8 dereferenceable(11) getelementptr inbounds nuw (i8, ptr @_ZN5osgeo4proj2io12WKTConstants11BASEVERTCRSB5cxx11E, i64 16), ptr noundef nonnull align 1 dereferenceable(11) @.str.194, i64 11, i1 false)
  store i64 11, ptr getelementptr inbounds nuw (i8, ptr @_ZN5osgeo4proj2io12WKTConstants11BASEVERTCRSB5cxx11E, i64 8), align 8, !tbaa !28
  store i8 0, ptr getelementptr inbounds nuw (i8, ptr @_ZN5osgeo4proj2io12WKTConstants11BASEVERTCRSB5cxx11E, i64 27), align 1, !tbaa !16
  %370 = call i32 @__cxa_atexit(ptr nonnull @_ZNSt7__cxx1112basic_stringIcSt11char_traitsIcESaIcEED2Ev, ptr nonnull @_ZN5osgeo4proj2io12WKTConstants11BASEVERTCRSB5cxx11E, ptr nonnull @__dso_handle) #20
  %371 = call noundef ptr @_ZN5osgeo4proj2io12WKTConstants26createAndAddToConstantListEPKc(ptr noundef nonnull @.str.196)
  store ptr getelementptr inbounds nuw (i8, ptr @_ZN5osgeo4proj2io12WKTConstants10BASEENGCRSB5cxx11E, i64 16), ptr @_ZN5osgeo4proj2io12WKTConstants10BASEENGCRSB5cxx11E, align 8, !tbaa !32
  call void @llvm.memcpy.p0.p0.i64(ptr noundef nonnull align 8 dereferenceable(10) getelementptr inbounds nuw (i8, ptr @_ZN5osgeo4proj2io12WKTConstants10BASEENGCRSB5cxx11E, i64 16), ptr noundef nonnull align 1 dereferenceable(10) @.str.196, i64 10, i1 false)
  store i64 10, ptr getelementptr inbounds nuw (i8, ptr @_ZN5osgeo4proj2io12WKTConstants10BASEENGCRSB5cxx11E, i64 8), align 8, !tbaa !28
  store i8 0, ptr getelementptr inbounds nuw (i8, ptr @_ZN5osgeo4proj2io12WKTConstants10BASEENGCRSB5cxx11E, i64 26), align 2, !tbaa !16
  %372 = call i32 @__cxa_atexit(ptr nonnull @_ZNSt7__cxx1112basic_stringIcSt11char_traitsIcESaIcEED2Ev, ptr nonnull @_ZN5osgeo4proj2io12WKTConstants10BASEENGCRSB5cxx11E, ptr nonnull @__dso_handle) #20
  %373 = call noundef ptr @_ZN5osgeo4proj2io12WKTConstants26createAndAddToConstantListEPKc(ptr noundef nonnull @.str.198)
  store ptr getelementptr inbounds nuw (i8, ptr @_ZN5osgeo4proj2io12WKTConstants12BASEPARAMCRSB5cxx11E, i64 16), ptr @_ZN5osgeo4proj2io12WKTConstants12BASEPARAMCRSB5cxx11E, align 8, !tbaa !32
  call void @llvm.memcpy.p0.p0.i64(ptr noundef nonnull align 8 dereferenceable(12) getelementptr inbounds nuw (i8, ptr @_ZN5osgeo4proj2io12WKTConstants12BASEPARAMCRSB5cxx11E, i64 16), ptr noundef nonnull align 1 dereferenceable(12) @.str.198, i64 12, i1 false)
  store i64 12, ptr getelementptr inbounds nuw (i8, ptr @_ZN5osgeo4proj2io12WKTConstants12BASEPARAMCRSB5cxx11E, i64 8), align 8, !tbaa !28
  store i8 0, ptr getelementptr inbounds nuw (i8, ptr @_ZN5osgeo4proj2io12WKTConstants12BASEPARAMCRSB5cxx11E, i64 28), align 4, !tbaa !16
  %374 = call i32 @__cxa_atexit(ptr nonnull @_ZNSt7__cxx1112basic_stringIcSt11char_traitsIcESaIcEED2Ev, ptr nonnull @_ZN5osgeo4proj2io12WKTConstants12BASEPARAMCRSB5cxx11E, ptr nonnull @__dso_handle) #20
  %375 = call noundef ptr @_ZN5osgeo4proj2io12WKTConstants26createAndAddToConstantListEPKc(ptr noundef nonnull @.str.200)
  store ptr getelementptr inbounds nuw (i8, ptr @_ZN5osgeo4proj2io12WKTConstants11BASETIMECRSB5cxx11E, i64 16), ptr @_ZN5osgeo4proj2io12WKTConstants11BASETIMECRSB5cxx11E, align 8, !tbaa !32
  call void @llvm.memcpy.p0.p0.i64(ptr noundef nonnull align 8 dereferenceable(11) getelementptr inbounds nuw (i8, ptr @_ZN5osgeo4proj2io12WKTConstants11BASETIMECRSB5cxx11E, i64 16), ptr noundef nonnull align 1 dereferenceable(11) @.str.200, i64 11, i1 false)
  store i64 11, ptr getelementptr inbounds nuw (i8, ptr @_ZN5osgeo4proj2io12WKTConstants11BASETIMECRSB5cxx11E, i64 8), align 8, !tbaa !28
  store i8 0, ptr getelementptr inbounds nuw (i8, ptr @_ZN5osgeo4proj2io12WKTConstants11BASETIMECRSB5cxx11E, i64 27), align 1, !tbaa !16
  %376 = call i32 @__cxa_atexit(ptr nonnull @_ZNSt7__cxx1112basic_stringIcSt11char_traitsIcESaIcEED2Ev, ptr nonnull @_ZN5osgeo4proj2io12WKTConstants11BASETIMECRSB5cxx11E, ptr nonnull @__dso_handle) #20
  %377 = call noundef ptr @_ZN5osgeo4proj2io12WKTConstants26createAndAddToConstantListEPKc(ptr noundef nonnull @.str.202)
  store ptr getelementptr inbounds nuw (i8, ptr @_ZN5osgeo4proj2io12WKTConstants7VERSIONB5cxx11E, i64 16), ptr @_ZN5osgeo4proj2io12WKTConstants7VERSIONB5cxx11E, align 8, !tbaa !32
  call void @llvm.memcpy.p0.p0.i64(ptr noundef nonnull align 8 dereferenceable(7) getelementptr inbounds nuw (i8, ptr @_ZN5osgeo4proj2io12WKTConstants7VERSIONB5cxx11E, i64 16), ptr noundef nonnull align 1 dereferenceable(7) @.str.202, i64 7, i1 false)
  store i64 7, ptr getelementptr inbounds nuw (i8, ptr @_ZN5osgeo4proj2io12WKTConstants7VERSIONB5cxx11E, i64 8), align 8, !tbaa !28
  store i8 0, ptr getelementptr inbounds nuw (i8, ptr @_ZN5osgeo4proj2io12WKTConstants7VERSIONB5cxx11E, i64 23), align 1, !tbaa !16
  %378 = call i32 @__cxa_atexit(ptr nonnull @_ZNSt7__cxx1112basic_stringIcSt11char_traitsIcESaIcEED2Ev, ptr nonnull @_ZN5osgeo4proj2io12WKTConstants7VERSIONB5cxx11E, ptr nonnull @__dso_handle) #20
  %379 = call noundef ptr @_ZN5osgeo4proj2io12WKTConstants26createAndAddToConstantListEPKc(ptr noundef nonnull @.str.204)
  store ptr getelementptr inbounds nuw (i8, ptr @_ZN5osgeo4proj2io12WKTConstants10GEOIDMODELB5cxx11E, i64 16), ptr @_ZN5osgeo4proj2io12WKTConstants10GEOIDMODELB5cxx11E, align 8, !tbaa !32
  call void @llvm.memcpy.p0.p0.i64(ptr noundef nonnull align 8 dereferenceable(10) getelementptr inbounds nuw (i8, ptr @_ZN5osgeo4proj2io12WKTConstants10GEOIDMODELB5cxx11E, i64 16), ptr noundef nonnull align 1 dereferenceable(10) @.str.204, i64 10, i1 false)
  store i64 10, ptr getelementptr inbounds nuw (i8, ptr @_ZN5osgeo4proj2io12WKTConstants10GEOIDMODELB5cxx11E, i64 8), align 8, !tbaa !28
  store i8 0, ptr getelementptr inbounds nuw (i8, ptr @_ZN5osgeo4proj2io12WKTConstants10GEOIDMODELB5cxx11E, i64 26), align 2, !tbaa !16
  %380 = call i32 @__cxa_atexit(ptr nonnull @_ZNSt7__cxx1112basic_stringIcSt11char_traitsIcESaIcEED2Ev, ptr nonnull @_ZN5osgeo4proj2io12WKTConstants10GEOIDMODELB5cxx11E, ptr nonnull @__dso_handle) #20
  %381 = call noundef ptr @_ZN5osgeo4proj2io12WKTConstants26createAndAddToConstantListEPKc(ptr noundef nonnull @.str.206)
  store ptr getelementptr inbounds nuw (i8, ptr @_ZN5osgeo4proj2io12WKTConstants18COORDINATEMETADATAB5cxx11E, i64 16), ptr @_ZN5osgeo4proj2io12WKTConstants18COORDINATEMETADATAB5cxx11E, align 8, !tbaa !32
  call void @llvm.lifetime.start.p0(ptr %102)
  store i64 18, ptr %102, align 8, !tbaa !33
  %382 = call noundef ptr @_ZNSt7__cxx1112basic_stringIcSt11char_traitsIcESaIcEE9_M_createERmm(ptr noundef nonnull align 8 dereferenceable(32) @_ZN5osgeo4proj2io12WKTConstants18COORDINATEMETADATAB5cxx11E, ptr noundef nonnull align 8 dereferenceable(8) %102, i64 noundef 0)
  store ptr %382, ptr @_ZN5osgeo4proj2io12WKTConstants18COORDINATEMETADATAB5cxx11E, align 8, !tbaa !23
  %383 = load i64, ptr %102, align 8, !tbaa !33
  store i64 %383, ptr getelementptr inbounds nuw (i8, ptr @_ZN5osgeo4proj2io12WKTConstants18COORDINATEMETADATAB5cxx11E, i64 16), align 8, !tbaa !16
  call void @llvm.memcpy.p0.p0.i64(ptr noundef nonnull align 1 dereferenceable(18) %382, ptr noundef nonnull align 1 dereferenceable(18) @.str.206, i64 18, i1 false)
  store i64 %383, ptr getelementptr inbounds nuw (i8, ptr @_ZN5osgeo4proj2io12WKTConstants18COORDINATEMETADATAB5cxx11E, i64 8), align 8, !tbaa !28
  %384 = load ptr, ptr @_ZN5osgeo4proj2io12WKTConstants18COORDINATEMETADATAB5cxx11E, align 8, !tbaa !23
  %385 = getelementptr inbounds nuw i8, ptr %384, i64 %383
  store i8 0, ptr %385, align 1, !tbaa !16
  call void @llvm.lifetime.end.p0(ptr %102)
  %386 = call i32 @__cxa_atexit(ptr nonnull @_ZNSt7__cxx1112basic_stringIcSt11char_traitsIcESaIcEED2Ev, ptr nonnull @_ZN5osgeo4proj2io12WKTConstants18COORDINATEMETADATAB5cxx11E, ptr nonnull @__dso_handle) #20
  %387 = call noundef ptr @_ZN5osgeo4proj2io12WKTConstants26createAndAddToConstantListEPKc(ptr noundef nonnull @.str.208)
  store ptr getelementptr inbounds nuw (i8, ptr @_ZN5osgeo4proj2io12WKTConstants5EPOCHB5cxx11E, i64 16), ptr @_ZN5osgeo4proj2io12WKTConstants5EPOCHB5cxx11E, align 8, !tbaa !32
  call void @llvm.memcpy.p0.p0.i64(ptr noundef nonnull align 8 dereferenceable(5) getelementptr inbounds nuw (i8, ptr @_ZN5osgeo4proj2io12WKTConstants5EPOCHB5cxx11E, i64 16), ptr noundef nonnull align 1 dereferenceable(5) @.str.208, i64 5, i1 false)
  store i64 5, ptr getelementptr inbounds nuw (i8, ptr @_ZN5osgeo4proj2io12WKTConstants5EPOCHB5cxx11E, i64 8), align 8, !tbaa !28
  store i8 0, ptr getelementptr inbounds nuw (i8, ptr @_ZN5osgeo4proj2io12WKTConstants5EPOCHB5cxx11E, i64 21), align 1, !tbaa !16
  %388 = call i32 @__cxa_atexit(ptr nonnull @_ZNSt7__cxx1112basic_stringIcSt11char_traitsIcESaIcEED2Ev, ptr nonnull @_ZN5osgeo4proj2io12WKTConstants5EPOCHB5cxx11E, ptr nonnull @__dso_handle) #20
  %389 = call noundef ptr @_ZN5osgeo4proj2io12WKTConstants26createAndAddToConstantListEPKc(ptr noundef nonnull @.str.210)
  store ptr getelementptr inbounds nuw (i8, ptr @_ZN5osgeo4proj2io12WKTConstants12AXISMINVALUEB5cxx11E, i64 16), ptr @_ZN5osgeo4proj2io12WKTConstants12AXISMINVALUEB5cxx11E, align 8, !tbaa !32
  call void @llvm.memcpy.p0.p0.i64(ptr noundef nonnull align 8 dereferenceable(12) getelementptr inbounds nuw (i8, ptr @_ZN5osgeo4proj2io12WKTConstants12AXISMINVALUEB5cxx11E, i64 16), ptr noundef nonnull align 1 dereferenceable(12) @.str.210, i64 12, i1 false)
  store i64 12, ptr getelementptr inbounds nuw (i8, ptr @_ZN5osgeo4proj2io12WKTConstants12AXISMINVALUEB5cxx11E, i64 8), align 8, !tbaa !28
  store i8 0, ptr getelementptr inbounds nuw (i8, ptr @_ZN5osgeo4proj2io12WKTConstants12AXISMINVALUEB5cxx11E, i64 28), align 4, !tbaa !16
  %390 = call i32 @__cxa_atexit(ptr nonnull @_ZNSt7__cxx1112basic_stringIcSt11char_traitsIcESaIcEED2Ev, ptr nonnull @_ZN5osgeo4proj2io12WKTConstants12AXISMINVALUEB5cxx11E, ptr nonnull @__dso_handle) #20
  %391 = call noundef ptr @_ZN5osgeo4proj2io12WKTConstants26createAndAddToConstantListEPKc(ptr noundef nonnull @.str.212)
  store ptr getelementptr inbounds nuw (i8, ptr @_ZN5osgeo4proj2io12WKTConstants12AXISMAXVALUEB5cxx11E, i64 16), ptr @_ZN5osgeo4proj2io12WKTConstants12AXISMAXVALUEB5cxx11E, align 8, !tbaa !32
  call void @llvm.memcpy.p0.p0.i64(ptr noundef nonnull align 8 dereferenceable(12) getelementptr inbounds nuw (i8, ptr @_ZN5osgeo4proj2io12WKTConstants12AXISMAXVALUEB5cxx11E, i64 16), ptr noundef nonnull align 1 dereferenceable(12) @.str.212, i64 12, i1 false)
  store i64 12, ptr getelementptr inbounds nuw (i8, ptr @_ZN5osgeo4proj2io12WKTConstants12AXISMAXVALUEB5cxx11E, i64 8), align 8, !tbaa !28
  store i8 0, ptr getelementptr inbounds nuw (i8, ptr @_ZN5osgeo4proj2io12WKTConstants12AXISMAXVALUEB5cxx11E, i64 28), align 4, !tbaa !16
  %392 = call i32 @__cxa_atexit(ptr nonnull @_ZNSt7__cxx1112basic_stringIcSt11char_traitsIcESaIcEED2Ev, ptr nonnull @_ZN5osgeo4proj2io12WKTConstants12AXISMAXVALUEB5cxx11E, ptr nonnull @__dso_handle) #20
  %393 = call noundef ptr @_ZN5osgeo4proj2io12WKTConstants26createAndAddToConstantListEPKc(ptr noundef nonnull @.str.214)
  store ptr getelementptr inbounds nuw (i8, ptr @_ZN5osgeo4proj2io12WKTConstants12RANGEMEANINGB5cxx11E, i64 16), ptr @_ZN5osgeo4proj2io12WKTConstants12RANGEMEANINGB5cxx11E, align 8, !tbaa !32
  call void @llvm.memcpy.p0.p0.i64(ptr noundef nonnull align 8 dereferenceable(12) getelementptr inbounds nuw (i8, ptr @_ZN5osgeo4proj2io12WKTConstants12RANGEMEANINGB5cxx11E, i64 16), ptr noundef nonnull align 1 dereferenceable(12) @.str.214, i64 12, i1 false)
  store i64 12, ptr getelementptr inbounds nuw (i8, ptr @_ZN5osgeo4proj2io12WKTConstants12RANGEMEANINGB5cxx11E, i64 8), align 8, !tbaa !28
  store i8 0, ptr getelementptr inbounds nuw (i8, ptr @_ZN5osgeo4proj2io12WKTConstants12RANGEMEANINGB5cxx11E, i64 28), align 4, !tbaa !16
  %394 = call i32 @__cxa_atexit(ptr nonnull @_ZNSt7__cxx1112basic_stringIcSt11char_traitsIcESaIcEED2Ev, ptr nonnull @_ZN5osgeo4proj2io12WKTConstants12RANGEMEANINGB5cxx11E, ptr nonnull @__dso_handle) #20
  %395 = call noundef ptr @_ZN5osgeo4proj2io12WKTConstants26createAndAddToConstantListEPKc(ptr noundef nonnull @.str.216)
  store ptr getelementptr inbounds nuw (i8, ptr @_ZN5osgeo4proj2io12WKTConstants20POINTMOTIONOPERATIONB5cxx11E, i64 16), ptr @_ZN5osgeo4proj2io12WKTConstants20POINTMOTIONOPERATIONB5cxx11E, align 8, !tbaa !32
  call void @llvm.lifetime.start.p0(ptr %101)
  store i64 20, ptr %101, align 8, !tbaa !33
  %396 = call noundef ptr @_ZNSt7__cxx1112basic_stringIcSt11char_traitsIcESaIcEE9_M_createERmm(ptr noundef nonnull align 8 dereferenceable(32) @_ZN5osgeo4proj2io12WKTConstants20POINTMOTIONOPERATIONB5cxx11E, ptr noundef nonnull align 8 dereferenceable(8) %101, i64 noundef 0)
  store ptr %396, ptr @_ZN5osgeo4proj2io12WKTConstants20POINTMOTIONOPERATIONB5cxx11E, align 8, !tbaa !23
  %397 = load i64, ptr %101, align 8, !tbaa !33
  store i64 %397, ptr getelementptr inbounds nuw (i8, ptr @_ZN5osgeo4proj2io12WKTConstants20POINTMOTIONOPERATIONB5cxx11E, i64 16), align 8, !tbaa !16
  call void @llvm.memcpy.p0.p0.i64(ptr noundef nonnull align 1 dereferenceable(20) %396, ptr noundef nonnull align 1 dereferenceable(20) @.str.216, i64 20, i1 false)
  store i64 %397, ptr getelementptr inbounds nuw (i8, ptr @_ZN5osgeo4proj2io12WKTConstants20POINTMOTIONOPERATIONB5cxx11E, i64 8), align 8, !tbaa !28
  %398 = load ptr, ptr @_ZN5osgeo4proj2io12WKTConstants20POINTMOTIONOPERATIONB5cxx11E, align 8, !tbaa !23
  %399 = getelementptr inbounds nuw i8, ptr %398, i64 %397
  store i8 0, ptr %399, align 1, !tbaa !16
  call void @llvm.lifetime.end.p0(ptr %101)
  %400 = call i32 @__cxa_atexit(ptr nonnull @_ZNSt7__cxx1112basic_stringIcSt11char_traitsIcESaIcEED2Ev, ptr nonnull @_ZN5osgeo4proj2io12WKTConstants20POINTMOTIONOPERATIONB5cxx11E, ptr nonnull @__dso_handle) #20
  %401 = call noundef ptr @_ZN5osgeo4proj2io12WKTConstants26createAndAddToConstantListEPKc(ptr noundef nonnull @.str.218)
  store ptr getelementptr inbounds nuw (i8, ptr @_ZN5osgeo4proj2io12WKTConstants11GEODETICCRSB5cxx11E, i64 16), ptr @_ZN5osgeo4proj2io12WKTConstants11GEODETICCRSB5cxx11E, align 8, !tbaa !32
  call void @llvm.memcpy.p0.p0.i64(ptr noundef nonnull align 8 dereferenceable(11) getelementptr inbounds nuw (i8, ptr @_ZN5osgeo4proj2io12WKTConstants11GEODETICCRSB5cxx11E, i64 16), ptr noundef nonnull align 1 dereferenceable(11) @.str.218, i64 11, i1 false)
  store i64 11, ptr getelementptr inbounds nuw (i8, ptr @_ZN5osgeo4proj2io12WKTConstants11GEODETICCRSB5cxx11E, i64 8), align 8, !tbaa !28
  store i8 0, ptr getelementptr inbounds nuw (i8, ptr @_ZN5osgeo4proj2io12WKTConstants11GEODETICCRSB5cxx11E, i64 27), align 1, !tbaa !16
  %402 = call i32 @__cxa_atexit(ptr nonnull @_ZNSt7__cxx1112basic_stringIcSt11char_traitsIcESaIcEED2Ev, ptr nonnull @_ZN5osgeo4proj2io12WKTConstants11GEODETICCRSB5cxx11E, ptr nonnull @__dso_handle) #20
  %403 = call noundef ptr @_ZN5osgeo4proj2io12WKTConstants26createAndAddToConstantListEPKc(ptr noundef nonnull @.str.220)
  store ptr getelementptr inbounds nuw (i8, ptr @_ZN5osgeo4proj2io12WKTConstants13GEODETICDATUMB5cxx11E, i64 16), ptr @_ZN5osgeo4proj2io12WKTConstants13GEODETICDATUMB5cxx11E, align 8, !tbaa !32
  call void @llvm.memcpy.p0.p0.i64(ptr noundef nonnull align 8 dereferenceable(13) getelementptr inbounds nuw (i8, ptr @_ZN5osgeo4proj2io12WKTConstants13GEODETICDATUMB5cxx11E, i64 16), ptr noundef nonnull align 1 dereferenceable(13) @.str.220, i64 13, i1 false)
  store i64 13, ptr getelementptr inbounds nuw (i8, ptr @_ZN5osgeo4proj2io12WKTConstants13GEODETICDATUMB5cxx11E, i64 8), align 8, !tbaa !28
  store i8 0, ptr getelementptr inbounds nuw (i8, ptr @_ZN5osgeo4proj2io12WKTConstants13GEODETICDATUMB5cxx11E, i64 29), align 1, !tbaa !16
  %404 = call i32 @__cxa_atexit(ptr nonnull @_ZNSt7__cxx1112basic_stringIcSt11char_traitsIcESaIcEED2Ev, ptr nonnull @_ZN5osgeo4proj2io12WKTConstants13GEODETICDATUMB5cxx11E, ptr nonnull @__dso_handle) #20
  %405 = call noundef ptr @_ZN5osgeo4proj2io12WKTConstants26createAndAddToConstantListEPKc(ptr noundef nonnull @.str.222)
  store ptr getelementptr inbounds nuw (i8, ptr @_ZN5osgeo4proj2io12WKTConstants12PROJECTEDCRSB5cxx11E, i64 16), ptr @_ZN5osgeo4proj2io12WKTConstants12PROJECTEDCRSB5cxx11E, align 8, !tbaa !32
  call void @llvm.memcpy.p0.p0.i64(ptr noundef nonnull align 8 dereferenceable(12) getelementptr inbounds nuw (i8, ptr @_ZN5osgeo4proj2io12WKTConstants12PROJECTEDCRSB5cxx11E, i64 16), ptr noundef nonnull align 1 dereferenceable(12) @.str.222, i64 12, i1 false)
  store i64 12, ptr getelementptr inbounds nuw (i8, ptr @_ZN5osgeo4proj2io12WKTConstants12PROJECTEDCRSB5cxx11E, i64 8), align 8, !tbaa !28
  store i8 0, ptr getelementptr inbounds nuw (i8, ptr @_ZN5osgeo4proj2io12WKTConstants12PROJECTEDCRSB5cxx11E, i64 28), align 4, !tbaa !16
  %406 = call i32 @__cxa_atexit(ptr nonnull @_ZNSt7__cxx1112basic_stringIcSt11char_traitsIcESaIcEED2Ev, ptr nonnull @_ZN5osgeo4proj2io12WKTConstants12PROJECTEDCRSB5cxx11E, ptr nonnull @__dso_handle) #20
  %407 = call noundef ptr @_ZN5osgeo4proj2io12WKTConstants26createAndAddToConstantListEPKc(ptr noundef nonnull @.str.224)
  store ptr getelementptr inbounds nuw (i8, ptr @_ZN5osgeo4proj2io12WKTConstants13PRIMEMERIDIANB5cxx11E, i64 16), ptr @_ZN5osgeo4proj2io12WKTConstants13PRIMEMERIDIANB5cxx11E, align 8, !tbaa !32
  call void @llvm.memcpy.p0.p0.i64(ptr noundef nonnull align 8 dereferenceable(13) getelementptr inbounds nuw (i8, ptr @_ZN5osgeo4proj2io12WKTConstants13PRIMEMERIDIANB5cxx11E, i64 16), ptr noundef nonnull align 1 dereferenceable(13) @.str.224, i64 13, i1 false)
  store i64 13, ptr getelementptr inbounds nuw (i8, ptr @_ZN5osgeo4proj2io12WKTConstants13PRIMEMERIDIANB5cxx11E, i64 8), align 8, !tbaa !28
  store i8 0, ptr getelementptr inbounds nuw (i8, ptr @_ZN5osgeo4proj2io12WKTConstants13PRIMEMERIDIANB5cxx11E, i64 29), align 1, !tbaa !16
  %408 = call i32 @__cxa_atexit(ptr nonnull @_ZNSt7__cxx1112basic_stringIcSt11char_traitsIcESaIcEED2Ev, ptr nonnull @_ZN5osgeo4proj2io12WKTConstants13PRIMEMERIDIANB5cxx11E, ptr nonnull @__dso_handle) #20
  %409 = call noundef ptr @_ZN5osgeo4proj2io12WKTConstants26createAndAddToConstantListEPKc(ptr noundef nonnull @.str.226)
  store ptr getelementptr inbounds nuw (i8, ptr @_ZN5osgeo4proj2io12WKTConstants13GEOGRAPHICCRSB5cxx11E, i64 16), ptr @_ZN5osgeo4proj2io12WKTConstants13GEOGRAPHICCRSB5cxx11E, align 8, !tbaa !32
  call void @llvm.memcpy.p0.p0.i64(ptr noundef nonnull align 8 dereferenceable(13) getelementptr inbounds nuw (i8, ptr @_ZN5osgeo4proj2io12WKTConstants13GEOGRAPHICCRSB5cxx11E, i64 16), ptr noundef nonnull align 1 dereferenceable(13) @.str.226, i64 13, i1 false)
  store i64 13, ptr getelementptr inbounds nuw (i8, ptr @_ZN5osgeo4proj2io12WKTConstants13GEOGRAPHICCRSB5cxx11E, i64 8), align 8, !tbaa !28
  store i8 0, ptr getelementptr inbounds nuw (i8, ptr @_ZN5osgeo4proj2io12WKTConstants13GEOGRAPHICCRSB5cxx11E, i64 29), align 1, !tbaa !16
  %410 = call i32 @__cxa_atexit(ptr nonnull @_ZNSt7__cxx1112basic_stringIcSt11char_traitsIcESaIcEED2Ev, ptr nonnull @_ZN5osgeo4proj2io12WKTConstants13GEOGRAPHICCRSB5cxx11E, ptr nonnull @__dso_handle) #20
  %411 = call noundef ptr @_ZN5osgeo4proj2io12WKTConstants26createAndAddToConstantListEPKc(ptr noundef nonnull @.str.228)
  store ptr getelementptr inbounds nuw (i8, ptr @_ZN5osgeo4proj2io12WKTConstants3TRFB5cxx11E, i64 16), ptr @_ZN5osgeo4proj2io12WKTConstants3TRFB5cxx11E, align 8, !tbaa !32
  call void @llvm.memcpy.p0.p0.i64(ptr noundef nonnull align 8 dereferenceable(3) getelementptr inbounds nuw (i8, ptr @_ZN5osgeo4proj2io12WKTConstants3TRFB5cxx11E, i64 16), ptr noundef nonnull align 1 dereferenceable(3) @.str.228, i64 3, i1 false)
  store i64 3, ptr getelementptr inbounds nuw (i8, ptr @_ZN5osgeo4proj2io12WKTConstants3TRFB5cxx11E, i64 8), align 8, !tbaa !28
  store i8 0, ptr getelementptr inbounds nuw (i8, ptr @_ZN5osgeo4proj2io12WKTConstants3TRFB5cxx11E, i64 19), align 1, !tbaa !16
  %412 = call i32 @__cxa_atexit(ptr nonnull @_ZNSt7__cxx1112basic_stringIcSt11char_traitsIcESaIcEED2Ev, ptr nonnull @_ZN5osgeo4proj2io12WKTConstants3TRFB5cxx11E, ptr nonnull @__dso_handle) #20
  %413 = call noundef ptr @_ZN5osgeo4proj2io12WKTConstants26createAndAddToConstantListEPKc(ptr noundef nonnull @.str.230)
  store ptr getelementptr inbounds nuw (i8, ptr @_ZN5osgeo4proj2io12WKTConstants11VERTICALCRSB5cxx11E, i64 16), ptr @_ZN5osgeo4proj2io12WKTConstants11VERTICALCRSB5cxx11E, align 8, !tbaa !32
  call void @llvm.memcpy.p0.p0.i64(ptr noundef nonnull align 8 dereferenceable(11) getelementptr inbounds nuw (i8, ptr @_ZN5osgeo4proj2io12WKTConstants11VERTICALCRSB5cxx11E, i64 16), ptr noundef nonnull align 1 dereferenceable(11) @.str.230, i64 11, i1 false)
  store i64 11, ptr getelementptr inbounds nuw (i8, ptr @_ZN5osgeo4proj2io12WKTConstants11VERTICALCRSB5cxx11E, i64 8), align 8, !tbaa !28
  store i8 0, ptr getelementptr inbounds nuw (i8, ptr @_ZN5osgeo4proj2io12WKTConstants11VERTICALCRSB5cxx11E, i64 27), align 1, !tbaa !16
  %414 = call i32 @__cxa_atexit(ptr nonnull @_ZNSt7__cxx1112basic_stringIcSt11char_traitsIcESaIcEED2Ev, ptr nonnull @_ZN5osgeo4proj2io12WKTConstants11VERTICALCRSB5cxx11E, ptr nonnull @__dso_handle) #20
  %415 = call noundef ptr @_ZN5osgeo4proj2io12WKTConstants26createAndAddToConstantListEPKc(ptr noundef nonnull @.str.232)
  store ptr getelementptr inbounds nuw (i8, ptr @_ZN5osgeo4proj2io12WKTConstants13VERTICALDATUMB5cxx11E, i64 16), ptr @_ZN5osgeo4proj2io12WKTConstants13VERTICALDATUMB5cxx11E, align 8, !tbaa !32
  call void @llvm.memcpy.p0.p0.i64(ptr noundef nonnull align 8 dereferenceable(13) getelementptr inbounds nuw (i8, ptr @_ZN5osgeo4proj2io12WKTConstants13VERTICALDATUMB5cxx11E, i64 16), ptr noundef nonnull align 1 dereferenceable(13) @.str.232, i64 13, i1 false)
  store i64 13, ptr getelementptr inbounds nuw (i8, ptr @_ZN5osgeo4proj2io12WKTConstants13VERTICALDATUMB5cxx11E, i64 8), align 8, !tbaa !28
  store i8 0, ptr getelementptr inbounds nuw (i8, ptr @_ZN5osgeo4proj2io12WKTConstants13VERTICALDATUMB5cxx11E, i64 29), align 1, !tbaa !16
  %416 = call i32 @__cxa_atexit(ptr nonnull @_ZNSt7__cxx1112basic_stringIcSt11char_traitsIcESaIcEED2Ev, ptr nonnull @_ZN5osgeo4proj2io12WKTConstants13VERTICALDATUMB5cxx11E, ptr nonnull @__dso_handle) #20
  %417 = call noundef ptr @_ZN5osgeo4proj2io12WKTConstants26createAndAddToConstantListEPKc(ptr noundef nonnull @.str.234)
  store ptr getelementptr inbounds nuw (i8, ptr @_ZN5osgeo4proj2io12WKTConstants3VRFB5cxx11E, i64 16), ptr @_ZN5osgeo4proj2io12WKTConstants3VRFB5cxx11E, align 8, !tbaa !32
  call void @llvm.memcpy.p0.p0.i64(ptr noundef nonnull align 8 dereferenceable(3) getelementptr inbounds nuw (i8, ptr @_ZN5osgeo4proj2io12WKTConstants3VRFB5cxx11E, i64 16), ptr noundef nonnull align 1 dereferenceable(3) @.str.234, i64 3, i1 false)
  store i64 3, ptr getelementptr inbounds nuw (i8, ptr @_ZN5osgeo4proj2io12WKTConstants3VRFB5cxx11E, i64 8), align 8, !tbaa !28
  store i8 0, ptr getelementptr inbounds nuw (i8, ptr @_ZN5osgeo4proj2io12WKTConstants3VRFB5cxx11E, i64 19), align 1, !tbaa !16
  %418 = call i32 @__cxa_atexit(ptr nonnull @_ZNSt7__cxx1112basic_stringIcSt11char_traitsIcESaIcEED2Ev, ptr nonnull @_ZN5osgeo4proj2io12WKTConstants3VRFB5cxx11E, ptr nonnull @__dso_handle) #20
  %419 = call noundef ptr @_ZN5osgeo4proj2io12WKTConstants26createAndAddToConstantListEPKc(ptr noundef nonnull @.str.236)
  store ptr getelementptr inbounds nuw (i8, ptr @_ZN5osgeo4proj2io12WKTConstants9TIMEDATUMB5cxx11E, i64 16), ptr @_ZN5osgeo4proj2io12WKTConstants9TIMEDATUMB5cxx11E, align 8, !tbaa !32
  call void @llvm.memcpy.p0.p0.i64(ptr noundef nonnull align 8 dereferenceable(9) getelementptr inbounds nuw (i8, ptr @_ZN5osgeo4proj2io12WKTConstants9TIMEDATUMB5cxx11E, i64 16), ptr noundef nonnull align 1 dereferenceable(9) @.str.236, i64 9, i1 false)
  store i64 9, ptr getelementptr inbounds nuw (i8, ptr @_ZN5osgeo4proj2io12WKTConstants9TIMEDATUMB5cxx11E, i64 8), align 8, !tbaa !28
  store i8 0, ptr getelementptr inbounds nuw (i8, ptr @_ZN5osgeo4proj2io12WKTConstants9TIMEDATUMB5cxx11E, i64 25), align 1, !tbaa !16
  %420 = call i32 @__cxa_atexit(ptr nonnull @_ZNSt7__cxx1112basic_stringIcSt11char_traitsIcESaIcEED2Ev, ptr nonnull @_ZN5osgeo4proj2io12WKTConstants9TIMEDATUMB5cxx11E, ptr nonnull @__dso_handle) #20
  %421 = call noundef ptr @_ZN5osgeo4proj2io12WKTConstants26createAndAddToConstantListEPKc(ptr noundef nonnull @.str.238)
  store ptr getelementptr inbounds nuw (i8, ptr @_ZN5osgeo4proj2io12WKTConstants16TEMPORALQUANTITYB5cxx11E, i64 16), ptr @_ZN5osgeo4proj2io12WKTConstants16TEMPORALQUANTITYB5cxx11E, align 8, !tbaa !32
  call void @llvm.lifetime.start.p0(ptr %100)
  store i64 16, ptr %100, align 8, !tbaa !33
  %422 = call noundef ptr @_ZNSt7__cxx1112basic_stringIcSt11char_traitsIcESaIcEE9_M_createERmm(ptr noundef nonnull align 8 dereferenceable(32) @_ZN5osgeo4proj2io12WKTConstants16TEMPORALQUANTITYB5cxx11E, ptr noundef nonnull align 8 dereferenceable(8) %100, i64 noundef 0)
  store ptr %422, ptr @_ZN5osgeo4proj2io12WKTConstants16TEMPORALQUANTITYB5cxx11E, align 8, !tbaa !23
  %423 = load i64, ptr %100, align 8, !tbaa !33
  store i64 %423, ptr getelementptr inbounds nuw (i8, ptr @_ZN5osgeo4proj2io12WKTConstants16TEMPORALQUANTITYB5cxx11E, i64 16), align 8, !tbaa !16
  call void @llvm.memcpy.p0.p0.i64(ptr noundef nonnull align 1 dereferenceable(16) %422, ptr noundef nonnull align 1 dereferenceable(16) @.str.238, i64 16, i1 false)
  store i64 %423, ptr getelementptr inbounds nuw (i8, ptr @_ZN5osgeo4proj2io12WKTConstants16TEMPORALQUANTITYB5cxx11E, i64 8), align 8, !tbaa !28
  %424 = load ptr, ptr @_ZN5osgeo4proj2io12WKTConstants16TEMPORALQUANTITYB5cxx11E, align 8, !tbaa !23
  %425 = getelementptr inbounds nuw i8, ptr %424, i64 %423
  store i8 0, ptr %425, align 1, !tbaa !16
  call void @llvm.lifetime.end.p0(ptr %100)
  %426 = call i32 @__cxa_atexit(ptr nonnull @_ZNSt7__cxx1112basic_stringIcSt11char_traitsIcESaIcEED2Ev, ptr nonnull @_ZN5osgeo4proj2io12WKTConstants16TEMPORALQUANTITYB5cxx11E, ptr nonnull @__dso_handle) #20
  %427 = call noundef ptr @_ZN5osgeo4proj2io12WKTConstants26createAndAddToConstantListEPKc(ptr noundef nonnull @.str.240)
  store ptr getelementptr inbounds nuw (i8, ptr @_ZN5osgeo4proj2io12WKTConstants16ENGINEERINGDATUMB5cxx11E, i64 16), ptr @_ZN5osgeo4proj2io12WKTConstants16ENGINEERINGDATUMB5cxx11E, align 8, !tbaa !32
  call void @llvm.lifetime.start.p0(ptr %99)
  store i64 16, ptr %99, align 8, !tbaa !33
  %428 = call noundef ptr @_ZNSt7__cxx1112basic_stringIcSt11char_traitsIcESaIcEE9_M_createERmm(ptr noundef nonnull align 8 dereferenceable(32) @_ZN5osgeo4proj2io12WKTConstants16ENGINEERINGDATUMB5cxx11E, ptr noundef nonnull align 8 dereferenceable(8) %99, i64 noundef 0)
  store ptr %428, ptr @_ZN5osgeo4proj2io12WKTConstants16ENGINEERINGDATUMB5cxx11E, align 8, !tbaa !23
  %429 = load i64, ptr %99, align 8, !tbaa !33
  store i64 %429, ptr getelementptr inbounds nuw (i8, ptr @_ZN5osgeo4proj2io12WKTConstants16ENGINEERINGDATUMB5cxx11E, i64 16), align 8, !tbaa !16
  call void @llvm.memcpy.p0.p0.i64(ptr noundef nonnull align 1 dereferenceable(16) %428, ptr noundef nonnull align 1 dereferenceable(16) @.str.240, i64 16, i1 false)
  store i64 %429, ptr getelementptr inbounds nuw (i8, ptr @_ZN5osgeo4proj2io12WKTConstants16ENGINEERINGDATUMB5cxx11E, i64 8), align 8, !tbaa !28
  %430 = load ptr, ptr @_ZN5osgeo4proj2io12WKTConstants16ENGINEERINGDATUMB5cxx11E, align 8, !tbaa !23
  %431 = getelementptr inbounds nuw i8, ptr %430, i64 %429
  store i8 0, ptr %431, align 1, !tbaa !16
  call void @llvm.lifetime.end.p0(ptr %99)
  %432 = call i32 @__cxa_atexit(ptr nonnull @_ZNSt7__cxx1112basic_stringIcSt11char_traitsIcESaIcEED2Ev, ptr nonnull @_ZN5osgeo4proj2io12WKTConstants16ENGINEERINGDATUMB5cxx11E, ptr nonnull @__dso_handle) #20
  %433 = call noundef ptr @_ZN5osgeo4proj2io12WKTConstants26createAndAddToConstantListEPKc(ptr noundef nonnull @.str.242)
  store ptr getelementptr inbounds nuw (i8, ptr @_ZN5osgeo4proj2io12WKTConstants14ENGINEERINGCRSB5cxx11E, i64 16), ptr @_ZN5osgeo4proj2io12WKTConstants14ENGINEERINGCRSB5cxx11E, align 8, !tbaa !32
  call void @llvm.memcpy.p0.p0.i64(ptr noundef nonnull align 8 dereferenceable(14) getelementptr inbounds nuw (i8, ptr @_ZN5osgeo4proj2io12WKTConstants14ENGINEERINGCRSB5cxx11E, i64 16), ptr noundef nonnull align 1 dereferenceable(14) @.str.242, i64 14, i1 false)
  store i64 14, ptr getelementptr inbounds nuw (i8, ptr @_ZN5osgeo4proj2io12WKTConstants14ENGINEERINGCRSB5cxx11E, i64 8), align 8, !tbaa !28
  store i8 0, ptr getelementptr inbounds nuw (i8, ptr @_ZN5osgeo4proj2io12WKTConstants14ENGINEERINGCRSB5cxx11E, i64 30), align 2, !tbaa !16
  %434 = call i32 @__cxa_atexit(ptr nonnull @_ZNSt7__cxx1112basic_stringIcSt11char_traitsIcESaIcEED2Ev, ptr nonnull @_ZN5osgeo4proj2io12WKTConstants14ENGINEERINGCRSB5cxx11E, ptr nonnull @__dso_handle) #20
  %435 = call noundef ptr @_ZN5osgeo4proj2io12WKTConstants26createAndAddToConstantListEPKc(ptr noundef nonnull @.str.244)
  store ptr getelementptr inbounds nuw (i8, ptr @_ZN5osgeo4proj2io12WKTConstants15PARAMETRICDATUMB5cxx11E, i64 16), ptr @_ZN5osgeo4proj2io12WKTConstants15PARAMETRICDATUMB5cxx11E, align 8, !tbaa !32
  call void @llvm.memcpy.p0.p0.i64(ptr noundef nonnull align 8 dereferenceable(15) getelementptr inbounds nuw (i8, ptr @_ZN5osgeo4proj2io12WKTConstants15PARAMETRICDATUMB5cxx11E, i64 16), ptr noundef nonnull align 1 dereferenceable(15) @.str.244, i64 15, i1 false)
  store i64 15, ptr getelementptr inbounds nuw (i8, ptr @_ZN5osgeo4proj2io12WKTConstants15PARAMETRICDATUMB5cxx11E, i64 8), align 8, !tbaa !28
  store i8 0, ptr getelementptr inbounds nuw (i8, ptr @_ZN5osgeo4proj2io12WKTConstants15PARAMETRICDATUMB5cxx11E, i64 31), align 1, !tbaa !16
  %436 = call i32 @__cxa_atexit(ptr nonnull @_ZNSt7__cxx1112basic_stringIcSt11char_traitsIcESaIcEED2Ev, ptr nonnull @_ZN5osgeo4proj2io12WKTConstants15PARAMETRICDATUMB5cxx11E, ptr nonnull @__dso_handle) #20
  call void @llvm.lifetime.start.p0(ptr %96)
  %437 = getelementptr inbounds nuw i8, ptr %96, i64 16
  store ptr %437, ptr %96, align 8, !tbaa !32
  %438 = getelementptr inbounds nuw i8, ptr %96, i64 8
  store i64 0, ptr %438, align 8, !tbaa !28
  store i8 0, ptr %437, align 8, !tbaa !16
  call void @llvm.lifetime.start.p0(ptr %97)
  %439 = getelementptr inbounds nuw i8, ptr %97, i64 16
  store ptr %439, ptr %97, align 8, !tbaa !32
  %440 = getelementptr inbounds nuw i8, ptr %97, i64 8
  store i64 0, ptr %440, align 8, !tbaa !28
  store i8 0, ptr %439, align 8, !tbaa !16
  call void @llvm.lifetime.start.p0(ptr %98)
  %441 = getelementptr inbounds nuw i8, ptr %98, i64 16
  store ptr %441, ptr %98, align 8, !tbaa !32
  %442 = getelementptr inbounds nuw i8, ptr %98, i64 8
  store i64 0, ptr %442, align 8, !tbaa !28
  store i8 0, ptr %441, align 8, !tbaa !16
  invoke void @_ZN5osgeo4proj6common13UnitOfMeasureC1ERKNSt7__cxx1112basic_stringIcSt11char_traitsIcESaIcEEEdNS2_4TypeESA_SA_(ptr noundef nonnull align 8 dereferenceable(24) @_ZN5osgeo4proj6common13UnitOfMeasure4NONEE, ptr noundef nonnull align 8 dereferenceable(32) %96, double noundef 1.000000e+00, i32 noundef 1, ptr noundef nonnull align 8 dereferenceable(32) %97, ptr noundef nonnull align 8 dereferenceable(32) %98)
          to label %443 unwind label %470

443:                                              ; preds = %180
  %444 = load ptr, ptr %98, align 8, !tbaa !23
  %445 = icmp eq ptr %444, %441
  br i1 %445, label %446, label %449

446:                                              ; preds = %443
  %447 = load i64, ptr %442, align 8, !tbaa !28
  %448 = icmp ult i64 %447, 16
  call void @llvm.assume(i1 %448)
  br label %452

449:                                              ; preds = %443
  %450 = load i64, ptr %441, align 8, !tbaa !16
  %451 = add i64 %450, 1
  call void @_ZdlPvm(ptr noundef %444, i64 noundef %451) #21
  br label %452

452:                                              ; preds = %449, %446
  call void @llvm.lifetime.end.p0(ptr %98)
  %453 = load ptr, ptr %97, align 8, !tbaa !23
  %454 = icmp eq ptr %453, %439
  br i1 %454, label %455, label %458

455:                                              ; preds = %452
  %456 = load i64, ptr %440, align 8, !tbaa !28
  %457 = icmp ult i64 %456, 16
  call void @llvm.assume(i1 %457)
  br label %461

458:                                              ; preds = %452
  %459 = load i64, ptr %439, align 8, !tbaa !16
  %460 = add i64 %459, 1
  call void @_ZdlPvm(ptr noundef %453, i64 noundef %460) #21
  br label %461

461:                                              ; preds = %458, %455
  call void @llvm.lifetime.end.p0(ptr %97)
  %462 = load ptr, ptr %96, align 8, !tbaa !23
  %463 = icmp eq ptr %462, %437
  br i1 %463, label %464, label %467

464:                                              ; preds = %461
  %465 = load i64, ptr %438, align 8, !tbaa !28
  %466 = icmp ult i64 %465, 16
  call void @llvm.assume(i1 %466)
  br label %499

467:                                              ; preds = %461
  %468 = load i64, ptr %437, align 8, !tbaa !16
  %469 = add i64 %468, 1
  call void @_ZdlPvm(ptr noundef %462, i64 noundef %469) #21
  br label %499

470:                                              ; preds = %180
  %471 = landingpad { ptr, i32 }
          cleanup
  %472 = load ptr, ptr %98, align 8, !tbaa !23
  %473 = icmp eq ptr %472, %441
  br i1 %473, label %474, label %477

474:                                              ; preds = %470
  %475 = load i64, ptr %442, align 8, !tbaa !28
  %476 = icmp ult i64 %475, 16
  call void @llvm.assume(i1 %476)
  br label %480

477:                                              ; preds = %470
  %478 = load i64, ptr %441, align 8, !tbaa !16
  %479 = add i64 %478, 1
  call void @_ZdlPvm(ptr noundef %472, i64 noundef %479) #21
  br label %480

480:                                              ; preds = %477, %474
  call void @llvm.lifetime.end.p0(ptr %98)
  %481 = load ptr, ptr %97, align 8, !tbaa !23
  %482 = icmp eq ptr %481, %439
  br i1 %482, label %483, label %486

483:                                              ; preds = %480
  %484 = load i64, ptr %440, align 8, !tbaa !28
  %485 = icmp ult i64 %484, 16
  call void @llvm.assume(i1 %485)
  br label %489

486:                                              ; preds = %480
  %487 = load i64, ptr %439, align 8, !tbaa !16
  %488 = add i64 %487, 1
  call void @_ZdlPvm(ptr noundef %481, i64 noundef %488) #21
  br label %489

489:                                              ; preds = %486, %483
  call void @llvm.lifetime.end.p0(ptr %97)
  %490 = load ptr, ptr %96, align 8, !tbaa !23
  %491 = icmp eq ptr %490, %437
  br i1 %491, label %492, label %495

