; ModuleID = '/home/mitch/Documents/PROJ/src/iso19111/operation/esriparammappings.cpp'
source_filename = "/home/mitch/Documents/PROJ/src/iso19111/operation/esriparammappings.cpp"
target datalayout = "e-m:e-p270:32:32-p271:32:32-p272:64:64-i64:64-i128:128-f80:128-n8:16:32:64-S128"
target triple = "x86_64-pc-linux-gnu"

%"struct.osgeo::proj::operation::ESRIParamMapping" = type { ptr, ptr, i32, ptr, i8 }
%"struct.osgeo::proj::operation::ESRIMethodMapping" = type { ptr, ptr, i32, ptr }
%"class.std::vector" = type { %"struct.std::_Vector_base" }
%"struct.std::_Vector_base" = type { %"struct.std::_Vector_base<const osgeo::proj::operation::ESRIMethodMapping *, std::allocator<const osgeo::proj::operation::ESRIMethodMapping *>>::_Vector_impl" }
%"struct.std::_Vector_base<const osgeo::proj::operation::ESRIMethodMapping *, std::allocator<const osgeo::proj::operation::ESRIMethodMapping *>>::_Vector_impl" = type { %"struct.std::_Vector_base<const osgeo::proj::operation::ESRIMethodMapping *, std::allocator<const osgeo::proj::operation::ESRIMethodMapping *>>::_Vector_impl_data" }
%"struct.std::_Vector_base<const osgeo::proj::operation::ESRIMethodMapping *, std::allocator<const osgeo::proj::operation::ESRIMethodMapping *>>::_Vector_impl_data" = type { ptr, ptr, ptr }

@.str = private unnamed_addr constant [14 x i8] c"False_Easting\00", align 1
@.str.1 = private unnamed_addr constant [14 x i8] c"False easting\00", align 1
@.str.2 = private unnamed_addr constant [4 x i8] c"0.0\00", align 1
@.str.3 = private unnamed_addr constant [15 x i8] c"False_Northing\00", align 1
@.str.4 = private unnamed_addr constant [15 x i8] c"False northing\00", align 1
@.str.5 = private unnamed_addr constant [17 x i8] c"Central_Meridian\00", align 1
@.str.6 = private unnamed_addr constant [28 x i8] c"Longitude of natural origin\00", align 1
@.str.7 = private unnamed_addr constant [20 x i8] c"Standard_Parallel_1\00", align 1
@.str.8 = private unnamed_addr constant [34 x i8] c"Latitude of 1st standard parallel\00", align 1
@_ZN5osgeo4proj9operation34paramsESRI_Equidistant_CylindricalE = hidden constant [5 x %"struct.osgeo::proj::operation::ESRIParamMapping"] [%"struct.osgeo::proj::operation::ESRIParamMapping" { ptr @.str, ptr @.str.1, i32 8806, ptr @.str.2, i8 0 }, %"struct.osgeo::proj::operation::ESRIParamMapping" { ptr @.str.3, ptr @.str.4, i32 8807, ptr @.str.2, i8 0 }, %"struct.osgeo::proj::operation::ESRIParamMapping" { ptr @.str.5, ptr @.str.6, i32 8802, ptr @.str.2, i8 0 }, %"struct.osgeo::proj::operation::ESRIParamMapping" { ptr @.str.7, ptr @.str.8, i32 8823, ptr @.str.2, i8 0 }, %"struct.osgeo::proj::operation::ESRIParamMapping" { ptr null, ptr null, i32 0, ptr @.str.2, i8 0 }], align 16
@_ZN5osgeo4proj9operation23paramsESRI_Plate_CarreeE = hidden constant [4 x %"struct.osgeo::proj::operation::ESRIParamMapping"] [%"struct.osgeo::proj::operation::ESRIParamMapping" { ptr @.str, ptr @.str.1, i32 8806, ptr @.str.2, i8 0 }, %"struct.osgeo::proj::operation::ESRIParamMapping" { ptr @.str.3, ptr @.str.4, i32 8807, ptr @.str.2, i8 0 }, %"struct.osgeo::proj::operation::ESRIParamMapping" { ptr @.str.5, ptr @.str.6, i32 8802, ptr @.str.2, i8 0 }, %"struct.osgeo::proj::operation::ESRIParamMapping" { ptr null, ptr null, i32 0, ptr @.str.2, i8 0 }], align 16
@.str.9 = private unnamed_addr constant [13 x i8] c"Scale_Factor\00", align 1
@.str.10 = private unnamed_addr constant [31 x i8] c"Scale factor at natural origin\00", align 1
@.str.11 = private unnamed_addr constant [19 x i8] c"Latitude_Of_Origin\00", align 1
@.str.12 = private unnamed_addr constant [27 x i8] c"Latitude of natural origin\00", align 1
@_ZN5osgeo4proj9operation23paramsESRI_Gauss_KrugerE = hidden constant [6 x %"struct.osgeo::proj::operation::ESRIParamMapping"] [%"struct.osgeo::proj::operation::ESRIParamMapping" { ptr @.str, ptr @.str.1, i32 8806, ptr @.str.2, i8 0 }, %"struct.osgeo::proj::operation::ESRIParamMapping" { ptr @.str.3, ptr @.str.4, i32 8807, ptr @.str.2, i8 0 }, %"struct.osgeo::proj::operation::ESRIParamMapping" { ptr @.str.5, ptr @.str.6, i32 8802, ptr @.str.2, i8 0 }, %"struct.osgeo::proj::operation::ESRIParamMapping" { ptr @.str.9, ptr @.str.10, i32 8805, ptr @.str.2, i8 0 }, %"struct.osgeo::proj::operation::ESRIParamMapping" { ptr @.str.11, ptr @.str.12, i32 8801, ptr @.str.2, i8 0 }, %"struct.osgeo::proj::operation::ESRIParamMapping" { ptr null, ptr null, i32 0, ptr @.str.2, i8 0 }], align 16
@_ZN5osgeo4proj9operation30paramsESRI_Transverse_MercatorE = hidden constant [6 x %"struct.osgeo::proj::operation::ESRIParamMapping"] [%"struct.osgeo::proj::operation::ESRIParamMapping" { ptr @.str, ptr @.str.1, i32 8806, ptr @.str.2, i8 0 }, %"struct.osgeo::proj::operation::ESRIParamMapping" { ptr @.str.3, ptr @.str.4, i32 8807, ptr @.str.2, i8 0 }, %"struct.osgeo::proj::operation::ESRIParamMapping" { ptr @.str.5, ptr @.str.6, i32 8802, ptr @.str.2, i8 0 }, %"struct.osgeo::proj::operation::ESRIParamMapping" { ptr @.str.9, ptr @.str.10, i32 8805, ptr @.str.2, i8 0 }, %"struct.osgeo::proj::operation::ESRIParamMapping" { ptr @.str.11, ptr @.str.12, i32 8801, ptr @.str.2, i8 0 }, %"struct.osgeo::proj::operation::ESRIParamMapping" { ptr null, ptr null, i32 0, ptr @.str.2, i8 0 }], align 16
@.str.13 = private unnamed_addr constant [34 x i8] c"Scale factor at projection centre\00", align 1
@.str.14 = private unnamed_addr constant [8 x i8] c"Azimuth\00", align 1
@.str.15 = private unnamed_addr constant [29 x i8] c"Azimuth at projection centre\00", align 1
@.str.16 = private unnamed_addr constant [20 x i8] c"Longitude_Of_Center\00", align 1
@.str.17 = private unnamed_addr constant [31 x i8] c"Longitude of projection centre\00", align 1
@.str.18 = private unnamed_addr constant [19 x i8] c"Latitude_Of_Center\00", align 1
@.str.19 = private unnamed_addr constant [30 x i8] c"Latitude of projection centre\00", align 1
@_ZN5osgeo4proj9operation57paramsESRI_Hotine_Oblique_Mercator_Azimuth_Natural_OriginE = hidden constant [7 x %"struct.osgeo::proj::operation::ESRIParamMapping"] [%"struct.osgeo::proj::operation::ESRIParamMapping" { ptr @.str, ptr @.str.1, i32 8806, ptr @.str.2, i8 0 }, %"struct.osgeo::proj::operation::ESRIParamMapping" { ptr @.str.3, ptr @.str.4, i32 8807, ptr @.str.2, i8 0 }, %"struct.osgeo::proj::operation::ESRIParamMapping" { ptr @.str.9, ptr @.str.13, i32 8815, ptr @.str.2, i8 0 }, %"struct.osgeo::proj::operation::ESRIParamMapping" { ptr @.str.14, ptr @.str.15, i32 8813, ptr @.str.2, i8 0 }, %"struct.osgeo::proj::operation::ESRIParamMapping" { ptr @.str.16, ptr @.str.17, i32 8812, ptr @.str.2, i8 0 }, %"struct.osgeo::proj::operation::ESRIParamMapping" { ptr @.str.18, ptr @.str.19, i32 8811, ptr @.str.2, i8 0 }, %"struct.osgeo::proj::operation::ESRIParamMapping" { ptr null, ptr null, i32 0, ptr @.str.2, i8 0 }], align 16
@.str.20 = private unnamed_addr constant [29 x i8] c"Easting at projection centre\00", align 1
@.str.21 = private unnamed_addr constant [30 x i8] c"Northing at projection centre\00", align 1
@_ZN5osgeo4proj9operation49paramsESRI_Hotine_Oblique_Mercator_Azimuth_CenterE = hidden constant [7 x %"struct.osgeo::proj::operation::ESRIParamMapping"] [%"struct.osgeo::proj::operation::ESRIParamMapping" { ptr @.str, ptr @.str.20, i32 8816, ptr @.str.2, i8 0 }, %"struct.osgeo::proj::operation::ESRIParamMapping" { ptr @.str.3, ptr @.str.21, i32 8817, ptr @.str.2, i8 0 }, %"struct.osgeo::proj::operation::ESRIParamMapping" { ptr @.str.9, ptr @.str.13, i32 8815, ptr @.str.2, i8 0 }, %"struct.osgeo::proj::operation::ESRIParamMapping" { ptr @.str.14, ptr @.str.15, i32 8813, ptr @.str.2, i8 0 }, %"struct.osgeo::proj::operation::ESRIParamMapping" { ptr @.str.16, ptr @.str.17, i32 8812, ptr @.str.2, i8 0 }, %"struct.osgeo::proj::operation::ESRIParamMapping" { ptr @.str.18, ptr @.str.19, i32 8811, ptr @.str.2, i8 0 }, %"struct.osgeo::proj::operation::ESRIParamMapping" { ptr null, ptr null, i32 0, ptr @.str.2, i8 0 }], align 16
@.str.22 = private unnamed_addr constant [18 x i8] c"XY_Plane_Rotation\00", align 1
@.str.23 = private unnamed_addr constant [34 x i8] c"Angle from Rectified to Skew Grid\00", align 1
@_ZN5osgeo4proj9operation53paramsESRI_Rectified_Skew_Orthomorphic_Natural_OriginE = hidden constant [8 x %"struct.osgeo::proj::operation::ESRIParamMapping"] [%"struct.osgeo::proj::operation::ESRIParamMapping" { ptr @.str, ptr @.str.1, i32 8806, ptr @.str.2, i8 0 }, %"struct.osgeo::proj::operation::ESRIParamMapping" { ptr @.str.3, ptr @.str.4, i32 8807, ptr @.str.2, i8 0 }, %"struct.osgeo::proj::operation::ESRIParamMapping" { ptr @.str.9, ptr @.str.13, i32 8815, ptr @.str.2, i8 0 }, %"struct.osgeo::proj::operation::ESRIParamMapping" { ptr @.str.14, ptr @.str.15, i32 8813, ptr @.str.2, i8 0 }, %"struct.osgeo::proj::operation::ESRIParamMapping" { ptr @.str.16, ptr @.str.17, i32 8812, ptr @.str.2, i8 0 }, %"struct.osgeo::proj::operation::ESRIParamMapping" { ptr @.str.18, ptr @.str.19, i32 8811, ptr @.str.2, i8 0 }, %"struct.osgeo::proj::operation::ESRIParamMapping" { ptr @.str.22, ptr @.str.23, i32 8814, ptr @.str.2, i8 0 }, %"struct.osgeo::proj::operation::ESRIParamMapping" { ptr null, ptr null, i32 0, ptr @.str.2, i8 0 }], align 16
@_ZN5osgeo4proj9operation45paramsESRI_Rectified_Skew_Orthomorphic_CenterE = hidden constant [8 x %"struct.osgeo::proj::operation::ESRIParamMapping"] [%"struct.osgeo::proj::operation::ESRIParamMapping" { ptr @.str, ptr @.str.20, i32 8816, ptr @.str.2, i8 0 }, %"struct.osgeo::proj::operation::ESRIParamMapping" { ptr @.str.3, ptr @.str.21, i32 8817, ptr @.str.2, i8 0 }, %"struct.osgeo::proj::operation::ESRIParamMapping" { ptr @.str.9, ptr @.str.13, i32 8815, ptr @.str.2, i8 0 }, %"struct.osgeo::proj::operation::ESRIParamMapping" { ptr @.str.14, ptr @.str.15, i32 8813, ptr @.str.2, i8 0 }, %"struct.osgeo::proj::operation::ESRIParamMapping" { ptr @.str.16, ptr @.str.17, i32 8812, ptr @.str.2, i8 0 }, %"struct.osgeo::proj::operation::ESRIParamMapping" { ptr @.str.18, ptr @.str.19, i32 8811, ptr @.str.2, i8 0 }, %"struct.osgeo::proj::operation::ESRIParamMapping" { ptr @.str.22, ptr @.str.23, i32 8814, ptr @.str.2, i8 0 }, %"struct.osgeo::proj::operation::ESRIParamMapping" { ptr null, ptr null, i32 0, ptr @.str.2, i8 0 }], align 16
@_ZN5osgeo4proj9operationL12esriMappingsE = internal constant [82 x %"struct.osgeo::proj::operation::ESRIMethodMapping"] [%"struct.osgeo::proj::operation::ESRIMethodMapping" { ptr @.str.24, ptr @.str.25, i32 1028, ptr @_ZN5osgeo4proj9operation34paramsESRI_Equidistant_CylindricalE }, %"struct.osgeo::proj::operation::ESRIMethodMapping" { ptr @.str.26, ptr @.str.25, i32 1028, ptr @_ZN5osgeo4proj9operation23paramsESRI_Plate_CarreeE }, %"struct.osgeo::proj::operation::ESRIMethodMapping" { ptr @.str.26, ptr @.str.27, i32 1029, ptr @_ZN5osgeo4proj9operation23paramsESRI_Plate_CarreeE }, %"struct.osgeo::proj::operation::ESRIMethodMapping" { ptr @.str.28, ptr @.str.29, i32 0, ptr @_ZN5osgeo4proj9operationL29paramsESRI_Miller_CylindricalE }, %"struct.osgeo::proj::operation::ESRIMethodMapping" { ptr @.str.30, ptr @.str.31, i32 9805, ptr @_ZN5osgeo4proj9operationL19paramsESRI_MercatorE }, %"struct.osgeo::proj::operation::ESRIMethodMapping" { ptr @.str.32, ptr @.str.33, i32 9807, ptr @_ZN5osgeo4proj9operation23paramsESRI_Gauss_KrugerE }, %"struct.osgeo::proj::operation::ESRIMethodMapping" { ptr @.str.34, ptr @.str.33, i32 9807, ptr @_ZN5osgeo4proj9operation30paramsESRI_Transverse_MercatorE }, %"struct.osgeo::proj::operation::ESRIMethodMapping" { ptr @.str.35, ptr @.str.33, i32 9807, ptr @_ZN5osgeo4proj9operationL38paramsESRI_Transverse_Mercator_ComplexE }, %"struct.osgeo::proj::operation::ESRIMethodMapping" { ptr @.str.36, ptr @.str.37, i32 9822, ptr @_ZN5osgeo4proj9operationL17paramsESRI_AlbersE }, %"struct.osgeo::proj::operation::ESRIMethodMapping" { ptr @.str.38, ptr @.str.38, i32 0, ptr @_ZN5osgeo4proj9operationL21paramsESRI_SinusoidalE }, %"struct.osgeo::proj::operation::ESRIMethodMapping" { ptr @.str.39, ptr @.str.39, i32 0, ptr @_ZN5osgeo4proj9operationL20paramsESRI_MollweideE }, %"struct.osgeo::proj::operation::ESRIMethodMapping" { ptr @.str.40, ptr @.str.41, i32 0, ptr @_ZN5osgeo4proj9operationL19paramsESRI_Eckert_IE }, %"struct.osgeo::proj::operation::ESRIMethodMapping" { ptr @.str.42, ptr @.str.43, i32 0, ptr @_ZN5osgeo4proj9operationL20paramsESRI_Eckert_IIE }, %"struct.osgeo::proj::operation::ESRIMethodMapping" { ptr @.str.44, ptr @.str.45, i32 0, ptr @_ZN5osgeo4proj9operationL21paramsESRI_Eckert_IIIE }, %"struct.osgeo::proj::operation::ESRIMethodMapping" { ptr @.str.46, ptr @.str.47, i32 0, ptr @_ZN5osgeo4proj9operationL20paramsESRI_Eckert_IVE }, %"struct.osgeo::proj::operation::ESRIMethodMapping" { ptr @.str.48, ptr @.str.49, i32 0, ptr @_ZN5osgeo4proj9operationL19paramsESRI_Eckert_VE }, %"struct.osgeo::proj::operation::ESRIMethodMapping" { ptr @.str.50, ptr @.str.51, i32 0, ptr @_ZN5osgeo4proj9operationL20paramsESRI_Eckert_VIE }, %"struct.osgeo::proj::operation::ESRIMethodMapping" { ptr @.str.52, ptr @.str.53, i32 0, ptr @_ZN5osgeo4proj9operationL29paramsESRI_Gall_StereographicE }, %"struct.osgeo::proj::operation::ESRIMethodMapping" { ptr @.str.54, ptr @.str.55, i32 0, ptr @_ZN5osgeo4proj9operationL19paramsESRI_Winkel_IE }, %"struct.osgeo::proj::operation::ESRIMethodMapping" { ptr @.str.56, ptr @.str.57, i32 0, ptr @_ZN5osgeo4proj9operationL20paramsESRI_Winkel_IIE }, %"struct.osgeo::proj::operation::ESRIMethodMapping" { ptr @.str.58, ptr @.str.59, i32 9801, ptr @_ZN5osgeo4proj9operationL39paramsESRI_Lambert_Conformal_Conic_alt1E }, %"struct.osgeo::proj::operation::ESRIMethodMapping" { ptr @.str.58, ptr @.str.60, i32 9802, ptr @_ZN5osgeo4proj9operationL39paramsESRI_Lambert_Conformal_Conic_alt2E }, %"struct.osgeo::proj::operation::ESRIMethodMapping" { ptr @.str.58, ptr @.str.60, i32 9802, ptr @_ZN5osgeo4proj9operationL39paramsESRI_Lambert_Conformal_Conic_alt3E }, %"struct.osgeo::proj::operation::ESRIMethodMapping" { ptr @.str.58, ptr @.str.61, i32 1051, ptr @_ZN5osgeo4proj9operationL39paramsESRI_Lambert_Conformal_Conic_alt4E }, %"struct.osgeo::proj::operation::ESRIMethodMapping" { ptr @.str.62, ptr @.str.63, i32 9818, ptr @_ZN5osgeo4proj9operationL20paramsESRI_PolyconicE }, %"struct.osgeo::proj::operation::ESRIMethodMapping" { ptr @.str.64, ptr @.str.65, i32 0, ptr @_ZN5osgeo4proj9operationL27paramsESRI_Quartic_AuthalicE }, %"struct.osgeo::proj::operation::ESRIMethodMapping" { ptr @.str.66, ptr @.str.66, i32 0, ptr @_ZN5osgeo4proj9operationL21paramsESRI_LoximuthalE }, %"struct.osgeo::proj::operation::ESRIMethodMapping" { ptr @.str.67, ptr @.str.67, i32 9827, ptr @_ZN5osgeo4proj9operationL16paramsESRI_BonneE }, %"struct.osgeo::proj::operation::ESRIMethodMapping" { ptr @.str.68, ptr @.str.69, i32 0, ptr @_ZN5osgeo4proj9operationL59paramsESRI_Hotine_Oblique_Mercator_Two_Point_Natural_OriginE }, %"struct.osgeo::proj::operation::ESRIMethodMapping" { ptr @.str.70, ptr @.str.70, i32 0, ptr @_ZN5osgeo4proj9operationL24paramsESRI_StereographicE }, %"struct.osgeo::proj::operation::ESRIMethodMapping" { ptr @.str.71, ptr @.str.72, i32 9810, ptr @_ZN5osgeo4proj9operationL40paramsESRI_Polar_Stereographic_Variant_AE }, %"struct.osgeo::proj::operation::ESRIMethodMapping" { ptr @.str.73, ptr @.str.74, i32 1119, ptr @_ZN5osgeo4proj9operationL28paramsESRI_Equidistant_ConicE }, %"struct.osgeo::proj::operation::ESRIMethodMapping" { ptr @.str.75, ptr @.str.76, i32 9806, ptr @_ZN5osgeo4proj9operationL18paramsESRI_CassiniE }, %"struct.osgeo::proj::operation::ESRIMethodMapping" { ptr @.str.77, ptr @.str.78, i32 0, ptr @_ZN5osgeo4proj9operationL28paramsESRI_Van_der_Grinten_IE }, %"struct.osgeo::proj::operation::ESRIMethodMapping" { ptr @.str.79, ptr @.str.79, i32 0, ptr @_ZN5osgeo4proj9operationL19paramsESRI_RobinsonE }, %"struct.osgeo::proj::operation::ESRIMethodMapping" { ptr @.str.80, ptr @.str.81, i32 0, ptr @_ZN5osgeo4proj9operationL32paramsESRI_Two_Point_EquidistantE }, %"struct.osgeo::proj::operation::ESRIMethodMapping" { ptr @.str.82, ptr @.str.83, i32 1125, ptr @_ZN5osgeo4proj9operationL32paramsESRI_Azimuthal_EquidistantE }, %"struct.osgeo::proj::operation::ESRIMethodMapping" { ptr @.str.84, ptr @.str.85, i32 9820, ptr @_ZN5osgeo4proj9operationL39paramsESRI_Lambert_Azimuthal_Equal_AreaE }, %"struct.osgeo::proj::operation::ESRIMethodMapping" { ptr @.str.86, ptr @.str.87, i32 9835, ptr @_ZN5osgeo4proj9operationL33paramsESRI_Cylindrical_Equal_AreaE }, %"struct.osgeo::proj::operation::ESRIMethodMapping" { ptr @.str.88, ptr @.str.87, i32 9835, ptr @_ZN5osgeo4proj9operationL19paramsESRI_BehrmannE }, %"struct.osgeo::proj::operation::ESRIMethodMapping" { ptr @.str.89, ptr @.str.69, i32 0, ptr @_ZN5osgeo4proj9operationL51paramsESRI_Hotine_Oblique_Mercator_Two_Point_CenterE }, %"struct.osgeo::proj::operation::ESRIMethodMapping" { ptr @.str.90, ptr @.str.91, i32 9812, ptr @_ZN5osgeo4proj9operation57paramsESRI_Hotine_Oblique_Mercator_Azimuth_Natural_OriginE }, %"struct.osgeo::proj::operation::ESRIMethodMapping" { ptr @.str.92, ptr @.str.93, i32 9815, ptr @_ZN5osgeo4proj9operation49paramsESRI_Hotine_Oblique_Mercator_Azimuth_CenterE }, %"struct.osgeo::proj::operation::ESRIMethodMapping" { ptr @.str.94, ptr @.str.95, i32 9809, ptr @_ZN5osgeo4proj9operationL31paramsESRI_Double_StereographicE }, %"struct.osgeo::proj::operation::ESRIMethodMapping" { ptr @.str.96, ptr @.str.96, i32 9819, ptr @_ZN5osgeo4proj9operationL22paramsESRI_Krovak_alt1E }, %"struct.osgeo::proj::operation::ESRIMethodMapping" { ptr @.str.96, ptr @.str.97, i32 1041, ptr @_ZN5osgeo4proj9operationL22paramsESRI_Krovak_alt2E }, %"struct.osgeo::proj::operation::ESRIMethodMapping" { ptr @.str.98, ptr @.str.99, i32 9811, ptr @_ZN5osgeo4proj9operationL31paramsESRI_New_Zealand_Map_GridE }, %"struct.osgeo::proj::operation::ESRIMethodMapping" { ptr @.str.100, ptr @.str.101, i32 0, ptr @_ZN5osgeo4proj9operationL23paramsESRI_OrthographicE }, %"struct.osgeo::proj::operation::ESRIMethodMapping" { ptr @.str.102, ptr @.str.103, i32 1130, ptr @_ZN5osgeo4proj9operationL16paramsESRI_LocalE }, %"struct.osgeo::proj::operation::ESRIMethodMapping" { ptr @.str.104, ptr @.str.105, i32 0, ptr @_ZN5osgeo4proj9operationL24paramsESRI_Winkel_TripelE }, %"struct.osgeo::proj::operation::ESRIMethodMapping" { ptr @.str.106, ptr @.str.106, i32 0, ptr @_ZN5osgeo4proj9operationL17paramsESRI_AitoffE }, %"struct.osgeo::proj::operation::ESRIMethodMapping" { ptr @.str.107, ptr @.str.108, i32 0, ptr @_ZN5osgeo4proj9operationL29paramsESRI_Flat_Polar_QuarticE }, %"struct.osgeo::proj::operation::ESRIMethodMapping" { ptr @.str.109, ptr @.str.110, i32 0, ptr @_ZN5osgeo4proj9operationL28paramsESRI_Craster_ParabolicE }, %"struct.osgeo::proj::operation::ESRIMethodMapping" { ptr @.str.111, ptr @.str.111, i32 0, ptr @_ZN5osgeo4proj9operationL19paramsESRI_GnomonicE }, %"struct.osgeo::proj::operation::ESRIMethodMapping" { ptr @.str.112, ptr @.str.112, i32 0, ptr @_ZN5osgeo4proj9operationL16paramsESRI_TimesE }, %"struct.osgeo::proj::operation::ESRIMethodMapping" { ptr @.str.113, ptr @.str.114, i32 9838, ptr @_ZN5osgeo4proj9operationL41paramsESRI_Vertical_Near_Side_PerspectiveE }, %"struct.osgeo::proj::operation::ESRIMethodMapping" { ptr @.str.115, ptr @.str.116, i32 9829, ptr @_ZN5osgeo4proj9operationL35paramsESRI_Stereographic_North_PoleE }, %"struct.osgeo::proj::operation::ESRIMethodMapping" { ptr @.str.117, ptr @.str.116, i32 9829, ptr @_ZN5osgeo4proj9operationL35paramsESRI_Stereographic_South_PoleE }, %"struct.osgeo::proj::operation::ESRIMethodMapping" { ptr @.str.118, ptr @.str.91, i32 9812, ptr @_ZN5osgeo4proj9operation53paramsESRI_Rectified_Skew_Orthomorphic_Natural_OriginE }, %"struct.osgeo::proj::operation::ESRIMethodMapping" { ptr @.str.119, ptr @.str.93, i32 9815, ptr @_ZN5osgeo4proj9operation45paramsESRI_Rectified_Skew_Orthomorphic_CenterE }, %"struct.osgeo::proj::operation::ESRIMethodMapping" { ptr @.str.120, ptr @.str.121, i32 0, ptr @_ZN5osgeo4proj9operationL32paramsESRI_Goode_Homolosine_alt1E }, %"struct.osgeo::proj::operation::ESRIMethodMapping" { ptr @.str.120, ptr @.str.122, i32 0, ptr @_ZN5osgeo4proj9operationL32paramsESRI_Goode_Homolosine_alt2E }, %"struct.osgeo::proj::operation::ESRIMethodMapping" { ptr @.str.120, ptr @.str.123, i32 0, ptr @_ZN5osgeo4proj9operationL32paramsESRI_Goode_Homolosine_alt3E }, %"struct.osgeo::proj::operation::ESRIMethodMapping" { ptr @.str.124, ptr @.str.25, i32 1028, ptr @_ZN5osgeo4proj9operationL46paramsESRI_Equidistant_Cylindrical_EllipsoidalE }, %"struct.osgeo::proj::operation::ESRIMethodMapping" { ptr @.str.125, ptr @.str.126, i32 9813, ptr @_ZN5osgeo4proj9operationL35paramsESRI_Laborde_Oblique_MercatorE }, %"struct.osgeo::proj::operation::ESRIMethodMapping" { ptr @.str.127, ptr @.str.111, i32 0, ptr @_ZN5osgeo4proj9operationL31paramsESRI_Gnomonic_EllipsoidalE }, %"struct.osgeo::proj::operation::ESRIMethodMapping" { ptr @.str.128, ptr @.str.129, i32 0, ptr @_ZN5osgeo4proj9operationL20paramsESRI_Wagner_IVE }, %"struct.osgeo::proj::operation::ESRIMethodMapping" { ptr @.str.130, ptr @.str.131, i32 0, ptr @_ZN5osgeo4proj9operationL19paramsESRI_Wagner_VE }, %"struct.osgeo::proj::operation::ESRIMethodMapping" { ptr @.str.132, ptr @.str.133, i32 0, ptr @_ZN5osgeo4proj9operationL21paramsESRI_Wagner_VIIE }, %"struct.osgeo::proj::operation::ESRIMethodMapping" { ptr @.str.134, ptr @.str.135, i32 0, ptr @_ZN5osgeo4proj9operationL24paramsESRI_Natural_EarthE }, %"struct.osgeo::proj::operation::ESRIMethodMapping" { ptr @.str.136, ptr @.str.137, i32 0, ptr @_ZN5osgeo4proj9operationL27paramsESRI_Natural_Earth_IIE }, %"struct.osgeo::proj::operation::ESRIMethodMapping" { ptr @.str.138, ptr @.str.138, i32 0, ptr @_ZN5osgeo4proj9operationL20paramsESRI_PattersonE }, %"struct.osgeo::proj::operation::ESRIMethodMapping" { ptr @.str.139, ptr @.str.140, i32 0, ptr @_ZN5osgeo4proj9operationL25paramsESRI_Compact_MillerE }, %"struct.osgeo::proj::operation::ESRIMethodMapping" { ptr @.str.141, ptr @.str.142, i32 0, ptr @_ZN5osgeo4proj9operationL34paramsESRI_Geostationary_SatelliteE }, %"struct.osgeo::proj::operation::ESRIMethodMapping" { ptr @.str.143, ptr @.str.144, i32 1024, ptr @_ZN5osgeo4proj9operationL36paramsESRI_Mercator_Auxiliary_SphereE }, %"struct.osgeo::proj::operation::ESRIMethodMapping" { ptr @.str.145, ptr @.str.146, i32 9804, ptr @_ZN5osgeo4proj9operationL29paramsESRI_Mercator_Variant_AE }, %"struct.osgeo::proj::operation::ESRIMethodMapping" { ptr @.str.147, ptr @.str.31, i32 9805, ptr @_ZN5osgeo4proj9operationL29paramsESRI_Mercator_Variant_CE }, %"struct.osgeo::proj::operation::ESRIMethodMapping" { ptr @.str.148, ptr @.str.149, i32 0, ptr @_ZN5osgeo4proj9operationL44paramsESRI_Transverse_Cylindrical_Equal_AreaE }, %"struct.osgeo::proj::operation::ESRIMethodMapping" { ptr @.str.150, ptr @.str.151, i32 1052, ptr @_ZN5osgeo4proj9operationL32paramsESRI_IGAC_Plano_CartesianoE }, %"struct.osgeo::proj::operation::ESRIMethodMapping" { ptr @.str.152, ptr @.str.153, i32 1078, ptr @_ZN5osgeo4proj9operationL22paramsESRI_Equal_EarthE }, %"struct.osgeo::proj::operation::ESRIMethodMapping" { ptr @.str.154, ptr @.str.155, i32 0, ptr @_ZN5osgeo4proj9operationL34paramsESRI_Peirce_Quincuncial_alt1E }, %"struct.osgeo::proj::operation::ESRIMethodMapping" { ptr @.str.154, ptr @.str.156, i32 0, ptr @_ZN5osgeo4proj9operationL34paramsESRI_Peirce_Quincuncial_alt2E }], align 16
@.str.24 = private unnamed_addr constant [24 x i8] c"Equidistant_Cylindrical\00", align 1
@.str.25 = private unnamed_addr constant [24 x i8] c"Equidistant Cylindrical\00", align 1
@.str.26 = private unnamed_addr constant [13 x i8] c"Plate_Carree\00", align 1
@.str.27 = private unnamed_addr constant [36 x i8] c"Equidistant Cylindrical (Spherical)\00", align 1
@.str.28 = private unnamed_addr constant [19 x i8] c"Miller_Cylindrical\00", align 1
@.str.29 = private unnamed_addr constant [19 x i8] c"Miller Cylindrical\00", align 1
@_ZN5osgeo4proj9operationL29paramsESRI_Miller_CylindricalE = internal constant [4 x %"struct.osgeo::proj::operation::ESRIParamMapping"] [%"struct.osgeo::proj::operation::ESRIParamMapping" { ptr @.str, ptr @.str.1, i32 8806, ptr @.str.2, i8 0 }, %"struct.osgeo::proj::operation::ESRIParamMapping" { ptr @.str.3, ptr @.str.4, i32 8807, ptr @.str.2, i8 0 }, %"struct.osgeo::proj::operation::ESRIParamMapping" { ptr @.str.5, ptr @.str.6, i32 8802, ptr @.str.2, i8 0 }, %"struct.osgeo::proj::operation::ESRIParamMapping" { ptr null, ptr null, i32 0, ptr @.str.2, i8 0 }], align 16
@.str.30 = private unnamed_addr constant [9 x i8] c"Mercator\00", align 1
@.str.31 = private unnamed_addr constant [21 x i8] c"Mercator (variant B)\00", align 1
@_ZN5osgeo4proj9operationL19paramsESRI_MercatorE = internal constant [5 x %"struct.osgeo::proj::operation::ESRIParamMapping"] [%"struct.osgeo::proj::operation::ESRIParamMapping" { ptr @.str, ptr @.str.1, i32 8806, ptr @.str.2, i8 0 }, %"struct.osgeo::proj::operation::ESRIParamMapping" { ptr @.str.3, ptr @.str.4, i32 8807, ptr @.str.2, i8 0 }, %"struct.osgeo::proj::operation::ESRIParamMapping" { ptr @.str.5, ptr @.str.6, i32 8802, ptr @.str.2, i8 0 }, %"struct.osgeo::proj::operation::ESRIParamMapping" { ptr @.str.7, ptr @.str.8, i32 8823, ptr @.str.2, i8 0 }, %"struct.osgeo::proj::operation::ESRIParamMapping" { ptr null, ptr null, i32 0, ptr @.str.2, i8 0 }], align 16
@.str.32 = private unnamed_addr constant [13 x i8] c"Gauss_Kruger\00", align 1
@.str.33 = private unnamed_addr constant [20 x i8] c"Transverse Mercator\00", align 1
@.str.34 = private unnamed_addr constant [20 x i8] c"Transverse_Mercator\00", align 1
@.str.35 = private unnamed_addr constant [28 x i8] c"Transverse_Mercator_Complex\00", align 1
@_ZN5osgeo4proj9operationL38paramsESRI_Transverse_Mercator_ComplexE = internal constant [6 x %"struct.osgeo::proj::operation::ESRIParamMapping"] [%"struct.osgeo::proj::operation::ESRIParamMapping" { ptr @.str, ptr @.str.1, i32 8806, ptr @.str.2, i8 0 }, %"struct.osgeo::proj::operation::ESRIParamMapping" { ptr @.str.3, ptr @.str.4, i32 8807, ptr @.str.2, i8 0 }, %"struct.osgeo::proj::operation::ESRIParamMapping" { ptr @.str.5, ptr @.str.6, i32 8802, ptr @.str.2, i8 0 }, %"struct.osgeo::proj::operation::ESRIParamMapping" { ptr @.str.9, ptr @.str.10, i32 8805, ptr @.str.2, i8 0 }, %"struct.osgeo::proj::operation::ESRIParamMapping" { ptr @.str.11, ptr @.str.12, i32 8801, ptr @.str.2, i8 0 }, %"struct.osgeo::proj::operation::ESRIParamMapping" { ptr null, ptr null, i32 0, ptr @.str.2, i8 0 }], align 16
@.str.36 = private unnamed_addr constant [7 x i8] c"Albers\00", align 1
@.str.37 = private unnamed_addr constant [18 x i8] c"Albers Equal Area\00", align 1
@_ZN5osgeo4proj9operationL17paramsESRI_AlbersE = internal constant [7 x %"struct.osgeo::proj::operation::ESRIParamMapping"] [%"struct.osgeo::proj::operation::ESRIParamMapping" { ptr @.str, ptr @.str.157, i32 8826, ptr @.str.2, i8 0 }, %"struct.osgeo::proj::operation::ESRIParamMapping" { ptr @.str.3, ptr @.str.158, i32 8827, ptr @.str.2, i8 0 }, %"struct.osgeo::proj::operation::ESRIParamMapping" { ptr @.str.5, ptr @.str.159, i32 8822, ptr @.str.2, i8 0 }, %"struct.osgeo::proj::operation::ESRIParamMapping" { ptr @.str.7, ptr @.str.8, i32 8823, ptr @.str.2, i8 0 }, %"struct.osgeo::proj::operation::ESRIParamMapping" { ptr @.str.160, ptr @.str.161, i32 8824, ptr @.str.2, i8 0 }, %"struct.osgeo::proj::operation::ESRIParamMapping" { ptr @.str.11, ptr @.str.162, i32 8821, ptr @.str.2, i8 0 }, %"struct.osgeo::proj::operation::ESRIParamMapping" { ptr null, ptr null, i32 0, ptr @.str.2, i8 0 }], align 16
@.str.38 = private unnamed_addr constant [11 x i8] c"Sinusoidal\00", align 1
@_ZN5osgeo4proj9operationL21paramsESRI_SinusoidalE = internal constant [4 x %"struct.osgeo::proj::operation::ESRIParamMapping"] [%"struct.osgeo::proj::operation::ESRIParamMapping" { ptr @.str, ptr @.str.1, i32 8806, ptr @.str.2, i8 0 }, %"struct.osgeo::proj::operation::ESRIParamMapping" { ptr @.str.3, ptr @.str.4, i32 8807, ptr @.str.2, i8 0 }, %"struct.osgeo::proj::operation::ESRIParamMapping" { ptr @.str.5, ptr @.str.6, i32 8802, ptr @.str.2, i8 0 }, %"struct.osgeo::proj::operation::ESRIParamMapping" { ptr null, ptr null, i32 0, ptr @.str.2, i8 0 }], align 16
@.str.39 = private unnamed_addr constant [10 x i8] c"Mollweide\00", align 1
@_ZN5osgeo4proj9operationL20paramsESRI_MollweideE = internal constant [4 x %"struct.osgeo::proj::operation::ESRIParamMapping"] [%"struct.osgeo::proj::operation::ESRIParamMapping" { ptr @.str, ptr @.str.1, i32 8806, ptr @.str.2, i8 0 }, %"struct.osgeo::proj::operation::ESRIParamMapping" { ptr @.str.3, ptr @.str.4, i32 8807, ptr @.str.2, i8 0 }, %"struct.osgeo::proj::operation::ESRIParamMapping" { ptr @.str.5, ptr @.str.6, i32 8802, ptr @.str.2, i8 0 }, %"struct.osgeo::proj::operation::ESRIParamMapping" { ptr null, ptr null, i32 0, ptr @.str.2, i8 0 }], align 16
@.str.40 = private unnamed_addr constant [9 x i8] c"Eckert_I\00", align 1
@.str.41 = private unnamed_addr constant [9 x i8] c"Eckert I\00", align 1
@_ZN5osgeo4proj9operationL19paramsESRI_Eckert_IE = internal constant [4 x %"struct.osgeo::proj::operation::ESRIParamMapping"] [%"struct.osgeo::proj::operation::ESRIParamMapping" { ptr @.str, ptr @.str.1, i32 8806, ptr @.str.2, i8 0 }, %"struct.osgeo::proj::operation::ESRIParamMapping" { ptr @.str.3, ptr @.str.4, i32 8807, ptr @.str.2, i8 0 }, %"struct.osgeo::proj::operation::ESRIParamMapping" { ptr @.str.5, ptr @.str.6, i32 8802, ptr @.str.2, i8 0 }, %"struct.osgeo::proj::operation::ESRIParamMapping" { ptr null, ptr null, i32 0, ptr @.str.2, i8 0 }], align 16
@.str.42 = private unnamed_addr constant [10 x i8] c"Eckert_II\00", align 1
@.str.43 = private unnamed_addr constant [10 x i8] c"Eckert II\00", align 1
@_ZN5osgeo4proj9operationL20paramsESRI_Eckert_IIE = internal constant [4 x %"struct.osgeo::proj::operation::ESRIParamMapping"] [%"struct.osgeo::proj::operation::ESRIParamMapping" { ptr @.str, ptr @.str.1, i32 8806, ptr @.str.2, i8 0 }, %"struct.osgeo::proj::operation::ESRIParamMapping" { ptr @.str.3, ptr @.str.4, i32 8807, ptr @.str.2, i8 0 }, %"struct.osgeo::proj::operation::ESRIParamMapping" { ptr @.str.5, ptr @.str.6, i32 8802, ptr @.str.2, i8 0 }, %"struct.osgeo::proj::operation::ESRIParamMapping" { ptr null, ptr null, i32 0, ptr @.str.2, i8 0 }], align 16
@.str.44 = private unnamed_addr constant [11 x i8] c"Eckert_III\00", align 1
@.str.45 = private unnamed_addr constant [11 x i8] c"Eckert III\00", align 1
@_ZN5osgeo4proj9operationL21paramsESRI_Eckert_IIIE = internal constant [4 x %"struct.osgeo::proj::operation::ESRIParamMapping"] [%"struct.osgeo::proj::operation::ESRIParamMapping" { ptr @.str, ptr @.str.1, i32 8806, ptr @.str.2, i8 0 }, %"struct.osgeo::proj::operation::ESRIParamMapping" { ptr @.str.3, ptr @.str.4, i32 8807, ptr @.str.2, i8 0 }, %"struct.osgeo::proj::operation::ESRIParamMapping" { ptr @.str.5, ptr @.str.6, i32 8802, ptr @.str.2, i8 0 }, %"struct.osgeo::proj::operation::ESRIParamMapping" { ptr null, ptr null, i32 0, ptr @.str.2, i8 0 }], align 16
@.str.46 = private unnamed_addr constant [10 x i8] c"Eckert_IV\00", align 1
@.str.47 = private unnamed_addr constant [10 x i8] c"Eckert IV\00", align 1
@_ZN5osgeo4proj9operationL20paramsESRI_Eckert_IVE = internal constant [4 x %"struct.osgeo::proj::operation::ESRIParamMapping"] [%"struct.osgeo::proj::operation::ESRIParamMapping" { ptr @.str, ptr @.str.1, i32 8806, ptr @.str.2, i8 0 }, %"struct.osgeo::proj::operation::ESRIParamMapping" { ptr @.str.3, ptr @.str.4, i32 8807, ptr @.str.2, i8 0 }, %"struct.osgeo::proj::operation::ESRIParamMapping" { ptr @.str.5, ptr @.str.6, i32 8802, ptr @.str.2, i8 0 }, %"struct.osgeo::proj::operation::ESRIParamMapping" { ptr null, ptr null, i32 0, ptr @.str.2, i8 0 }], align 16
@.str.48 = private unnamed_addr constant [9 x i8] c"Eckert_V\00", align 1
@.str.49 = private unnamed_addr constant [9 x i8] c"Eckert V\00", align 1
@_ZN5osgeo4proj9operationL19paramsESRI_Eckert_VE = internal constant [4 x %"struct.osgeo::proj::operation::ESRIParamMapping"] [%"struct.osgeo::proj::operation::ESRIParamMapping" { ptr @.str, ptr @.str.1, i32 8806, ptr @.str.2, i8 0 }, %"struct.osgeo::proj::operation::ESRIParamMapping" { ptr @.str.3, ptr @.str.4, i32 8807, ptr @.str.2, i8 0 }, %"struct.osgeo::proj::operation::ESRIParamMapping" { ptr @.str.5, ptr @.str.6, i32 8802, ptr @.str.2, i8 0 }, %"struct.osgeo::proj::operation::ESRIParamMapping" { ptr null, ptr null, i32 0, ptr @.str.2, i8 0 }], align 16
@.str.50 = private unnamed_addr constant [10 x i8] c"Eckert_VI\00", align 1
@.str.51 = private unnamed_addr constant [10 x i8] c"Eckert VI\00", align 1
@_ZN5osgeo4proj9operationL20paramsESRI_Eckert_VIE = internal constant [4 x %"struct.osgeo::proj::operation::ESRIParamMapping"] [%"struct.osgeo::proj::operation::ESRIParamMapping" { ptr @.str, ptr @.str.1, i32 8806, ptr @.str.2, i8 0 }, %"struct.osgeo::proj::operation::ESRIParamMapping" { ptr @.str.3, ptr @.str.4, i32 8807, ptr @.str.2, i8 0 }, %"struct.osgeo::proj::operation::ESRIParamMapping" { ptr @.str.5, ptr @.str.6, i32 8802, ptr @.str.2, i8 0 }, %"struct.osgeo::proj::operation::ESRIParamMapping" { ptr null, ptr null, i32 0, ptr @.str.2, i8 0 }], align 16
@.str.52 = private unnamed_addr constant [19 x i8] c"Gall_Stereographic\00", align 1
@.str.53 = private unnamed_addr constant [19 x i8] c"Gall Stereographic\00", align 1
@_ZN5osgeo4proj9operationL29paramsESRI_Gall_StereographicE = internal constant [4 x %"struct.osgeo::proj::operation::ESRIParamMapping"] [%"struct.osgeo::proj::operation::ESRIParamMapping" { ptr @.str, ptr @.str.1, i32 8806, ptr @.str.2, i8 0 }, %"struct.osgeo::proj::operation::ESRIParamMapping" { ptr @.str.3, ptr @.str.4, i32 8807, ptr @.str.2, i8 0 }, %"struct.osgeo::proj::operation::ESRIParamMapping" { ptr @.str.5, ptr @.str.6, i32 8802, ptr @.str.2, i8 0 }, %"struct.osgeo::proj::operation::ESRIParamMapping" { ptr null, ptr null, i32 0, ptr @.str.2, i8 0 }], align 16
@.str.54 = private unnamed_addr constant [9 x i8] c"Winkel_I\00", align 1
@.str.55 = private unnamed_addr constant [9 x i8] c"Winkel I\00", align 1
@_ZN5osgeo4proj9operationL19paramsESRI_Winkel_IE = internal constant [5 x %"struct.osgeo::proj::operation::ESRIParamMapping"] [%"struct.osgeo::proj::operation::ESRIParamMapping" { ptr @.str, ptr @.str.1, i32 8806, ptr @.str.2, i8 0 }, %"struct.osgeo::proj::operation::ESRIParamMapping" { ptr @.str.3, ptr @.str.4, i32 8807, ptr @.str.2, i8 0 }, %"struct.osgeo::proj::operation::ESRIParamMapping" { ptr @.str.5, ptr @.str.6, i32 8802, ptr @.str.2, i8 0 }, %"struct.osgeo::proj::operation::ESRIParamMapping" { ptr @.str.7, ptr @.str.8, i32 8823, ptr @.str.2, i8 0 }, %"struct.osgeo::proj::operation::ESRIParamMapping" { ptr null, ptr null, i32 0, ptr @.str.2, i8 0 }], align 16
@.str.56 = private unnamed_addr constant [10 x i8] c"Winkel_II\00", align 1
@.str.57 = private unnamed_addr constant [10 x i8] c"Winkel II\00", align 1
@_ZN5osgeo4proj9operationL20paramsESRI_Winkel_IIE = internal constant [5 x %"struct.osgeo::proj::operation::ESRIParamMapping"] [%"struct.osgeo::proj::operation::ESRIParamMapping" { ptr @.str, ptr @.str.1, i32 8806, ptr @.str.2, i8 0 }, %"struct.osgeo::proj::operation::ESRIParamMapping" { ptr @.str.3, ptr @.str.4, i32 8807, ptr @.str.2, i8 0 }, %"struct.osgeo::proj::operation::ESRIParamMapping" { ptr @.str.5, ptr @.str.6, i32 8802, ptr @.str.2, i8 0 }, %"struct.osgeo::proj::operation::ESRIParamMapping" { ptr @.str.7, ptr @.str.8, i32 8823, ptr @.str.2, i8 0 }, %"struct.osgeo::proj::operation::ESRIParamMapping" { ptr null, ptr null, i32 0, ptr @.str.2, i8 0 }], align 16
@.str.58 = private unnamed_addr constant [24 x i8] c"Lambert_Conformal_Conic\00", align 1
@.str.59 = private unnamed_addr constant [30 x i8] c"Lambert Conic Conformal (1SP)\00", align 1
@_ZN5osgeo4proj9operationL39paramsESRI_Lambert_Conformal_Conic_alt1E = internal constant [7 x %"struct.osgeo::proj::operation::ESRIParamMapping"] [%"struct.osgeo::proj::operation::ESRIParamMapping" { ptr @.str, ptr @.str.1, i32 8806, ptr @.str.2, i8 0 }, %"struct.osgeo::proj::operation::ESRIParamMapping" { ptr @.str.3, ptr @.str.4, i32 8807, ptr @.str.2, i8 0 }, %"struct.osgeo::proj::operation::ESRIParamMapping" { ptr @.str.5, ptr @.str.6, i32 8802, ptr @.str.2, i8 0 }, %"struct.osgeo::proj::operation::ESRIParamMapping" { ptr @.str.7, ptr @.str.12, i32 8801, ptr @.str.2, i8 0 }, %"struct.osgeo::proj::operation::ESRIParamMapping" { ptr @.str.9, ptr @.str.10, i32 8805, ptr @.str.2, i8 0 }, %"struct.osgeo::proj::operation::ESRIParamMapping" { ptr @.str.11, ptr @.str.12, i32 8801, ptr @.str.2, i8 0 }, %"struct.osgeo::proj::operation::ESRIParamMapping" { ptr null, ptr null, i32 0, ptr @.str.2, i8 0 }], align 16
@.str.60 = private unnamed_addr constant [30 x i8] c"Lambert Conic Conformal (2SP)\00", align 1
@_ZN5osgeo4proj9operationL39paramsESRI_Lambert_Conformal_Conic_alt2E = internal constant [7 x %"struct.osgeo::proj::operation::ESRIParamMapping"] [%"struct.osgeo::proj::operation::ESRIParamMapping" { ptr @.str, ptr @.str.157, i32 8826, ptr @.str.2, i8 0 }, %"struct.osgeo::proj::operation::ESRIParamMapping" { ptr @.str.3, ptr @.str.158, i32 8827, ptr @.str.2, i8 0 }, %"struct.osgeo::proj::operation::ESRIParamMapping" { ptr @.str.5, ptr @.str.159, i32 8822, ptr @.str.2, i8 0 }, %"struct.osgeo::proj::operation::ESRIParamMapping" { ptr @.str.7, ptr @.str.8, i32 8823, ptr @.str.2, i8 0 }, %"struct.osgeo::proj::operation::ESRIParamMapping" { ptr @.str.160, ptr @.str.161, i32 8824, ptr @.str.2, i8 0 }, %"struct.osgeo::proj::operation::ESRIParamMapping" { ptr @.str.11, ptr @.str.162, i32 8821, ptr @.str.2, i8 0 }, %"struct.osgeo::proj::operation::ESRIParamMapping" { ptr null, ptr null, i32 0, ptr @.str.2, i8 0 }], align 16
@_ZN5osgeo4proj9operationL39paramsESRI_Lambert_Conformal_Conic_alt3E = internal constant [8 x %"struct.osgeo::proj::operation::ESRIParamMapping"] [%"struct.osgeo::proj::operation::ESRIParamMapping" { ptr @.str, ptr @.str.157, i32 8826, ptr @.str.2, i8 0 }, %"struct.osgeo::proj::operation::ESRIParamMapping" { ptr @.str.3, ptr @.str.158, i32 8827, ptr @.str.2, i8 0 }, %"struct.osgeo::proj::operation::ESRIParamMapping" { ptr @.str.5, ptr @.str.159, i32 8822, ptr @.str.2, i8 0 }, %"struct.osgeo::proj::operation::ESRIParamMapping" { ptr @.str.7, ptr @.str.8, i32 8823, ptr @.str.2, i8 0 }, %"struct.osgeo::proj::operation::ESRIParamMapping" { ptr @.str.160, ptr @.str.161, i32 8824, ptr @.str.2, i8 0 }, %"struct.osgeo::proj::operation::ESRIParamMapping" { ptr @.str.9, ptr null, i32 0, ptr @.str.163, i8 0 }, %"struct.osgeo::proj::operation::ESRIParamMapping" { ptr @.str.11, ptr @.str.162, i32 8821, ptr @.str.2, i8 0 }, %"struct.osgeo::proj::operation::ESRIParamMapping" { ptr null, ptr null, i32 0, ptr @.str.2, i8 0 }], align 16
@.str.61 = private unnamed_addr constant [39 x i8] c"Lambert Conic Conformal (2SP Michigan)\00", align 1
@_ZN5osgeo4proj9operationL39paramsESRI_Lambert_Conformal_Conic_alt4E = internal constant [8 x %"struct.osgeo::proj::operation::ESRIParamMapping"] [%"struct.osgeo::proj::operation::ESRIParamMapping" { ptr @.str, ptr @.str.157, i32 8826, ptr @.str.2, i8 0 }, %"struct.osgeo::proj::operation::ESRIParamMapping" { ptr @.str.3, ptr @.str.158, i32 8827, ptr @.str.2, i8 0 }, %"struct.osgeo::proj::operation::ESRIParamMapping" { ptr @.str.5, ptr @.str.159, i32 8822, ptr @.str.2, i8 0 }, %"struct.osgeo::proj::operation::ESRIParamMapping" { ptr @.str.7, ptr @.str.8, i32 8823, ptr @.str.2, i8 0 }, %"struct.osgeo::proj::operation::ESRIParamMapping" { ptr @.str.160, ptr @.str.161, i32 8824, ptr @.str.2, i8 0 }, %"struct.osgeo::proj::operation::ESRIParamMapping" { ptr @.str.9, ptr @.str.164, i32 1038, ptr @.str.2, i8 0 }, %"struct.osgeo::proj::operation::ESRIParamMapping" { ptr @.str.11, ptr @.str.162, i32 8821, ptr @.str.2, i8 0 }, %"struct.osgeo::proj::operation::ESRIParamMapping" { ptr null, ptr null, i32 0, ptr @.str.2, i8 0 }], align 16
@.str.62 = private unnamed_addr constant [10 x i8] c"Polyconic\00", align 1
@.str.63 = private unnamed_addr constant [19 x i8] c"American Polyconic\00", align 1
@_ZN5osgeo4proj9operationL20paramsESRI_PolyconicE = internal constant [5 x %"struct.osgeo::proj::operation::ESRIParamMapping"] [%"struct.osgeo::proj::operation::ESRIParamMapping" { ptr @.str, ptr @.str.1, i32 8806, ptr @.str.2, i8 0 }, %"struct.osgeo::proj::operation::ESRIParamMapping" { ptr @.str.3, ptr @.str.4, i32 8807, ptr @.str.2, i8 0 }, %"struct.osgeo::proj::operation::ESRIParamMapping" { ptr @.str.5, ptr @.str.6, i32 8802, ptr @.str.2, i8 0 }, %"struct.osgeo::proj::operation::ESRIParamMapping" { ptr @.str.11, ptr @.str.12, i32 8801, ptr @.str.2, i8 0 }, %"struct.osgeo::proj::operation::ESRIParamMapping" { ptr null, ptr null, i32 0, ptr @.str.2, i8 0 }], align 16
@.str.64 = private unnamed_addr constant [17 x i8] c"Quartic_Authalic\00", align 1
@.str.65 = private unnamed_addr constant [17 x i8] c"Quartic Authalic\00", align 1
@_ZN5osgeo4proj9operationL27paramsESRI_Quartic_AuthalicE = internal constant [4 x %"struct.osgeo::proj::operation::ESRIParamMapping"] [%"struct.osgeo::proj::operation::ESRIParamMapping" { ptr @.str, ptr @.str.1, i32 8806, ptr @.str.2, i8 0 }, %"struct.osgeo::proj::operation::ESRIParamMapping" { ptr @.str.3, ptr @.str.4, i32 8807, ptr @.str.2, i8 0 }, %"struct.osgeo::proj::operation::ESRIParamMapping" { ptr @.str.5, ptr @.str.6, i32 8802, ptr @.str.2, i8 0 }, %"struct.osgeo::proj::operation::ESRIParamMapping" { ptr null, ptr null, i32 0, ptr @.str.2, i8 0 }], align 16
@.str.66 = private unnamed_addr constant [11 x i8] c"Loximuthal\00", align 1
@_ZN5osgeo4proj9operationL21paramsESRI_LoximuthalE = internal constant [5 x %"struct.osgeo::proj::operation::ESRIParamMapping"] [%"struct.osgeo::proj::operation::ESRIParamMapping" { ptr @.str, ptr @.str.1, i32 8806, ptr @.str.2, i8 0 }, %"struct.osgeo::proj::operation::ESRIParamMapping" { ptr @.str.3, ptr @.str.4, i32 8807, ptr @.str.2, i8 0 }, %"struct.osgeo::proj::operation::ESRIParamMapping" { ptr @.str.5, ptr @.str.6, i32 8802, ptr @.str.2, i8 0 }, %"struct.osgeo::proj::operation::ESRIParamMapping" { ptr @.str.165, ptr @.str.12, i32 8801, ptr @.str.2, i8 0 }, %"struct.osgeo::proj::operation::ESRIParamMapping" { ptr null, ptr null, i32 0, ptr @.str.2, i8 0 }], align 16
@.str.67 = private unnamed_addr constant [6 x i8] c"Bonne\00", align 1
@_ZN5osgeo4proj9operationL16paramsESRI_BonneE = internal constant [5 x %"struct.osgeo::proj::operation::ESRIParamMapping"] [%"struct.osgeo::proj::operation::ESRIParamMapping" { ptr @.str, ptr @.str.1, i32 8806, ptr @.str.2, i8 0 }, %"struct.osgeo::proj::operation::ESRIParamMapping" { ptr @.str.3, ptr @.str.4, i32 8807, ptr @.str.2, i8 0 }, %"struct.osgeo::proj::operation::ESRIParamMapping" { ptr @.str.5, ptr @.str.6, i32 8802, ptr @.str.2, i8 0 }, %"struct.osgeo::proj::operation::ESRIParamMapping" { ptr @.str.7, ptr @.str.12, i32 8801, ptr @.str.2, i8 0 }, %"struct.osgeo::proj::operation::ESRIParamMapping" { ptr null, ptr null, i32 0, ptr @.str.2, i8 0 }], align 16
@.str.68 = private unnamed_addr constant [49 x i8] c"Hotine_Oblique_Mercator_Two_Point_Natural_Origin\00", align 1
@.str.69 = private unnamed_addr constant [49 x i8] c"Hotine Oblique Mercator Two Point Natural Origin\00", align 1
@_ZN5osgeo4proj9operationL59paramsESRI_Hotine_Oblique_Mercator_Two_Point_Natural_OriginE = internal constant [9 x %"struct.osgeo::proj::operation::ESRIParamMapping"] [%"struct.osgeo::proj::operation::ESRIParamMapping" { ptr @.str, ptr @.str.20, i32 8816, ptr @.str.2, i8 0 }, %"struct.osgeo::proj::operation::ESRIParamMapping" { ptr @.str.3, ptr @.str.21, i32 8817, ptr @.str.2, i8 0 }, %"struct.osgeo::proj::operation::ESRIParamMapping" { ptr @.str.166, ptr @.str.167, i32 0, ptr @.str.2, i8 0 }, %"struct.osgeo::proj::operation::ESRIParamMapping" { ptr @.str.168, ptr @.str.169, i32 0, ptr @.str.2, i8 0 }, %"struct.osgeo::proj::operation::ESRIParamMapping" { ptr @.str.9, ptr @.str.13, i32 8815, ptr @.str.2, i8 0 }, %"struct.osgeo::proj::operation::ESRIParamMapping" { ptr @.str.170, ptr @.str.171, i32 0, ptr @.str.2, i8 0 }, %"struct.osgeo::proj::operation::ESRIParamMapping" { ptr @.str.172, ptr @.str.173, i32 0, ptr @.str.2, i8 0 }, %"struct.osgeo::proj::operation::ESRIParamMapping" { ptr @.str.18, ptr @.str.19, i32 8811, ptr @.str.2, i8 0 }, %"struct.osgeo::proj::operation::ESRIParamMapping" { ptr null, ptr null, i32 0, ptr @.str.2, i8 0 }], align 16
@.str.70 = private unnamed_addr constant [14 x i8] c"Stereographic\00", align 1
@_ZN5osgeo4proj9operationL24paramsESRI_StereographicE = internal constant [6 x %"struct.osgeo::proj::operation::ESRIParamMapping"] [%"struct.osgeo::proj::operation::ESRIParamMapping" { ptr @.str, ptr @.str.1, i32 8806, ptr @.str.2, i8 0 }, %"struct.osgeo::proj::operation::ESRIParamMapping" { ptr @.str.3, ptr @.str.4, i32 8807, ptr @.str.2, i8 0 }, %"struct.osgeo::proj::operation::ESRIParamMapping" { ptr @.str.5, ptr @.str.6, i32 8802, ptr @.str.2, i8 0 }, %"struct.osgeo::proj::operation::ESRIParamMapping" { ptr @.str.9, ptr @.str.10, i32 8805, ptr @.str.2, i8 0 }, %"struct.osgeo::proj::operation::ESRIParamMapping" { ptr @.str.11, ptr @.str.12, i32 8801, ptr @.str.2, i8 0 }, %"struct.osgeo::proj::operation::ESRIParamMapping" { ptr null, ptr null, i32 0, ptr @.str.2, i8 0 }], align 16
@.str.71 = private unnamed_addr constant [30 x i8] c"Polar_Stereographic_Variant_A\00", align 1
@.str.72 = private unnamed_addr constant [32 x i8] c"Polar Stereographic (variant A)\00", align 1
@_ZN5osgeo4proj9operationL40paramsESRI_Polar_Stereographic_Variant_AE = internal constant [6 x %"struct.osgeo::proj::operation::ESRIParamMapping"] [%"struct.osgeo::proj::operation::ESRIParamMapping" { ptr @.str, ptr @.str.1, i32 8806, ptr @.str.2, i8 0 }, %"struct.osgeo::proj::operation::ESRIParamMapping" { ptr @.str.3, ptr @.str.4, i32 8807, ptr @.str.2, i8 0 }, %"struct.osgeo::proj::operation::ESRIParamMapping" { ptr @.str.5, ptr @.str.6, i32 8802, ptr @.str.2, i8 0 }, %"struct.osgeo::proj::operation::ESRIParamMapping" { ptr @.str.9, ptr @.str.10, i32 8805, ptr @.str.2, i8 0 }, %"struct.osgeo::proj::operation::ESRIParamMapping" { ptr @.str.11, ptr @.str.12, i32 8801, ptr @.str.2, i8 0 }, %"struct.osgeo::proj::operation::ESRIParamMapping" { ptr null, ptr null, i32 0, ptr @.str.2, i8 0 }], align 16
@.str.73 = private unnamed_addr constant [18 x i8] c"Equidistant_Conic\00", align 1
@.str.74 = private unnamed_addr constant [18 x i8] c"Equidistant Conic\00", align 1
@_ZN5osgeo4proj9operationL28paramsESRI_Equidistant_ConicE = internal constant [7 x %"struct.osgeo::proj::operation::ESRIParamMapping"] [%"struct.osgeo::proj::operation::ESRIParamMapping" { ptr @.str, ptr @.str.157, i32 8826, ptr @.str.2, i8 0 }, %"struct.osgeo::proj::operation::ESRIParamMapping" { ptr @.str.3, ptr @.str.158, i32 8827, ptr @.str.2, i8 0 }, %"struct.osgeo::proj::operation::ESRIParamMapping" { ptr @.str.5, ptr @.str.159, i32 8822, ptr @.str.2, i8 0 }, %"struct.osgeo::proj::operation::ESRIParamMapping" { ptr @.str.7, ptr @.str.8, i32 8823, ptr @.str.2, i8 0 }, %"struct.osgeo::proj::operation::ESRIParamMapping" { ptr @.str.160, ptr @.str.161, i32 8824, ptr @.str.2, i8 0 }, %"struct.osgeo::proj::operation::ESRIParamMapping" { ptr @.str.11, ptr @.str.162, i32 8821, ptr @.str.2, i8 0 }, %"struct.osgeo::proj::operation::ESRIParamMapping" { ptr null, ptr null, i32 0, ptr @.str.2, i8 0 }], align 16
@.str.75 = private unnamed_addr constant [8 x i8] c"Cassini\00", align 1
@.str.76 = private unnamed_addr constant [16 x i8] c"Cassini-Soldner\00", align 1
@_ZN5osgeo4proj9operationL18paramsESRI_CassiniE = internal constant [6 x %"struct.osgeo::proj::operation::ESRIParamMapping"] [%"struct.osgeo::proj::operation::ESRIParamMapping" { ptr @.str, ptr @.str.1, i32 8806, ptr @.str.2, i8 0 }, %"struct.osgeo::proj::operation::ESRIParamMapping" { ptr @.str.3, ptr @.str.4, i32 8807, ptr @.str.2, i8 0 }, %"struct.osgeo::proj::operation::ESRIParamMapping" { ptr @.str.5, ptr @.str.6, i32 8802, ptr @.str.2, i8 0 }, %"struct.osgeo::proj::operation::ESRIParamMapping" { ptr @.str.9, ptr null, i32 0, ptr @.str.163, i8 0 }, %"struct.osgeo::proj::operation::ESRIParamMapping" { ptr @.str.11, ptr @.str.12, i32 8801, ptr @.str.2, i8 0 }, %"struct.osgeo::proj::operation::ESRIParamMapping" { ptr null, ptr null, i32 0, ptr @.str.2, i8 0 }], align 16
@.str.77 = private unnamed_addr constant [18 x i8] c"Van_der_Grinten_I\00", align 1
@.str.78 = private unnamed_addr constant [16 x i8] c"Van Der Grinten\00", align 1
@_ZN5osgeo4proj9operationL28paramsESRI_Van_der_Grinten_IE = internal constant [4 x %"struct.osgeo::proj::operation::ESRIParamMapping"] [%"struct.osgeo::proj::operation::ESRIParamMapping" { ptr @.str, ptr @.str.1, i32 8806, ptr @.str.2, i8 0 }, %"struct.osgeo::proj::operation::ESRIParamMapping" { ptr @.str.3, ptr @.str.4, i32 8807, ptr @.str.2, i8 0 }, %"struct.osgeo::proj::operation::ESRIParamMapping" { ptr @.str.5, ptr @.str.6, i32 8802, ptr @.str.2, i8 0 }, %"struct.osgeo::proj::operation::ESRIParamMapping" { ptr null, ptr null, i32 0, ptr @.str.2, i8 0 }], align 16
@.str.79 = private unnamed_addr constant [9 x i8] c"Robinson\00", align 1
@_ZN5osgeo4proj9operationL19paramsESRI_RobinsonE = internal constant [4 x %"struct.osgeo::proj::operation::ESRIParamMapping"] [%"struct.osgeo::proj::operation::ESRIParamMapping" { ptr @.str, ptr @.str.1, i32 8806, ptr @.str.2, i8 0 }, %"struct.osgeo::proj::operation::ESRIParamMapping" { ptr @.str.3, ptr @.str.4, i32 8807, ptr @.str.2, i8 0 }, %"struct.osgeo::proj::operation::ESRIParamMapping" { ptr @.str.5, ptr @.str.6, i32 8802, ptr @.str.2, i8 0 }, %"struct.osgeo::proj::operation::ESRIParamMapping" { ptr null, ptr null, i32 0, ptr @.str.2, i8 0 }], align 16
@.str.80 = private unnamed_addr constant [22 x i8] c"Two_Point_Equidistant\00", align 1
@.str.81 = private unnamed_addr constant [22 x i8] c"Two Point Equidistant\00", align 1
@_ZN5osgeo4proj9operationL32paramsESRI_Two_Point_EquidistantE = internal constant [7 x %"struct.osgeo::proj::operation::ESRIParamMapping"] [%"struct.osgeo::proj::operation::ESRIParamMapping" { ptr @.str, ptr @.str.1, i32 8806, ptr @.str.2, i8 0 }, %"struct.osgeo::proj::operation::ESRIParamMapping" { ptr @.str.3, ptr @.str.4, i32 8807, ptr @.str.2, i8 0 }, %"struct.osgeo::proj::operation::ESRIParamMapping" { ptr @.str.166, ptr @.str.167, i32 0, ptr @.str.2, i8 0 }, %"struct.osgeo::proj::operation::ESRIParamMapping" { ptr @.str.168, ptr @.str.169, i32 0, ptr @.str.2, i8 0 }, %"struct.osgeo::proj::operation::ESRIParamMapping" { ptr @.str.170, ptr @.str.171, i32 0, ptr @.str.2, i8 0 }, %"struct.osgeo::proj::operation::ESRIParamMapping" { ptr @.str.172, ptr @.str.173, i32 0, ptr @.str.2, i8 0 }, %"struct.osgeo::proj::operation::ESRIParamMapping" { ptr null, ptr null, i32 0, ptr @.str.2, i8 0 }], align 16
@.str.82 = private unnamed_addr constant [22 x i8] c"Azimuthal_Equidistant\00", align 1
@.str.83 = private unnamed_addr constant [22 x i8] c"Azimuthal Equidistant\00", align 1
@_ZN5osgeo4proj9operationL32paramsESRI_Azimuthal_EquidistantE = internal constant [5 x %"struct.osgeo::proj::operation::ESRIParamMapping"] [%"struct.osgeo::proj::operation::ESRIParamMapping" { ptr @.str, ptr @.str.1, i32 8806, ptr @.str.2, i8 0 }, %"struct.osgeo::proj::operation::ESRIParamMapping" { ptr @.str.3, ptr @.str.4, i32 8807, ptr @.str.2, i8 0 }, %"struct.osgeo::proj::operation::ESRIParamMapping" { ptr @.str.5, ptr @.str.6, i32 8802, ptr @.str.2, i8 0 }, %"struct.osgeo::proj::operation::ESRIParamMapping" { ptr @.str.11, ptr @.str.12, i32 8801, ptr @.str.2, i8 0 }, %"struct.osgeo::proj::operation::ESRIParamMapping" { ptr null, ptr null, i32 0, ptr @.str.2, i8 0 }], align 16
@.str.84 = private unnamed_addr constant [29 x i8] c"Lambert_Azimuthal_Equal_Area\00", align 1
@.str.85 = private unnamed_addr constant [29 x i8] c"Lambert Azimuthal Equal Area\00", align 1
@_ZN5osgeo4proj9operationL39paramsESRI_Lambert_Azimuthal_Equal_AreaE = internal constant [5 x %"struct.osgeo::proj::operation::ESRIParamMapping"] [%"struct.osgeo::proj::operation::ESRIParamMapping" { ptr @.str, ptr @.str.1, i32 8806, ptr @.str.2, i8 0 }, %"struct.osgeo::proj::operation::ESRIParamMapping" { ptr @.str.3, ptr @.str.4, i32 8807, ptr @.str.2, i8 0 }, %"struct.osgeo::proj::operation::ESRIParamMapping" { ptr @.str.5, ptr @.str.6, i32 8802, ptr @.str.2, i8 0 }, %"struct.osgeo::proj::operation::ESRIParamMapping" { ptr @.str.11, ptr @.str.12, i32 8801, ptr @.str.2, i8 0 }, %"struct.osgeo::proj::operation::ESRIParamMapping" { ptr null, ptr null, i32 0, ptr @.str.2, i8 0 }], align 16
@.str.86 = private unnamed_addr constant [23 x i8] c"Cylindrical_Equal_Area\00", align 1
@.str.87 = private unnamed_addr constant [31 x i8] c"Lambert Cylindrical Equal Area\00", align 1
@_ZN5osgeo4proj9operationL33paramsESRI_Cylindrical_Equal_AreaE = internal constant [5 x %"struct.osgeo::proj::operation::ESRIParamMapping"] [%"struct.osgeo::proj::operation::ESRIParamMapping" { ptr @.str, ptr @.str.1, i32 8806, ptr @.str.2, i8 0 }, %"struct.osgeo::proj::operation::ESRIParamMapping" { ptr @.str.3, ptr @.str.4, i32 8807, ptr @.str.2, i8 0 }, %"struct.osgeo::proj::operation::ESRIParamMapping" { ptr @.str.5, ptr @.str.6, i32 8802, ptr @.str.2, i8 0 }, %"struct.osgeo::proj::operation::ESRIParamMapping" { ptr @.str.7, ptr @.str.8, i32 8823, ptr @.str.2, i8 0 }, %"struct.osgeo::proj::operation::ESRIParamMapping" { ptr null, ptr null, i32 0, ptr @.str.2, i8 0 }], align 16
@.str.88 = private unnamed_addr constant [9 x i8] c"Behrmann\00", align 1
@_ZN5osgeo4proj9operationL19paramsESRI_BehrmannE = internal constant [5 x %"struct.osgeo::proj::operation::ESRIParamMapping"] [%"struct.osgeo::proj::operation::ESRIParamMapping" { ptr @.str, ptr @.str.1, i32 8806, ptr @.str.2, i8 0 }, %"struct.osgeo::proj::operation::ESRIParamMapping" { ptr @.str.3, ptr @.str.4, i32 8807, ptr @.str.2, i8 0 }, %"struct.osgeo::proj::operation::ESRIParamMapping" { ptr @.str.5, ptr @.str.6, i32 8802, ptr @.str.2, i8 1 }, %"struct.osgeo::proj::operation::ESRIParamMapping" { ptr @.str.7, ptr @.str.8, i32 8823, ptr @.str.174, i8 1 }, %"struct.osgeo::proj::operation::ESRIParamMapping" { ptr null, ptr null, i32 0, ptr @.str.2, i8 0 }], align 16
@.str.89 = private unnamed_addr constant [41 x i8] c"Hotine_Oblique_Mercator_Two_Point_Center\00", align 1
@_ZN5osgeo4proj9operationL51paramsESRI_Hotine_Oblique_Mercator_Two_Point_CenterE = internal constant [9 x %"struct.osgeo::proj::operation::ESRIParamMapping"] [%"struct.osgeo::proj::operation::ESRIParamMapping" { ptr @.str, ptr @.str.20, i32 8816, ptr @.str.2, i8 0 }, %"struct.osgeo::proj::operation::ESRIParamMapping" { ptr @.str.3, ptr @.str.21, i32 8817, ptr @.str.2, i8 0 }, %"struct.osgeo::proj::operation::ESRIParamMapping" { ptr @.str.166, ptr @.str.167, i32 0, ptr @.str.2, i8 0 }, %"struct.osgeo::proj::operation::ESRIParamMapping" { ptr @.str.168, ptr @.str.169, i32 0, ptr @.str.2, i8 0 }, %"struct.osgeo::proj::operation::ESRIParamMapping" { ptr @.str.9, ptr @.str.13, i32 8815, ptr @.str.2, i8 0 }, %"struct.osgeo::proj::operation::ESRIParamMapping" { ptr @.str.170, ptr @.str.171, i32 0, ptr @.str.2, i8 0 }, %"struct.osgeo::proj::operation::ESRIParamMapping" { ptr @.str.172, ptr @.str.173, i32 0, ptr @.str.2, i8 0 }, %"struct.osgeo::proj::operation::ESRIParamMapping" { ptr @.str.11, ptr @.str.12, i32 8801, ptr @.str.2, i8 0 }, %"struct.osgeo::proj::operation::ESRIParamMapping" { ptr null, ptr null, i32 0, ptr @.str.2, i8 0 }], align 16
@.str.90 = private unnamed_addr constant [47 x i8] c"Hotine_Oblique_Mercator_Azimuth_Natural_Origin\00", align 1
@.str.91 = private unnamed_addr constant [36 x i8] c"Hotine Oblique Mercator (variant A)\00", align 1
@.str.92 = private unnamed_addr constant [39 x i8] c"Hotine_Oblique_Mercator_Azimuth_Center\00", align 1
@.str.93 = private unnamed_addr constant [36 x i8] c"Hotine Oblique Mercator (variant B)\00", align 1
@.str.94 = private unnamed_addr constant [21 x i8] c"Double_Stereographic\00", align 1
@.str.95 = private unnamed_addr constant [22 x i8] c"Oblique Stereographic\00", align 1
@_ZN5osgeo4proj9operationL31paramsESRI_Double_StereographicE = internal constant [6 x %"struct.osgeo::proj::operation::ESRIParamMapping"] [%"struct.osgeo::proj::operation::ESRIParamMapping" { ptr @.str, ptr @.str.1, i32 8806, ptr @.str.2, i8 0 }, %"struct.osgeo::proj::operation::ESRIParamMapping" { ptr @.str.3, ptr @.str.4, i32 8807, ptr @.str.2, i8 0 }, %"struct.osgeo::proj::operation::ESRIParamMapping" { ptr @.str.5, ptr @.str.6, i32 8802, ptr @.str.2, i8 0 }, %"struct.osgeo::proj::operation::ESRIParamMapping" { ptr @.str.9, ptr @.str.10, i32 8805, ptr @.str.2, i8 0 }, %"struct.osgeo::proj::operation::ESRIParamMapping" { ptr @.str.11, ptr @.str.12, i32 8801, ptr @.str.2, i8 0 }, %"struct.osgeo::proj::operation::ESRIParamMapping" { ptr null, ptr null, i32 0, ptr @.str.2, i8 0 }], align 16
@.str.96 = private unnamed_addr constant [7 x i8] c"Krovak\00", align 1
@_ZN5osgeo4proj9operationL22paramsESRI_Krovak_alt1E = internal constant [11 x %"struct.osgeo::proj::operation::ESRIParamMapping"] [%"struct.osgeo::proj::operation::ESRIParamMapping" { ptr @.str, ptr @.str.1, i32 8806, ptr @.str.2, i8 0 }, %"struct.osgeo::proj::operation::ESRIParamMapping" { ptr @.str.3, ptr @.str.4, i32 8807, ptr @.str.2, i8 0 }, %"struct.osgeo::proj::operation::ESRIParamMapping" { ptr @.str.175, ptr @.str.176, i32 8818, ptr @.str.2, i8 0 }, %"struct.osgeo::proj::operation::ESRIParamMapping" { ptr @.str.9, ptr @.str.177, i32 8819, ptr @.str.2, i8 0 }, %"struct.osgeo::proj::operation::ESRIParamMapping" { ptr @.str.14, ptr @.str.178, i32 1036, ptr @.str.2, i8 0 }, %"struct.osgeo::proj::operation::ESRIParamMapping" { ptr @.str.16, ptr @.str.179, i32 8833, ptr @.str.2, i8 0 }, %"struct.osgeo::proj::operation::ESRIParamMapping" { ptr @.str.18, ptr @.str.19, i32 8811, ptr @.str.2, i8 0 }, %"struct.osgeo::proj::operation::ESRIParamMapping" { ptr @.str.180, ptr null, i32 0, ptr @.str.163, i8 0 }, %"struct.osgeo::proj::operation::ESRIParamMapping" { ptr @.str.181, ptr null, i32 0, ptr @.str.163, i8 0 }, %"struct.osgeo::proj::operation::ESRIParamMapping" { ptr @.str.22, ptr null, i32 0, ptr @.str.2, i8 0 }, %"struct.osgeo::proj::operation::ESRIParamMapping" { ptr null, ptr null, i32 0, ptr @.str.2, i8 0 }], align 16
@.str.97 = private unnamed_addr constant [26 x i8] c"Krovak (North Orientated)\00", align 1
@_ZN5osgeo4proj9operationL22paramsESRI_Krovak_alt2E = internal constant [11 x %"struct.osgeo::proj::operation::ESRIParamMapping"] [%"struct.osgeo::proj::operation::ESRIParamMapping" { ptr @.str, ptr @.str.1, i32 8806, ptr @.str.2, i8 0 }, %"struct.osgeo::proj::operation::ESRIParamMapping" { ptr @.str.3, ptr @.str.4, i32 8807, ptr @.str.2, i8 0 }, %"struct.osgeo::proj::operation::ESRIParamMapping" { ptr @.str.175, ptr @.str.176, i32 8818, ptr @.str.2, i8 0 }, %"struct.osgeo::proj::operation::ESRIParamMapping" { ptr @.str.9, ptr @.str.177, i32 8819, ptr @.str.2, i8 0 }, %"struct.osgeo::proj::operation::ESRIParamMapping" { ptr @.str.14, ptr @.str.178, i32 1036, ptr @.str.2, i8 0 }, %"struct.osgeo::proj::operation::ESRIParamMapping" { ptr @.str.16, ptr @.str.179, i32 8833, ptr @.str.2, i8 0 }, %"struct.osgeo::proj::operation::ESRIParamMapping" { ptr @.str.18, ptr @.str.19, i32 8811, ptr @.str.2, i8 0 }, %"struct.osgeo::proj::operation::ESRIParamMapping" { ptr @.str.180, ptr null, i32 0, ptr @.str.182, i8 0 }, %"struct.osgeo::proj::operation::ESRIParamMapping" { ptr @.str.181, ptr null, i32 0, ptr @.str.163, i8 0 }, %"struct.osgeo::proj::operation::ESRIParamMapping" { ptr @.str.22, ptr null, i32 0, ptr @.str.183, i8 0 }, %"struct.osgeo::proj::operation::ESRIParamMapping" { ptr null, ptr null, i32 0, ptr @.str.2, i8 0 }], align 16
@.str.98 = private unnamed_addr constant [21 x i8] c"New_Zealand_Map_Grid\00", align 1
@.str.99 = private unnamed_addr constant [21 x i8] c"New Zealand Map Grid\00", align 1
@_ZN5osgeo4proj9operationL31paramsESRI_New_Zealand_Map_GridE = internal constant [5 x %"struct.osgeo::proj::operation::ESRIParamMapping"] [%"struct.osgeo::proj::operation::ESRIParamMapping" { ptr @.str, ptr @.str.1, i32 8806, ptr @.str.2, i8 0 }, %"struct.osgeo::proj::operation::ESRIParamMapping" { ptr @.str.3, ptr @.str.4, i32 8807, ptr @.str.2, i8 0 }, %"struct.osgeo::proj::operation::ESRIParamMapping" { ptr @.str.184, ptr @.str.6, i32 8802, ptr @.str.2, i8 0 }, %"struct.osgeo::proj::operation::ESRIParamMapping" { ptr @.str.11, ptr @.str.12, i32 8801, ptr @.str.2, i8 0 }, %"struct.osgeo::proj::operation::ESRIParamMapping" { ptr null, ptr null, i32 0, ptr @.str.2, i8 0 }], align 16
@.str.100 = private unnamed_addr constant [13 x i8] c"Orthographic\00", align 1
@.str.101 = private unnamed_addr constant [25 x i8] c"Orthographic (Spherical)\00", align 1
@_ZN5osgeo4proj9operationL23paramsESRI_OrthographicE = internal constant [5 x %"struct.osgeo::proj::operation::ESRIParamMapping"] [%"struct.osgeo::proj::operation::ESRIParamMapping" { ptr @.str, ptr @.str.1, i32 8806, ptr @.str.2, i8 0 }, %"struct.osgeo::proj::operation::ESRIParamMapping" { ptr @.str.3, ptr @.str.4, i32 8807, ptr @.str.2, i8 0 }, %"struct.osgeo::proj::operation::ESRIParamMapping" { ptr @.str.16, ptr @.str.6, i32 8802, ptr @.str.2, i8 0 }, %"struct.osgeo::proj::operation::ESRIParamMapping" { ptr @.str.18, ptr @.str.12, i32 8801, ptr @.str.2, i8 0 }, %"struct.osgeo::proj::operation::ESRIParamMapping" { ptr null, ptr null, i32 0, ptr @.str.2, i8 0 }], align 16
@.str.102 = private unnamed_addr constant [6 x i8] c"Local\00", align 1
@.str.103 = private unnamed_addr constant [19 x i8] c"Local Orthographic\00", align 1
@_ZN5osgeo4proj9operationL16paramsESRI_LocalE = internal constant [7 x %"struct.osgeo::proj::operation::ESRIParamMapping"] [%"struct.osgeo::proj::operation::ESRIParamMapping" { ptr @.str, ptr @.str.20, i32 8816, ptr @.str.2, i8 0 }, %"struct.osgeo::proj::operation::ESRIParamMapping" { ptr @.str.3, ptr @.str.21, i32 8817, ptr @.str.2, i8 0 }, %"struct.osgeo::proj::operation::ESRIParamMapping" { ptr @.str.9, ptr @.str.13, i32 8815, ptr @.str.2, i8 0 }, %"struct.osgeo::proj::operation::ESRIParamMapping" { ptr @.str.14, ptr @.str.15, i32 8813, ptr @.str.2, i8 0 }, %"struct.osgeo::proj::operation::ESRIParamMapping" { ptr @.str.16, ptr @.str.17, i32 8812, ptr @.str.2, i8 0 }, %"struct.osgeo::proj::operation::ESRIParamMapping" { ptr @.str.18, ptr @.str.19, i32 8811, ptr @.str.2, i8 0 }, %"struct.osgeo::proj::operation::ESRIParamMapping" { ptr null, ptr null, i32 0, ptr @.str.2, i8 0 }], align 16
@.str.104 = private unnamed_addr constant [14 x i8] c"Winkel_Tripel\00", align 1
@.str.105 = private unnamed_addr constant [14 x i8] c"Winkel Tripel\00", align 1
@_ZN5osgeo4proj9operationL24paramsESRI_Winkel_TripelE = internal constant [5 x %"struct.osgeo::proj::operation::ESRIParamMapping"] [%"struct.osgeo::proj::operation::ESRIParamMapping" { ptr @.str, ptr @.str.1, i32 8806, ptr @.str.2, i8 0 }, %"struct.osgeo::proj::operation::ESRIParamMapping" { ptr @.str.3, ptr @.str.4, i32 8807, ptr @.str.2, i8 0 }, %"struct.osgeo::proj::operation::ESRIParamMapping" { ptr @.str.5, ptr @.str.6, i32 8802, ptr @.str.2, i8 0 }, %"struct.osgeo::proj::operation::ESRIParamMapping" { ptr @.str.7, ptr @.str.8, i32 8823, ptr @.str.2, i8 0 }, %"struct.osgeo::proj::operation::ESRIParamMapping" { ptr null, ptr null, i32 0, ptr @.str.2, i8 0 }], align 16
@.str.106 = private unnamed_addr constant [7 x i8] c"Aitoff\00", align 1
@_ZN5osgeo4proj9operationL17paramsESRI_AitoffE = internal constant [4 x %"struct.osgeo::proj::operation::ESRIParamMapping"] [%"struct.osgeo::proj::operation::ESRIParamMapping" { ptr @.str, ptr @.str.1, i32 8806, ptr @.str.2, i8 0 }, %"struct.osgeo::proj::operation::ESRIParamMapping" { ptr @.str.3, ptr @.str.4, i32 8807, ptr @.str.2, i8 0 }, %"struct.osgeo::proj::operation::ESRIParamMapping" { ptr @.str.5, ptr @.str.6, i32 8802, ptr @.str.2, i8 0 }, %"struct.osgeo::proj::operation::ESRIParamMapping" { ptr null, ptr null, i32 0, ptr @.str.2, i8 0 }], align 16
@.str.107 = private unnamed_addr constant [19 x i8] c"Flat_Polar_Quartic\00", align 1
@.str.108 = private unnamed_addr constant [19 x i8] c"Flat Polar Quartic\00", align 1
@_ZN5osgeo4proj9operationL29paramsESRI_Flat_Polar_QuarticE = internal constant [4 x %"struct.osgeo::proj::operation::ESRIParamMapping"] [%"struct.osgeo::proj::operation::ESRIParamMapping" { ptr @.str, ptr @.str.1, i32 8806, ptr @.str.2, i8 0 }, %"struct.osgeo::proj::operation::ESRIParamMapping" { ptr @.str.3, ptr @.str.4, i32 8807, ptr @.str.2, i8 0 }, %"struct.osgeo::proj::operation::ESRIParamMapping" { ptr @.str.5, ptr @.str.6, i32 8802, ptr @.str.2, i8 0 }, %"struct.osgeo::proj::operation::ESRIParamMapping" { ptr null, ptr null, i32 0, ptr @.str.2, i8 0 }], align 16
@.str.109 = private unnamed_addr constant [18 x i8] c"Craster_Parabolic\00", align 1
@.str.110 = private unnamed_addr constant [18 x i8] c"Craster Parabolic\00", align 1
@_ZN5osgeo4proj9operationL28paramsESRI_Craster_ParabolicE = internal constant [4 x %"struct.osgeo::proj::operation::ESRIParamMapping"] [%"struct.osgeo::proj::operation::ESRIParamMapping" { ptr @.str, ptr @.str.1, i32 8806, ptr @.str.2, i8 0 }, %"struct.osgeo::proj::operation::ESRIParamMapping" { ptr @.str.3, ptr @.str.4, i32 8807, ptr @.str.2, i8 0 }, %"struct.osgeo::proj::operation::ESRIParamMapping" { ptr @.str.5, ptr @.str.6, i32 8802, ptr @.str.2, i8 0 }, %"struct.osgeo::proj::operation::ESRIParamMapping" { ptr null, ptr null, i32 0, ptr @.str.2, i8 0 }], align 16
@.str.111 = private unnamed_addr constant [9 x i8] c"Gnomonic\00", align 1
@_ZN5osgeo4proj9operationL19paramsESRI_GnomonicE = internal constant [5 x %"struct.osgeo::proj::operation::ESRIParamMapping"] [%"struct.osgeo::proj::operation::ESRIParamMapping" { ptr @.str, ptr @.str.1, i32 8806, ptr @.str.2, i8 0 }, %"struct.osgeo::proj::operation::ESRIParamMapping" { ptr @.str.3, ptr @.str.4, i32 8807, ptr @.str.2, i8 0 }, %"struct.osgeo::proj::operation::ESRIParamMapping" { ptr @.str.16, ptr @.str.6, i32 8802, ptr @.str.2, i8 0 }, %"struct.osgeo::proj::operation::ESRIParamMapping" { ptr @.str.18, ptr @.str.12, i32 8801, ptr @.str.2, i8 0 }, %"struct.osgeo::proj::operation::ESRIParamMapping" { ptr null, ptr null, i32 0, ptr @.str.2, i8 0 }], align 16
@.str.112 = private unnamed_addr constant [6 x i8] c"Times\00", align 1
@_ZN5osgeo4proj9operationL16paramsESRI_TimesE = internal constant [4 x %"struct.osgeo::proj::operation::ESRIParamMapping"] [%"struct.osgeo::proj::operation::ESRIParamMapping" { ptr @.str, ptr @.str.1, i32 8806, ptr @.str.2, i8 0 }, %"struct.osgeo::proj::operation::ESRIParamMapping" { ptr @.str.3, ptr @.str.4, i32 8807, ptr @.str.2, i8 0 }, %"struct.osgeo::proj::operation::ESRIParamMapping" { ptr @.str.5, ptr @.str.6, i32 8802, ptr @.str.2, i8 0 }, %"struct.osgeo::proj::operation::ESRIParamMapping" { ptr null, ptr null, i32 0, ptr @.str.2, i8 0 }], align 16
@.str.113 = private unnamed_addr constant [31 x i8] c"Vertical_Near_Side_Perspective\00", align 1
@.str.114 = private unnamed_addr constant [21 x i8] c"Vertical Perspective\00", align 1
@_ZN5osgeo4proj9operationL41paramsESRI_Vertical_Near_Side_PerspectiveE = internal constant [6 x %"struct.osgeo::proj::operation::ESRIParamMapping"] [%"struct.osgeo::proj::operation::ESRIParamMapping" { ptr @.str, ptr @.str.1, i32 8806, ptr @.str.2, i8 0 }, %"struct.osgeo::proj::operation::ESRIParamMapping" { ptr @.str.3, ptr @.str.4, i32 8807, ptr @.str.2, i8 0 }, %"struct.osgeo::proj::operation::ESRIParamMapping" { ptr @.str.16, ptr @.str.185, i32 8835, ptr @.str.2, i8 0 }, %"struct.osgeo::proj::operation::ESRIParamMapping" { ptr @.str.18, ptr @.str.186, i32 8834, ptr @.str.2, i8 0 }, %"struct.osgeo::proj::operation::ESRIParamMapping" { ptr @.str.187, ptr @.str.188, i32 8840, ptr @.str.2, i8 0 }, %"struct.osgeo::proj::operation::ESRIParamMapping" { ptr null, ptr null, i32 0, ptr @.str.2, i8 0 }], align 16
@.str.115 = private unnamed_addr constant [25 x i8] c"Stereographic_North_Pole\00", align 1
@.str.116 = private unnamed_addr constant [32 x i8] c"Polar Stereographic (variant B)\00", align 1
@_ZN5osgeo4proj9operationL35paramsESRI_Stereographic_North_PoleE = internal constant [5 x %"struct.osgeo::proj::operation::ESRIParamMapping"] [%"struct.osgeo::proj::operation::ESRIParamMapping" { ptr @.str, ptr @.str.1, i32 8806, ptr @.str.2, i8 0 }, %"struct.osgeo::proj::operation::ESRIParamMapping" { ptr @.str.3, ptr @.str.4, i32 8807, ptr @.str.2, i8 0 }, %"struct.osgeo::proj::operation::ESRIParamMapping" { ptr @.str.5, ptr @.str.179, i32 8833, ptr @.str.2, i8 0 }, %"struct.osgeo::proj::operation::ESRIParamMapping" { ptr @.str.7, ptr @.str.189, i32 8832, ptr @.str.2, i8 0 }, %"struct.osgeo::proj::operation::ESRIParamMapping" { ptr null, ptr null, i32 0, ptr @.str.2, i8 0 }], align 16
@.str.117 = private unnamed_addr constant [25 x i8] c"Stereographic_South_Pole\00", align 1
@_ZN5osgeo4proj9operationL35paramsESRI_Stereographic_South_PoleE = internal constant [5 x %"struct.osgeo::proj::operation::ESRIParamMapping"] [%"struct.osgeo::proj::operation::ESRIParamMapping" { ptr @.str, ptr @.str.1, i32 8806, ptr @.str.2, i8 0 }, %"struct.osgeo::proj::operation::ESRIParamMapping" { ptr @.str.3, ptr @.str.4, i32 8807, ptr @.str.2, i8 0 }, %"struct.osgeo::proj::operation::ESRIParamMapping" { ptr @.str.5, ptr @.str.179, i32 8833, ptr @.str.2, i8 0 }, %"struct.osgeo::proj::operation::ESRIParamMapping" { ptr @.str.7, ptr @.str.189, i32 8832, ptr @.str.2, i8 0 }, %"struct.osgeo::proj::operation::ESRIParamMapping" { ptr null, ptr null, i32 0, ptr @.str.2, i8 0 }], align 16
@.str.118 = private unnamed_addr constant [43 x i8] c"Rectified_Skew_Orthomorphic_Natural_Origin\00", align 1
@.str.119 = private unnamed_addr constant [35 x i8] c"Rectified_Skew_Orthomorphic_Center\00", align 1
@.str.120 = private unnamed_addr constant [17 x i8] c"Goode_Homolosine\00", align 1
@.str.121 = private unnamed_addr constant [17 x i8] c"Goode Homolosine\00", align 1
@_ZN5osgeo4proj9operationL32paramsESRI_Goode_Homolosine_alt1E = internal constant [5 x %"struct.osgeo::proj::operation::ESRIParamMapping"] [%"struct.osgeo::proj::operation::ESRIParamMapping" { ptr @.str, ptr @.str.1, i32 8806, ptr @.str.2, i8 0 }, %"struct.osgeo::proj::operation::ESRIParamMapping" { ptr @.str.3, ptr @.str.4, i32 8807, ptr @.str.2, i8 0 }, %"struct.osgeo::proj::operation::ESRIParamMapping" { ptr @.str.5, ptr @.str.6, i32 8802, ptr @.str.2, i8 0 }, %"struct.osgeo::proj::operation::ESRIParamMapping" { ptr @.str.190, ptr null, i32 0, ptr @.str.2, i8 0 }, %"struct.osgeo::proj::operation::ESRIParamMapping" { ptr null, ptr null, i32 0, ptr @.str.2, i8 0 }], align 16
@.str.122 = private unnamed_addr constant [29 x i8] c"Interrupted Goode Homolosine\00", align 1
@_ZN5osgeo4proj9operationL32paramsESRI_Goode_Homolosine_alt2E = internal constant [5 x %"struct.osgeo::proj::operation::ESRIParamMapping"] [%"struct.osgeo::proj::operation::ESRIParamMapping" { ptr @.str, ptr @.str.1, i32 8806, ptr @.str.2, i8 0 }, %"struct.osgeo::proj::operation::ESRIParamMapping" { ptr @.str.3, ptr @.str.4, i32 8807, ptr @.str.2, i8 0 }, %"struct.osgeo::proj::operation::ESRIParamMapping" { ptr @.str.5, ptr @.str.6, i32 8802, ptr @.str.2, i8 0 }, %"struct.osgeo::proj::operation::ESRIParamMapping" { ptr @.str.190, ptr null, i32 0, ptr @.str.163, i8 0 }, %"struct.osgeo::proj::operation::ESRIParamMapping" { ptr null, ptr null, i32 0, ptr @.str.2, i8 0 }], align 16
@.str.123 = private unnamed_addr constant [35 x i8] c"Interrupted Goode Homolosine Ocean\00", align 1
@_ZN5osgeo4proj9operationL32paramsESRI_Goode_Homolosine_alt3E = internal constant [5 x %"struct.osgeo::proj::operation::ESRIParamMapping"] [%"struct.osgeo::proj::operation::ESRIParamMapping" { ptr @.str, ptr @.str.1, i32 8806, ptr @.str.2, i8 0 }, %"struct.osgeo::proj::operation::ESRIParamMapping" { ptr @.str.3, ptr @.str.4, i32 8807, ptr @.str.2, i8 0 }, %"struct.osgeo::proj::operation::ESRIParamMapping" { ptr @.str.5, ptr @.str.6, i32 8802, ptr @.str.2, i8 0 }, %"struct.osgeo::proj::operation::ESRIParamMapping" { ptr @.str.190, ptr null, i32 0, ptr @.str.191, i8 0 }, %"struct.osgeo::proj::operation::ESRIParamMapping" { ptr null, ptr null, i32 0, ptr @.str.2, i8 0 }], align 16
@.str.124 = private unnamed_addr constant [36 x i8] c"Equidistant_Cylindrical_Ellipsoidal\00", align 1
@_ZN5osgeo4proj9operationL46paramsESRI_Equidistant_Cylindrical_EllipsoidalE = internal constant [5 x %"struct.osgeo::proj::operation::ESRIParamMapping"] [%"struct.osgeo::proj::operation::ESRIParamMapping" { ptr @.str, ptr @.str.1, i32 8806, ptr @.str.2, i8 0 }, %"struct.osgeo::proj::operation::ESRIParamMapping" { ptr @.str.3, ptr @.str.4, i32 8807, ptr @.str.2, i8 0 }, %"struct.osgeo::proj::operation::ESRIParamMapping" { ptr @.str.5, ptr @.str.6, i32 8802, ptr @.str.2, i8 0 }, %"struct.osgeo::proj::operation::ESRIParamMapping" { ptr @.str.7, ptr @.str.8, i32 8823, ptr @.str.2, i8 0 }, %"struct.osgeo::proj::operation::ESRIParamMapping" { ptr null, ptr null, i32 0, ptr @.str.2, i8 0 }], align 16
@.str.125 = private unnamed_addr constant [25 x i8] c"Laborde_Oblique_Mercator\00", align 1
@.str.126 = private unnamed_addr constant [25 x i8] c"Laborde Oblique Mercator\00", align 1
@_ZN5osgeo4proj9operationL35paramsESRI_Laborde_Oblique_MercatorE = internal constant [7 x %"struct.osgeo::proj::operation::ESRIParamMapping"] [%"struct.osgeo::proj::operation::ESRIParamMapping" { ptr @.str, ptr @.str.1, i32 8806, ptr @.str.2, i8 0 }, %"struct.osgeo::proj::operation::ESRIParamMapping" { ptr @.str.3, ptr @.str.4, i32 8807, ptr @.str.2, i8 0 }, %"struct.osgeo::proj::operation::ESRIParamMapping" { ptr @.str.9, ptr @.str.13, i32 8815, ptr @.str.2, i8 0 }, %"struct.osgeo::proj::operation::ESRIParamMapping" { ptr @.str.14, ptr @.str.15, i32 8813, ptr @.str.2, i8 0 }, %"struct.osgeo::proj::operation::ESRIParamMapping" { ptr @.str.16, ptr @.str.17, i32 8812, ptr @.str.2, i8 0 }, %"struct.osgeo::proj::operation::ESRIParamMapping" { ptr @.str.18, ptr @.str.19, i32 8811, ptr @.str.2, i8 0 }, %"struct.osgeo::proj::operation::ESRIParamMapping" { ptr null, ptr null, i32 0, ptr @.str.2, i8 0 }], align 16
@.str.127 = private unnamed_addr constant [21 x i8] c"Gnomonic_Ellipsoidal\00", align 1
@_ZN5osgeo4proj9operationL31paramsESRI_Gnomonic_EllipsoidalE = internal constant [5 x %"struct.osgeo::proj::operation::ESRIParamMapping"] [%"struct.osgeo::proj::operation::ESRIParamMapping" { ptr @.str, ptr @.str.1, i32 8806, ptr @.str.2, i8 0 }, %"struct.osgeo::proj::operation::ESRIParamMapping" { ptr @.str.3, ptr @.str.4, i32 8807, ptr @.str.2, i8 0 }, %"struct.osgeo::proj::operation::ESRIParamMapping" { ptr @.str.16, ptr @.str.6, i32 8802, ptr @.str.2, i8 0 }, %"struct.osgeo::proj::operation::ESRIParamMapping" { ptr @.str.18, ptr @.str.12, i32 8801, ptr @.str.2, i8 0 }, %"struct.osgeo::proj::operation::ESRIParamMapping" { ptr null, ptr null, i32 0, ptr @.str.2, i8 0 }], align 16
@.str.128 = private unnamed_addr constant [10 x i8] c"Wagner_IV\00", align 1
@.str.129 = private unnamed_addr constant [10 x i8] c"Wagner IV\00", align 1
@_ZN5osgeo4proj9operationL20paramsESRI_Wagner_IVE = internal constant [5 x %"struct.osgeo::proj::operation::ESRIParamMapping"] [%"struct.osgeo::proj::operation::ESRIParamMapping" { ptr @.str, ptr @.str.1, i32 8806, ptr @.str.2, i8 0 }, %"struct.osgeo::proj::operation::ESRIParamMapping" { ptr @.str.3, ptr @.str.4, i32 8807, ptr @.str.2, i8 0 }, %"struct.osgeo::proj::operation::ESRIParamMapping" { ptr @.str.5, ptr @.str.6, i32 8802, ptr @.str.2, i8 0 }, %"struct.osgeo::proj::operation::ESRIParamMapping" { ptr @.str.11, ptr null, i32 0, ptr @.str.2, i8 0 }, %"struct.osgeo::proj::operation::ESRIParamMapping" { ptr null, ptr null, i32 0, ptr @.str.2, i8 0 }], align 16
@.str.130 = private unnamed_addr constant [9 x i8] c"Wagner_V\00", align 1
@.str.131 = private unnamed_addr constant [9 x i8] c"Wagner V\00", align 1
@_ZN5osgeo4proj9operationL19paramsESRI_Wagner_VE = internal constant [4 x %"struct.osgeo::proj::operation::ESRIParamMapping"] [%"struct.osgeo::proj::operation::ESRIParamMapping" { ptr @.str, ptr @.str.1, i32 8806, ptr @.str.2, i8 0 }, %"struct.osgeo::proj::operation::ESRIParamMapping" { ptr @.str.3, ptr @.str.4, i32 8807, ptr @.str.2, i8 0 }, %"struct.osgeo::proj::operation::ESRIParamMapping" { ptr @.str.5, ptr @.str.6, i32 8802, ptr @.str.2, i8 0 }, %"struct.osgeo::proj::operation::ESRIParamMapping" { ptr null, ptr null, i32 0, ptr @.str.2, i8 0 }], align 16
@.str.132 = private unnamed_addr constant [11 x i8] c"Wagner_VII\00", align 1
@.str.133 = private unnamed_addr constant [11 x i8] c"Wagner VII\00", align 1
@_ZN5osgeo4proj9operationL21paramsESRI_Wagner_VIIE = internal constant [4 x %"struct.osgeo::proj::operation::ESRIParamMapping"] [%"struct.osgeo::proj::operation::ESRIParamMapping" { ptr @.str, ptr @.str.1, i32 8806, ptr @.str.2, i8 0 }, %"struct.osgeo::proj::operation::ESRIParamMapping" { ptr @.str.3, ptr @.str.4, i32 8807, ptr @.str.2, i8 0 }, %"struct.osgeo::proj::operation::ESRIParamMapping" { ptr @.str.5, ptr @.str.6, i32 8802, ptr @.str.2, i8 0 }, %"struct.osgeo::proj::operation::ESRIParamMapping" { ptr null, ptr null, i32 0, ptr @.str.2, i8 0 }], align 16
@.str.134 = private unnamed_addr constant [14 x i8] c"Natural_Earth\00", align 1
@.str.135 = private unnamed_addr constant [14 x i8] c"Natural Earth\00", align 1
@_ZN5osgeo4proj9operationL24paramsESRI_Natural_EarthE = internal constant [4 x %"struct.osgeo::proj::operation::ESRIParamMapping"] [%"struct.osgeo::proj::operation::ESRIParamMapping" { ptr @.str, ptr @.str.1, i32 8806, ptr @.str.2, i8 0 }, %"struct.osgeo::proj::operation::ESRIParamMapping" { ptr @.str.3, ptr @.str.4, i32 8807, ptr @.str.2, i8 0 }, %"struct.osgeo::proj::operation::ESRIParamMapping" { ptr @.str.5, ptr @.str.6, i32 8802, ptr @.str.2, i8 0 }, %"struct.osgeo::proj::operation::ESRIParamMapping" { ptr null, ptr null, i32 0, ptr @.str.2, i8 0 }], align 16
@.str.136 = private unnamed_addr constant [17 x i8] c"Natural_Earth_II\00", align 1
@.str.137 = private unnamed_addr constant [17 x i8] c"Natural Earth II\00", align 1
@_ZN5osgeo4proj9operationL27paramsESRI_Natural_Earth_IIE = internal constant [4 x %"struct.osgeo::proj::operation::ESRIParamMapping"] [%"struct.osgeo::proj::operation::ESRIParamMapping" { ptr @.str, ptr @.str.1, i32 8806, ptr @.str.2, i8 0 }, %"struct.osgeo::proj::operation::ESRIParamMapping" { ptr @.str.3, ptr @.str.4, i32 8807, ptr @.str.2, i8 0 }, %"struct.osgeo::proj::operation::ESRIParamMapping" { ptr @.str.5, ptr @.str.6, i32 8802, ptr @.str.2, i8 0 }, %"struct.osgeo::proj::operation::ESRIParamMapping" { ptr null, ptr null, i32 0, ptr @.str.2, i8 0 }], align 16
@.str.138 = private unnamed_addr constant [10 x i8] c"Patterson\00", align 1
@_ZN5osgeo4proj9operationL20paramsESRI_PattersonE = internal constant [4 x %"struct.osgeo::proj::operation::ESRIParamMapping"] [%"struct.osgeo::proj::operation::ESRIParamMapping" { ptr @.str, ptr @.str.1, i32 8806, ptr @.str.2, i8 0 }, %"struct.osgeo::proj::operation::ESRIParamMapping" { ptr @.str.3, ptr @.str.4, i32 8807, ptr @.str.2, i8 0 }, %"struct.osgeo::proj::operation::ESRIParamMapping" { ptr @.str.5, ptr @.str.6, i32 8802, ptr @.str.2, i8 0 }, %"struct.osgeo::proj::operation::ESRIParamMapping" { ptr null, ptr null, i32 0, ptr @.str.2, i8 0 }], align 16
@.str.139 = private unnamed_addr constant [15 x i8] c"Compact_Miller\00", align 1
@.str.140 = private unnamed_addr constant [15 x i8] c"Compact Miller\00", align 1
@_ZN5osgeo4proj9operationL25paramsESRI_Compact_MillerE = internal constant [4 x %"struct.osgeo::proj::operation::ESRIParamMapping"] [%"struct.osgeo::proj::operation::ESRIParamMapping" { ptr @.str, ptr @.str.1, i32 8806, ptr @.str.2, i8 0 }, %"struct.osgeo::proj::operation::ESRIParamMapping" { ptr @.str.3, ptr @.str.4, i32 8807, ptr @.str.2, i8 0 }, %"struct.osgeo::proj::operation::ESRIParamMapping" { ptr @.str.5, ptr @.str.6, i32 8802, ptr @.str.2, i8 0 }, %"struct.osgeo::proj::operation::ESRIParamMapping" { ptr null, ptr null, i32 0, ptr @.str.2, i8 0 }], align 16
@.str.141 = private unnamed_addr constant [24 x i8] c"Geostationary_Satellite\00", align 1
@.str.142 = private unnamed_addr constant [34 x i8] c"Geostationary Satellite (Sweep Y)\00", align 1
@_ZN5osgeo4proj9operationL34paramsESRI_Geostationary_SatelliteE = internal constant [6 x %"struct.osgeo::proj::operation::ESRIParamMapping"] [%"struct.osgeo::proj::operation::ESRIParamMapping" { ptr @.str, ptr @.str.1, i32 8806, ptr @.str.2, i8 0 }, %"struct.osgeo::proj::operation::ESRIParamMapping" { ptr @.str.3, ptr @.str.4, i32 8807, ptr @.str.2, i8 0 }, %"struct.osgeo::proj::operation::ESRIParamMapping" { ptr @.str.16, ptr @.str.6, i32 8802, ptr @.str.2, i8 0 }, %"struct.osgeo::proj::operation::ESRIParamMapping" { ptr @.str.187, ptr @.str.192, i32 0, ptr @.str.2, i8 0 }, %"struct.osgeo::proj::operation::ESRIParamMapping" { ptr @.str.190, ptr null, i32 0, ptr @.str.2, i8 0 }, %"struct.osgeo::proj::operation::ESRIParamMapping" { ptr null, ptr null, i32 0, ptr @.str.2, i8 0 }], align 16
@.str.143 = private unnamed_addr constant [26 x i8] c"Mercator_Auxiliary_Sphere\00", align 1
@.str.144 = private unnamed_addr constant [38 x i8] c"Popular Visualisation Pseudo Mercator\00", align 1
@_ZN5osgeo4proj9operationL36paramsESRI_Mercator_Auxiliary_SphereE = internal constant [6 x %"struct.osgeo::proj::operation::ESRIParamMapping"] [%"struct.osgeo::proj::operation::ESRIParamMapping" { ptr @.str, ptr @.str.1, i32 8806, ptr @.str.2, i8 0 }, %"struct.osgeo::proj::operation::ESRIParamMapping" { ptr @.str.3, ptr @.str.4, i32 8807, ptr @.str.2, i8 0 }, %"struct.osgeo::proj::operation::ESRIParamMapping" { ptr @.str.5, ptr @.str.6, i32 8802, ptr @.str.2, i8 0 }, %"struct.osgeo::proj::operation::ESRIParamMapping" { ptr @.str.7, ptr @.str.12, i32 8801, ptr @.str.2, i8 0 }, %"struct.osgeo::proj::operation::ESRIParamMapping" { ptr @.str.193, ptr null, i32 0, ptr @.str.2, i8 0 }, %"struct.osgeo::proj::operation::ESRIParamMapping" { ptr null, ptr null, i32 0, ptr @.str.2, i8 0 }], align 16
@.str.145 = private unnamed_addr constant [19 x i8] c"Mercator_Variant_A\00", align 1
@.str.146 = private unnamed_addr constant [21 x i8] c"Mercator (variant A)\00", align 1
@_ZN5osgeo4proj9operationL29paramsESRI_Mercator_Variant_AE = internal constant [5 x %"struct.osgeo::proj::operation::ESRIParamMapping"] [%"struct.osgeo::proj::operation::ESRIParamMapping" { ptr @.str, ptr @.str.1, i32 8806, ptr @.str.2, i8 0 }, %"struct.osgeo::proj::operation::ESRIParamMapping" { ptr @.str.3, ptr @.str.4, i32 8807, ptr @.str.2, i8 0 }, %"struct.osgeo::proj::operation::ESRIParamMapping" { ptr @.str.5, ptr @.str.6, i32 8802, ptr @.str.2, i8 0 }, %"struct.osgeo::proj::operation::ESRIParamMapping" { ptr @.str.9, ptr @.str.10, i32 8805, ptr @.str.2, i8 0 }, %"struct.osgeo::proj::operation::ESRIParamMapping" { ptr null, ptr null, i32 0, ptr @.str.2, i8 0 }], align 16
@.str.147 = private unnamed_addr constant [19 x i8] c"Mercator_Variant_C\00", align 1
@_ZN5osgeo4proj9operationL29paramsESRI_Mercator_Variant_CE = internal constant [6 x %"struct.osgeo::proj::operation::ESRIParamMapping"] [%"struct.osgeo::proj::operation::ESRIParamMapping" { ptr @.str, ptr @.str.1, i32 8806, ptr @.str.2, i8 0 }, %"struct.osgeo::proj::operation::ESRIParamMapping" { ptr @.str.3, ptr @.str.4, i32 8807, ptr @.str.2, i8 0 }, %"struct.osgeo::proj::operation::ESRIParamMapping" { ptr @.str.5, ptr @.str.6, i32 8802, ptr @.str.2, i8 0 }, %"struct.osgeo::proj::operation::ESRIParamMapping" { ptr @.str.7, ptr @.str.8, i32 8823, ptr @.str.2, i8 0 }, %"struct.osgeo::proj::operation::ESRIParamMapping" { ptr @.str.11, ptr null, i32 0, ptr @.str.2, i8 0 }, %"struct.osgeo::proj::operation::ESRIParamMapping" { ptr null, ptr null, i32 0, ptr @.str.2, i8 0 }], align 16
@.str.148 = private unnamed_addr constant [34 x i8] c"Transverse_Cylindrical_Equal_Area\00", align 1
@.str.149 = private unnamed_addr constant [34 x i8] c"Transverse Cylindrical Equal Area\00", align 1
@_ZN5osgeo4proj9operationL44paramsESRI_Transverse_Cylindrical_Equal_AreaE = internal constant [6 x %"struct.osgeo::proj::operation::ESRIParamMapping"] [%"struct.osgeo::proj::operation::ESRIParamMapping" { ptr @.str, ptr @.str.1, i32 8806, ptr @.str.2, i8 0 }, %"struct.osgeo::proj::operation::ESRIParamMapping" { ptr @.str.3, ptr @.str.4, i32 8807, ptr @.str.2, i8 0 }, %"struct.osgeo::proj::operation::ESRIParamMapping" { ptr @.str.5, ptr @.str.6, i32 8802, ptr @.str.2, i8 0 }, %"struct.osgeo::proj::operation::ESRIParamMapping" { ptr @.str.9, ptr @.str.10, i32 8805, ptr @.str.2, i8 0 }, %"struct.osgeo::proj::operation::ESRIParamMapping" { ptr @.str.11, ptr @.str.12, i32 8801, ptr @.str.2, i8 0 }, %"struct.osgeo::proj::operation::ESRIParamMapping" { ptr null, ptr null, i32 0, ptr @.str.2, i8 0 }], align 16
@.str.150 = private unnamed_addr constant [22 x i8] c"IGAC_Plano_Cartesiano\00", align 1
@.str.151 = private unnamed_addr constant [15 x i8] c"Colombia Urban\00", align 1
@_ZN5osgeo4proj9operationL32paramsESRI_IGAC_Plano_CartesianoE = internal constant [6 x %"struct.osgeo::proj::operation::ESRIParamMapping"] [%"struct.osgeo::proj::operation::ESRIParamMapping" { ptr @.str, ptr @.str.1, i32 8806, ptr @.str.2, i8 0 }, %"struct.osgeo::proj::operation::ESRIParamMapping" { ptr @.str.3, ptr @.str.4, i32 8807, ptr @.str.2, i8 0 }, %"struct.osgeo::proj::operation::ESRIParamMapping" { ptr @.str.16, ptr @.str.6, i32 8802, ptr @.str.2, i8 0 }, %"struct.osgeo::proj::operation::ESRIParamMapping" { ptr @.str.18, ptr @.str.12, i32 8801, ptr @.str.2, i8 0 }, %"struct.osgeo::proj::operation::ESRIParamMapping" { ptr @.str.187, ptr @.str.194, i32 1039, ptr @.str.2, i8 0 }, %"struct.osgeo::proj::operation::ESRIParamMapping" { ptr null, ptr null, i32 0, ptr @.str.2, i8 0 }], align 16
@.str.152 = private unnamed_addr constant [12 x i8] c"Equal_Earth\00", align 1
@.str.153 = private unnamed_addr constant [12 x i8] c"Equal Earth\00", align 1
@_ZN5osgeo4proj9operationL22paramsESRI_Equal_EarthE = internal constant [4 x %"struct.osgeo::proj::operation::ESRIParamMapping"] [%"struct.osgeo::proj::operation::ESRIParamMapping" { ptr @.str, ptr @.str.1, i32 8806, ptr @.str.2, i8 0 }, %"struct.osgeo::proj::operation::ESRIParamMapping" { ptr @.str.3, ptr @.str.4, i32 8807, ptr @.str.2, i8 0 }, %"struct.osgeo::proj::operation::ESRIParamMapping" { ptr @.str.5, ptr @.str.6, i32 8802, ptr @.str.2, i8 0 }, %"struct.osgeo::proj::operation::ESRIParamMapping" { ptr null, ptr null, i32 0, ptr @.str.2, i8 0 }], align 16
@.str.154 = private unnamed_addr constant [19 x i8] c"Peirce_Quincuncial\00", align 1
@.str.155 = private unnamed_addr constant [28 x i8] c"Peirce Quincuncial (Square)\00", align 1
@_ZN5osgeo4proj9operationL34paramsESRI_Peirce_Quincuncial_alt1E = internal constant [7 x %"struct.osgeo::proj::operation::ESRIParamMapping"] [%"struct.osgeo::proj::operation::ESRIParamMapping" { ptr @.str, ptr @.str.1, i32 8806, ptr @.str.2, i8 0 }, %"struct.osgeo::proj::operation::ESRIParamMapping" { ptr @.str.3, ptr @.str.4, i32 8807, ptr @.str.2, i8 0 }, %"struct.osgeo::proj::operation::ESRIParamMapping" { ptr @.str.5, ptr @.str.6, i32 8802, ptr @.str.2, i8 0 }, %"struct.osgeo::proj::operation::ESRIParamMapping" { ptr @.str.9, ptr @.str.10, i32 8805, ptr @.str.2, i8 0 }, %"struct.osgeo::proj::operation::ESRIParamMapping" { ptr @.str.11, ptr @.str.12, i32 8801, ptr @.str.2, i8 0 }, %"struct.osgeo::proj::operation::ESRIParamMapping" { ptr @.str.190, ptr null, i32 0, ptr @.str.2, i8 0 }, %"struct.osgeo::proj::operation::ESRIParamMapping" { ptr null, ptr null, i32 0, ptr @.str.2, i8 0 }], align 16
@.str.156 = private unnamed_addr constant [29 x i8] c"Peirce Quincuncial (Diamond)\00", align 1
@_ZN5osgeo4proj9operationL34paramsESRI_Peirce_Quincuncial_alt2E = internal constant [7 x %"struct.osgeo::proj::operation::ESRIParamMapping"] [%"struct.osgeo::proj::operation::ESRIParamMapping" { ptr @.str, ptr @.str.1, i32 8806, ptr @.str.2, i8 0 }, %"struct.osgeo::proj::operation::ESRIParamMapping" { ptr @.str.3, ptr @.str.4, i32 8807, ptr @.str.2, i8 0 }, %"struct.osgeo::proj::operation::ESRIParamMapping" { ptr @.str.5, ptr @.str.6, i32 8802, ptr @.str.2, i8 0 }, %"struct.osgeo::proj::operation::ESRIParamMapping" { ptr @.str.9, ptr @.str.10, i32 8805, ptr @.str.2, i8 0 }, %"struct.osgeo::proj::operation::ESRIParamMapping" { ptr @.str.11, ptr @.str.12, i32 8801, ptr @.str.2, i8 0 }, %"struct.osgeo::proj::operation::ESRIParamMapping" { ptr @.str.190, ptr null, i32 0, ptr @.str.163, i8 0 }, %"struct.osgeo::proj::operation::ESRIParamMapping" { ptr null, ptr null, i32 0, ptr @.str.2, i8 0 }], align 16
@.str.157 = private unnamed_addr constant [24 x i8] c"Easting at false origin\00", align 1
@.str.158 = private unnamed_addr constant [25 x i8] c"Northing at false origin\00", align 1
@.str.159 = private unnamed_addr constant [26 x i8] c"Longitude of false origin\00", align 1
@.str.160 = private unnamed_addr constant [20 x i8] c"Standard_Parallel_2\00", align 1
@.str.161 = private unnamed_addr constant [34 x i8] c"Latitude of 2nd standard parallel\00", align 1
@.str.162 = private unnamed_addr constant [25 x i8] c"Latitude of false origin\00", align 1
@.str.163 = private unnamed_addr constant [4 x i8] c"1.0\00", align 1
@.str.164 = private unnamed_addr constant [25 x i8] c"Ellipsoid scaling factor\00", align 1
@.str.165 = private unnamed_addr constant [17 x i8] c"Central_Parallel\00", align 1
@.str.166 = private unnamed_addr constant [22 x i8] c"Latitude_Of_1st_Point\00", align 1
@.str.167 = private unnamed_addr constant [22 x i8] c"Latitude of 1st point\00", align 1
@.str.168 = private unnamed_addr constant [22 x i8] c"Latitude_Of_2nd_Point\00", align 1
@.str.169 = private unnamed_addr constant [22 x i8] c"Latitude of 2nd point\00", align 1
@.str.170 = private unnamed_addr constant [23 x i8] c"Longitude_Of_1st_Point\00", align 1
@.str.171 = private unnamed_addr constant [23 x i8] c"Longitude of 1st point\00", align 1
@.str.172 = private unnamed_addr constant [23 x i8] c"Longitude_Of_2nd_Point\00", align 1
@.str.173 = private unnamed_addr constant [23 x i8] c"Longitude of 2nd point\00", align 1
@.str.174 = private unnamed_addr constant [5 x i8] c"30.0\00", align 1
@.str.175 = private unnamed_addr constant [27 x i8] c"Pseudo_Standard_Parallel_1\00", align 1
@.str.176 = private unnamed_addr constant [37 x i8] c"Latitude of pseudo standard parallel\00", align 1
@.str.177 = private unnamed_addr constant [41 x i8] c"Scale factor on pseudo standard parallel\00", align 1
@.str.178 = private unnamed_addr constant [25 x i8] c"Co-latitude of cone axis\00", align 1
@.str.179 = private unnamed_addr constant [20 x i8] c"Longitude of origin\00", align 1
@.str.180 = private unnamed_addr constant [8 x i8] c"X_Scale\00", align 1
@.str.181 = private unnamed_addr constant [8 x i8] c"Y_Scale\00", align 1
@.str.182 = private unnamed_addr constant [5 x i8] c"-1.0\00", align 1
@.str.183 = private unnamed_addr constant [5 x i8] c"90.0\00", align 1
@.str.184 = private unnamed_addr constant [20 x i8] c"Longitude_Of_Origin\00", align 1
@.str.185 = private unnamed_addr constant [32 x i8] c"Longitude of topocentric origin\00", align 1
@.str.186 = private unnamed_addr constant [31 x i8] c"Latitude of topocentric origin\00", align 1
@.str.187 = private unnamed_addr constant [7 x i8] c"Height\00", align 1
@.str.188 = private unnamed_addr constant [17 x i8] c"Viewpoint height\00", align 1
@.str.189 = private unnamed_addr constant [30 x i8] c"Latitude of standard parallel\00", align 1
@.str.190 = private unnamed_addr constant [7 x i8] c"Option\00", align 1
@.str.191 = private unnamed_addr constant [4 x i8] c"2.0\00", align 1
@.str.192 = private unnamed_addr constant [17 x i8] c"Satellite Height\00", align 1
@.str.193 = private unnamed_addr constant [22 x i8] c"Auxiliary_Sphere_Type\00", align 1
@.str.194 = private unnamed_addr constant [31 x i8] c"Projection plane origin height\00", align 1
@.str.195 = private unnamed_addr constant [26 x i8] c"vector::_M_realloc_append\00", align 1

; Function Attrs: mustprogress nofree norecurse nosync nounwind sspstrong willreturn memory(argmem: write) uwtable
define hidden noundef nonnull ptr @_ZN5osgeo4proj9operation15getEsriMappingsERm(ptr noundef nonnull writeonly align 8 captures(none) dereferenceable(8) initializes((0, 8)) %0) local_unnamed_addr #0 {
  store i64 82, ptr %0, align 8, !tbaa !4
  ret ptr @_ZN5osgeo4proj9operationL12esriMappingsE
}

; Function Attrs: mustprogress sspstrong uwtable
define hidden void @_ZN5osgeo4proj9operation19getMappingsFromESRIERKNSt7__cxx1112basic_stringIcSt11char_traitsIcESaIcEEE(ptr dead_on_unwind noalias writable writeonly sret(%"class.std::vector") align 8 captures(none) initializes((0, 24)) %0, ptr noundef nonnull align 8 dereferenceable(32) %1) local_unnamed_addr #1 personality ptr @__gxx_personality_v0 {
  tail call void @llvm.memset.p0.i64(ptr noundef nonnull align 8 dereferenceable(24) %0, i8 0, i64 24, i1 false)
  %3 = getelementptr inbounds nuw i8, ptr %0, i64 8
  %4 = getelementptr inbounds nuw i8, ptr %0, i64 16
  br label %5

5:                                                ; preds = %2, %51
  %6 = phi ptr [ null, %2 ], [ %52, %51 ]
  %7 = phi ptr [ null, %2 ], [ %53, %51 ]
  %8 = phi i64 [ 0, %2 ], [ %55, %51 ]
  %9 = phi ptr [ null, %2 ], [ %54, %51 ]
  %10 = getelementptr inbounds nuw i8, ptr @_ZN5osgeo4proj9operationL12esriMappingsE, i64 %8
  %11 = load ptr, ptr %10, align 16, !tbaa !8
  %12 = tail call noundef zeroext i1 @_ZN5osgeo4proj8internal8ci_equalERKNSt7__cxx1112basic_stringIcSt11char_traitsIcESaIcEEEPKc(ptr noundef nonnull align 8 dereferenceable(32) %1, ptr noundef %11) #10
  br i1 %12, label %13, label %51

13:                                               ; preds = %5
  %14 = icmp eq ptr %7, %6
  br i1 %14, label %17, label %15

15:                                               ; preds = %13
  store ptr %10, ptr %7, align 8, !tbaa !14
  %16 = getelementptr inbounds nuw i8, ptr %7, i64 8
  store ptr %16, ptr %3, align 8, !tbaa !16
  br label %51

17:                                               ; preds = %13
  %18 = ptrtoint ptr %6 to i64
  %19 = ptrtoint ptr %9 to i64
  %20 = sub i64 %18, %19
  %21 = ashr exact i64 %20, 3
  %22 = icmp sgt i64 %21, -1
  tail call void @llvm.assume(i1 %22)
  %23 = icmp eq i64 %20, 9223372036854775800
  br i1 %23, label %24, label %26

24:                                               ; preds = %17
  store ptr %9, ptr %0, align 8
  invoke void @_ZSt20__throw_length_errorPKc(ptr noundef nonnull @.str.195) #11
          to label %25 unwind label %44

25:                                               ; preds = %24
  unreachable

26:                                               ; preds = %17
  %27 = tail call i64 @llvm.umax.i64(i64 %21, i64 1)
  %28 = add nuw nsw i64 %27, %21
  %29 = tail call noundef i64 @llvm.umin.i64(i64 %28, i64 1152921504606846975)
  %30 = shl nuw nsw i64 %29, 3
  %31 = invoke noalias noundef nonnull ptr @_Znwm(i64 noundef %30) #12
          to label %32 unwind label %42

32:                                               ; preds = %26
  %33 = getelementptr inbounds i8, ptr %31, i64 %20
  store ptr %10, ptr %33, align 8, !tbaa !14
  %34 = icmp sgt i64 %20, 0
  br i1 %34, label %35, label %36

35:                                               ; preds = %32
  tail call void @llvm.memcpy.p0.p0.i64(ptr nonnull align 8 %31, ptr align 8 %9, i64 %20, i1 false)
  br label %36

36:                                               ; preds = %35, %32
  %37 = icmp eq ptr %9, null
  br i1 %37, label %39, label %38

38:                                               ; preds = %36
  tail call void @_ZdlPvm(ptr noundef nonnull %9, i64 noundef %20) #13
  br label %39

39:                                               ; preds = %38, %36
  %40 = getelementptr inbounds nuw i8, ptr %33, i64 8
  store ptr %40, ptr %3, align 8, !tbaa !16
  %41 = getelementptr inbounds nuw ptr, ptr %31, i64 %29
  store ptr %41, ptr %4, align 8, !tbaa !20
  br label %51

42:                                               ; preds = %26
  %43 = landingpad { ptr, i32 }
          cleanup
  store ptr %9, ptr %0, align 8
  br label %46

44:                                               ; preds = %24
  %45 = landingpad { ptr, i32 }
          cleanup
  br label %46

46:                                               ; preds = %44, %42
  %47 = phi { ptr, i32 } [ %43, %42 ], [ %45, %44 ]
  %48 = icmp eq ptr %9, null
  br i1 %48, label %50, label %49

49:                                               ; preds = %46
  tail call void @_ZdlPvm(ptr noundef nonnull %9, i64 noundef %20) #13
  br label %50

50:                                               ; preds = %46, %49
  resume { ptr, i32 } %47

51:                                               ; preds = %15, %39, %5
  %52 = phi ptr [ %6, %15 ], [ %41, %39 ], [ %6, %5 ]
  %53 = phi ptr [ %16, %15 ], [ %40, %39 ], [ %7, %5 ]
  %54 = phi ptr [ %9, %15 ], [ %31, %39 ], [ %9, %5 ]
  %55 = add nuw nsw i64 %8, 32
  %56 = icmp eq i64 %55, 2624
  br i1 %56, label %57, label %5

57:                                               ; preds = %51
  store ptr %54, ptr %0, align 8
  ret void
}

; Function Attrs: nounwind
declare noundef zeroext i1 @_ZN5osgeo4proj8internal8ci_equalERKNSt7__cxx1112basic_stringIcSt11char_traitsIcESaIcEEEPKc(ptr noundef nonnull align 8 dereferenceable(32), ptr noundef) local_unnamed_addr #2

declare i32 @__gxx_personality_v0(...)

; Function Attrs: nobuiltin nounwind
declare void @_ZdlPvm(ptr noundef, i64 noundef) local_unnamed_addr #3

; Function Attrs: cold noreturn
declare void @_ZSt20__throw_length_errorPKc(ptr noundef) local_unnamed_addr #4

; Function Attrs: nobuiltin allocsize(0)
declare noalias noundef nonnull ptr @_Znwm(i64 noundef) local_unnamed_addr #5

; Function Attrs: mustprogress nocallback nofree nounwind willreturn memory(argmem: readwrite)
declare void @llvm.memcpy.p0.p0.i64(ptr noalias writeonly captures(none), ptr noalias readonly captures(none), i64, i1 immarg) #6

; Function Attrs: nocallback nofree nosync nounwind willreturn memory(inaccessiblemem: write)
declare void @llvm.assume(i1 noundef) #7

; Function Attrs: nocallback nofree nounwind willreturn memory(argmem: write)
declare void @llvm.memset.p0.i64(ptr writeonly captures(none), i8, i64, i1 immarg) #8

; Function Attrs: nocallback nofree nosync nounwind speculatable willreturn memory(none)
declare i64 @llvm.umax.i64(i64, i64) #9

; Function Attrs: nocallback nofree nosync nounwind speculatable willreturn memory(none)
declare i64 @llvm.umin.i64(i64, i64) #9

attributes #0 = { mustprogress nofree norecurse nosync nounwind sspstrong willreturn memory(argmem: write) uwtable "min-legal-vector-width"="0" "no-trapping-math"="true" "stack-protector-buffer-size"="8" "target-cpu"="x86-64" "target-features"="+cmov,+cx8,+fxsr,+mmx,+sse,+sse2,+x87" "tune-cpu"="generic" }
attributes #1 = { mustprogress sspstrong uwtable "min-legal-vector-width"="0" "no-trapping-math"="true" "stack-protector-buffer-size"="8" "target-cpu"="x86-64" "target-features"="+cmov,+cx8,+fxsr,+mmx,+sse,+sse2,+x87" "tune-cpu"="generic" }
attributes #2 = { nounwind "no-trapping-math"="true" "stack-protector-buffer-size"="8" "target-cpu"="x86-64" "target-features"="+cmov,+cx8,+fxsr,+mmx,+sse,+sse2,+x87" "tune-cpu"="generic" }
attributes #3 = { nobuiltin nounwind "no-trapping-math"="true" "stack-protector-buffer-size"="8" "target-cpu"="x86-64" "target-features"="+cmov,+cx8,+fxsr,+mmx,+sse,+sse2,+x87" "tune-cpu"="generic" }
attributes #4 = { cold noreturn "no-trapping-math"="true" "stack-protector-buffer-size"="8" "target-cpu"="x86-64" "target-features"="+cmov,+cx8,+fxsr,+mmx,+sse,+sse2,+x87" "tune-cpu"="generic" }
attributes #5 = { nobuiltin allocsize(0) "no-trapping-math"="true" "stack-protector-buffer-size"="8" "target-cpu"="x86-64" "target-features"="+cmov,+cx8,+fxsr,+mmx,+sse,+sse2,+x87" "tune-cpu"="generic" }
attributes #6 = { mustprogress nocallback nofree nounwind willreturn memory(argmem: readwrite) }
attributes #7 = { nocallback nofree nosync nounwind willreturn memory(inaccessiblemem: write) }
attributes #8 = { nocallback nofree nounwind willreturn memory(argmem: write) }
attributes #9 = { nocallback nofree nosync nounwind speculatable willreturn memory(none) }
attributes #10 = { nounwind }
attributes #11 = { cold noreturn }
attributes #12 = { builtin allocsize(0) }
attributes #13 = { builtin nounwind }

!llvm.module.flags = !{!0, !1, !2}
!llvm.ident = !{!3}

!0 = !{i32 1, !"wchar_size", i32 4}
!1 = !{i32 8, !"PIC Level", i32 2}
!2 = !{i32 7, !"uwtable", i32 2}
!3 = !{!"clang version 21.1.6"}
!4 = !{!5, !5, i64 0}
!5 = !{!"long", !6, i64 0}
!6 = !{!"omnipotent char", !7, i64 0}
!7 = !{!"Simple C++ TBAA"}
!8 = !{!9, !10, i64 0}
!9 = !{!"_ZTSN5osgeo4proj9operation17ESRIMethodMappingE", !10, i64 0, !10, i64 8, !12, i64 16, !13, i64 24}
!10 = !{!"p1 omnipotent char", !11, i64 0}
!11 = !{!"any pointer", !6, i64 0}
!12 = !{!"int", !6, i64 0}
!13 = !{!"p1 _ZTSN5osgeo4proj9operation16ESRIParamMappingE", !11, i64 0}
!14 = !{!15, !15, i64 0}
!15 = !{!"p1 _ZTSN5osgeo4proj9operation17ESRIMethodMappingE", !11, i64 0}
!16 = !{!17, !18, i64 8}
!17 = !{!"_ZTSNSt12_Vector_baseIPKN5osgeo4proj9operation17ESRIMethodMappingESaIS5_EE17_Vector_impl_dataE", !18, i64 0, !18, i64 8, !18, i64 16}
!18 = !{!"p2 _ZTSN5osgeo4proj9operation17ESRIMethodMappingE", !19, i64 0}
!19 = !{!"any p2 pointer", !11, i64 0}
!20 = !{!17, !18, i64 16}
