; ModuleID = '/home/mitch/Documents/PROJ/src/grids.cpp'
source_filename = "/home/mitch/Documents/PROJ/src/grids.cpp"
target datalayout = "e-m:e-p270:32:32-p271:32:32-p272:64:64-i64:64-i128:128-f80:128-n8:16:32:64-S128"
target triple = "x86_64-pc-linux-gnu"

%"class.std::__cxx11::basic_string" = type { %"struct.std::__cxx11::basic_string<char>::_Alloc_hider", i64, %union.anon }
%"struct.std::__cxx11::basic_string<char>::_Alloc_hider" = type { ptr }
%union.anon = type { i64, [8 x i8] }
%struct.TIFFFieldInfo = type { i32, i16, i16, i32, i16, i8, i8, ptr }
%"struct.std::piecewise_construct_t" = type { i8 }
%"class.std::unique_ptr.13" = type { %"struct.std::__uniq_ptr_data.14" }
%"struct.std::__uniq_ptr_data.14" = type { %"class.std::__uniq_ptr_impl.15" }
%"class.std::__uniq_ptr_impl.15" = type { %"class.std::tuple.16" }
%"class.std::tuple.16" = type { %"struct.std::_Tuple_impl.17" }
%"struct.std::_Tuple_impl.17" = type { %"struct.std::_Head_base.20" }
%"struct.std::_Head_base.20" = type { ptr }
%"struct.std::pair" = type { i32, %"class.std::__cxx11::basic_string" }
%"class.std::tuple.360" = type { %"struct.std::_Tuple_impl.361" }
%"struct.std::_Tuple_impl.361" = type { %"struct.std::_Head_base.362" }
%"struct.std::_Head_base.362" = type { ptr }
%"class.std::tuple.347" = type { i8 }
%"class.std::unique_ptr.49" = type { %"struct.std::__uniq_ptr_data.50" }
%"struct.std::__uniq_ptr_data.50" = type { %"class.std::__uniq_ptr_impl.51" }
%"class.std::__uniq_ptr_impl.51" = type { %"class.std::tuple.52" }
%"class.std::tuple.52" = type { %"struct.std::_Tuple_impl.53" }
%"struct.std::_Tuple_impl.53" = type { %"struct.std::_Head_base.56" }
%"struct.std::_Head_base.56" = type { ptr }
%"struct.osgeo::proj::ExtentAndRes" = type { i8, double, double, double, double, double, double, double, double }
%"class.std::unique_ptr.73" = type { %"struct.std::__uniq_ptr_data.74" }
%"struct.std::__uniq_ptr_data.74" = type { %"class.std::__uniq_ptr_impl.75" }
%"class.std::__uniq_ptr_impl.75" = type { %"class.std::tuple.76" }
%"class.std::tuple.76" = type { %"struct.std::_Tuple_impl.77" }
%"struct.std::_Tuple_impl.77" = type { %"struct.std::_Head_base.80" }
%"struct.std::_Head_base.80" = type { ptr }
%"class.std::unique_ptr.81" = type { %"struct.std::__uniq_ptr_data.82" }
%"struct.std::__uniq_ptr_data.82" = type { %"class.std::__uniq_ptr_impl.83" }
%"class.std::__uniq_ptr_impl.83" = type { %"class.std::tuple.84" }
%"class.std::tuple.84" = type { %"struct.std::_Tuple_impl.85" }
%"struct.std::_Tuple_impl.85" = type { %"struct.std::_Head_base.88" }
%"struct.std::_Head_base.88" = type { ptr }
%"class.std::map.89" = type { %"class.std::_Rb_tree.90" }
%"class.std::_Rb_tree.90" = type { %"struct.std::_Rb_tree<std::__cxx11::basic_string<char>, std::pair<const std::__cxx11::basic_string<char>, osgeo::proj::GTiffVGrid *>, std::_Select1st<std::pair<const std::__cxx11::basic_string<char>, osgeo::proj::GTiffVGrid *>>, std::less<std::__cxx11::basic_string<char>>>::_Rb_tree_impl" }
%"struct.std::_Rb_tree<std::__cxx11::basic_string<char>, std::pair<const std::__cxx11::basic_string<char>, osgeo::proj::GTiffVGrid *>, std::_Select1st<std::pair<const std::__cxx11::basic_string<char>, osgeo::proj::GTiffVGrid *>>, std::less<std::__cxx11::basic_string<char>>>::_Rb_tree_impl" = type { [8 x i8], %"struct.std::_Rb_tree_header" }
%"struct.std::_Rb_tree_header" = type { %"struct.std::_Rb_tree_node_base", i64 }
%"struct.std::_Rb_tree_node_base" = type { i32, ptr, ptr, ptr }
%"class.std::unique_ptr.65" = type { %"struct.std::__uniq_ptr_data.66" }
%"struct.std::__uniq_ptr_data.66" = type { %"class.std::__uniq_ptr_impl.67" }
%"class.std::__uniq_ptr_impl.67" = type { %"class.std::tuple.68" }
%"class.std::tuple.68" = type { %"struct.std::_Tuple_impl.69" }
%"struct.std::_Tuple_impl.69" = type { %"struct.std::_Head_base.72" }
%"struct.std::_Head_base.72" = type { ptr }
%"class.std::unique_ptr.95" = type { %"struct.std::__uniq_ptr_data.96" }
%"struct.std::__uniq_ptr_data.96" = type { %"class.std::__uniq_ptr_impl.97" }
%"class.std::__uniq_ptr_impl.97" = type { %"class.std::tuple.98" }
%"class.std::tuple.98" = type { %"struct.std::_Tuple_impl.99" }
%"struct.std::_Tuple_impl.99" = type { %"struct.std::_Head_base.102" }
%"struct.std::_Head_base.102" = type { ptr }
%"class.std::unique_ptr" = type { %"struct.std::__uniq_ptr_data" }
%"struct.std::__uniq_ptr_data" = type { %"class.std::__uniq_ptr_impl" }
%"class.std::__uniq_ptr_impl" = type { %"class.std::tuple" }
%"class.std::tuple" = type { %"struct.std::_Tuple_impl" }
%"struct.std::_Tuple_impl" = type { %"struct.std::_Head_base.12" }
%"struct.std::_Head_base.12" = type { ptr }
%"class.std::unique_ptr.117" = type { %"struct.std::__uniq_ptr_data.118" }
%"struct.std::__uniq_ptr_data.118" = type { %"class.std::__uniq_ptr_impl.119" }
%"class.std::__uniq_ptr_impl.119" = type { %"class.std::tuple.120" }
%"class.std::tuple.120" = type { %"struct.std::_Tuple_impl.121" }
%"struct.std::_Tuple_impl.121" = type { %"struct.std::_Head_base.124" }
%"struct.std::_Head_base.124" = type { ptr }
%"class.std::map.125" = type { %"class.std::_Rb_tree.126" }
%"class.std::_Rb_tree.126" = type { %"struct.std::_Rb_tree<std::__cxx11::basic_string<char>, std::pair<const std::__cxx11::basic_string<char>, osgeo::proj::NTv2Grid *>, std::_Select1st<std::pair<const std::__cxx11::basic_string<char>, osgeo::proj::NTv2Grid *>>, std::less<std::__cxx11::basic_string<char>>>::_Rb_tree_impl" }
%"struct.std::_Rb_tree<std::__cxx11::basic_string<char>, std::pair<const std::__cxx11::basic_string<char>, osgeo::proj::NTv2Grid *>, std::_Select1st<std::pair<const std::__cxx11::basic_string<char>, osgeo::proj::NTv2Grid *>>, std::less<std::__cxx11::basic_string<char>>>::_Rb_tree_impl" = type { [8 x i8], %"struct.std::_Rb_tree_header" }
%"class.std::unique_ptr.130" = type { %"struct.std::__uniq_ptr_data.131" }
%"struct.std::__uniq_ptr_data.131" = type { %"class.std::__uniq_ptr_impl.132" }
%"class.std::__uniq_ptr_impl.132" = type { %"class.std::tuple.133" }
%"class.std::tuple.133" = type { %"struct.std::_Tuple_impl.134" }
%"struct.std::_Tuple_impl.134" = type { %"struct.std::_Head_base.137" }
%"struct.std::_Head_base.137" = type { ptr }
%"class.std::unique_ptr.139" = type { %"struct.std::__uniq_ptr_data.140" }
%"struct.std::__uniq_ptr_data.140" = type { %"class.std::__uniq_ptr_impl.141" }
%"class.std::__uniq_ptr_impl.141" = type { %"class.std::tuple.142" }
%"class.std::tuple.142" = type { %"struct.std::_Tuple_impl.143" }
%"struct.std::_Tuple_impl.143" = type { %"struct.std::_Head_base.146" }
%"struct.std::_Head_base.146" = type { ptr }
%"class.std::tuple.375" = type { %"struct.std::_Tuple_impl.376" }
%"struct.std::_Tuple_impl.376" = type { %"struct.std::_Head_base.377" }
%"struct.std::_Head_base.377" = type { ptr }
%"class.std::unique_ptr.158" = type { %"struct.std::__uniq_ptr_data.159" }
%"struct.std::__uniq_ptr_data.159" = type { %"class.std::__uniq_ptr_impl.160" }
%"class.std::__uniq_ptr_impl.160" = type { %"class.std::tuple.161" }
%"class.std::tuple.161" = type { %"struct.std::_Tuple_impl.162" }
%"struct.std::_Tuple_impl.162" = type { %"struct.std::_Head_base.165" }
%"struct.std::_Head_base.165" = type { ptr }
%"class.std::map.166" = type { %"class.std::_Rb_tree.167" }
%"class.std::_Rb_tree.167" = type { %"struct.std::_Rb_tree<std::__cxx11::basic_string<char>, std::pair<const std::__cxx11::basic_string<char>, osgeo::proj::GTiffHGrid *>, std::_Select1st<std::pair<const std::__cxx11::basic_string<char>, osgeo::proj::GTiffHGrid *>>, std::less<std::__cxx11::basic_string<char>>>::_Rb_tree_impl" }
%"struct.std::_Rb_tree<std::__cxx11::basic_string<char>, std::pair<const std::__cxx11::basic_string<char>, osgeo::proj::GTiffHGrid *>, std::_Select1st<std::pair<const std::__cxx11::basic_string<char>, osgeo::proj::GTiffHGrid *>>, std::less<std::__cxx11::basic_string<char>>>::_Rb_tree_impl" = type { [8 x i8], %"struct.std::_Rb_tree_header" }
%"class.std::unique_ptr.149" = type { %"struct.std::__uniq_ptr_data.150" }
%"struct.std::__uniq_ptr_data.150" = type { %"class.std::__uniq_ptr_impl.151" }
%"class.std::__uniq_ptr_impl.151" = type { %"class.std::tuple.152" }
%"class.std::tuple.152" = type { %"struct.std::_Tuple_impl.153" }
%"struct.std::_Tuple_impl.153" = type { %"struct.std::_Head_base.156" }
%"struct.std::_Head_base.156" = type { ptr }
%"class.std::unique_ptr.171" = type { %"struct.std::__uniq_ptr_data.172" }
%"struct.std::__uniq_ptr_data.172" = type { %"class.std::__uniq_ptr_impl.173" }
%"class.std::__uniq_ptr_impl.173" = type { %"class.std::tuple.174" }
%"class.std::tuple.174" = type { %"struct.std::_Tuple_impl.175" }
%"struct.std::_Tuple_impl.175" = type { %"struct.std::_Head_base.178" }
%"struct.std::_Head_base.178" = type { ptr }
%"class.std::unique_ptr.212" = type { %"struct.std::__uniq_ptr_data.213" }
%"struct.std::__uniq_ptr_data.213" = type { %"class.std::__uniq_ptr_impl.214" }
%"class.std::__uniq_ptr_impl.214" = type { %"class.std::tuple.215" }
%"class.std::tuple.215" = type { %"struct.std::_Tuple_impl.216" }
%"struct.std::_Tuple_impl.216" = type { %"struct.std::_Head_base.219" }
%"struct.std::_Head_base.219" = type { ptr }
%"class.std::unique_ptr.220" = type { %"struct.std::__uniq_ptr_data.221" }
%"struct.std::__uniq_ptr_data.221" = type { %"class.std::__uniq_ptr_impl.222" }
%"class.std::__uniq_ptr_impl.222" = type { %"class.std::tuple.223" }
%"class.std::tuple.223" = type { %"struct.std::_Tuple_impl.224" }
%"struct.std::_Tuple_impl.224" = type { %"struct.std::_Head_base.227" }
%"struct.std::_Head_base.227" = type { ptr }
%"class.std::map.228" = type { %"class.std::_Rb_tree.229" }
%"class.std::_Rb_tree.229" = type { %"struct.std::_Rb_tree<std::__cxx11::basic_string<char>, std::pair<const std::__cxx11::basic_string<char>, osgeo::proj::GTiffGenericGrid *>, std::_Select1st<std::pair<const std::__cxx11::basic_string<char>, osgeo::proj::GTiffGenericGrid *>>, std::less<std::__cxx11::basic_string<char>>>::_Rb_tree_impl" }
%"struct.std::_Rb_tree<std::__cxx11::basic_string<char>, std::pair<const std::__cxx11::basic_string<char>, osgeo::proj::GTiffGenericGrid *>, std::_Select1st<std::pair<const std::__cxx11::basic_string<char>, osgeo::proj::GTiffGenericGrid *>>, std::less<std::__cxx11::basic_string<char>>>::_Rb_tree_impl" = type { [8 x i8], %"struct.std::_Rb_tree_header" }
%"class.std::unique_ptr.203" = type { %"struct.std::__uniq_ptr_data.204" }
%"struct.std::__uniq_ptr_data.204" = type { %"class.std::__uniq_ptr_impl.205" }
%"class.std::__uniq_ptr_impl.205" = type { %"class.std::tuple.206" }
%"class.std::tuple.206" = type { %"struct.std::_Tuple_impl.207" }
%"struct.std::_Tuple_impl.207" = type { %"struct.std::_Head_base.210" }
%"struct.std::_Head_base.210" = type { ptr }
%"class.std::unique_ptr.233" = type { %"struct.std::__uniq_ptr_data.234" }
%"struct.std::__uniq_ptr_data.234" = type { %"class.std::__uniq_ptr_impl.235" }
%"class.std::__uniq_ptr_impl.235" = type { %"class.std::tuple.236" }
%"class.std::tuple.236" = type { %"struct.std::_Tuple_impl.237" }
%"struct.std::_Tuple_impl.237" = type { %"struct.std::_Head_base.240" }
%"struct.std::_Head_base.240" = type { ptr }
%"class.std::vector.250" = type { %"struct.std::_Vector_base.251" }
%"struct.std::_Vector_base.251" = type { %"struct.std::_Vector_base<std::unique_ptr<osgeo::proj::GenericShiftGridSet>, std::allocator<std::unique_ptr<osgeo::proj::GenericShiftGridSet>>>::_Vector_impl" }
%"struct.std::_Vector_base<std::unique_ptr<osgeo::proj::GenericShiftGridSet>, std::allocator<std::unique_ptr<osgeo::proj::GenericShiftGridSet>>>::_Vector_impl" = type { %"struct.std::_Vector_base<std::unique_ptr<osgeo::proj::GenericShiftGridSet>, std::allocator<std::unique_ptr<osgeo::proj::GenericShiftGridSet>>>::_Vector_impl_data" }
%"struct.std::_Vector_base<std::unique_ptr<osgeo::proj::GenericShiftGridSet>, std::allocator<std::unique_ptr<osgeo::proj::GenericShiftGridSet>>>::_Vector_impl_data" = type { ptr, ptr, ptr }
%"class.std::vector.187" = type { %"struct.std::_Vector_base.188" }
%"struct.std::_Vector_base.188" = type { %"struct.std::_Vector_base<std::__cxx11::basic_string<char>, std::allocator<std::__cxx11::basic_string<char>>>::_Vector_impl" }
%"struct.std::_Vector_base<std::__cxx11::basic_string<char>, std::allocator<std::__cxx11::basic_string<char>>>::_Vector_impl" = type { %"struct.std::_Vector_base<std::__cxx11::basic_string<char>, std::allocator<std::__cxx11::basic_string<char>>>::_Vector_impl_data" }
%"struct.std::_Vector_base<std::__cxx11::basic_string<char>, std::allocator<std::__cxx11::basic_string<char>>>::_Vector_impl_data" = type { ptr, ptr, ptr }
%"class.std::vector.266" = type { %"struct.std::_Vector_base.267" }
%"struct.std::_Vector_base.267" = type { %"struct.std::_Vector_base<std::unique_ptr<osgeo::proj::HorizontalShiftGridSet>, std::allocator<std::unique_ptr<osgeo::proj::HorizontalShiftGridSet>>>::_Vector_impl" }
%"struct.std::_Vector_base<std::unique_ptr<osgeo::proj::HorizontalShiftGridSet>, std::allocator<std::unique_ptr<osgeo::proj::HorizontalShiftGridSet>>>::_Vector_impl" = type { %"struct.std::_Vector_base<std::unique_ptr<osgeo::proj::HorizontalShiftGridSet>, std::allocator<std::unique_ptr<osgeo::proj::HorizontalShiftGridSet>>>::_Vector_impl_data" }
%"struct.std::_Vector_base<std::unique_ptr<osgeo::proj::HorizontalShiftGridSet>, std::allocator<std::unique_ptr<osgeo::proj::HorizontalShiftGridSet>>>::_Vector_impl_data" = type { ptr, ptr, ptr }
%union.PJ_COORD = type { [4 x double] }
%"class.std::vector.271" = type { %"struct.std::_Vector_base.272" }
%"struct.std::_Vector_base.272" = type { %"struct.std::_Vector_base<std::unique_ptr<osgeo::proj::VerticalShiftGridSet>, std::allocator<std::unique_ptr<osgeo::proj::VerticalShiftGridSet>>>::_Vector_impl" }
%"struct.std::_Vector_base<std::unique_ptr<osgeo::proj::VerticalShiftGridSet>, std::allocator<std::unique_ptr<osgeo::proj::VerticalShiftGridSet>>>::_Vector_impl" = type { %"struct.std::_Vector_base<std::unique_ptr<osgeo::proj::VerticalShiftGridSet>, std::allocator<std::unique_ptr<osgeo::proj::VerticalShiftGridSet>>>::_Vector_impl_data" }
%"struct.std::_Vector_base<std::unique_ptr<osgeo::proj::VerticalShiftGridSet>, std::allocator<std::unique_ptr<osgeo::proj::VerticalShiftGridSet>>>::_Vector_impl_data" = type { ptr, ptr, ptr }
%struct.PJ_LP = type { double, double }
%struct.PJ_GRID_INFO = type { [32 x i8], [260 x i8], [8 x i8], %struct.PJ_LP, %struct.PJ_LP, i32, i32, double, double }
%struct.PJ_INIT_INFO = type { [32 x i8], [260 x i8], [32 x i8], [32 x i8], [16 x i8] }
%"struct.std::_Rb_tree<std::pair<int, std::__cxx11::basic_string<char>>, std::pair<const std::pair<int, std::__cxx11::basic_string<char>>, std::__cxx11::basic_string<char>>, std::_Select1st<std::pair<const std::pair<int, std::__cxx11::basic_string<char>>, std::__cxx11::basic_string<char>>>, std::less<std::pair<int, std::__cxx11::basic_string<char>>>>::_Auto_node" = type { ptr, ptr }
%"struct.std::_Rb_tree<std::__cxx11::basic_string<char>, std::pair<const std::__cxx11::basic_string<char>, osgeo::proj::GTiffVGrid *>, std::_Select1st<std::pair<const std::__cxx11::basic_string<char>, osgeo::proj::GTiffVGrid *>>, std::less<std::__cxx11::basic_string<char>>>::_Auto_node" = type { ptr, ptr }
%"struct.std::_Rb_tree<std::__cxx11::basic_string<char>, std::pair<const std::__cxx11::basic_string<char>, osgeo::proj::NTv2Grid *>, std::_Select1st<std::pair<const std::__cxx11::basic_string<char>, osgeo::proj::NTv2Grid *>>, std::less<std::__cxx11::basic_string<char>>>::_Auto_node" = type { ptr, ptr }
%"struct.std::_Rb_tree<std::__cxx11::basic_string<char>, std::pair<const std::__cxx11::basic_string<char>, osgeo::proj::GTiffHGrid *>, std::_Select1st<std::pair<const std::__cxx11::basic_string<char>, osgeo::proj::GTiffHGrid *>>, std::less<std::__cxx11::basic_string<char>>>::_Auto_node" = type { ptr, ptr }
%"struct.std::_Rb_tree<std::__cxx11::basic_string<char>, std::pair<const std::__cxx11::basic_string<char>, osgeo::proj::GTiffGenericGrid *>, std::_Select1st<std::pair<const std::__cxx11::basic_string<char>, osgeo::proj::GTiffGenericGrid *>>, std::less<std::__cxx11::basic_string<char>>>::_Auto_node" = type { ptr, ptr }

$_ZN5osgeo4proj5lru115CacheImSt6vectorIfSaIfEENS1_8NullLockESt13unordered_mapImSt14_List_iteratorINS1_12KeyValuePairImS5_EEESt4hashImESt8equal_toImESaISt4pairIKmSB_EEEE6insertERSH_RKS5_ = comdat any

$__clang_call_terminate = comdat any

$_ZN5osgeo4proj5lru115CacheImSt6vectorIhSaIhEENS1_8NullLockESt13unordered_mapImSt14_List_iteratorINS1_12KeyValuePairImS5_EEESt4hashImESt8equal_toImESaISt4pairIKmSB_EEEE6insertERSH_RKS5_ = comdat any

$_ZNSt3mapISt4pairIiNSt7__cxx1112basic_stringIcSt11char_traitsIcESaIcEEEES6_St4lessIS7_ESaIS0_IKS7_S6_EEEixEOS7_ = comdat any

$_ZSteqIcSt11char_traitsIcESaIcEEbRKNSt7__cxx1112basic_stringIT_T0_T1_EEPKS5_ = comdat any

$_ZNSt3mapISt4pairIiNSt7__cxx1112basic_stringIcSt11char_traitsIcESaIcEEEES6_St4lessIS7_ESaIS0_IKS7_S6_EEED2Ev = comdat any

$_ZNSt6vectorIhSaIhEE6resizeEm = comdat any

$_ZN5osgeo4proj12GTiffDataset12tiffReadProcEPvS2_l = comdat any

$_ZN5osgeo4proj12GTiffDataset13tiffWriteProcEPvS2_l = comdat any

$_ZN5osgeo4proj12GTiffDataset12tiffSeekProcEPvmi = comdat any

$_ZN5osgeo4proj12GTiffDataset13tiffCloseProcEPv = comdat any

$_ZN5osgeo4proj12GTiffDataset12tiffSizeProcEPv = comdat any

$_ZN5osgeo4proj12GTiffDataset11tiffMapProcEPvPS2_Pm = comdat any

$_ZN5osgeo4proj12GTiffDataset13tiffUnmapProcEPvS2_m = comdat any

$_ZNSt7__cxx119to_stringEj = comdat any

$_ZNSt3mapINSt7__cxx1112basic_stringIcSt11char_traitsIcESaIcEEEPN5osgeo4proj10GTiffVGridESt4lessIS5_ESaISt4pairIKS5_S9_EEED2Ev = comdat any

$_ZN5osgeo4proj8NTv1GridC2EP6pj_ctxOSt10unique_ptrINS0_4FileESt14default_deleteIS5_EERKNSt7__cxx1112basic_stringIcSt11char_traitsIcESaIcEEEiiRKNS0_12ExtentAndResE = comdat any

$_ZNSt6vectorISt10unique_ptrIN5osgeo4proj19HorizontalShiftGridESt14default_deleteIS3_EESaIS6_EE12emplace_backIJS0_INS2_8NTv2GridES4_ISA_EEEEERS6_DpOT_ = comdat any

$_ZNSt3mapINSt7__cxx1112basic_stringIcSt11char_traitsIcESaIcEEEPN5osgeo4proj8NTv2GridESt4lessIS5_ESaISt4pairIKS5_S9_EEEixERSD_ = comdat any

$_ZNSt3mapINSt7__cxx1112basic_stringIcSt11char_traitsIcESaIcEEEPN5osgeo4proj8NTv2GridESt4lessIS5_ESaISt4pairIKS5_S9_EEED2Ev = comdat any

$_ZNSt3mapINSt7__cxx1112basic_stringIcSt11char_traitsIcESaIcEEEPN5osgeo4proj10GTiffHGridESt4lessIS5_ESaISt4pairIKS5_S9_EEED2Ev = comdat any

$_ZNSt6vectorISt10unique_ptrIN5osgeo4proj19HorizontalShiftGridESt14default_deleteIS3_EESaIS6_EE9push_backEOS6_ = comdat any

$_ZNK5osgeo4proj16GTiffGenericGrid12metadataItemERKNSt7__cxx1112basic_stringIcSt11char_traitsIcESaIcEEEi = comdat any

$_ZNSt10unique_ptrIN5osgeo4proj16GTiffGenericGridESt14default_deleteIS2_EED2Ev = comdat any

$_ZNSt3mapINSt7__cxx1112basic_stringIcSt11char_traitsIcESaIcEEEPN5osgeo4proj16GTiffGenericGridESt4lessIS5_ESaISt4pairIKS5_S9_EEED2Ev = comdat any

$_ZNSt6vectorISt10unique_ptrIN5osgeo4proj19GenericShiftGridSetESt14default_deleteIS3_EESaIS6_EED2Ev = comdat any

$_ZNSt6vectorINSt7__cxx1112basic_stringIcSt11char_traitsIcESaIcEEESaIS5_EED2Ev = comdat any

$_ZNSt6vectorISt10unique_ptrIN5osgeo4proj20VerticalShiftGridSetESt14default_deleteIS3_EESaIS6_EED2Ev = comdat any

$_ZNK5osgeo4proj4Grid10isNullGridEv = comdat any

$_ZN5osgeo4proj21NullVerticalShiftGridD0Ev = comdat any

$_ZNK5osgeo4proj21NullVerticalShiftGrid12metadataItemERKNSt7__cxx1112basic_stringIcSt11char_traitsIcESaIcEEEi = comdat any

$_ZNK5osgeo4proj21NullVerticalShiftGrid10isNullGridEv = comdat any

$_ZNK5osgeo4proj21NullVerticalShiftGrid10hasChangedEv = comdat any

$_ZNK5osgeo4proj21NullVerticalShiftGrid8isNodataEfd = comdat any

$_ZN5osgeo4proj21NullVerticalShiftGrid16reassign_contextEP6pj_ctx = comdat any

$_ZNK5osgeo4proj20GTXVerticalShiftGrid12metadataItemERKNSt7__cxx1112basic_stringIcSt11char_traitsIcESaIcEEEi = comdat any

$_ZNK5osgeo4proj20GTXVerticalShiftGrid10hasChangedEv = comdat any

$_ZN5osgeo4proj20GTXVerticalShiftGrid16reassign_contextEP6pj_ctx = comdat any

$_ZNK5osgeo4proj9GTiffGrid10hasChangedEv = comdat any

$_ZN5osgeo4proj18GTiffVGridShiftSet16reassign_contextEP6pj_ctx = comdat any

$_ZN5osgeo4proj18GTiffVGridShiftSet6reopenEP6pj_ctx = comdat any

$_ZNK5osgeo4proj10GTiffVGrid12metadataItemERKNSt7__cxx1112basic_stringIcSt11char_traitsIcESaIcEEEi = comdat any

$_ZNK5osgeo4proj10GTiffVGrid10hasChangedEv = comdat any

$_ZNK5osgeo4proj10GTiffVGrid8isNodataEfd = comdat any

$_ZNK5osgeo4proj10GTiffVGrid7valueAtEiiRf = comdat any

$_ZN5osgeo4proj10GTiffVGrid16reassign_contextEP6pj_ctx = comdat any

$_ZN5osgeo4proj23NullHorizontalShiftGridD0Ev = comdat any

$_ZNK5osgeo4proj23NullHorizontalShiftGrid12metadataItemERKNSt7__cxx1112basic_stringIcSt11char_traitsIcESaIcEEEi = comdat any

$_ZNK5osgeo4proj23NullHorizontalShiftGrid10isNullGridEv = comdat any

$_ZNK5osgeo4proj23NullHorizontalShiftGrid10hasChangedEv = comdat any

$_ZN5osgeo4proj23NullHorizontalShiftGrid16reassign_contextEP6pj_ctx = comdat any

$_ZNK5osgeo4proj8NTv1Grid12metadataItemERKNSt7__cxx1112basic_stringIcSt11char_traitsIcESaIcEEEi = comdat any

$_ZNK5osgeo4proj8NTv1Grid10hasChangedEv = comdat any

$_ZN5osgeo4proj8NTv1Grid16reassign_contextEP6pj_ctx = comdat any

$_ZNK5osgeo4proj11CTable2Grid12metadataItemERKNSt7__cxx1112basic_stringIcSt11char_traitsIcESaIcEEEi = comdat any

$_ZNK5osgeo4proj11CTable2Grid10hasChangedEv = comdat any

$_ZN5osgeo4proj11CTable2Grid16reassign_contextEP6pj_ctx = comdat any

$_ZN5osgeo4proj11NTv2GridSet16reassign_contextEP6pj_ctx = comdat any

$_ZN5osgeo4proj8NTv2GridD2Ev = comdat any

$_ZN5osgeo4proj8NTv2GridD0Ev = comdat any

$_ZNK5osgeo4proj8NTv2Grid12metadataItemERKNSt7__cxx1112basic_stringIcSt11char_traitsIcESaIcEEEi = comdat any

$_ZNK5osgeo4proj8NTv2Grid10hasChangedEv = comdat any

$_ZN5osgeo4proj8NTv2Grid16reassign_contextEP6pj_ctx = comdat any

$_ZN5osgeo4proj18GTiffHGridShiftSet16reassign_contextEP6pj_ctx = comdat any

$_ZN5osgeo4proj18GTiffHGridShiftSet6reopenEP6pj_ctx = comdat any

$_ZNK5osgeo4proj10GTiffHGrid12metadataItemERKNSt7__cxx1112basic_stringIcSt11char_traitsIcESaIcEEEi = comdat any

$_ZNK5osgeo4proj10GTiffHGrid10hasChangedEv = comdat any

$_ZN5osgeo4proj10GTiffHGrid16reassign_contextEP6pj_ctx = comdat any

$_ZN5osgeo4proj24GTiffGenericGridShiftSet16reassign_contextEP6pj_ctx = comdat any

$_ZN5osgeo4proj24GTiffGenericGridShiftSet6reopenEP6pj_ctx = comdat any

$_ZNK5osgeo4proj16GTiffGenericGrid10hasChangedEv = comdat any

$_ZNK5osgeo4proj16GTiffGenericGrid4typeB5cxx11Ev = comdat any

$_ZNK5osgeo4proj16GTiffGenericGrid4unitB5cxx11Ei = comdat any

$_ZNK5osgeo4proj16GTiffGenericGrid11descriptionB5cxx11Ei = comdat any

$_ZNK5osgeo4proj16GTiffGenericGrid15samplesPerPixelEv = comdat any

$_ZN5osgeo4proj16GTiffGenericGrid16reassign_contextEP6pj_ctx = comdat any

$_ZN5osgeo4proj20NullGenericShiftGridD0Ev = comdat any

$_ZNK5osgeo4proj20NullGenericShiftGrid12metadataItemERKNSt7__cxx1112basic_stringIcSt11char_traitsIcESaIcEEEi = comdat any

$_ZNK5osgeo4proj20NullGenericShiftGrid10isNullGridEv = comdat any

$_ZNK5osgeo4proj20NullGenericShiftGrid10hasChangedEv = comdat any

$_ZNK5osgeo4proj20NullGenericShiftGrid4typeB5cxx11Ev = comdat any

$_ZNK5osgeo4proj20NullGenericShiftGrid4unitB5cxx11Ei = comdat any

$_ZNK5osgeo4proj20NullGenericShiftGrid11descriptionB5cxx11Ei = comdat any

$_ZNK5osgeo4proj20NullGenericShiftGrid15samplesPerPixelEv = comdat any

$_ZN5osgeo4proj20NullGenericShiftGrid16reassign_contextEP6pj_ctx = comdat any

$_ZNSt8_Rb_treeISt4pairIiNSt7__cxx1112basic_stringIcSt11char_traitsIcESaIcEEEES0_IKS7_S6_ESt10_Select1stIS9_ESt4lessIS7_ESaIS9_EE8_M_eraseEPSt13_Rb_tree_nodeIS9_E = comdat any

$_ZN5osgeo4proj5lru115CacheImSt6vectorIhSaIhEENS1_8NullLockESt13unordered_mapImSt14_List_iteratorINS1_12KeyValuePairImS5_EEESt4hashImESt8equal_toImESaISt4pairIKmSB_EEEED2Ev = comdat any

$_ZN5osgeo4proj5lru115CacheImSt6vectorIhSaIhEENS1_8NullLockESt13unordered_mapImSt14_List_iteratorINS1_12KeyValuePairImS5_EEESt4hashImESt8equal_toImESaISt4pairIKmSB_EEEED0Ev = comdat any

$_ZN5osgeo4proj18OneTimeTIFFTagInit16GTiffTagExtenderEP4tiff = comdat any

$_ZNSt8_Rb_treeINSt7__cxx1112basic_stringIcSt11char_traitsIcESaIcEEESt4pairIKS5_PN5osgeo4proj10GTiffVGridEESt10_Select1stISC_ESt4lessIS5_ESaISC_EE8_M_eraseEPSt13_Rb_tree_nodeISC_E = comdat any

$_ZNKSt14default_deleteIN5osgeo4proj14FloatLineCacheEEclEPS2_ = comdat any

$_ZN5osgeo4proj5lru115CacheImSt6vectorIfSaIfEENS1_8NullLockESt13unordered_mapImSt14_List_iteratorINS1_12KeyValuePairImS5_EEESt4hashImESt8equal_toImESaISt4pairIKmSB_EEEED2Ev = comdat any

$_ZN5osgeo4proj5lru115CacheImSt6vectorIfSaIfEENS1_8NullLockESt13unordered_mapImSt14_List_iteratorINS1_12KeyValuePairImS5_EEESt4hashImESt8equal_toImESaISt4pairIKmSB_EEEED0Ev = comdat any

$_ZNSt8_Rb_treeINSt7__cxx1112basic_stringIcSt11char_traitsIcESaIcEEESt4pairIKS5_PN5osgeo4proj8NTv2GridEESt10_Select1stISC_ESt4lessIS5_ESaISC_EE8_M_eraseEPSt13_Rb_tree_nodeISC_E = comdat any

$_ZNSt8_Rb_treeINSt7__cxx1112basic_stringIcSt11char_traitsIcESaIcEEESt4pairIKS5_PN5osgeo4proj10GTiffHGridEESt10_Select1stISC_ESt4lessIS5_ESaISC_EE8_M_eraseEPSt13_Rb_tree_nodeISC_E = comdat any

$_ZNSt8_Rb_treeINSt7__cxx1112basic_stringIcSt11char_traitsIcESaIcEEESt4pairIKS5_PN5osgeo4proj16GTiffGenericGridEESt10_Select1stISC_ESt4lessIS5_ESaISC_EE8_M_eraseEPSt13_Rb_tree_nodeISC_E = comdat any

$_ZNSt6vectorISt10unique_ptrIN5osgeo4proj22HorizontalShiftGridSetESt14default_deleteIS3_EESaIS6_EED2Ev = comdat any

$_ZNSt6vectorIfSaIfEEaSERKS1_ = comdat any

$_ZNSt8__detail9_Map_baseImSt4pairIKmSt14_List_iteratorIN5osgeo4proj5lru1112KeyValuePairImSt6vectorIfSaIfEEEEEESaISD_ENS_10_Select1stESt8equal_toImESt4hashImENS_18_Mod_range_hashingENS_20_Default_ranged_hashENS_20_Prime_rehash_policyENS_17_Hashtable_traitsILb0ELb0ELb1EEELb1EEixERS2_ = comdat any

$_ZNSt10_HashtableImSt4pairIKmSt14_List_iteratorIN5osgeo4proj5lru1112KeyValuePairImSt6vectorIfSaIfEEEEEESaISC_ENSt8__detail10_Select1stESt8equal_toImESt4hashImENSE_18_Mod_range_hashingENSE_20_Default_ranged_hashENSE_20_Prime_rehash_policyENSE_17_Hashtable_traitsILb0ELb0ELb1EEEE9_M_rehashEmSt17integral_constantIbLb1EE = comdat any

$_ZNSt10_HashtableImSt4pairIKmSt14_List_iteratorIN5osgeo4proj5lru1112KeyValuePairImSt6vectorIfSaIfEEEEEESaISC_ENSt8__detail10_Select1stESt8equal_toImESt4hashImENSE_18_Mod_range_hashingENSE_20_Default_ranged_hashENSE_20_Prime_rehash_policyENSE_17_Hashtable_traitsILb0ELb0ELb1EEEE5eraseERS1_ = comdat any

$_ZNSt6vectorIfSaIfEE17_M_default_appendEm = comdat any

$_ZNSt6vectorIhSaIhEEaSERKS1_ = comdat any

$_ZNSt8__detail9_Map_baseImSt4pairIKmSt14_List_iteratorIN5osgeo4proj5lru1112KeyValuePairImSt6vectorIhSaIhEEEEEESaISD_ENS_10_Select1stESt8equal_toImESt4hashImENS_18_Mod_range_hashingENS_20_Default_ranged_hashENS_20_Prime_rehash_policyENS_17_Hashtable_traitsILb0ELb0ELb1EEELb1EEixERS2_ = comdat any

$_ZNSt10_HashtableImSt4pairIKmSt14_List_iteratorIN5osgeo4proj5lru1112KeyValuePairImSt6vectorIhSaIhEEEEEESaISC_ENSt8__detail10_Select1stESt8equal_toImESt4hashImENSE_18_Mod_range_hashingENSE_20_Default_ranged_hashENSE_20_Prime_rehash_policyENSE_17_Hashtable_traitsILb0ELb0ELb1EEEE9_M_rehashEmSt17integral_constantIbLb1EE = comdat any

$_ZNSt10_HashtableImSt4pairIKmSt14_List_iteratorIN5osgeo4proj5lru1112KeyValuePairImSt6vectorIhSaIhEEEEEESaISC_ENSt8__detail10_Select1stESt8equal_toImESt4hashImENSE_18_Mod_range_hashingENSE_20_Default_ranged_hashENSE_20_Prime_rehash_policyENSE_17_Hashtable_traitsILb0ELb0ELb1EEEE5eraseERS1_ = comdat any

$_ZNSt8_Rb_treeISt4pairIiNSt7__cxx1112basic_stringIcSt11char_traitsIcESaIcEEEES0_IKS7_S6_ESt10_Select1stIS9_ESt4lessIS7_ESaIS9_EE22_M_emplace_hint_uniqueIJRKSt21piecewise_construct_tSt5tupleIJOS7_EESK_IJEEEEESt17_Rb_tree_iteratorIS9_ESt23_Rb_tree_const_iteratorIS9_EDpOT_ = comdat any

$_ZNSt8_Rb_treeISt4pairIiNSt7__cxx1112basic_stringIcSt11char_traitsIcESaIcEEEES0_IKS7_S6_ESt10_Select1stIS9_ESt4lessIS7_ESaIS9_EE29_M_get_insert_hint_unique_posESt23_Rb_tree_const_iteratorIS9_ERS8_ = comdat any

$_ZNSt8_Rb_treeISt4pairIiNSt7__cxx1112basic_stringIcSt11char_traitsIcESaIcEEEES0_IKS7_S6_ESt10_Select1stIS9_ESt4lessIS7_ESaIS9_EE10_Auto_nodeD2Ev = comdat any

$_ZNSt8_Rb_treeISt4pairIiNSt7__cxx1112basic_stringIcSt11char_traitsIcESaIcEEEES0_IKS7_S6_ESt10_Select1stIS9_ESt4lessIS7_ESaIS9_EE24_M_get_insert_unique_posERS8_ = comdat any

$_ZNSt6vectorIdSaIdEE17_M_default_appendEm = comdat any

$_ZNSt6vectorIdSaIdEE14_M_fill_insertEN9__gnu_cxx17__normal_iteratorIPdS1_EEmRKd = comdat any

$_ZNSt8_Rb_treeISt4pairIiNSt7__cxx1112basic_stringIcSt11char_traitsIcESaIcEEEES0_IKS7_S6_ESt10_Select1stIS9_ESt4lessIS7_ESaIS9_EE4findERS8_ = comdat any

$_ZNKSt8_Rb_treeISt4pairIiNSt7__cxx1112basic_stringIcSt11char_traitsIcESaIcEEEES0_IKS7_S6_ESt10_Select1stIS9_ESt4lessIS7_ESaIS9_EE4findERS8_ = comdat any

$_ZNSt3mapINSt7__cxx1112basic_stringIcSt11char_traitsIcESaIcEEEPN5osgeo4proj10GTiffVGridESt4lessIS5_ESaISt4pairIKS5_S9_EEEixERSD_ = comdat any

$_ZNSt8_Rb_treeINSt7__cxx1112basic_stringIcSt11char_traitsIcESaIcEEESt4pairIKS5_PN5osgeo4proj10GTiffVGridEESt10_Select1stISC_ESt4lessIS5_ESaISC_EE22_M_emplace_hint_uniqueIJRKSt21piecewise_construct_tSt5tupleIJRS7_EESN_IJEEEEESt17_Rb_tree_iteratorISC_ESt23_Rb_tree_const_iteratorISC_EDpOT_ = comdat any

$_ZNSt8_Rb_treeINSt7__cxx1112basic_stringIcSt11char_traitsIcESaIcEEESt4pairIKS5_PN5osgeo4proj10GTiffVGridEESt10_Select1stISC_ESt4lessIS5_ESaISC_EE29_M_get_insert_hint_unique_posESt23_Rb_tree_const_iteratorISC_ERS7_ = comdat any

$_ZNSt8_Rb_treeINSt7__cxx1112basic_stringIcSt11char_traitsIcESaIcEEESt4pairIKS5_PN5osgeo4proj10GTiffVGridEESt10_Select1stISC_ESt4lessIS5_ESaISC_EE10_Auto_nodeD2Ev = comdat any

$_ZNSt8_Rb_treeINSt7__cxx1112basic_stringIcSt11char_traitsIcESaIcEEESt4pairIKS5_PN5osgeo4proj10GTiffVGridEESt10_Select1stISC_ESt4lessIS5_ESaISC_EE17_M_construct_nodeIJRKSt21piecewise_construct_tSt5tupleIJRS7_EESN_IJEEEEEvPSt13_Rb_tree_nodeISC_EDpOT_ = comdat any

$_ZNSt8_Rb_treeINSt7__cxx1112basic_stringIcSt11char_traitsIcESaIcEEESt4pairIKS5_PN5osgeo4proj10GTiffVGridEESt10_Select1stISC_ESt4lessIS5_ESaISC_EE24_M_get_insert_unique_posERS7_ = comdat any

$_ZNSt8_Rb_treeINSt7__cxx1112basic_stringIcSt11char_traitsIcESaIcEEESt4pairIKS5_PN5osgeo4proj8NTv2GridEESt10_Select1stISC_ESt4lessIS5_ESaISC_EE22_M_emplace_hint_uniqueIJRKSt21piecewise_construct_tSt5tupleIJRS7_EESN_IJEEEEESt17_Rb_tree_iteratorISC_ESt23_Rb_tree_const_iteratorISC_EDpOT_ = comdat any

$_ZNSt8_Rb_treeINSt7__cxx1112basic_stringIcSt11char_traitsIcESaIcEEESt4pairIKS5_PN5osgeo4proj8NTv2GridEESt10_Select1stISC_ESt4lessIS5_ESaISC_EE29_M_get_insert_hint_unique_posESt23_Rb_tree_const_iteratorISC_ERS7_ = comdat any

$_ZNSt8_Rb_treeINSt7__cxx1112basic_stringIcSt11char_traitsIcESaIcEEESt4pairIKS5_PN5osgeo4proj8NTv2GridEESt10_Select1stISC_ESt4lessIS5_ESaISC_EE10_Auto_nodeD2Ev = comdat any

$_ZNSt8_Rb_treeINSt7__cxx1112basic_stringIcSt11char_traitsIcESaIcEEESt4pairIKS5_PN5osgeo4proj8NTv2GridEESt10_Select1stISC_ESt4lessIS5_ESaISC_EE17_M_construct_nodeIJRKSt21piecewise_construct_tSt5tupleIJRS7_EESN_IJEEEEEvPSt13_Rb_tree_nodeISC_EDpOT_ = comdat any

$_ZNSt8_Rb_treeINSt7__cxx1112basic_stringIcSt11char_traitsIcESaIcEEESt4pairIKS5_PN5osgeo4proj8NTv2GridEESt10_Select1stISC_ESt4lessIS5_ESaISC_EE24_M_get_insert_unique_posERS7_ = comdat any

$_ZNSt3mapINSt7__cxx1112basic_stringIcSt11char_traitsIcESaIcEEEPN5osgeo4proj10GTiffHGridESt4lessIS5_ESaISt4pairIKS5_S9_EEEixERSD_ = comdat any

$_ZNSt8_Rb_treeINSt7__cxx1112basic_stringIcSt11char_traitsIcESaIcEEESt4pairIKS5_PN5osgeo4proj10GTiffHGridEESt10_Select1stISC_ESt4lessIS5_ESaISC_EE22_M_emplace_hint_uniqueIJRKSt21piecewise_construct_tSt5tupleIJRS7_EESN_IJEEEEESt17_Rb_tree_iteratorISC_ESt23_Rb_tree_const_iteratorISC_EDpOT_ = comdat any

$_ZNSt8_Rb_treeINSt7__cxx1112basic_stringIcSt11char_traitsIcESaIcEEESt4pairIKS5_PN5osgeo4proj10GTiffHGridEESt10_Select1stISC_ESt4lessIS5_ESaISC_EE29_M_get_insert_hint_unique_posESt23_Rb_tree_const_iteratorISC_ERS7_ = comdat any

$_ZNSt8_Rb_treeINSt7__cxx1112basic_stringIcSt11char_traitsIcESaIcEEESt4pairIKS5_PN5osgeo4proj10GTiffHGridEESt10_Select1stISC_ESt4lessIS5_ESaISC_EE10_Auto_nodeD2Ev = comdat any

$_ZNSt8_Rb_treeINSt7__cxx1112basic_stringIcSt11char_traitsIcESaIcEEESt4pairIKS5_PN5osgeo4proj10GTiffHGridEESt10_Select1stISC_ESt4lessIS5_ESaISC_EE17_M_construct_nodeIJRKSt21piecewise_construct_tSt5tupleIJRS7_EESN_IJEEEEEvPSt13_Rb_tree_nodeISC_EDpOT_ = comdat any

$_ZNSt8_Rb_treeINSt7__cxx1112basic_stringIcSt11char_traitsIcESaIcEEESt4pairIKS5_PN5osgeo4proj10GTiffHGridEESt10_Select1stISC_ESt4lessIS5_ESaISC_EE24_M_get_insert_unique_posERS7_ = comdat any

$_ZNSt3mapINSt7__cxx1112basic_stringIcSt11char_traitsIcESaIcEEEPN5osgeo4proj16GTiffGenericGridESt4lessIS5_ESaISt4pairIKS5_S9_EEEixERSD_ = comdat any

$_ZNSt8_Rb_treeINSt7__cxx1112basic_stringIcSt11char_traitsIcESaIcEEESt4pairIKS5_PN5osgeo4proj16GTiffGenericGridEESt10_Select1stISC_ESt4lessIS5_ESaISC_EE22_M_emplace_hint_uniqueIJRKSt21piecewise_construct_tSt5tupleIJRS7_EESN_IJEEEEESt17_Rb_tree_iteratorISC_ESt23_Rb_tree_const_iteratorISC_EDpOT_ = comdat any

$_ZNSt8_Rb_treeINSt7__cxx1112basic_stringIcSt11char_traitsIcESaIcEEESt4pairIKS5_PN5osgeo4proj16GTiffGenericGridEESt10_Select1stISC_ESt4lessIS5_ESaISC_EE29_M_get_insert_hint_unique_posESt23_Rb_tree_const_iteratorISC_ERS7_ = comdat any

$_ZNSt8_Rb_treeINSt7__cxx1112basic_stringIcSt11char_traitsIcESaIcEEESt4pairIKS5_PN5osgeo4proj16GTiffGenericGridEESt10_Select1stISC_ESt4lessIS5_ESaISC_EE10_Auto_nodeD2Ev = comdat any

$_ZNSt8_Rb_treeINSt7__cxx1112basic_stringIcSt11char_traitsIcESaIcEEESt4pairIKS5_PN5osgeo4proj16GTiffGenericGridEESt10_Select1stISC_ESt4lessIS5_ESaISC_EE17_M_construct_nodeIJRKSt21piecewise_construct_tSt5tupleIJRS7_EESN_IJEEEEEvPSt13_Rb_tree_nodeISC_EDpOT_ = comdat any

$_ZNSt8_Rb_treeINSt7__cxx1112basic_stringIcSt11char_traitsIcESaIcEEESt4pairIKS5_PN5osgeo4proj16GTiffGenericGridEESt10_Select1stISC_ESt4lessIS5_ESaISC_EE24_M_get_insert_unique_posERS7_ = comdat any

$_ZTVN5osgeo4proj5lru115CacheImSt6vectorIhSaIhEENS1_8NullLockESt13unordered_mapImSt14_List_iteratorINS1_12KeyValuePairImS5_EEESt4hashImESt8equal_toImESaISt4pairIKmSB_EEEEE = comdat any

$_ZTIN5osgeo4proj5lru115CacheImSt6vectorIhSaIhEENS1_8NullLockESt13unordered_mapImSt14_List_iteratorINS1_12KeyValuePairImS5_EEESt4hashImESt8equal_toImESaISt4pairIKmSB_EEEEE = comdat any

$_ZTSN5osgeo4proj5lru115CacheImSt6vectorIhSaIhEENS1_8NullLockESt13unordered_mapImSt14_List_iteratorINS1_12KeyValuePairImS5_EEESt4hashImESt8equal_toImESaISt4pairIKmSB_EEEEE = comdat any

$_ZZN5osgeo4proj18OneTimeTIFFTagInit16GTiffTagExtenderEP4tiffE14xtiffFieldInfo = comdat any

$_ZTVN5osgeo4proj5lru115CacheImSt6vectorIfSaIfEENS1_8NullLockESt13unordered_mapImSt14_List_iteratorINS1_12KeyValuePairImS5_EEESt4hashImESt8equal_toImESaISt4pairIKmSB_EEEEE = comdat any

$_ZTIN5osgeo4proj5lru115CacheImSt6vectorIfSaIfEENS1_8NullLockESt13unordered_mapImSt14_List_iteratorINS1_12KeyValuePairImS5_EEESt4hashImESt8equal_toImESaISt4pairIKmSB_EEEEE = comdat any

$_ZTSN5osgeo4proj5lru115CacheImSt6vectorIfSaIfEENS1_8NullLockESt13unordered_mapImSt14_List_iteratorINS1_12KeyValuePairImS5_EEESt4hashImESt8equal_toImESaISt4pairIKmSB_EEEEE = comdat any

$_ZSt19piecewise_construct = comdat any

@_ZTVN5osgeo4proj4GridE = unnamed_addr constant { [7 x ptr] } { [7 x ptr] [ptr null, ptr @_ZTIN5osgeo4proj4GridE, ptr @_ZN5osgeo4proj4GridD1Ev, ptr @_ZN5osgeo4proj4GridD0Ev, ptr @__cxa_pure_virtual, ptr @_ZNK5osgeo4proj4Grid10isNullGridEv, ptr @__cxa_pure_virtual] }, align 8
@_ZTVN5osgeo4proj17VerticalShiftGridE = unnamed_addr constant { [10 x ptr] } { [10 x ptr] [ptr null, ptr @_ZTIN5osgeo4proj17VerticalShiftGridE, ptr @_ZN5osgeo4proj17VerticalShiftGridD1Ev, ptr @_ZN5osgeo4proj17VerticalShiftGridD0Ev, ptr @__cxa_pure_virtual, ptr @_ZNK5osgeo4proj4Grid10isNullGridEv, ptr @__cxa_pure_virtual, ptr @__cxa_pure_virtual, ptr @__cxa_pure_virtual, ptr @__cxa_pure_virtual] }, align 8
@_ZN5osgeo4projL11emptyStringB5cxx11E = internal global %"class.std::__cxx11::basic_string" zeroinitializer, align 8
@__dso_handle = external hidden global i8
@_ZTVN5osgeo4proj20GTXVerticalShiftGridE = hidden unnamed_addr constant { [10 x ptr] } { [10 x ptr] [ptr null, ptr @_ZTIN5osgeo4proj20GTXVerticalShiftGridE, ptr @_ZN5osgeo4proj20GTXVerticalShiftGridD2Ev, ptr @_ZN5osgeo4proj20GTXVerticalShiftGridD0Ev, ptr @_ZNK5osgeo4proj20GTXVerticalShiftGrid12metadataItemERKNSt7__cxx1112basic_stringIcSt11char_traitsIcESaIcEEEi, ptr @_ZNK5osgeo4proj4Grid10isNullGridEv, ptr @_ZNK5osgeo4proj20GTXVerticalShiftGrid10hasChangedEv, ptr @_ZNK5osgeo4proj20GTXVerticalShiftGrid8isNodataEfd, ptr @_ZNK5osgeo4proj20GTXVerticalShiftGrid7valueAtEiiRf, ptr @_ZN5osgeo4proj20GTXVerticalShiftGrid16reassign_contextEP6pj_ctx] }, align 8
@.str = private unnamed_addr constant [24 x i8] c"Cannot read grid header\00", align 1
@.str.1 = private unnamed_addr constant [46 x i8] c"gtx file header has invalid extents, corrupt?\00", align 1
@.str.2 = private unnamed_addr constant [56 x i8] c"This GTX spans the dateline!  This will cause problems.\00", align 1
@_ZTISt9exception = external constant ptr
@.str.3 = private unnamed_addr constant [13 x i8] c"Exception %s\00", align 1
@_ZTVN5osgeo4proj20VerticalShiftGridSetE = unnamed_addr constant { [6 x ptr] } { [6 x ptr] [ptr null, ptr @_ZTIN5osgeo4proj20VerticalShiftGridSetE, ptr @_ZN5osgeo4proj20VerticalShiftGridSetD1Ev, ptr @_ZN5osgeo4proj20VerticalShiftGridSetD0Ev, ptr @_ZN5osgeo4proj20VerticalShiftGridSet16reassign_contextEP6pj_ctx, ptr @_ZN5osgeo4proj20VerticalShiftGridSet6reopenEP6pj_ctx] }, align 8
@_ZTVN5osgeo4proj9GTiffGridE = hidden unnamed_addr constant { [7 x ptr] } { [7 x ptr] [ptr null, ptr @_ZTIN5osgeo4proj9GTiffGridE, ptr @_ZN5osgeo4proj9GTiffGridD2Ev, ptr @_ZN5osgeo4proj9GTiffGridD0Ev, ptr @_ZNK5osgeo4proj9GTiffGrid12metadataItemERKNSt7__cxx1112basic_stringIcSt11char_traitsIcESaIcEEEi, ptr @_ZNK5osgeo4proj4Grid10isNullGridEv, ptr @_ZNK5osgeo4proj9GTiffGrid10hasChangedEv] }, align 8
@.str.4 = private unnamed_addr constant [7 x i8] c"<Item \00", align 1
@.str.5 = private unnamed_addr constant [7 x i8] c"name=\22\00", align 1
@.str.6 = private unnamed_addr constant [9 x i8] c"sample=\22\00", align 1
@.str.7 = private unnamed_addr constant [7 x i8] c"role=\22\00", align 1
@.str.8 = private unnamed_addr constant [7 x i8] c"offset\00", align 1
@.str.9 = private unnamed_addr constant [6 x i8] c"scale\00", align 1
@.str.10 = private unnamed_addr constant [10 x i8] c"grid_name\00", align 1
@.str.11 = private unnamed_addr constant [3 x i8] c", \00", align 1
@_ZTVN5osgeo4proj12GTiffDatasetE = hidden unnamed_addr constant { [4 x ptr] } { [4 x ptr] [ptr null, ptr @_ZTIN5osgeo4proj12GTiffDatasetE, ptr @_ZN5osgeo4proj12GTiffDatasetD2Ev, ptr @_ZN5osgeo4proj12GTiffDatasetD0Ev] }, align 8
@_ZN5osgeo4proj18OneTimeTIFFTagInit14ParentExtenderE = hidden local_unnamed_addr global ptr null, align 8
@_ZGVZN5osgeo4proj12GTiffDataset8openTIFFERKNSt7__cxx1112basic_stringIcSt11char_traitsIcESaIcEEEE18oneTimeTIFFTagInit = internal global i64 0, align 8
@.str.12 = private unnamed_addr constant [2 x i8] c"r\00", align 1
@.str.13 = private unnamed_addr constant [19 x i8] c"Invalid image size\00", align 1
@.str.14 = private unnamed_addr constant [28 x i8] c"Missing SamplesPerPixel tag\00", align 1
@.str.15 = private unnamed_addr constant [30 x i8] c"Invalid SamplesPerPixel value\00", align 1
@.str.16 = private unnamed_addr constant [26 x i8] c"Missing BitsPerSample tag\00", align 1
@.str.17 = private unnamed_addr constant [25 x i8] c"Missing PlanarConfig tag\00", align 1
@.str.18 = private unnamed_addr constant [25 x i8] c"Missing SampleFormat tag\00", align 1
@.str.19 = private unnamed_addr constant [65 x i8] c"Unsupported combination of SampleFormat and BitsPerSample values\00", align 1
@.str.20 = private unnamed_addr constant [30 x i8] c"Unsupported Photometric value\00", align 1
@.str.21 = private unnamed_addr constant [44 x i8] c"Cannot open TIFF file due to missing codec.\00", align 1
@.str.22 = private unnamed_addr constant [32 x i8] c"Unsupported compression method.\00", align 1
@.str.23 = private unnamed_addr constant [24 x i8] c"Unsupported block size.\00", align 1
@.str.24 = private unnamed_addr constant [15 x i8] c"No GeoKeys tag\00", align 1
@.str.25 = private unnamed_addr constant [38 x i8] c"Wrong number of values in GeoKeys tag\00", align 1
@.str.26 = private unnamed_addr constant [34 x i8] c"Unsupported GeoTIFF major version\00", align 1
@.str.27 = private unnamed_addr constant [35 x i8] c"GeoTIFF %d.%d possibly not handled\00", align 1
@.str.28 = private unnamed_addr constant [81 x i8] c"Only GTModelTypeGeoKey = ModelTypeGeographic or ModelTypeProjected are supported\00", align 1
@.str.29 = private unnamed_addr constant [62 x i8] c"Rotational terms not supported in GeoTransformationMatrix tag\00", align 1
@.str.30 = private unnamed_addr constant [21 x i8] c"No GeoPixelScale tag\00", align 1
@.str.31 = private unnamed_addr constant [44 x i8] c"Wrong number of values in GeoPixelScale tag\00", align 1
@.str.32 = private unnamed_addr constant [20 x i8] c"No GeoTiePoints tag\00", align 1
@.str.33 = private unnamed_addr constant [43 x i8] c"Wrong number of values in GeoTiePoints tag\00", align 1
@.str.34 = private unnamed_addr constant [35 x i8] c"Inconsistent georeferencing for %s\00", align 1
@.str.35 = private unnamed_addr constant [9 x i8] c" (index \00", align 1
@_ZTVN5osgeo4proj18GTiffVGridShiftSetE = hidden unnamed_addr constant { [6 x ptr] } { [6 x ptr] [ptr null, ptr @_ZTIN5osgeo4proj18GTiffVGridShiftSetE, ptr @_ZN5osgeo4proj18GTiffVGridShiftSetD2Ev, ptr @_ZN5osgeo4proj18GTiffVGridShiftSetD0Ev, ptr @_ZN5osgeo4proj18GTiffVGridShiftSet16reassign_contextEP6pj_ctx, ptr @_ZN5osgeo4proj18GTiffVGridShiftSet6reopenEP6pj_ctx] }, align 8
@_ZTVN5osgeo4proj10GTiffVGridE = hidden unnamed_addr constant { [10 x ptr] } { [10 x ptr] [ptr null, ptr @_ZTIN5osgeo4proj10GTiffVGridE, ptr @_ZN5osgeo4proj10GTiffVGridD2Ev, ptr @_ZN5osgeo4proj10GTiffVGridD0Ev, ptr @_ZNK5osgeo4proj10GTiffVGrid12metadataItemERKNSt7__cxx1112basic_stringIcSt11char_traitsIcESaIcEEEi, ptr @_ZNK5osgeo4proj4Grid10isNullGridEv, ptr @_ZNK5osgeo4proj10GTiffVGrid10hasChangedEv, ptr @_ZNK5osgeo4proj10GTiffVGrid8isNodataEfd, ptr @_ZNK5osgeo4proj10GTiffVGrid7valueAtEiiRf, ptr @_ZN5osgeo4proj10GTiffVGrid16reassign_contextEP6pj_ctx] }, align 8
@.str.36 = private unnamed_addr constant [36 x i8] c"Partially intersecting grids found!\00", align 1
@.str.37 = private unnamed_addr constant [6 x i8] c"gtiff\00", align 1
@.str.38 = private unnamed_addr constant [20 x i8] c"Invalid subfileType\00", align 1
@.str.39 = private unnamed_addr constant [52 x i8] c"Ignoring IFD %d as it has a unsupported subfileType\00", align 1
@.str.40 = private unnamed_addr constant [12 x i8] c"DESCRIPTION\00", align 1
@.str.41 = private unnamed_addr constant [17 x i8] c"geoid_undulation\00", align 1
@.str.42 = private unnamed_addr constant [16 x i8] c"vertical_offset\00", align 1
@.str.43 = private unnamed_addr constant [15 x i8] c"hydroid_height\00", align 1
@.str.44 = private unnamed_addr constant [26 x i8] c"ellipsoidal_height_offset\00", align 1
@.str.45 = private unnamed_addr constant [111 x i8] c"Ignoring IFD %d as it has no geoid_undulation/vertical_offset/hydroid_height/ellipsoidal_height_offset channel\00", align 1
@.str.46 = private unnamed_addr constant [121 x i8] c"IFD 0 has channel descriptions, but no geoid_undulation/vertical_offset/hydroid_height/ellipsoidal_height_offset channel\00", align 1
@.str.47 = private unnamed_addr constant [21 x i8] c"Invalid sample index\00", align 1
@.str.48 = private unnamed_addr constant [17 x i8] c"parent_grid_name\00", align 1
@.str.49 = private unnamed_addr constant [5 x i8] c"null\00", align 1
@.str.50 = private unnamed_addr constant [4 x i8] c"gtx\00", align 1
@.str.51 = private unnamed_addr constant [4 x i8] c"GTX\00", align 1
@.str.52 = private unnamed_addr constant [52 x i8] c"Unrecognized vertical grid format for filename '%s'\00", align 1
@.str.53 = private unnamed_addr constant [35 x i8] c"Grid %s has changed. Re-loading it\00", align 1
@_ZTVN5osgeo4proj19HorizontalShiftGridE = unnamed_addr constant { [9 x ptr] } { [9 x ptr] [ptr null, ptr @_ZTIN5osgeo4proj19HorizontalShiftGridE, ptr @_ZN5osgeo4proj19HorizontalShiftGridD1Ev, ptr @_ZN5osgeo4proj19HorizontalShiftGridD0Ev, ptr @__cxa_pure_virtual, ptr @_ZNK5osgeo4proj4Grid10isNullGridEv, ptr @__cxa_pure_virtual, ptr @__cxa_pure_virtual, ptr @__cxa_pure_virtual] }, align 8
@_ZTVN5osgeo4proj22HorizontalShiftGridSetE = unnamed_addr constant { [6 x ptr] } { [6 x ptr] [ptr null, ptr @_ZTIN5osgeo4proj22HorizontalShiftGridSetE, ptr @_ZN5osgeo4proj22HorizontalShiftGridSetD1Ev, ptr @_ZN5osgeo4proj22HorizontalShiftGridSetD0Ev, ptr @_ZN5osgeo4proj22HorizontalShiftGridSet16reassign_contextEP6pj_ctx, ptr @_ZN5osgeo4proj22HorizontalShiftGridSet6reopenEP6pj_ctx] }, align 8
@_ZTVN5osgeo4proj8NTv1GridE = hidden unnamed_addr constant { [9 x ptr] } { [9 x ptr] [ptr null, ptr @_ZTIN5osgeo4proj8NTv1GridE, ptr @_ZN5osgeo4proj8NTv1GridD2Ev, ptr @_ZN5osgeo4proj8NTv1GridD0Ev, ptr @_ZNK5osgeo4proj8NTv1Grid12metadataItemERKNSt7__cxx1112basic_stringIcSt11char_traitsIcESaIcEEEi, ptr @_ZNK5osgeo4proj4Grid10isNullGridEv, ptr @_ZNK5osgeo4proj8NTv1Grid10hasChangedEv, ptr @_ZNK5osgeo4proj8NTv1Grid7valueAtEiibRfS2_, ptr @_ZN5osgeo4proj8NTv1Grid16reassign_contextEP6pj_ctx] }, align 8
@.str.54 = private unnamed_addr constant [54 x i8] c"NTv1 grid shift file has wrong record count, corrupt?\00", align 1
@_ZTVN5osgeo4proj11CTable2GridE = hidden unnamed_addr constant { [9 x ptr] } { [9 x ptr] [ptr null, ptr @_ZTIN5osgeo4proj11CTable2GridE, ptr @_ZN5osgeo4proj11CTable2GridD2Ev, ptr @_ZN5osgeo4proj11CTable2GridD0Ev, ptr @_ZNK5osgeo4proj11CTable2Grid12metadataItemERKNSt7__cxx1112basic_stringIcSt11char_traitsIcESaIcEEEi, ptr @_ZNK5osgeo4proj4Grid10isNullGridEv, ptr @_ZNK5osgeo4proj11CTable2Grid10hasChangedEv, ptr @_ZNK5osgeo4proj11CTable2Grid7valueAtEiibRfS2_, ptr @_ZN5osgeo4proj11CTable2Grid16reassign_contextEP6pj_ctx] }, align 8
@_ZTVN5osgeo4proj11NTv2GridSetE = hidden unnamed_addr constant { [6 x ptr] } { [6 x ptr] [ptr null, ptr @_ZTIN5osgeo4proj11NTv2GridSetE, ptr @_ZN5osgeo4proj11NTv2GridSetD2Ev, ptr @_ZN5osgeo4proj11NTv2GridSetD0Ev, ptr @_ZN5osgeo4proj11NTv2GridSet16reassign_contextEP6pj_ctx, ptr @_ZN5osgeo4proj22HorizontalShiftGridSet6reopenEP6pj_ctx] }, align 8
@.str.55 = private unnamed_addr constant [5 x i8] c"ntv2\00", align 1
@.str.56 = private unnamed_addr constant [8 x i8] c"SECONDS\00", align 1
@.str.57 = private unnamed_addr constant [34 x i8] c"Only GS_TYPE=SECONDS is supported\00", align 1
@.str.59 = private unnamed_addr constant [45 x i8] c"NTv2 %s %dx%d: LL=(%.9g,%.9g) UR=(%.9g,%.9g)\00", align 1
@.str.60 = private unnamed_addr constant [51 x i8] c"GS_COUNT(%u) does not match expected cells (%dx%d)\00", align 1
@_ZTVN5osgeo4proj18GTiffHGridShiftSetE = hidden unnamed_addr constant { [6 x ptr] } { [6 x ptr] [ptr null, ptr @_ZTIN5osgeo4proj18GTiffHGridShiftSetE, ptr @_ZN5osgeo4proj18GTiffHGridShiftSetD2Ev, ptr @_ZN5osgeo4proj18GTiffHGridShiftSetD0Ev, ptr @_ZN5osgeo4proj18GTiffHGridShiftSet16reassign_contextEP6pj_ctx, ptr @_ZN5osgeo4proj18GTiffHGridShiftSet6reopenEP6pj_ctx] }, align 8
@_ZTVN5osgeo4proj10GTiffHGridE = hidden unnamed_addr constant { [9 x ptr] } { [9 x ptr] [ptr null, ptr @_ZTIN5osgeo4proj10GTiffHGridE, ptr @_ZN5osgeo4proj10GTiffHGridD2Ev, ptr @_ZN5osgeo4proj10GTiffHGridD0Ev, ptr @_ZNK5osgeo4proj10GTiffHGrid12metadataItemERKNSt7__cxx1112basic_stringIcSt11char_traitsIcESaIcEEEi, ptr @_ZNK5osgeo4proj4Grid10isNullGridEv, ptr @_ZNK5osgeo4proj10GTiffHGrid10hasChangedEv, ptr @_ZNK5osgeo4proj10GTiffHGrid7valueAtEiibRfS2_, ptr @_ZN5osgeo4proj10GTiffHGrid16reassign_contextEP6pj_ctx] }, align 8
@.str.61 = private unnamed_addr constant [36 x i8] c"At least 2 samples per pixel needed\00", align 1
@.str.62 = private unnamed_addr constant [49 x i8] c"Ignoring IFD %d as it has not at least 2 samples\00", align 1
@.str.63 = private unnamed_addr constant [16 x i8] c"latitude_offset\00", align 1
@.str.64 = private unnamed_addr constant [17 x i8] c"longitude_offset\00", align 1
@.str.65 = private unnamed_addr constant [70 x i8] c"Ignoring IFD %d as it has no longitude_offset/latitude_offset channel\00", align 1
@.str.66 = private unnamed_addr constant [80 x i8] c"IFD 0 has channel descriptions, but no longitude_offset/latitude_offset channel\00", align 1
@.str.67 = private unnamed_addr constant [56 x i8] c"Found latitude_offset channel, but not longitude_offset\00", align 1
@.str.68 = private unnamed_addr constant [56 x i8] c"Found longitude_offset channel, but not latitude_offset\00", align 1
@.str.69 = private unnamed_addr constant [15 x i8] c"positive_value\00", align 1
@.str.70 = private unnamed_addr constant [5 x i8] c"west\00", align 1
@.str.71 = private unnamed_addr constant [5 x i8] c"east\00", align 1
@.str.72 = private unnamed_addr constant [42 x i8] c"Unsupported value %s for 'positive_value'\00", align 1
@.str.74 = private unnamed_addr constant [49 x i8] c"Different unit for longitude and latitude offset\00", align 1
@.str.75 = private unnamed_addr constant [11 x i8] c"arc-second\00", align 1
@.str.76 = private unnamed_addr constant [21 x i8] c"arc-seconds per year\00", align 1
@.str.77 = private unnamed_addr constant [7 x i8] c"radian\00", align 1
@.str.78 = private unnamed_addr constant [7 x i8] c"degree\00", align 1
@.str.79 = private unnamed_addr constant [20 x i8] c"Unsupported unit %s\00", align 1
@.str.80 = private unnamed_addr constant [48 x i8] c"pj_gridinfo_init: short header read of %d bytes\00", align 1
@.str.81 = private unnamed_addr constant [7 x i8] c"HEADER\00", align 1
@.str.82 = private unnamed_addr constant [7 x i8] c"W GRID\00", align 1
@.str.83 = private unnamed_addr constant [17 x i8] c"TO      NAD83   \00", align 1
@.str.84 = private unnamed_addr constant [5 x i8] c"ntv1\00", align 1
@.str.85 = private unnamed_addr constant [10 x i8] c"CTABLE V2\00", align 1
@.str.86 = private unnamed_addr constant [8 x i8] c"ctable2\00", align 1
@.str.88 = private unnamed_addr constant [8 x i8] c"GS_TYPE\00", align 1
@.str.89 = private unnamed_addr constant [54 x i8] c"Unrecognized horizontal grid format for filename '%s'\00", align 1
@_ZTVN5osgeo4proj24GTiffGenericGridShiftSetE = hidden unnamed_addr constant { [6 x ptr] } { [6 x ptr] [ptr null, ptr @_ZTIN5osgeo4proj24GTiffGenericGridShiftSetE, ptr @_ZN5osgeo4proj24GTiffGenericGridShiftSetD2Ev, ptr @_ZN5osgeo4proj24GTiffGenericGridShiftSetD0Ev, ptr @_ZN5osgeo4proj24GTiffGenericGridShiftSet16reassign_contextEP6pj_ctx, ptr @_ZN5osgeo4proj24GTiffGenericGridShiftSet6reopenEP6pj_ctx] }, align 8
@_ZTVN5osgeo4proj16GTiffGenericGridE = hidden unnamed_addr constant { [14 x ptr] } { [14 x ptr] [ptr null, ptr @_ZTIN5osgeo4proj16GTiffGenericGridE, ptr @_ZN5osgeo4proj16GTiffGenericGridD2Ev, ptr @_ZN5osgeo4proj16GTiffGenericGridD0Ev, ptr @_ZNK5osgeo4proj16GTiffGenericGrid12metadataItemERKNSt7__cxx1112basic_stringIcSt11char_traitsIcESaIcEEEi, ptr @_ZNK5osgeo4proj4Grid10isNullGridEv, ptr @_ZNK5osgeo4proj16GTiffGenericGrid10hasChangedEv, ptr @_ZNK5osgeo4proj16GTiffGenericGrid4typeB5cxx11Ev, ptr @_ZNK5osgeo4proj16GTiffGenericGrid4unitB5cxx11Ei, ptr @_ZNK5osgeo4proj16GTiffGenericGrid11descriptionB5cxx11Ei, ptr @_ZNK5osgeo4proj16GTiffGenericGrid15samplesPerPixelEv, ptr @_ZNK5osgeo4proj16GTiffGenericGrid7valueAtEiiiRf, ptr @_ZNK5osgeo4proj16GTiffGenericGrid8valuesAtEiiiiiPKiPfRb, ptr @_ZN5osgeo4proj16GTiffGenericGrid16reassign_contextEP6pj_ctx] }, align 8
@_ZTVN5osgeo4proj16GenericShiftGridE = unnamed_addr constant { [14 x ptr] } { [14 x ptr] [ptr null, ptr @_ZTIN5osgeo4proj16GenericShiftGridE, ptr @_ZN5osgeo4proj16GenericShiftGridD1Ev, ptr @_ZN5osgeo4proj16GenericShiftGridD0Ev, ptr @__cxa_pure_virtual, ptr @_ZNK5osgeo4proj4Grid10isNullGridEv, ptr @__cxa_pure_virtual, ptr @__cxa_pure_virtual, ptr @__cxa_pure_virtual, ptr @__cxa_pure_virtual, ptr @__cxa_pure_virtual, ptr @__cxa_pure_virtual, ptr @_ZNK5osgeo4proj16GenericShiftGrid8valuesAtEiiiiiPKiPfRb, ptr @__cxa_pure_virtual] }, align 8
@_ZTVN5osgeo4proj19GenericShiftGridSetE = unnamed_addr constant { [6 x ptr] } { [6 x ptr] [ptr null, ptr @_ZTIN5osgeo4proj19GenericShiftGridSetE, ptr @_ZN5osgeo4proj19GenericShiftGridSetD1Ev, ptr @_ZN5osgeo4proj19GenericShiftGridSetD0Ev, ptr @_ZN5osgeo4proj19GenericShiftGridSet16reassign_contextEP6pj_ctx, ptr @_ZN5osgeo4proj19GenericShiftGridSet6reopenEP6pj_ctx] }, align 8
@.str.91 = private unnamed_addr constant [51 x i8] c"Unrecognized generic grid format for filename '%s'\00", align 1
@.str.93 = private unnamed_addr constant [53 x i8] c"Can only handle grids referenced in a geographic CRS\00", align 1
@.str.94 = private unnamed_addr constant [32 x i8] c"proj_vgrid_value: (%f, %f) = %f\00", align 1
@.str.96 = private unnamed_addr constant [5 x i8] c"epsg\00", align 1
@.str.97 = private unnamed_addr constant [5 x i8] c"EPSG\00", align 1
@.str.98 = private unnamed_addr constant [13 x i8] c"EPSG.VERSION\00", align 1
@.str.99 = private unnamed_addr constant [10 x i8] c"EPSG.DATE\00", align 1
@.str.100 = private unnamed_addr constant [5 x i8] c"IGNF\00", align 1
@.str.101 = private unnamed_addr constant [13 x i8] c"IGNF.VERSION\00", align 1
@.str.102 = private unnamed_addr constant [10 x i8] c"IGNF.DATE\00", align 1
@.str.104 = private unnamed_addr constant [10 x i8] c":metadata\00", align 1
@.str.105 = private unnamed_addr constant [7 x i8] c"+init=\00", align 1
@.str.106 = private unnamed_addr constant [9 x i8] c"tversion\00", align 1
@.str.107 = private unnamed_addr constant [9 x i8] c"sversion\00", align 1
@.str.108 = private unnamed_addr constant [8 x i8] c"torigin\00", align 1
@.str.109 = private unnamed_addr constant [8 x i8] c"sorigin\00", align 1
@.str.110 = private unnamed_addr constant [12 x i8] c"tlastupdate\00", align 1
@.str.111 = private unnamed_addr constant [12 x i8] c"slastupdate\00", align 1
@_ZTIN5osgeo4proj4GridE = constant { ptr, ptr } { ptr getelementptr inbounds (ptr, ptr @_ZTVN10__cxxabiv117__class_type_infoE, i64 2), ptr @_ZTSN5osgeo4proj4GridE }, align 8
@_ZTVN10__cxxabiv117__class_type_infoE = external global [0 x ptr]
@_ZTSN5osgeo4proj4GridE = constant [19 x i8] c"N5osgeo4proj4GridE\00", align 1
@_ZTIN5osgeo4proj17VerticalShiftGridE = constant { ptr, ptr, ptr } { ptr getelementptr inbounds (ptr, ptr @_ZTVN10__cxxabiv120__si_class_type_infoE, i64 2), ptr @_ZTSN5osgeo4proj17VerticalShiftGridE, ptr @_ZTIN5osgeo4proj4GridE }, align 8
@_ZTVN10__cxxabiv120__si_class_type_infoE = external global [0 x ptr]
@_ZTSN5osgeo4proj17VerticalShiftGridE = constant [33 x i8] c"N5osgeo4proj17VerticalShiftGridE\00", align 1
@_ZTVN5osgeo4proj21NullVerticalShiftGridE = hidden unnamed_addr constant { [10 x ptr] } { [10 x ptr] [ptr null, ptr @_ZTIN5osgeo4proj21NullVerticalShiftGridE, ptr @_ZN5osgeo4proj17VerticalShiftGridD2Ev, ptr @_ZN5osgeo4proj21NullVerticalShiftGridD0Ev, ptr @_ZNK5osgeo4proj21NullVerticalShiftGrid12metadataItemERKNSt7__cxx1112basic_stringIcSt11char_traitsIcESaIcEEEi, ptr @_ZNK5osgeo4proj21NullVerticalShiftGrid10isNullGridEv, ptr @_ZNK5osgeo4proj21NullVerticalShiftGrid10hasChangedEv, ptr @_ZNK5osgeo4proj21NullVerticalShiftGrid8isNodataEfd, ptr @_ZNK5osgeo4proj21NullVerticalShiftGrid7valueAtEiiRf, ptr @_ZN5osgeo4proj21NullVerticalShiftGrid16reassign_contextEP6pj_ctx] }, align 8
@_ZTIN5osgeo4proj21NullVerticalShiftGridE = hidden constant { ptr, ptr, ptr } { ptr getelementptr inbounds (ptr, ptr @_ZTVN10__cxxabiv120__si_class_type_infoE, i64 2), ptr @_ZTSN5osgeo4proj21NullVerticalShiftGridE, ptr @_ZTIN5osgeo4proj17VerticalShiftGridE }, align 8
@_ZTSN5osgeo4proj21NullVerticalShiftGridE = hidden constant [37 x i8] c"N5osgeo4proj21NullVerticalShiftGridE\00", align 1
@_ZTIN5osgeo4proj20GTXVerticalShiftGridE = hidden constant { ptr, ptr, ptr } { ptr getelementptr inbounds (ptr, ptr @_ZTVN10__cxxabiv120__si_class_type_infoE, i64 2), ptr @_ZTSN5osgeo4proj20GTXVerticalShiftGridE, ptr @_ZTIN5osgeo4proj17VerticalShiftGridE }, align 8
@_ZTSN5osgeo4proj20GTXVerticalShiftGridE = hidden constant [36 x i8] c"N5osgeo4proj20GTXVerticalShiftGridE\00", align 1
@_ZTIN5osgeo4proj20VerticalShiftGridSetE = constant { ptr, ptr } { ptr getelementptr inbounds (ptr, ptr @_ZTVN10__cxxabiv117__class_type_infoE, i64 2), ptr @_ZTSN5osgeo4proj20VerticalShiftGridSetE }, align 8
@_ZTSN5osgeo4proj20VerticalShiftGridSetE = constant [36 x i8] c"N5osgeo4proj20VerticalShiftGridSetE\00", align 1
@_ZTIN5osgeo4proj9GTiffGridE = hidden constant { ptr, ptr, ptr } { ptr getelementptr inbounds (ptr, ptr @_ZTVN10__cxxabiv120__si_class_type_infoE, i64 2), ptr @_ZTSN5osgeo4proj9GTiffGridE, ptr @_ZTIN5osgeo4proj4GridE }, align 8
@_ZTSN5osgeo4proj9GTiffGridE = hidden constant [24 x i8] c"N5osgeo4proj9GTiffGridE\00", align 1
@_ZTIN5osgeo4proj12GTiffDatasetE = hidden constant { ptr, ptr } { ptr getelementptr inbounds (ptr, ptr @_ZTVN10__cxxabiv117__class_type_infoE, i64 2), ptr @_ZTSN5osgeo4proj12GTiffDatasetE }, align 8
@_ZTSN5osgeo4proj12GTiffDatasetE = hidden constant [28 x i8] c"N5osgeo4proj12GTiffDatasetE\00", align 1
@_ZTIN5osgeo4proj18GTiffVGridShiftSetE = hidden constant { ptr, ptr, ptr } { ptr getelementptr inbounds (ptr, ptr @_ZTVN10__cxxabiv120__si_class_type_infoE, i64 2), ptr @_ZTSN5osgeo4proj18GTiffVGridShiftSetE, ptr @_ZTIN5osgeo4proj20VerticalShiftGridSetE }, align 8
@_ZTSN5osgeo4proj18GTiffVGridShiftSetE = hidden constant [34 x i8] c"N5osgeo4proj18GTiffVGridShiftSetE\00", align 1
@_ZTIN5osgeo4proj10GTiffVGridE = hidden constant { ptr, ptr, ptr } { ptr getelementptr inbounds (ptr, ptr @_ZTVN10__cxxabiv120__si_class_type_infoE, i64 2), ptr @_ZTSN5osgeo4proj10GTiffVGridE, ptr @_ZTIN5osgeo4proj17VerticalShiftGridE }, align 8
@_ZTSN5osgeo4proj10GTiffVGridE = hidden constant [26 x i8] c"N5osgeo4proj10GTiffVGridE\00", align 1
@_ZTIN5osgeo4proj19HorizontalShiftGridE = constant { ptr, ptr, ptr } { ptr getelementptr inbounds (ptr, ptr @_ZTVN10__cxxabiv120__si_class_type_infoE, i64 2), ptr @_ZTSN5osgeo4proj19HorizontalShiftGridE, ptr @_ZTIN5osgeo4proj4GridE }, align 8
@_ZTSN5osgeo4proj19HorizontalShiftGridE = constant [35 x i8] c"N5osgeo4proj19HorizontalShiftGridE\00", align 1
@_ZTIN5osgeo4proj22HorizontalShiftGridSetE = constant { ptr, ptr } { ptr getelementptr inbounds (ptr, ptr @_ZTVN10__cxxabiv117__class_type_infoE, i64 2), ptr @_ZTSN5osgeo4proj22HorizontalShiftGridSetE }, align 8
@_ZTSN5osgeo4proj22HorizontalShiftGridSetE = constant [38 x i8] c"N5osgeo4proj22HorizontalShiftGridSetE\00", align 1
@_ZTVN5osgeo4proj23NullHorizontalShiftGridE = hidden unnamed_addr constant { [9 x ptr] } { [9 x ptr] [ptr null, ptr @_ZTIN5osgeo4proj23NullHorizontalShiftGridE, ptr @_ZN5osgeo4proj19HorizontalShiftGridD2Ev, ptr @_ZN5osgeo4proj23NullHorizontalShiftGridD0Ev, ptr @_ZNK5osgeo4proj23NullHorizontalShiftGrid12metadataItemERKNSt7__cxx1112basic_stringIcSt11char_traitsIcESaIcEEEi, ptr @_ZNK5osgeo4proj23NullHorizontalShiftGrid10isNullGridEv, ptr @_ZNK5osgeo4proj23NullHorizontalShiftGrid10hasChangedEv, ptr @_ZNK5osgeo4proj23NullHorizontalShiftGrid7valueAtEiibRfS2_, ptr @_ZN5osgeo4proj23NullHorizontalShiftGrid16reassign_contextEP6pj_ctx] }, align 8
@_ZTIN5osgeo4proj23NullHorizontalShiftGridE = hidden constant { ptr, ptr, ptr } { ptr getelementptr inbounds (ptr, ptr @_ZTVN10__cxxabiv120__si_class_type_infoE, i64 2), ptr @_ZTSN5osgeo4proj23NullHorizontalShiftGridE, ptr @_ZTIN5osgeo4proj19HorizontalShiftGridE }, align 8
@_ZTSN5osgeo4proj23NullHorizontalShiftGridE = hidden constant [39 x i8] c"N5osgeo4proj23NullHorizontalShiftGridE\00", align 1
@_ZTIN5osgeo4proj8NTv1GridE = hidden constant { ptr, ptr, ptr } { ptr getelementptr inbounds (ptr, ptr @_ZTVN10__cxxabiv120__si_class_type_infoE, i64 2), ptr @_ZTSN5osgeo4proj8NTv1GridE, ptr @_ZTIN5osgeo4proj19HorizontalShiftGridE }, align 8
@_ZTSN5osgeo4proj8NTv1GridE = hidden constant [23 x i8] c"N5osgeo4proj8NTv1GridE\00", align 1
@_ZTIN5osgeo4proj11CTable2GridE = hidden constant { ptr, ptr, ptr } { ptr getelementptr inbounds (ptr, ptr @_ZTVN10__cxxabiv120__si_class_type_infoE, i64 2), ptr @_ZTSN5osgeo4proj11CTable2GridE, ptr @_ZTIN5osgeo4proj19HorizontalShiftGridE }, align 8
@_ZTSN5osgeo4proj11CTable2GridE = hidden constant [27 x i8] c"N5osgeo4proj11CTable2GridE\00", align 1
@_ZTIN5osgeo4proj11NTv2GridSetE = hidden constant { ptr, ptr, ptr } { ptr getelementptr inbounds (ptr, ptr @_ZTVN10__cxxabiv120__si_class_type_infoE, i64 2), ptr @_ZTSN5osgeo4proj11NTv2GridSetE, ptr @_ZTIN5osgeo4proj22HorizontalShiftGridSetE }, align 8
@_ZTSN5osgeo4proj11NTv2GridSetE = hidden constant [27 x i8] c"N5osgeo4proj11NTv2GridSetE\00", align 1
@_ZTVN5osgeo4proj8NTv2GridE = hidden unnamed_addr constant { [9 x ptr] } { [9 x ptr] [ptr null, ptr @_ZTIN5osgeo4proj8NTv2GridE, ptr @_ZN5osgeo4proj8NTv2GridD2Ev, ptr @_ZN5osgeo4proj8NTv2GridD0Ev, ptr @_ZNK5osgeo4proj8NTv2Grid12metadataItemERKNSt7__cxx1112basic_stringIcSt11char_traitsIcESaIcEEEi, ptr @_ZNK5osgeo4proj4Grid10isNullGridEv, ptr @_ZNK5osgeo4proj8NTv2Grid10hasChangedEv, ptr @_ZNK5osgeo4proj8NTv2Grid7valueAtEiibRfS2_, ptr @_ZN5osgeo4proj8NTv2Grid16reassign_contextEP6pj_ctx] }, align 8
@_ZTIN5osgeo4proj8NTv2GridE = hidden constant { ptr, ptr, ptr } { ptr getelementptr inbounds (ptr, ptr @_ZTVN10__cxxabiv120__si_class_type_infoE, i64 2), ptr @_ZTSN5osgeo4proj8NTv2GridE, ptr @_ZTIN5osgeo4proj19HorizontalShiftGridE }, align 8
@_ZTSN5osgeo4proj8NTv2GridE = hidden constant [23 x i8] c"N5osgeo4proj8NTv2GridE\00", align 1
@_ZTIN5osgeo4proj18GTiffHGridShiftSetE = hidden constant { ptr, ptr, ptr } { ptr getelementptr inbounds (ptr, ptr @_ZTVN10__cxxabiv120__si_class_type_infoE, i64 2), ptr @_ZTSN5osgeo4proj18GTiffHGridShiftSetE, ptr @_ZTIN5osgeo4proj22HorizontalShiftGridSetE }, align 8
@_ZTSN5osgeo4proj18GTiffHGridShiftSetE = hidden constant [34 x i8] c"N5osgeo4proj18GTiffHGridShiftSetE\00", align 1
@_ZTIN5osgeo4proj10GTiffHGridE = hidden constant { ptr, ptr, ptr } { ptr getelementptr inbounds (ptr, ptr @_ZTVN10__cxxabiv120__si_class_type_infoE, i64 2), ptr @_ZTSN5osgeo4proj10GTiffHGridE, ptr @_ZTIN5osgeo4proj19HorizontalShiftGridE }, align 8
@_ZTSN5osgeo4proj10GTiffHGridE = hidden constant [26 x i8] c"N5osgeo4proj10GTiffHGridE\00", align 1
@_ZTIN5osgeo4proj24GTiffGenericGridShiftSetE = hidden constant { ptr, ptr, ptr } { ptr getelementptr inbounds (ptr, ptr @_ZTVN10__cxxabiv120__si_class_type_infoE, i64 2), ptr @_ZTSN5osgeo4proj24GTiffGenericGridShiftSetE, ptr @_ZTIN5osgeo4proj19GenericShiftGridSetE }, align 8
@_ZTSN5osgeo4proj24GTiffGenericGridShiftSetE = hidden constant [40 x i8] c"N5osgeo4proj24GTiffGenericGridShiftSetE\00", align 1
@_ZTIN5osgeo4proj19GenericShiftGridSetE = constant { ptr, ptr } { ptr getelementptr inbounds (ptr, ptr @_ZTVN10__cxxabiv117__class_type_infoE, i64 2), ptr @_ZTSN5osgeo4proj19GenericShiftGridSetE }, align 8
@_ZTSN5osgeo4proj19GenericShiftGridSetE = constant [35 x i8] c"N5osgeo4proj19GenericShiftGridSetE\00", align 1
@_ZTIN5osgeo4proj16GTiffGenericGridE = hidden constant { ptr, ptr, ptr } { ptr getelementptr inbounds (ptr, ptr @_ZTVN10__cxxabiv120__si_class_type_infoE, i64 2), ptr @_ZTSN5osgeo4proj16GTiffGenericGridE, ptr @_ZTIN5osgeo4proj16GenericShiftGridE }, align 8
@_ZTSN5osgeo4proj16GTiffGenericGridE = hidden constant [32 x i8] c"N5osgeo4proj16GTiffGenericGridE\00", align 1
@_ZTIN5osgeo4proj16GenericShiftGridE = constant { ptr, ptr, ptr } { ptr getelementptr inbounds (ptr, ptr @_ZTVN10__cxxabiv120__si_class_type_infoE, i64 2), ptr @_ZTSN5osgeo4proj16GenericShiftGridE, ptr @_ZTIN5osgeo4proj4GridE }, align 8
@_ZTSN5osgeo4proj16GenericShiftGridE = constant [32 x i8] c"N5osgeo4proj16GenericShiftGridE\00", align 1
@_ZTVN5osgeo4proj20NullGenericShiftGridE = hidden unnamed_addr constant { [14 x ptr] } { [14 x ptr] [ptr null, ptr @_ZTIN5osgeo4proj20NullGenericShiftGridE, ptr @_ZN5osgeo4proj16GenericShiftGridD2Ev, ptr @_ZN5osgeo4proj20NullGenericShiftGridD0Ev, ptr @_ZNK5osgeo4proj20NullGenericShiftGrid12metadataItemERKNSt7__cxx1112basic_stringIcSt11char_traitsIcESaIcEEEi, ptr @_ZNK5osgeo4proj20NullGenericShiftGrid10isNullGridEv, ptr @_ZNK5osgeo4proj20NullGenericShiftGrid10hasChangedEv, ptr @_ZNK5osgeo4proj20NullGenericShiftGrid4typeB5cxx11Ev, ptr @_ZNK5osgeo4proj20NullGenericShiftGrid4unitB5cxx11Ei, ptr @_ZNK5osgeo4proj20NullGenericShiftGrid11descriptionB5cxx11Ei, ptr @_ZNK5osgeo4proj20NullGenericShiftGrid15samplesPerPixelEv, ptr @_ZNK5osgeo4proj20NullGenericShiftGrid7valueAtEiiiRf, ptr @_ZNK5osgeo4proj16GenericShiftGrid8valuesAtEiiiiiPKiPfRb, ptr @_ZN5osgeo4proj20NullGenericShiftGrid16reassign_contextEP6pj_ctx] }, align 8
@_ZTIN5osgeo4proj20NullGenericShiftGridE = hidden constant { ptr, ptr, ptr } { ptr getelementptr inbounds (ptr, ptr @_ZTVN10__cxxabiv120__si_class_type_infoE, i64 2), ptr @_ZTSN5osgeo4proj20NullGenericShiftGridE, ptr @_ZTIN5osgeo4proj16GenericShiftGridE }, align 8
@_ZTSN5osgeo4proj20NullGenericShiftGridE = hidden constant [36 x i8] c"N5osgeo4proj20NullGenericShiftGridE\00", align 1
@_ZTVN5osgeo4proj5lru115CacheImSt6vectorIhSaIhEENS1_8NullLockESt13unordered_mapImSt14_List_iteratorINS1_12KeyValuePairImS5_EEESt4hashImESt8equal_toImESaISt4pairIKmSB_EEEEE = linkonce_odr hidden unnamed_addr constant { [4 x ptr] } { [4 x ptr] [ptr null, ptr @_ZTIN5osgeo4proj5lru115CacheImSt6vectorIhSaIhEENS1_8NullLockESt13unordered_mapImSt14_List_iteratorINS1_12KeyValuePairImS5_EEESt4hashImESt8equal_toImESaISt4pairIKmSB_EEEEE, ptr @_ZN5osgeo4proj5lru115CacheImSt6vectorIhSaIhEENS1_8NullLockESt13unordered_mapImSt14_List_iteratorINS1_12KeyValuePairImS5_EEESt4hashImESt8equal_toImESaISt4pairIKmSB_EEEED2Ev, ptr @_ZN5osgeo4proj5lru115CacheImSt6vectorIhSaIhEENS1_8NullLockESt13unordered_mapImSt14_List_iteratorINS1_12KeyValuePairImS5_EEESt4hashImESt8equal_toImESaISt4pairIKmSB_EEEED0Ev] }, comdat, align 8
@_ZTIN5osgeo4proj5lru115CacheImSt6vectorIhSaIhEENS1_8NullLockESt13unordered_mapImSt14_List_iteratorINS1_12KeyValuePairImS5_EEESt4hashImESt8equal_toImESaISt4pairIKmSB_EEEEE = linkonce_odr hidden constant { ptr, ptr } { ptr getelementptr inbounds (ptr, ptr @_ZTVN10__cxxabiv117__class_type_infoE, i64 2), ptr @_ZTSN5osgeo4proj5lru115CacheImSt6vectorIhSaIhEENS1_8NullLockESt13unordered_mapImSt14_List_iteratorINS1_12KeyValuePairImS5_EEESt4hashImESt8equal_toImESaISt4pairIKmSB_EEEEE }, comdat, align 8
@_ZTSN5osgeo4proj5lru115CacheImSt6vectorIhSaIhEENS1_8NullLockESt13unordered_mapImSt14_List_iteratorINS1_12KeyValuePairImS5_EEESt4hashImESt8equal_toImESaISt4pairIKmSB_EEEEE = linkonce_odr hidden constant [167 x i8] c"N5osgeo4proj5lru115CacheImSt6vectorIhSaIhEENS1_8NullLockESt13unordered_mapImSt14_List_iteratorINS1_12KeyValuePairImS5_EEESt4hashImESt8equal_toImESaISt4pairIKmSB_EEEEE\00", comdat, align 1
@_ZZN5osgeo4proj18OneTimeTIFFTagInit16GTiffTagExtenderEP4tiffE14xtiffFieldInfo = linkonce_odr hidden constant [8 x %struct.TIFFFieldInfo] [%struct.TIFFFieldInfo { i32 33550, i16 -1, i16 -1, i32 12, i16 65, i8 1, i8 1, ptr @.str.112 }, %struct.TIFFFieldInfo { i32 33922, i16 -1, i16 -1, i32 12, i16 65, i8 1, i8 1, ptr @.str.113 }, %struct.TIFFFieldInfo { i32 34264, i16 -1, i16 -1, i32 12, i16 65, i8 1, i8 1, ptr @.str.114 }, %struct.TIFFFieldInfo { i32 34735, i16 -1, i16 -1, i32 3, i16 65, i8 1, i8 1, ptr @.str.115 }, %struct.TIFFFieldInfo { i32 34736, i16 -1, i16 -1, i32 12, i16 65, i8 1, i8 1, ptr @.str.116 }, %struct.TIFFFieldInfo { i32 34737, i16 -1, i16 -1, i32 2, i16 65, i8 1, i8 0, ptr @.str.117 }, %struct.TIFFFieldInfo { i32 42112, i16 -1, i16 -1, i32 2, i16 65, i8 1, i8 0, ptr @.str.118 }, %struct.TIFFFieldInfo { i32 42113, i16 -1, i16 -1, i32 2, i16 65, i8 1, i8 0, ptr @.str.119 }], comdat, align 16
@.str.112 = private unnamed_addr constant [14 x i8] c"GeoPixelScale\00", align 1
@.str.113 = private unnamed_addr constant [13 x i8] c"GeoTiePoints\00", align 1
@.str.114 = private unnamed_addr constant [24 x i8] c"GeoTransformationMatrix\00", align 1
@.str.115 = private unnamed_addr constant [16 x i8] c"GeoKeyDirectory\00", align 1
@.str.116 = private unnamed_addr constant [16 x i8] c"GeoDoubleParams\00", align 1
@.str.117 = private unnamed_addr constant [15 x i8] c"GeoASCIIParams\00", align 1
@.str.118 = private unnamed_addr constant [13 x i8] c"GDALMetadata\00", align 1
@.str.119 = private unnamed_addr constant [16 x i8] c"GDALNoDataValue\00", align 1
@__const._ZNSt8__detail18__to_chars_10_implIjEEvPcjT_.__digits = private unnamed_addr constant [201 x i8] c"00010203040506070809101112131415161718192021222324252627282930313233343536373839404142434445464748495051525354555657585960616263646566676869707172737475767778798081828384858687888990919293949596979899\00", align 16
@_ZTVN5osgeo4proj5lru115CacheImSt6vectorIfSaIfEENS1_8NullLockESt13unordered_mapImSt14_List_iteratorINS1_12KeyValuePairImS5_EEESt4hashImESt8equal_toImESaISt4pairIKmSB_EEEEE = linkonce_odr hidden unnamed_addr constant { [4 x ptr] } { [4 x ptr] [ptr null, ptr @_ZTIN5osgeo4proj5lru115CacheImSt6vectorIfSaIfEENS1_8NullLockESt13unordered_mapImSt14_List_iteratorINS1_12KeyValuePairImS5_EEESt4hashImESt8equal_toImESaISt4pairIKmSB_EEEEE, ptr @_ZN5osgeo4proj5lru115CacheImSt6vectorIfSaIfEENS1_8NullLockESt13unordered_mapImSt14_List_iteratorINS1_12KeyValuePairImS5_EEESt4hashImESt8equal_toImESaISt4pairIKmSB_EEEED2Ev, ptr @_ZN5osgeo4proj5lru115CacheImSt6vectorIfSaIfEENS1_8NullLockESt13unordered_mapImSt14_List_iteratorINS1_12KeyValuePairImS5_EEESt4hashImESt8equal_toImESaISt4pairIKmSB_EEEED0Ev] }, comdat, align 8
@_ZTIN5osgeo4proj5lru115CacheImSt6vectorIfSaIfEENS1_8NullLockESt13unordered_mapImSt14_List_iteratorINS1_12KeyValuePairImS5_EEESt4hashImESt8equal_toImESaISt4pairIKmSB_EEEEE = linkonce_odr hidden constant { ptr, ptr } { ptr getelementptr inbounds (ptr, ptr @_ZTVN10__cxxabiv117__class_type_infoE, i64 2), ptr @_ZTSN5osgeo4proj5lru115CacheImSt6vectorIfSaIfEENS1_8NullLockESt13unordered_mapImSt14_List_iteratorINS1_12KeyValuePairImS5_EEESt4hashImESt8equal_toImESaISt4pairIKmSB_EEEEE }, comdat, align 8
@_ZTSN5osgeo4proj5lru115CacheImSt6vectorIfSaIfEENS1_8NullLockESt13unordered_mapImSt14_List_iteratorINS1_12KeyValuePairImS5_EEESt4hashImESt8equal_toImESaISt4pairIKmSB_EEEEE = linkonce_odr hidden constant [167 x i8] c"N5osgeo4proj5lru115CacheImSt6vectorIfSaIfEENS1_8NullLockESt13unordered_mapImSt14_List_iteratorINS1_12KeyValuePairImS5_EEESt4hashImESt8equal_toImESaISt4pairIKmSB_EEEEE\00", comdat, align 1
@.str.120 = private unnamed_addr constant [26 x i8] c"vector::_M_realloc_append\00", align 1
@.str.121 = private unnamed_addr constant [34 x i8] c"Switching from grid %s to grid %s\00", align 1
@.str.122 = private unnamed_addr constant [49 x i8] c"Inverse grid shift iterator failed to converge.\0A\00", align 1
@.str.123 = private unnamed_addr constant [90 x i8] c"Inverse grid shift iteration failed, presumably at grid edge.\0AUsing first approximation.\0A\00", align 1
@.str.124 = private unnamed_addr constant [20 x i8] c"grid_ix not in grid\00", align 1
@.str.125 = private unnamed_addr constant [50 x i8] c"basic_string: construction from null is not valid\00", align 1
@_ZSt19piecewise_construct = linkonce_odr constant %"struct.std::piecewise_construct_t" zeroinitializer, comdat, align 1
@.str.126 = private unnamed_addr constant [26 x i8] c"vector::_M_default_append\00", align 1
@.str.127 = private unnamed_addr constant [21 x i8] c"basic_string::append\00", align 1
@.str.128 = private unnamed_addr constant [21 x i8] c"basic_string::substr\00", align 1
@.str.129 = private unnamed_addr constant [55 x i8] c"%s: __pos (which is %zu) > this->size() (which is %zu)\00", align 1
@.str.131 = private unnamed_addr constant [23 x i8] c"vector::_M_fill_insert\00", align 1
@.str.132 = private unnamed_addr constant [31 x i8] c"Several grids called %s found!\00", align 1
@.str.133 = private unnamed_addr constant [69 x i8] c"Grid %s refers to non-existing parent %s. Using bounding-box method.\00", align 1
@.str.134 = private unnamed_addr constant [94 x i8] c"Grid %s refers to parent %s, but its extent is not included in it. Using bounding-box method.\00", align 1
@llvm.global_ctors = appending global [1 x { i32, ptr, ptr }] [{ i32, ptr, ptr } { i32 65535, ptr @_GLOBAL__sub_I_grids.cpp, ptr null }]

@_ZN5osgeo4proj4GridD1Ev = unnamed_addr alias void (ptr), ptr @_ZN5osgeo4proj4GridD2Ev
@_ZN5osgeo4proj17VerticalShiftGridD1Ev = unnamed_addr alias void (ptr), ptr @_ZN5osgeo4proj17VerticalShiftGridD2Ev
@_ZN5osgeo4proj20GTXVerticalShiftGridD1Ev = hidden unnamed_addr alias void (ptr), ptr @_ZN5osgeo4proj20GTXVerticalShiftGridD2Ev
@_ZN5osgeo4proj20VerticalShiftGridSetC1Ev = unnamed_addr alias void (ptr), ptr @_ZN5osgeo4proj20VerticalShiftGridSetC2Ev
@_ZN5osgeo4proj20VerticalShiftGridSetD1Ev = unnamed_addr alias void (ptr), ptr @_ZN5osgeo4proj20VerticalShiftGridSetD2Ev
@_ZN5osgeo4proj9GTiffGridC1EP6pj_ctxP4tiffRNS0_10BlockCacheEPNS0_4FileEjRKNSt7__cxx1112basic_stringIcSt11char_traitsIcESaIcEEEiiRKNS0_12ExtentAndResENS0_12TIFFDataTypeEttb = hidden unnamed_addr alias void (ptr, ptr, ptr, ptr, ptr, i32, ptr, i32, i32, ptr, i32, i16, i16, i1), ptr @_ZN5osgeo4proj9GTiffGridC2EP6pj_ctxP4tiffRNS0_10BlockCacheEPNS0_4FileEjRKNSt7__cxx1112basic_stringIcSt11char_traitsIcESaIcEEEiiRKNS0_12ExtentAndResENS0_12TIFFDataTypeEttb
@_ZN5osgeo4proj9GTiffGridD1Ev = hidden unnamed_addr alias void (ptr), ptr @_ZN5osgeo4proj9GTiffGridD2Ev
@_ZN5osgeo4proj12GTiffDatasetD1Ev = hidden unnamed_addr alias void (ptr), ptr @_ZN5osgeo4proj12GTiffDatasetD2Ev
@_ZN5osgeo4proj18GTiffVGridShiftSetD1Ev = hidden unnamed_addr alias void (ptr), ptr @_ZN5osgeo4proj18GTiffVGridShiftSetD2Ev
@_ZN5osgeo4proj10GTiffVGridC1EOSt10unique_ptrINS0_9GTiffGridESt14default_deleteIS3_EEt = hidden unnamed_addr alias void (ptr, ptr, i16), ptr @_ZN5osgeo4proj10GTiffVGridC2EOSt10unique_ptrINS0_9GTiffGridESt14default_deleteIS3_EEt
@_ZN5osgeo4proj10GTiffVGridD1Ev = hidden unnamed_addr alias void (ptr), ptr @_ZN5osgeo4proj10GTiffVGridD2Ev
@_ZN5osgeo4proj19HorizontalShiftGridD1Ev = unnamed_addr alias void (ptr), ptr @_ZN5osgeo4proj19HorizontalShiftGridD2Ev
@_ZN5osgeo4proj22HorizontalShiftGridSetC1Ev = unnamed_addr alias void (ptr), ptr @_ZN5osgeo4proj22HorizontalShiftGridSetC2Ev
@_ZN5osgeo4proj22HorizontalShiftGridSetD1Ev = unnamed_addr alias void (ptr), ptr @_ZN5osgeo4proj22HorizontalShiftGridSetD2Ev
@_ZN5osgeo4proj8NTv1GridD1Ev = hidden unnamed_addr alias void (ptr), ptr @_ZN5osgeo4proj8NTv1GridD2Ev
@_ZN5osgeo4proj11CTable2GridD1Ev = hidden unnamed_addr alias void (ptr), ptr @_ZN5osgeo4proj11CTable2GridD2Ev
@_ZN5osgeo4proj11NTv2GridSetD1Ev = hidden unnamed_addr alias void (ptr), ptr @_ZN5osgeo4proj11NTv2GridSetD2Ev
@_ZN5osgeo4proj18GTiffHGridShiftSetD1Ev = hidden unnamed_addr alias void (ptr), ptr @_ZN5osgeo4proj18GTiffHGridShiftSetD2Ev
@_ZN5osgeo4proj10GTiffHGridC1EOSt10unique_ptrINS0_9GTiffGridESt14default_deleteIS3_EEttdb = hidden unnamed_addr alias void (ptr, ptr, i16, i16, double, i1), ptr @_ZN5osgeo4proj10GTiffHGridC2EOSt10unique_ptrINS0_9GTiffGridESt14default_deleteIS3_EEttdb
@_ZN5osgeo4proj10GTiffHGridD1Ev = hidden unnamed_addr alias void (ptr), ptr @_ZN5osgeo4proj10GTiffHGridD2Ev
@_ZN5osgeo4proj24GTiffGenericGridShiftSetD1Ev = hidden unnamed_addr alias void (ptr), ptr @_ZN5osgeo4proj24GTiffGenericGridShiftSetD2Ev
@_ZN5osgeo4proj16GTiffGenericGridC1EOSt10unique_ptrINS0_9GTiffGridESt14default_deleteIS3_EE = hidden unnamed_addr alias void (ptr, ptr), ptr @_ZN5osgeo4proj16GTiffGenericGridC2EOSt10unique_ptrINS0_9GTiffGridESt14default_deleteIS3_EE
@_ZN5osgeo4proj16GTiffGenericGridD1Ev = hidden unnamed_addr alias void (ptr), ptr @_ZN5osgeo4proj16GTiffGenericGridD2Ev
@_ZN5osgeo4proj16GenericShiftGridD1Ev = unnamed_addr alias void (ptr), ptr @_ZN5osgeo4proj16GenericShiftGridD2Ev
@_ZN5osgeo4proj19GenericShiftGridSetC1Ev = unnamed_addr alias void (ptr), ptr @_ZN5osgeo4proj19GenericShiftGridSetC2Ev
@_ZN5osgeo4proj19GenericShiftGridSetD1Ev = unnamed_addr alias void (ptr), ptr @_ZN5osgeo4proj19GenericShiftGridSetD2Ev

; Function Attrs: mustprogress nofree norecurse nosync nounwind sspstrong willreturn memory(argmem: readwrite) uwtable
define hidden void @_ZN5osgeo4proj12ExtentAndRes13computeInvResEv(ptr noundef nonnull align 8 captures(none) dereferenceable(72) initializes((56, 72)) %0) local_unnamed_addr #0 align 2 {
  %2 = getelementptr inbounds nuw i8, ptr %0, i64 40
  %3 = load double, ptr %2, align 8, !tbaa !4
  %4 = fdiv double 1.000000e+00, %3
  %5 = getelementptr inbounds nuw i8, ptr %0, i64 56
  store double %4, ptr %5, align 8, !tbaa !10
  %6 = getelementptr inbounds nuw i8, ptr %0, i64 48
  %7 = load double, ptr %6, align 8, !tbaa !11
  %8 = fdiv double 1.000000e+00, %7
  %9 = getelementptr inbounds nuw i8, ptr %0, i64 64
  store double %8, ptr %9, align 8, !tbaa !12
  ret void
}

; Function Attrs: mustprogress nofree norecurse nosync nounwind sspstrong willreturn memory(argmem: read) uwtable
define hidden noundef zeroext i1 @_ZNK5osgeo4proj12ExtentAndRes18fullWorldLongitudeEv(ptr noundef nonnull readonly align 8 captures(none) dereferenceable(72) %0) local_unnamed_addr #1 align 2 {
  %2 = load i8, ptr %0, align 8, !tbaa !13, !range !14, !noundef !15
  %3 = trunc nuw i8 %2 to i1
  br i1 %3, label %4, label %14

4:                                                ; preds = %1
  %5 = getelementptr inbounds nuw i8, ptr %0, i64 24
  %6 = load double, ptr %5, align 8, !tbaa !16
  %7 = getelementptr inbounds nuw i8, ptr %0, i64 8
  %8 = load double, ptr %7, align 8, !tbaa !17
  %9 = fsub double %6, %8
  %10 = getelementptr inbounds nuw i8, ptr %0, i64 40
  %11 = load double, ptr %10, align 8, !tbaa !4
  %12 = fadd double %9, %11
  %13 = fcmp oge double %12, 0x401921FB5442754A
  br label %14

14:                                               ; preds = %4, %1
  %15 = phi i1 [ false, %1 ], [ %13, %4 ]
  ret i1 %15
}

; Function Attrs: mustprogress nofree norecurse nosync nounwind sspstrong willreturn memory(argmem: read) uwtable
define hidden noundef zeroext i1 @_ZNK5osgeo4proj12ExtentAndRes8containsERKS1_(ptr noundef nonnull readonly align 8 captures(none) dereferenceable(72) %0, ptr noundef nonnull readonly align 8 captures(none) dereferenceable(72) %1) local_unnamed_addr #1 align 2 {
  %3 = getelementptr inbounds nuw i8, ptr %1, i64 8
  %4 = load double, ptr %3, align 8, !tbaa !17
  %5 = getelementptr inbounds nuw i8, ptr %0, i64 8
  %6 = load double, ptr %5, align 8, !tbaa !17
  %7 = fcmp ult double %4, %6
  br i1 %7, label %26, label %8

8:                                                ; preds = %2
  %9 = getelementptr inbounds nuw i8, ptr %1, i64 24
  %10 = load double, ptr %9, align 8, !tbaa !16
  %11 = getelementptr inbounds nuw i8, ptr %0, i64 24
  %12 = load double, ptr %11, align 8, !tbaa !16
  %13 = fcmp ugt double %10, %12
  br i1 %13, label %26, label %14

14:                                               ; preds = %8
  %15 = getelementptr inbounds nuw i8, ptr %1, i64 16
  %16 = load double, ptr %15, align 8, !tbaa !18
  %17 = getelementptr inbounds nuw i8, ptr %0, i64 16
  %18 = load double, ptr %17, align 8, !tbaa !18
  %19 = fcmp ult double %16, %18
  br i1 %19, label %26, label %20

20:                                               ; preds = %14
  %21 = getelementptr inbounds nuw i8, ptr %1, i64 32
  %22 = load double, ptr %21, align 8, !tbaa !19
  %23 = getelementptr inbounds nuw i8, ptr %0, i64 32
  %24 = load double, ptr %23, align 8, !tbaa !19
  %25 = fcmp ole double %22, %24
  br label %26

26:                                               ; preds = %20, %14, %8, %2
  %27 = phi i1 [ false, %14 ], [ false, %8 ], [ false, %2 ], [ %25, %20 ]
  ret i1 %27
}

; Function Attrs: mustprogress nofree norecurse nosync nounwind sspstrong willreturn memory(argmem: read) uwtable
define hidden noundef zeroext i1 @_ZNK5osgeo4proj12ExtentAndRes10intersectsERKS1_(ptr noundef nonnull readonly align 8 captures(none) dereferenceable(72) %0, ptr noundef nonnull readonly align 8 captures(none) dereferenceable(72) %1) local_unnamed_addr #1 align 2 {
  %3 = getelementptr inbounds nuw i8, ptr %1, i64 8
  %4 = load double, ptr %3, align 8, !tbaa !17
  %5 = getelementptr inbounds nuw i8, ptr %0, i64 24
  %6 = load double, ptr %5, align 8, !tbaa !16
  %7 = fcmp uge double %4, %6
  %8 = getelementptr inbounds nuw i8, ptr %0, i64 8
  %9 = load double, ptr %8, align 8
  %10 = fcmp ugt double %9, %4
  %11 = select i1 %7, i1 true, i1 %10
  br i1 %11, label %24, label %12

12:                                               ; preds = %2
  %13 = getelementptr inbounds nuw i8, ptr %1, i64 16
  %14 = load double, ptr %13, align 8, !tbaa !18
  %15 = getelementptr inbounds nuw i8, ptr %0, i64 32
  %16 = load double, ptr %15, align 8, !tbaa !19
  %17 = fcmp olt double %14, %16
  br i1 %17, label %18, label %24

18:                                               ; preds = %12
  %19 = getelementptr inbounds nuw i8, ptr %0, i64 16
  %20 = load double, ptr %19, align 8, !tbaa !18
  %21 = getelementptr inbounds nuw i8, ptr %1, i64 32
  %22 = load double, ptr %21, align 8, !tbaa !19
  %23 = fcmp ole double %20, %22
  br label %24

24:                                               ; preds = %18, %12, %2
  %25 = phi i1 [ false, %12 ], [ false, %2 ], [ %23, %18 ]
  ret i1 %25
}

; Function Attrs: mustprogress sspstrong uwtable
define void @_ZN5osgeo4proj4GridC2ERKNSt7__cxx1112basic_stringIcSt11char_traitsIcESaIcEEEiiRKNS0_12ExtentAndResE(ptr noundef nonnull align 8 dereferenceable(120) initializes((0, 8)) %0, ptr noundef nonnull readonly align 8 captures(none) dereferenceable(32) %1, i32 noundef %2, i32 noundef %3, ptr noundef nonnull readonly align 8 captures(none) dereferenceable(72) %4) unnamed_addr #2 align 2 personality ptr @__gxx_personality_v0 {
  %6 = alloca i64, align 8
  store ptr getelementptr inbounds nuw inrange(-16, 40) (i8, ptr @_ZTVN5osgeo4proj4GridE, i64 16), ptr %0, align 8, !tbaa !20
  %7 = getelementptr inbounds nuw i8, ptr %0, i64 8
  %8 = getelementptr inbounds nuw i8, ptr %0, i64 24
  store ptr %8, ptr %7, align 8, !tbaa !22
  %9 = load ptr, ptr %1, align 8, !tbaa !26
  %10 = getelementptr inbounds nuw i8, ptr %1, i64 8
  %11 = load i64, ptr %10, align 8, !tbaa !29
  %12 = icmp ult i64 %11, 9223372036854775807
  tail call void @llvm.assume(i1 %12)
  call void @llvm.lifetime.start.p0(i64 8, ptr nonnull %6)
  store i64 %11, ptr %6, align 8, !tbaa !30
  %13 = icmp samesign ugt i64 %11, 15
  br i1 %13, label %14, label %17

14:                                               ; preds = %5
  %15 = call noundef ptr @_ZNSt7__cxx1112basic_stringIcSt11char_traitsIcESaIcEE9_M_createERmm(ptr noundef nonnull align 8 dereferenceable(32) %7, ptr noundef nonnull align 8 dereferenceable(8) %6, i64 noundef 0)
  store ptr %15, ptr %7, align 8, !tbaa !26
  %16 = load i64, ptr %6, align 8, !tbaa !30
  store i64 %16, ptr %8, align 8, !tbaa !31
  br label %17

17:                                               ; preds = %14, %5
  %18 = phi i64 [ %16, %14 ], [ %11, %5 ]
  %19 = phi ptr [ %15, %14 ], [ %8, %5 ]
  switch i64 %18, label %22 [
    i64 0, label %20
    i64 -1, label %24
  ]

20:                                               ; preds = %17
  %21 = load i8, ptr %9, align 1, !tbaa !31
  store i8 %21, ptr %19, align 1, !tbaa !31
  br label %24

22:                                               ; preds = %17
  %23 = add nuw i64 %18, 1
  call void @llvm.memcpy.p0.p0.i64(ptr noundef nonnull align 1 dereferenceable(1) %19, ptr noundef nonnull align 1 dereferenceable(1) %9, i64 %23, i1 false)
  br label %24

24:                                               ; preds = %17, %20, %22
  %25 = load i64, ptr %6, align 8, !tbaa !30
  %26 = getelementptr inbounds nuw i8, ptr %0, i64 16
  store i64 %25, ptr %26, align 8, !tbaa !29
  call void @llvm.lifetime.end.p0(i64 8, ptr nonnull %6)
  %27 = getelementptr inbounds nuw i8, ptr %0, i64 40
  store i32 %2, ptr %27, align 8, !tbaa !32
  %28 = getelementptr inbounds nuw i8, ptr %0, i64 44
  store i32 %3, ptr %28, align 4, !tbaa !35
  %29 = getelementptr inbounds nuw i8, ptr %0, i64 48
  call void @llvm.memcpy.p0.p0.i64(ptr noundef nonnull align 8 dereferenceable(72) %29, ptr noundef nonnull align 8 dereferenceable(72) %4, i64 72, i1 false), !tbaa.struct !36
  ret void
}

; Function Attrs: mustprogress nocallback nofree nounwind willreturn memory(argmem: readwrite)
declare void @llvm.memcpy.p0.p0.i64(ptr noalias writeonly captures(none), ptr noalias readonly captures(none), i64, i1 immarg) #3

; Function Attrs: mustprogress nounwind sspstrong uwtable
define void @_ZN5osgeo4proj4GridD2Ev(ptr noundef nonnull align 8 captures(address) dereferenceable(120) initializes((0, 8)) %0) unnamed_addr #4 align 2 personality ptr @__gxx_personality_v0 {
  store ptr getelementptr inbounds nuw inrange(-16, 40) (i8, ptr @_ZTVN5osgeo4proj4GridE, i64 16), ptr %0, align 8, !tbaa !20
  %2 = getelementptr inbounds nuw i8, ptr %0, i64 8
  %3 = load ptr, ptr %2, align 8, !tbaa !26
  %4 = getelementptr inbounds nuw i8, ptr %0, i64 24
  %5 = icmp eq ptr %3, %4
  br i1 %5, label %6, label %10

6:                                                ; preds = %1
  %7 = getelementptr inbounds nuw i8, ptr %0, i64 16
  %8 = load i64, ptr %7, align 8, !tbaa !29
  %9 = icmp ult i64 %8, 16
  tail call void @llvm.assume(i1 %9)
  br label %13

10:                                               ; preds = %1
  %11 = load i64, ptr %4, align 8, !tbaa !31
  %12 = add i64 %11, 1
  tail call void @_ZdlPvm(ptr noundef %3, i64 noundef %12) #34
  br label %13

13:                                               ; preds = %6, %10
  ret void
}

; Function Attrs: mustprogress nounwind sspstrong uwtable
declare void @_ZNSt7__cxx1112basic_stringIcSt11char_traitsIcESaIcEED2Ev(ptr noundef nonnull align 8 dereferenceable(32)) unnamed_addr #4 align 2

; Function Attrs: cold mustprogress noreturn nounwind sspstrong memory(inaccessiblemem: write) uwtable
define void @_ZN5osgeo4proj4GridD0Ev(ptr nonnull readnone align 8 captures(none) %0) unnamed_addr #5 align 2 {
  tail call void @llvm.trap() #35
  unreachable
}

; Function Attrs: cold noreturn nounwind memory(inaccessiblemem: write)
declare void @llvm.trap() #6

; Function Attrs: mustprogress sspstrong uwtable
define void @_ZN5osgeo4proj17VerticalShiftGridC2ERKNSt7__cxx1112basic_stringIcSt11char_traitsIcESaIcEEEiiRKNS0_12ExtentAndResE(ptr noundef nonnull align 8 dereferenceable(144) initializes((0, 8)) %0, ptr noundef nonnull readonly align 8 captures(none) dereferenceable(32) %1, i32 noundef %2, i32 noundef %3, ptr noundef nonnull readonly align 8 captures(none) dereferenceable(72) %4) unnamed_addr #2 align 2 personality ptr @__gxx_personality_v0 {
  %6 = alloca i64, align 8
  store ptr getelementptr inbounds nuw inrange(-16, 40) (i8, ptr @_ZTVN5osgeo4proj4GridE, i64 16), ptr %0, align 8, !tbaa !20
  %7 = getelementptr inbounds nuw i8, ptr %0, i64 8
  %8 = getelementptr inbounds nuw i8, ptr %0, i64 24
  store ptr %8, ptr %7, align 8, !tbaa !22
  %9 = load ptr, ptr %1, align 8, !tbaa !26
  %10 = getelementptr inbounds nuw i8, ptr %1, i64 8
  %11 = load i64, ptr %10, align 8, !tbaa !29
  %12 = icmp ult i64 %11, 9223372036854775807
  tail call void @llvm.assume(i1 %12)
  call void @llvm.lifetime.start.p0(i64 8, ptr nonnull %6)
  store i64 %11, ptr %6, align 8, !tbaa !30
  %13 = icmp samesign ugt i64 %11, 15
  br i1 %13, label %14, label %17

14:                                               ; preds = %5
  %15 = call noundef ptr @_ZNSt7__cxx1112basic_stringIcSt11char_traitsIcESaIcEE9_M_createERmm(ptr noundef nonnull align 8 dereferenceable(32) %7, ptr noundef nonnull align 8 dereferenceable(8) %6, i64 noundef 0)
  store ptr %15, ptr %7, align 8, !tbaa !26
  %16 = load i64, ptr %6, align 8, !tbaa !30
  store i64 %16, ptr %8, align 8, !tbaa !31
  br label %17

17:                                               ; preds = %14, %5
  %18 = phi i64 [ %16, %14 ], [ %11, %5 ]
  %19 = phi ptr [ %15, %14 ], [ %8, %5 ]
  switch i64 %18, label %22 [
    i64 0, label %20
    i64 -1, label %24
  ]

20:                                               ; preds = %17
  %21 = load i8, ptr %9, align 1, !tbaa !31
  store i8 %21, ptr %19, align 1, !tbaa !31
  br label %24

22:                                               ; preds = %17
  %23 = add nuw i64 %18, 1
  call void @llvm.memcpy.p0.p0.i64(ptr noundef nonnull align 1 dereferenceable(1) %19, ptr noundef nonnull align 1 dereferenceable(1) %9, i64 %23, i1 false)
  br label %24

24:                                               ; preds = %17, %20, %22
  %25 = load i64, ptr %6, align 8, !tbaa !30
  %26 = getelementptr inbounds nuw i8, ptr %0, i64 16
  store i64 %25, ptr %26, align 8, !tbaa !29
  call void @llvm.lifetime.end.p0(i64 8, ptr nonnull %6)
  %27 = getelementptr inbounds nuw i8, ptr %0, i64 40
  store i32 %2, ptr %27, align 8, !tbaa !32
  %28 = getelementptr inbounds nuw i8, ptr %0, i64 44
  store i32 %3, ptr %28, align 4, !tbaa !35
  %29 = getelementptr inbounds nuw i8, ptr %0, i64 48
  call void @llvm.memcpy.p0.p0.i64(ptr noundef nonnull align 8 dereferenceable(72) %29, ptr noundef nonnull readonly align 8 dereferenceable(72) %4, i64 72, i1 false), !tbaa.struct !36
  store ptr getelementptr inbounds nuw inrange(-16, 64) (i8, ptr @_ZTVN5osgeo4proj17VerticalShiftGridE, i64 16), ptr %0, align 8, !tbaa !20
  %30 = getelementptr inbounds nuw i8, ptr %0, i64 120
  call void @llvm.memset.p0.i64(ptr noundef nonnull align 8 dereferenceable(24) %30, i8 0, i64 24, i1 false)
  ret void
}

; Function Attrs: mustprogress nocallback nofree nounwind willreturn memory(argmem: write)
declare void @llvm.memset.p0.i64(ptr writeonly captures(none), i8, i64, i1 immarg) #7

; Function Attrs: cold mustprogress noreturn nounwind sspstrong memory(inaccessiblemem: write) uwtable
define void @_ZN5osgeo4proj17VerticalShiftGridD0Ev(ptr nonnull readnone align 8 captures(none) %0) unnamed_addr #5 align 2 {
  tail call void @llvm.trap() #35
  unreachable
}

; Function Attrs: nofree nounwind
declare i32 @__cxa_atexit(ptr, ptr, ptr) local_unnamed_addr #8

; Function Attrs: mustprogress nofree norecurse nosync nounwind sspstrong willreturn memory(argmem: write) uwtable
define hidden noundef zeroext i1 @_ZNK5osgeo4proj21NullVerticalShiftGrid7valueAtEiiRf(ptr nonnull readnone align 8 captures(none) %0, i32 %1, i32 %2, ptr noundef nonnull writeonly align 4 captures(none) dereferenceable(4) initializes((0, 4)) %3) unnamed_addr #9 align 2 {
  store float 0.000000e+00, ptr %3, align 4, !tbaa !39
  ret i1 true
}

; Function Attrs: mustprogress sspstrong uwtable
define hidden void @_ZN5osgeo4proj14FloatLineCache6insertEjjRKSt6vectorIfSaIfEE(ptr noundef nonnull align 8 dereferenceable(112) %0, i32 noundef %1, i32 noundef %2, ptr noundef nonnull align 8 dereferenceable(24) %3) local_unnamed_addr #2 align 2 {
  %5 = alloca i64, align 8
  call void @llvm.lifetime.start.p0(i64 8, ptr nonnull %5) #36
  %6 = zext i32 %1 to i64
  %7 = shl nuw i64 %6, 32
  %8 = zext i32 %2 to i64
  %9 = or disjoint i64 %7, %8
  store i64 %9, ptr %5, align 8, !tbaa !30
  call void @_ZN5osgeo4proj5lru115CacheImSt6vectorIfSaIfEENS1_8NullLockESt13unordered_mapImSt14_List_iteratorINS1_12KeyValuePairImS5_EEESt4hashImESt8equal_toImESaISt4pairIKmSB_EEEE6insertERSH_RKS5_(ptr noundef nonnull align 8 dereferenceable(112) %0, ptr noundef nonnull align 8 dereferenceable(8) %5, ptr noundef nonnull align 8 dereferenceable(24) %3)
  call void @llvm.lifetime.end.p0(i64 8, ptr nonnull %5) #36
  ret void
}

; Function Attrs: mustprogress sspstrong uwtable
define linkonce_odr hidden void @_ZN5osgeo4proj5lru115CacheImSt6vectorIfSaIfEENS1_8NullLockESt13unordered_mapImSt14_List_iteratorINS1_12KeyValuePairImS5_EEESt4hashImESt8equal_toImESaISt4pairIKmSB_EEEE6insertERSH_RKS5_(ptr noundef nonnull align 8 dereferenceable(112) %0, ptr noundef nonnull align 8 dereferenceable(8) %1, ptr noundef nonnull align 8 dereferenceable(24) %2) local_unnamed_addr #2 comdat align 2 personality ptr @__gxx_personality_v0 {
  %4 = getelementptr inbounds nuw i8, ptr %0, i64 16
  %5 = getelementptr inbounds nuw i8, ptr %0, i64 40
  %6 = load i64, ptr %5, align 8, !tbaa !41, !noalias !48
  %7 = icmp eq i64 %6, 0
  br i1 %7, label %17, label %8

8:                                                ; preds = %3
  %9 = load i64, ptr %1, align 8, !tbaa !30, !noalias !48
  %10 = getelementptr inbounds nuw i8, ptr %0, i64 24
  %11 = load i64, ptr %10, align 8, !tbaa !51, !noalias !48
  %12 = urem i64 %9, %11
  %13 = load ptr, ptr %4, align 8, !tbaa !52, !noalias !48
  %14 = getelementptr inbounds nuw ptr, ptr %13, i64 %12
  %15 = load ptr, ptr %14, align 8, !tbaa !53, !noalias !48
  %16 = icmp eq ptr %15, null
  br i1 %16, label %59, label %28

17:                                               ; preds = %3
  %18 = getelementptr inbounds nuw i8, ptr %0, i64 32
  %19 = load i64, ptr %1, align 8, !noalias !48
  br label %20

20:                                               ; preds = %24, %17
  %21 = phi ptr [ %18, %17 ], [ %22, %24 ]
  %22 = load ptr, ptr %21, align 8, !tbaa !54, !noalias !48
  %23 = icmp eq ptr %22, null
  br i1 %23, label %59, label %24

24:                                               ; preds = %20
  %25 = getelementptr inbounds nuw i8, ptr %22, i64 8
  %26 = load i64, ptr %25, align 8, !tbaa !30, !noalias !48
  %27 = icmp eq i64 %19, %26
  br i1 %27, label %45, label %20, !llvm.loop !55

28:                                               ; preds = %8
  %29 = load ptr, ptr %15, align 8, !tbaa !54, !noalias !48
  %30 = getelementptr inbounds nuw i8, ptr %29, i64 8
  %31 = load i64, ptr %30, align 8, !tbaa !30, !noalias !48
  %32 = icmp eq i64 %9, %31
  br i1 %32, label %45, label %35

33:                                               ; preds = %39
  %34 = icmp eq i64 %9, %41
  br i1 %34, label %45, label %35, !llvm.loop !57

35:                                               ; preds = %28, %33
  %36 = phi ptr [ %37, %33 ], [ %29, %28 ]
  %37 = load ptr, ptr %36, align 8, !tbaa !54, !noalias !48
  %38 = icmp eq ptr %37, null
  br i1 %38, label %59, label %39, !prof !58

39:                                               ; preds = %35
  %40 = getelementptr inbounds nuw i8, ptr %37, i64 8
  %41 = load i64, ptr %40, align 8, !tbaa !30, !noalias !48
  %42 = urem i64 %41, %11
  %43 = icmp eq i64 %42, %12
  br i1 %43, label %33, label %44, !prof !59, !llvm.loop !57

44:                                               ; preds = %39
  br label %59, !llvm.loop !57

45:                                               ; preds = %33, %24, %28
  %46 = phi ptr [ %29, %28 ], [ %22, %24 ], [ %37, %33 ]
  %47 = getelementptr inbounds nuw i8, ptr %46, i64 16
  %48 = load ptr, ptr %47, align 8, !tbaa !60
  %49 = getelementptr inbounds nuw i8, ptr %48, i64 24
  %50 = tail call noundef nonnull align 8 dereferenceable(24) ptr @_ZNSt6vectorIfSaIfEEaSERKS1_(ptr noundef nonnull align 8 dereferenceable(24) %49, ptr noundef nonnull align 8 dereferenceable(24) %2)
  %51 = getelementptr inbounds nuw i8, ptr %0, i64 72
  %52 = load ptr, ptr %51, align 8, !tbaa !63
  %53 = load ptr, ptr %47, align 8, !tbaa !60
  %54 = load ptr, ptr %53, align 8, !tbaa !63
  %55 = icmp eq ptr %52, %53
  %56 = icmp eq ptr %52, %54
  %57 = select i1 %55, i1 true, i1 %56
  br i1 %57, label %127, label %58

58:                                               ; preds = %45
  tail call void @_ZNSt8__detail15_List_node_base11_M_transferEPS0_S1_(ptr noundef nonnull align 8 dereferenceable(16) %52, ptr noundef nonnull %53, ptr noundef %54) #36
  br label %127

59:                                               ; preds = %35, %20, %8, %44
  %60 = phi i64 [ %9, %8 ], [ %9, %44 ], [ %19, %20 ], [ %9, %35 ]
  %61 = getelementptr inbounds nuw i8, ptr %0, i64 72
  %62 = load ptr, ptr %61, align 8, !tbaa !63
  %63 = tail call noalias noundef nonnull dereferenceable(48) ptr @_Znwm(i64 noundef 48) #37
  %64 = getelementptr inbounds nuw i8, ptr %63, i64 16
  store i64 %60, ptr %64, align 8, !tbaa !65
  %65 = getelementptr inbounds nuw i8, ptr %63, i64 24
  %66 = getelementptr inbounds nuw i8, ptr %2, i64 8
  %67 = load ptr, ptr %66, align 8, !tbaa !72
  %68 = load ptr, ptr %2, align 8, !tbaa !73
  %69 = ptrtoint ptr %67 to i64
  %70 = ptrtoint ptr %68 to i64
  %71 = sub i64 %69, %70
  %72 = icmp sgt i64 %71, -1
  tail call void @llvm.assume(i1 %72)
  tail call void @llvm.memset.p0.i64(ptr noundef nonnull align 8 dereferenceable(24) %65, i8 0, i64 24, i1 false)
  %73 = icmp eq ptr %67, %68
  br i1 %73, label %76, label %74

74:                                               ; preds = %59
  %75 = invoke noalias noundef nonnull ptr @_Znwm(i64 noundef %71) #37
          to label %80 unwind label %84

76:                                               ; preds = %59
  %77 = getelementptr inbounds nuw i8, ptr %63, i64 32
  %78 = getelementptr inbounds nuw i8, ptr null, i64 %71
  %79 = getelementptr inbounds nuw i8, ptr %63, i64 40
  tail call void @llvm.memset.p0.i64(ptr noundef nonnull align 8 dereferenceable(16) %65, i8 0, i64 16, i1 false)
  store ptr %78, ptr %79, align 8, !tbaa !74
  br label %86

80:                                               ; preds = %74
  store ptr %75, ptr %65, align 8, !tbaa !73
  %81 = getelementptr inbounds nuw i8, ptr %63, i64 32
  store ptr %75, ptr %81, align 8, !tbaa !72
  %82 = getelementptr inbounds nuw i8, ptr %75, i64 %71
  %83 = getelementptr inbounds nuw i8, ptr %63, i64 40
  store ptr %82, ptr %83, align 8, !tbaa !74
  tail call void @llvm.memcpy.p0.p0.i64(ptr nonnull align 4 %75, ptr align 4 %68, i64 %71, i1 false)
  br label %86

84:                                               ; preds = %74
  %85 = landingpad { ptr, i32 }
          cleanup
  tail call void @_ZdlPvm(ptr noundef nonnull %63, i64 noundef 48) #34
  resume { ptr, i32 } %85

86:                                               ; preds = %80, %76
  %87 = phi ptr [ %81, %80 ], [ %77, %76 ]
  %88 = phi ptr [ %82, %80 ], [ null, %76 ]
  store ptr %88, ptr %87, align 8, !tbaa !72
  tail call void @_ZNSt8__detail15_List_node_base7_M_hookEPS0_(ptr noundef nonnull align 8 dereferenceable(16) %63, ptr noundef %62) #36
  %89 = getelementptr inbounds nuw i8, ptr %0, i64 88
  %90 = load i64, ptr %89, align 8, !tbaa !75
  %91 = add i64 %90, 1
  store i64 %91, ptr %89, align 8, !tbaa !75
  %92 = load ptr, ptr %61, align 8, !tbaa !63
  %93 = tail call noundef nonnull align 8 dereferenceable(8) ptr @_ZNSt8__detail9_Map_baseImSt4pairIKmSt14_List_iteratorIN5osgeo4proj5lru1112KeyValuePairImSt6vectorIfSaIfEEEEEESaISD_ENS_10_Select1stESt8equal_toImESt4hashImENS_18_Mod_range_hashingENS_20_Default_ranged_hashENS_20_Prime_rehash_policyENS_17_Hashtable_traitsILb0ELb0ELb1EEELb1EEixERS2_(ptr noundef nonnull align 8 dereferenceable(56) %4, ptr noundef nonnull align 8 dereferenceable(8) %1)
  store ptr %92, ptr %93, align 8, !tbaa !77
  %94 = getelementptr inbounds nuw i8, ptr %0, i64 96
  %95 = load i64, ptr %94, align 8, !tbaa !78
  %96 = icmp eq i64 %95, 0
  br i1 %96, label %127, label %97

97:                                               ; preds = %86
  %98 = getelementptr inbounds nuw i8, ptr %0, i64 104
  %99 = load i64, ptr %98, align 8, !tbaa !86
  %100 = add i64 %99, %95
  %101 = load i64, ptr %5, align 8, !tbaa !41
  %102 = icmp ugt i64 %101, %100
  %103 = icmp ugt i64 %101, %95
  %104 = and i1 %102, %103
  br i1 %104, label %105, label %127

105:                                              ; preds = %97
  %106 = getelementptr inbounds nuw i8, ptr %0, i64 80
  br label %107

107:                                              ; preds = %123, %105
  %108 = load ptr, ptr %106, align 8, !tbaa !87
  %109 = getelementptr inbounds nuw i8, ptr %108, i64 16
  %110 = tail call noundef i64 @_ZNSt10_HashtableImSt4pairIKmSt14_List_iteratorIN5osgeo4proj5lru1112KeyValuePairImSt6vectorIfSaIfEEEEEESaISC_ENSt8__detail10_Select1stESt8equal_toImESt4hashImENSE_18_Mod_range_hashingENSE_20_Default_ranged_hashENSE_20_Prime_rehash_policyENSE_17_Hashtable_traitsILb0ELb0ELb1EEEE5eraseERS1_(ptr noundef nonnull align 8 dereferenceable(56) %4, ptr noundef nonnull align 8 dereferenceable(8) %109)
  %111 = load ptr, ptr %106, align 8, !tbaa !87
  %112 = load i64, ptr %89, align 8, !tbaa !75
  %113 = add i64 %112, -1
  store i64 %113, ptr %89, align 8, !tbaa !75
  tail call void @_ZNSt8__detail15_List_node_base9_M_unhookEv(ptr noundef nonnull align 8 dereferenceable(16) %111) #36
  %114 = getelementptr inbounds nuw i8, ptr %111, i64 24
  %115 = load ptr, ptr %114, align 8, !tbaa !73
  %116 = icmp eq ptr %115, null
  br i1 %116, label %123, label %117

117:                                              ; preds = %107
  %118 = getelementptr inbounds nuw i8, ptr %111, i64 40
  %119 = load ptr, ptr %118, align 8, !tbaa !74
  %120 = ptrtoint ptr %119 to i64
  %121 = ptrtoint ptr %115 to i64
  %122 = sub i64 %120, %121
  tail call void @_ZdlPvm(ptr noundef nonnull %115, i64 noundef %122) #34
  br label %123

123:                                              ; preds = %117, %107
  tail call void @_ZdlPvm(ptr noundef nonnull %111, i64 noundef 48) #34
  %124 = load i64, ptr %5, align 8, !tbaa !41
  %125 = load i64, ptr %94, align 8, !tbaa !78
  %126 = icmp ugt i64 %124, %125
  br i1 %126, label %107, label %127, !llvm.loop !88

127:                                              ; preds = %123, %97, %86, %58, %45
  ret void
}

; Function Attrs: mustprogress nocallback nofree nosync nounwind willreturn memory(argmem: readwrite)
declare void @llvm.lifetime.start.p0(i64 immarg, ptr captures(none)) #10

; Function Attrs: mustprogress nocallback nofree nosync nounwind willreturn memory(argmem: readwrite)
declare void @llvm.lifetime.end.p0(i64 immarg, ptr captures(none)) #10

; Function Attrs: mustprogress nounwind sspstrong uwtable
define hidden noundef ptr @_ZN5osgeo4proj14FloatLineCache3getEjj(ptr noundef nonnull readonly align 8 captures(none) dereferenceable(112) %0, i32 noundef %1, i32 noundef %2) local_unnamed_addr #4 align 2 personality ptr @__gxx_personality_v0 {
  %4 = zext i32 %1 to i64
  %5 = shl nuw i64 %4, 32
  %6 = zext i32 %2 to i64
  %7 = or disjoint i64 %5, %6
  %8 = getelementptr inbounds nuw i8, ptr %0, i64 40
  %9 = load i64, ptr %8, align 8, !tbaa !41, !noalias !89
  %10 = icmp eq i64 %9, 0
  br i1 %10, label %20, label %11

11:                                               ; preds = %3
  %12 = getelementptr inbounds nuw i8, ptr %0, i64 16
  %13 = getelementptr inbounds nuw i8, ptr %0, i64 24
  %14 = load i64, ptr %13, align 8, !tbaa !51, !noalias !89
  %15 = urem i64 %7, %14
  %16 = load ptr, ptr %12, align 8, !tbaa !52, !noalias !89
  %17 = getelementptr inbounds nuw ptr, ptr %16, i64 %15
  %18 = load ptr, ptr %17, align 8, !tbaa !53, !noalias !89
  %19 = icmp eq ptr %18, null
  br i1 %19, label %62, label %30

20:                                               ; preds = %3
  %21 = getelementptr inbounds nuw i8, ptr %0, i64 32
  br label %22

22:                                               ; preds = %26, %20
  %23 = phi ptr [ %21, %20 ], [ %24, %26 ]
  %24 = load ptr, ptr %23, align 8, !tbaa !54, !noalias !89
  %25 = icmp eq ptr %24, null
  br i1 %25, label %62, label %26

26:                                               ; preds = %22
  %27 = getelementptr inbounds nuw i8, ptr %24, i64 8
  %28 = load i64, ptr %27, align 8, !tbaa !30, !noalias !89
  %29 = icmp eq i64 %7, %28
  br i1 %29, label %47, label %22, !llvm.loop !55

30:                                               ; preds = %11
  %31 = load ptr, ptr %18, align 8, !tbaa !54, !noalias !89
  %32 = getelementptr inbounds nuw i8, ptr %31, i64 8
  %33 = load i64, ptr %32, align 8, !tbaa !30, !noalias !89
  %34 = icmp eq i64 %7, %33
  br i1 %34, label %47, label %37

35:                                               ; preds = %41
  %36 = icmp eq i64 %7, %43
  br i1 %36, label %47, label %37, !llvm.loop !57

37:                                               ; preds = %30, %35
  %38 = phi ptr [ %39, %35 ], [ %31, %30 ]
  %39 = load ptr, ptr %38, align 8, !tbaa !54, !noalias !89
  %40 = icmp eq ptr %39, null
  br i1 %40, label %62, label %41, !prof !58

41:                                               ; preds = %37
  %42 = getelementptr inbounds nuw i8, ptr %39, i64 8
  %43 = load i64, ptr %42, align 8, !tbaa !30, !noalias !89
  %44 = urem i64 %43, %14
  %45 = icmp eq i64 %44, %15
  br i1 %45, label %35, label %46, !prof !59, !llvm.loop !57

46:                                               ; preds = %41
  br label %62, !llvm.loop !57

47:                                               ; preds = %35, %26, %30
  %48 = phi ptr [ %31, %30 ], [ %24, %26 ], [ %39, %35 ]
  %49 = getelementptr inbounds nuw i8, ptr %0, i64 72
  %50 = load ptr, ptr %49, align 8, !tbaa !63
  %51 = getelementptr inbounds nuw i8, ptr %48, i64 16
  %52 = load ptr, ptr %51, align 8, !tbaa !60
  %53 = load ptr, ptr %52, align 8, !tbaa !63
  %54 = icmp eq ptr %50, %52
  %55 = icmp eq ptr %50, %53
  %56 = select i1 %54, i1 true, i1 %55
  br i1 %56, label %59, label %57

57:                                               ; preds = %47
  tail call void @_ZNSt8__detail15_List_node_base11_M_transferEPS0_S1_(ptr noundef nonnull align 8 dereferenceable(16) %50, ptr noundef nonnull %52, ptr noundef %53) #36
  %58 = load ptr, ptr %51, align 8, !tbaa !60
  br label %59

59:                                               ; preds = %57, %47
  %60 = phi ptr [ %52, %47 ], [ %58, %57 ]
  %61 = getelementptr inbounds nuw i8, ptr %60, i64 24
  br label %62

62:                                               ; preds = %37, %22, %11, %46, %59
  %63 = phi ptr [ %61, %59 ], [ null, %11 ], [ null, %46 ], [ null, %22 ], [ null, %37 ]
  ret ptr %63
}

; Function Attrs: mustprogress nounwind sspstrong uwtable
define hidden void @_ZN5osgeo4proj20GTXVerticalShiftGridD2Ev(ptr noundef nonnull align 8 dereferenceable(192) initializes((0, 8)) %0) unnamed_addr #4 align 2 personality ptr @__gxx_personality_v0 {
  store ptr getelementptr inbounds nuw inrange(-16, 64) (i8, ptr @_ZTVN5osgeo4proj20GTXVerticalShiftGridE, i64 16), ptr %0, align 8, !tbaa !20
  %2 = getelementptr inbounds nuw i8, ptr %0, i64 168
  %3 = load ptr, ptr %2, align 8, !tbaa !73
  %4 = icmp eq ptr %3, null
  br i1 %4, label %11, label %5

5:                                                ; preds = %1
  %6 = getelementptr inbounds nuw i8, ptr %0, i64 184
  %7 = load ptr, ptr %6, align 8, !tbaa !74
  %8 = ptrtoint ptr %7 to i64
  %9 = ptrtoint ptr %3 to i64
  %10 = sub i64 %8, %9
  tail call void @_ZdlPvm(ptr noundef nonnull %3, i64 noundef %10) #34
  br label %11

11:                                               ; preds = %1, %5
  %12 = getelementptr inbounds nuw i8, ptr %0, i64 160
  %13 = load ptr, ptr %12, align 8, !tbaa !92
  %14 = icmp eq ptr %13, null
  br i1 %14, label %16, label %15

15:                                               ; preds = %11
  tail call void @_ZNKSt14default_deleteIN5osgeo4proj14FloatLineCacheEEclEPS2_(ptr noundef nonnull align 8 dereferenceable(8) %12, ptr noundef nonnull %13)
  br label %16

16:                                               ; preds = %11, %15
  store ptr null, ptr %12, align 8, !tbaa !92
  %17 = getelementptr inbounds nuw i8, ptr %0, i64 152
  %18 = load ptr, ptr %17, align 8, !tbaa !94
  %19 = icmp eq ptr %18, null
  br i1 %19, label %24, label %20

20:                                               ; preds = %16
  %21 = load ptr, ptr %18, align 8, !tbaa !20
  %22 = getelementptr inbounds nuw i8, ptr %21, i64 8
  %23 = load ptr, ptr %22, align 8
  tail call void %23(ptr noundef nonnull align 8 dereferenceable(73) %18) #36
  br label %24

24:                                               ; preds = %16, %20
  store ptr null, ptr %17, align 8, !tbaa !94
  store ptr getelementptr inbounds nuw inrange(-16, 64) (i8, ptr @_ZTVN5osgeo4proj17VerticalShiftGridE, i64 16), ptr %0, align 8, !tbaa !20
  %25 = getelementptr inbounds nuw i8, ptr %0, i64 120
  %26 = load ptr, ptr %25, align 8, !tbaa !96
  %27 = getelementptr inbounds nuw i8, ptr %0, i64 128
  %28 = load ptr, ptr %27, align 8, !tbaa !99
  %29 = icmp eq ptr %26, %28
  br i1 %29, label %43, label %30

30:                                               ; preds = %24, %38
  %31 = phi ptr [ %39, %38 ], [ %26, %24 ]
  %32 = load ptr, ptr %31, align 8, !tbaa !100
  %33 = icmp eq ptr %32, null
  br i1 %33, label %38, label %34

34:                                               ; preds = %30
  %35 = load ptr, ptr %32, align 8, !tbaa !20
  %36 = getelementptr inbounds nuw i8, ptr %35, i64 8
  %37 = load ptr, ptr %36, align 8
  tail call void %37(ptr noundef nonnull align 8 dereferenceable(144) %32) #36
  br label %38

38:                                               ; preds = %34, %30
  store ptr null, ptr %31, align 8, !tbaa !100
  %39 = getelementptr inbounds nuw i8, ptr %31, i64 8
  %40 = icmp eq ptr %39, %28
  br i1 %40, label %41, label %30, !llvm.loop !102

41:                                               ; preds = %38
  %42 = load ptr, ptr %25, align 8, !tbaa !96
  br label %43

43:                                               ; preds = %41, %24
  %44 = phi ptr [ %42, %41 ], [ %26, %24 ]
  %45 = icmp eq ptr %44, null
  br i1 %45, label %52, label %46

46:                                               ; preds = %43
  %47 = getelementptr inbounds nuw i8, ptr %0, i64 136
  %48 = load ptr, ptr %47, align 8, !tbaa !103
  %49 = ptrtoint ptr %48 to i64
  %50 = ptrtoint ptr %44 to i64
  %51 = sub i64 %49, %50
  tail call void @_ZdlPvm(ptr noundef nonnull %44, i64 noundef %51) #34
  br label %52

52:                                               ; preds = %46, %43
  store ptr getelementptr inbounds nuw inrange(-16, 40) (i8, ptr @_ZTVN5osgeo4proj4GridE, i64 16), ptr %0, align 8, !tbaa !20
  %53 = getelementptr inbounds nuw i8, ptr %0, i64 8
  %54 = load ptr, ptr %53, align 8, !tbaa !26
  %55 = getelementptr inbounds nuw i8, ptr %0, i64 24
  %56 = icmp eq ptr %54, %55
  br i1 %56, label %57, label %61

57:                                               ; preds = %52
  %58 = getelementptr inbounds nuw i8, ptr %0, i64 16
  %59 = load i64, ptr %58, align 8, !tbaa !29
  %60 = icmp ult i64 %59, 16
  tail call void @llvm.assume(i1 %60)
  br label %64

61:                                               ; preds = %52
  %62 = load i64, ptr %55, align 8, !tbaa !31
  %63 = add i64 %62, 1
  tail call void @_ZdlPvm(ptr noundef %54, i64 noundef %63) #34
  br label %64

64:                                               ; preds = %57, %61
  ret void
}

; Function Attrs: mustprogress nounwind sspstrong uwtable
define hidden void @_ZN5osgeo4proj20GTXVerticalShiftGridD0Ev(ptr noundef nonnull align 8 dereferenceable(192) initializes((0, 8)) %0) unnamed_addr #4 align 2 {
  tail call void @_ZN5osgeo4proj20GTXVerticalShiftGridD2Ev(ptr noundef nonnull align 8 dereferenceable(192) %0) #36
  tail call void @_ZdlPvm(ptr noundef nonnull %0, i64 noundef 192) #34
  ret void
}

; Function Attrs: nobuiltin nounwind
declare void @_ZdlPvm(ptr noundef, i64 noundef) local_unnamed_addr #11

; Function Attrs: mustprogress sspstrong uwtable
define hidden noundef ptr @_ZN5osgeo4proj20GTXVerticalShiftGrid4openEP6pj_ctxSt10unique_ptrINS0_4FileESt14default_deleteIS5_EERKNSt7__cxx1112basic_stringIcSt11char_traitsIcESaIcEEE(ptr noundef %0, ptr noundef captures(none) %1, ptr noundef nonnull readonly align 8 captures(none) dereferenceable(32) %2) local_unnamed_addr #2 align 2 personality ptr @__gxx_personality_v0 {
  %4 = alloca i64, align 8
  %5 = alloca [40 x i8], align 16
  %6 = alloca %"class.std::unique_ptr.13", align 8
  call void @llvm.lifetime.start.p0(i64 40, ptr nonnull %5) #36
  %7 = load ptr, ptr %1, align 8, !tbaa !94
  %8 = load ptr, ptr %7, align 8, !tbaa !20
  %9 = getelementptr inbounds nuw i8, ptr %8, i64 16
  %10 = load ptr, ptr %9, align 8
  %11 = call noundef i64 %10(ptr noundef nonnull align 8 dereferenceable(73) %7, ptr noundef nonnull %5, i64 noundef 40)
  %12 = icmp eq i64 %11, 40
  br i1 %12, label %13, label %111

13:                                               ; preds = %3
  %14 = getelementptr inbounds nuw i8, ptr %5, i64 8
  %15 = load i8, ptr %5, align 16, !tbaa !31
  %16 = getelementptr inbounds nuw i8, ptr %5, i64 7
  %17 = load i8, ptr %16, align 1, !tbaa !31
  store i8 %17, ptr %5, align 16, !tbaa !31
  store i8 %15, ptr %16, align 1, !tbaa !31
  %18 = getelementptr inbounds nuw i8, ptr %5, i64 1
  %19 = load i8, ptr %18, align 1, !tbaa !31
  %20 = getelementptr inbounds nuw i8, ptr %5, i64 6
  %21 = load i8, ptr %20, align 2, !tbaa !31
  store i8 %21, ptr %18, align 1, !tbaa !31
  store i8 %19, ptr %20, align 2, !tbaa !31
  %22 = getelementptr inbounds nuw i8, ptr %5, i64 2
  %23 = load i8, ptr %22, align 2, !tbaa !31
  %24 = getelementptr inbounds nuw i8, ptr %5, i64 5
  %25 = load i8, ptr %24, align 1, !tbaa !31
  store i8 %25, ptr %22, align 2, !tbaa !31
  store i8 %23, ptr %24, align 1, !tbaa !31
  %26 = getelementptr inbounds nuw i8, ptr %5, i64 3
  %27 = load i8, ptr %26, align 1, !tbaa !31
  %28 = getelementptr inbounds nuw i8, ptr %5, i64 4
  %29 = load i8, ptr %28, align 4, !tbaa !31
  store i8 %29, ptr %26, align 1, !tbaa !31
  store i8 %27, ptr %28, align 4, !tbaa !31
  %30 = getelementptr inbounds nuw i8, ptr %5, i64 16
  %31 = load i8, ptr %14, align 8, !tbaa !31
  %32 = getelementptr inbounds nuw i8, ptr %5, i64 15
  %33 = load i8, ptr %32, align 1, !tbaa !31
  store i8 %33, ptr %14, align 8, !tbaa !31
  store i8 %31, ptr %32, align 1, !tbaa !31
  %34 = getelementptr inbounds nuw i8, ptr %5, i64 9
  %35 = load i8, ptr %34, align 1, !tbaa !31
  %36 = getelementptr inbounds nuw i8, ptr %5, i64 14
  %37 = load i8, ptr %36, align 2, !tbaa !31
  store i8 %37, ptr %34, align 1, !tbaa !31
  store i8 %35, ptr %36, align 2, !tbaa !31
  %38 = getelementptr inbounds nuw i8, ptr %5, i64 10
  %39 = load i8, ptr %38, align 2, !tbaa !31
  %40 = getelementptr inbounds nuw i8, ptr %5, i64 13
  %41 = load i8, ptr %40, align 1, !tbaa !31
  store i8 %41, ptr %38, align 2, !tbaa !31
  store i8 %39, ptr %40, align 1, !tbaa !31
  %42 = getelementptr inbounds nuw i8, ptr %5, i64 11
  %43 = load i8, ptr %42, align 1, !tbaa !31
  %44 = getelementptr inbounds nuw i8, ptr %5, i64 12
  %45 = load i8, ptr %44, align 4, !tbaa !31
  store i8 %45, ptr %42, align 1, !tbaa !31
  store i8 %43, ptr %44, align 4, !tbaa !31
  %46 = getelementptr inbounds nuw i8, ptr %5, i64 24
  %47 = load i8, ptr %30, align 16, !tbaa !31
  %48 = getelementptr inbounds nuw i8, ptr %5, i64 23
  %49 = load i8, ptr %48, align 1, !tbaa !31
  store i8 %49, ptr %30, align 16, !tbaa !31
  store i8 %47, ptr %48, align 1, !tbaa !31
  %50 = getelementptr inbounds nuw i8, ptr %5, i64 17
  %51 = load i8, ptr %50, align 1, !tbaa !31
  %52 = getelementptr inbounds nuw i8, ptr %5, i64 22
  %53 = load i8, ptr %52, align 2, !tbaa !31
  store i8 %53, ptr %50, align 1, !tbaa !31
  store i8 %51, ptr %52, align 2, !tbaa !31
  %54 = getelementptr inbounds nuw i8, ptr %5, i64 18
  %55 = load i8, ptr %54, align 2, !tbaa !31
  %56 = getelementptr inbounds nuw i8, ptr %5, i64 21
  %57 = load i8, ptr %56, align 1, !tbaa !31
  store i8 %57, ptr %54, align 2, !tbaa !31
  store i8 %55, ptr %56, align 1, !tbaa !31
  %58 = getelementptr inbounds nuw i8, ptr %5, i64 19
  %59 = load i8, ptr %58, align 1, !tbaa !31
  %60 = getelementptr inbounds nuw i8, ptr %5, i64 20
  %61 = load i8, ptr %60, align 4, !tbaa !31
  store i8 %61, ptr %58, align 1, !tbaa !31
  store i8 %59, ptr %60, align 4, !tbaa !31
  %62 = load i8, ptr %46, align 8, !tbaa !31
  %63 = getelementptr inbounds nuw i8, ptr %5, i64 31
  %64 = load i8, ptr %63, align 1, !tbaa !31
  store i8 %64, ptr %46, align 8, !tbaa !31
  store i8 %62, ptr %63, align 1, !tbaa !31
  %65 = getelementptr inbounds nuw i8, ptr %5, i64 25
  %66 = load i8, ptr %65, align 1, !tbaa !31
  %67 = getelementptr inbounds nuw i8, ptr %5, i64 30
  %68 = load i8, ptr %67, align 2, !tbaa !31
  store i8 %68, ptr %65, align 1, !tbaa !31
  store i8 %66, ptr %67, align 2, !tbaa !31
  %69 = getelementptr inbounds nuw i8, ptr %5, i64 26
  %70 = load i8, ptr %69, align 2, !tbaa !31
  %71 = getelementptr inbounds nuw i8, ptr %5, i64 29
  %72 = load i8, ptr %71, align 1, !tbaa !31
  store i8 %72, ptr %69, align 2, !tbaa !31
  store i8 %70, ptr %71, align 1, !tbaa !31
  %73 = getelementptr inbounds nuw i8, ptr %5, i64 27
  %74 = load i8, ptr %73, align 1, !tbaa !31
  %75 = getelementptr inbounds nuw i8, ptr %5, i64 28
  %76 = load i8, ptr %75, align 4, !tbaa !31
  store i8 %76, ptr %73, align 1, !tbaa !31
  store i8 %74, ptr %75, align 4, !tbaa !31
  %77 = getelementptr inbounds nuw i8, ptr %5, i64 32
  %78 = getelementptr inbounds nuw i8, ptr %5, i64 36
  %79 = load i8, ptr %77, align 16, !tbaa !31
  %80 = getelementptr inbounds nuw i8, ptr %5, i64 35
  %81 = load i8, ptr %80, align 1, !tbaa !31
  store i8 %81, ptr %77, align 16, !tbaa !31
  store i8 %79, ptr %80, align 1, !tbaa !31
  %82 = getelementptr inbounds nuw i8, ptr %5, i64 33
  %83 = load i8, ptr %82, align 1, !tbaa !31
  %84 = getelementptr inbounds nuw i8, ptr %5, i64 34
  %85 = load i8, ptr %84, align 2, !tbaa !31
  store i8 %85, ptr %82, align 1, !tbaa !31
  store i8 %83, ptr %84, align 2, !tbaa !31
  %86 = load i8, ptr %78, align 4, !tbaa !31
  %87 = getelementptr inbounds nuw i8, ptr %5, i64 39
  %88 = load i8, ptr %87, align 1, !tbaa !31
  store i8 %88, ptr %78, align 4, !tbaa !31
  store i8 %86, ptr %87, align 1, !tbaa !31
  %89 = getelementptr inbounds nuw i8, ptr %5, i64 37
  %90 = load i8, ptr %89, align 1, !tbaa !31
  %91 = getelementptr inbounds nuw i8, ptr %5, i64 38
  %92 = load i8, ptr %91, align 2, !tbaa !31
  store i8 %92, ptr %89, align 1, !tbaa !31
  store i8 %90, ptr %91, align 2, !tbaa !31
  %93 = load double, ptr %5, align 16
  %94 = load double, ptr %14, align 8
  %95 = getelementptr inbounds nuw i8, ptr %5, i64 16
  %96 = load double, ptr %95, align 16
  %97 = getelementptr inbounds nuw i8, ptr %5, i64 24
  %98 = load double, ptr %97, align 8
  %99 = load i32, ptr %77, align 16
  %100 = getelementptr inbounds nuw i8, ptr %5, i64 36
  %101 = load i32, ptr %100, align 4
  %102 = icmp slt i32 %101, 1
  %103 = icmp slt i32 %99, 1
  %104 = select i1 %102, i1 true, i1 %103
  %105 = call double @llvm.fabs.f64(double %94)
  %106 = fcmp ogt double %105, 3.600000e+02
  %107 = select i1 %104, i1 true, i1 %106
  %108 = call double @llvm.fabs.f64(double %93)
  %109 = fcmp ogt double %108, 9.000000e+01
  %110 = select i1 %107, i1 true, i1 %109
  br i1 %110, label %112, label %113

111:                                              ; preds = %3
  call void (ptr, i32, ptr, ...) @_Z6pj_logP6pj_ctxiPKcz(ptr noundef %0, i32 noundef 1, ptr noundef nonnull @.str)
  call void @_Z22proj_context_errno_setP6pj_ctxi(ptr noundef %0, i32 noundef 1029)
  br label %199

112:                                              ; preds = %13
  call void (ptr, i32, ptr, ...) @_Z6pj_logP6pj_ctxiPKcz(ptr noundef %0, i32 noundef 1, ptr noundef nonnull @.str.1)
  call void @_Z22proj_context_errno_setP6pj_ctxi(ptr noundef %0, i32 noundef 1029)
  br label %199

113:                                              ; preds = %13
  %114 = fcmp ult double %94, 1.800000e+02
  %115 = fadd double %94, -3.600000e+02
  %116 = select i1 %114, double %94, double %115
  %117 = fcmp ult double %116, 0.000000e+00
  br i1 %117, label %123, label %118

118:                                              ; preds = %113
  %119 = uitofp nneg i32 %101 to double
  %120 = call double @llvm.fmuladd.f64(double %98, double %119, double %116)
  %121 = fcmp ogt double %120, 1.800000e+02
  br i1 %121, label %122, label %123

122:                                              ; preds = %118
  call void (ptr, i32, ptr, ...) @_Z6pj_logP6pj_ctxiPKcz(ptr noundef %0, i32 noundef 2, ptr noundef nonnull @.str.2)
  br label %123

123:                                              ; preds = %122, %118, %113
  %124 = fmul double %116, 0x3F91DF46A2529D39
  %125 = fmul double %93, 0x3F91DF46A2529D39
  %126 = fmul double %98, 0x3F91DF46A2529D39
  %127 = fmul double %96, 0x3F91DF46A2529D39
  %128 = add nsw i32 %101, -1
  %129 = uitofp nneg i32 %128 to double
  %130 = call double @llvm.fmuladd.f64(double %98, double %129, double %116)
  %131 = fmul double %130, 0x3F91DF46A2529D39
  %132 = add nsw i32 %99, -1
  %133 = uitofp nneg i32 %132 to double
  %134 = call double @llvm.fmuladd.f64(double %96, double %133, double %93)
  %135 = fmul double %134, 0x3F91DF46A2529D39
  %136 = fdiv double 1.000000e+00, %126
  %137 = fdiv double 1.000000e+00, %127
  %138 = udiv i32 1048576, %101
  call void @llvm.lifetime.start.p0(i64 8, ptr nonnull %6) #36
  call void @llvm.experimental.noalias.scope.decl(metadata !104)
  %139 = call noalias noundef nonnull dereferenceable(112) ptr @_Znwm(i64 noundef 112) #37, !noalias !104
  %140 = zext nneg i32 %138 to i64
  store ptr getelementptr inbounds nuw inrange(-16, 16) (i8, ptr @_ZTVN5osgeo4proj5lru115CacheImSt6vectorIfSaIfEENS1_8NullLockESt13unordered_mapImSt14_List_iteratorINS1_12KeyValuePairImS5_EEESt4hashImESt8equal_toImESaISt4pairIKmSB_EEEEE, i64 16), ptr %139, align 8, !tbaa !20, !noalias !104
  %141 = getelementptr inbounds nuw i8, ptr %139, i64 16
  %142 = getelementptr inbounds nuw i8, ptr %139, i64 48
  store i64 0, ptr %142, align 8, !noalias !104
  %143 = getelementptr inbounds nuw i8, ptr %139, i64 64
  store ptr %143, ptr %141, align 8, !tbaa !52, !noalias !104
  %144 = getelementptr inbounds nuw i8, ptr %139, i64 24
  store i64 1, ptr %144, align 8, !tbaa !51, !noalias !104
  %145 = getelementptr inbounds nuw i8, ptr %139, i64 32
  call void @llvm.memset.p0.i64(ptr noundef nonnull align 8 dereferenceable(16) %145, i8 0, i64 16, i1 false), !noalias !104
  store float 1.000000e+00, ptr %142, align 8, !tbaa !107, !noalias !104
  %146 = getelementptr inbounds nuw i8, ptr %139, i64 56
  %147 = getelementptr inbounds nuw i8, ptr %139, i64 72
  %148 = getelementptr inbounds nuw i8, ptr %139, i64 80
  call void @llvm.memset.p0.i64(ptr noundef nonnull align 8 dereferenceable(16) %146, i8 0, i64 16, i1 false), !noalias !104
  store ptr %147, ptr %148, align 8, !tbaa !87, !noalias !104
  store ptr %147, ptr %147, align 8, !tbaa !63, !noalias !104
  %149 = getelementptr inbounds nuw i8, ptr %139, i64 88
  store i64 0, ptr %149, align 8, !tbaa !30, !noalias !104
  %150 = getelementptr inbounds nuw i8, ptr %139, i64 96
  store i64 %140, ptr %150, align 8, !tbaa !78, !noalias !104
  %151 = getelementptr inbounds nuw i8, ptr %139, i64 104
  store i64 10, ptr %151, align 8, !tbaa !86, !noalias !104
  store ptr %139, ptr %6, align 8, !tbaa !92, !alias.scope !104
  %152 = ptrtoint ptr %139 to i64
  %153 = invoke noalias noundef nonnull dereferenceable(192) ptr @_Znwm(i64 noundef 192) #37
          to label %154 unwind label %193

154:                                              ; preds = %123
  store ptr getelementptr inbounds nuw inrange(-16, 40) (i8, ptr @_ZTVN5osgeo4proj4GridE, i64 16), ptr %153, align 8, !tbaa !20
  %155 = getelementptr inbounds nuw i8, ptr %153, i64 8
  %156 = getelementptr inbounds nuw i8, ptr %153, i64 24
  store ptr %156, ptr %155, align 8, !tbaa !22
  %157 = load ptr, ptr %2, align 8, !tbaa !26
  %158 = getelementptr inbounds nuw i8, ptr %2, i64 8
  %159 = load i64, ptr %158, align 8, !tbaa !29
  %160 = icmp ult i64 %159, 9223372036854775807
  call void @llvm.assume(i1 %160)
  call void @llvm.lifetime.start.p0(i64 8, ptr nonnull %4)
  store i64 %159, ptr %4, align 8, !tbaa !30
  %161 = icmp samesign ugt i64 %159, 15
  br i1 %161, label %162, label %166

162:                                              ; preds = %154
  %163 = invoke noundef ptr @_ZNSt7__cxx1112basic_stringIcSt11char_traitsIcESaIcEE9_M_createERmm(ptr noundef nonnull align 8 dereferenceable(32) %155, ptr noundef nonnull align 8 dereferenceable(8) %4, i64 noundef 0)
          to label %164 unwind label %195

164:                                              ; preds = %162
  store ptr %163, ptr %155, align 8, !tbaa !26
  %165 = load i64, ptr %4, align 8, !tbaa !30
  store i64 %165, ptr %156, align 8, !tbaa !31
  br label %166

166:                                              ; preds = %164, %154
  %167 = phi i64 [ %165, %164 ], [ %159, %154 ]
  %168 = phi ptr [ %163, %164 ], [ %156, %154 ]
  switch i64 %167, label %171 [
    i64 0, label %169
    i64 -1, label %173
  ]

169:                                              ; preds = %166
  %170 = load i8, ptr %157, align 1, !tbaa !31
  store i8 %170, ptr %168, align 1, !tbaa !31
  br label %173

171:                                              ; preds = %166
  %172 = add nuw i64 %167, 1
  call void @llvm.memcpy.p0.p0.i64(ptr noundef nonnull align 1 dereferenceable(1) %168, ptr noundef nonnull align 1 dereferenceable(1) %157, i64 %172, i1 false)
  br label %173

173:                                              ; preds = %166, %169, %171
  %174 = load i64, ptr %4, align 8, !tbaa !30
  %175 = getelementptr inbounds nuw i8, ptr %153, i64 16
  store i64 %174, ptr %175, align 8, !tbaa !29
  call void @llvm.lifetime.end.p0(i64 8, ptr nonnull %4)
  %176 = getelementptr inbounds nuw i8, ptr %153, i64 40
  store i32 %101, ptr %176, align 8, !tbaa !32
  %177 = getelementptr inbounds nuw i8, ptr %153, i64 44
  store i32 %99, ptr %177, align 4, !tbaa !35
  %178 = getelementptr inbounds nuw i8, ptr %153, i64 48
  store i8 1, ptr %178, align 8, !tbaa !37
  %179 = getelementptr inbounds nuw i8, ptr %153, i64 56
  store double %124, ptr %179, align 8, !tbaa !38
  %180 = getelementptr inbounds nuw i8, ptr %153, i64 64
  store double %125, ptr %180, align 8, !tbaa !38
  %181 = getelementptr inbounds nuw i8, ptr %153, i64 72
  store double %131, ptr %181, align 8, !tbaa !38
  %182 = getelementptr inbounds nuw i8, ptr %153, i64 80
  store double %135, ptr %182, align 8, !tbaa !38
  %183 = getelementptr inbounds nuw i8, ptr %153, i64 88
  store double %126, ptr %183, align 8, !tbaa !38
  %184 = getelementptr inbounds nuw i8, ptr %153, i64 96
  store double %127, ptr %184, align 8, !tbaa !38
  %185 = getelementptr inbounds nuw i8, ptr %153, i64 104
  store double %136, ptr %185, align 8, !tbaa !38
  %186 = getelementptr inbounds nuw i8, ptr %153, i64 112
  store double %137, ptr %186, align 8, !tbaa !38
  %187 = getelementptr inbounds nuw i8, ptr %153, i64 120
  call void @llvm.memset.p0.i64(ptr noundef nonnull align 8 dereferenceable(24) %187, i8 0, i64 24, i1 false)
  store ptr getelementptr inbounds nuw inrange(-16, 64) (i8, ptr @_ZTVN5osgeo4proj20GTXVerticalShiftGridE, i64 16), ptr %153, align 8, !tbaa !20
  %188 = getelementptr inbounds nuw i8, ptr %153, i64 144
  store ptr %0, ptr %188, align 8, !tbaa !108
  %189 = getelementptr inbounds nuw i8, ptr %153, i64 152
  %190 = load i64, ptr %1, align 8, !tbaa !94
  store i64 %190, ptr %189, align 8, !tbaa !94
  store ptr null, ptr %1, align 8, !tbaa !94
  %191 = getelementptr inbounds nuw i8, ptr %153, i64 160
  store i64 %152, ptr %191, align 8, !tbaa !92
  %192 = getelementptr inbounds nuw i8, ptr %153, i64 168
  call void @llvm.memset.p0.i64(ptr noundef nonnull align 8 dereferenceable(24) %192, i8 0, i64 24, i1 false)
  call void @llvm.lifetime.end.p0(i64 8, ptr nonnull %6) #36
  br label %199

193:                                              ; preds = %123
  %194 = landingpad { ptr, i32 }
          cleanup
  br label %197

195:                                              ; preds = %162
  %196 = landingpad { ptr, i32 }
          cleanup
  call void @_ZdlPvm(ptr noundef nonnull %153, i64 noundef 192) #34
  br label %197

197:                                              ; preds = %193, %195
  %198 = phi { ptr, i32 } [ %194, %193 ], [ %196, %195 ]
  call void @_ZNKSt14default_deleteIN5osgeo4proj14FloatLineCacheEEclEPS2_(ptr noundef nonnull align 8 dereferenceable(8) %6, ptr noundef nonnull %139)
  call void @llvm.lifetime.end.p0(i64 8, ptr nonnull %6) #36
  call void @llvm.lifetime.end.p0(i64 40, ptr nonnull %5) #36
  resume { ptr, i32 } %198

199:                                              ; preds = %112, %173, %111
  %200 = phi ptr [ null, %111 ], [ null, %112 ], [ %153, %173 ]
  call void @llvm.lifetime.end.p0(i64 40, ptr nonnull %5) #36
  ret ptr %200
}

declare void @_Z6pj_logP6pj_ctxiPKcz(ptr noundef, i32 noundef, ptr noundef, ...) local_unnamed_addr #12

declare void @_Z22proj_context_errno_setP6pj_ctxi(ptr noundef, i32 noundef) local_unnamed_addr #12

; Function Attrs: mustprogress nocallback nofree nosync nounwind speculatable willreturn memory(none)
declare double @llvm.fmuladd.f64(double, double, double) #13

; Function Attrs: nobuiltin allocsize(0)
declare noalias noundef nonnull ptr @_Znwm(i64 noundef) local_unnamed_addr #14

declare i32 @__gxx_personality_v0(...)

; Function Attrs: mustprogress sspstrong uwtable
define hidden noundef zeroext i1 @_ZNK5osgeo4proj20GTXVerticalShiftGrid7valueAtEiiRf(ptr noundef nonnull align 8 dereferenceable(192) %0, i32 noundef %1, i32 noundef %2, ptr noundef nonnull writeonly align 4 captures(none) dereferenceable(4) %3) unnamed_addr #2 align 2 personality ptr @__gxx_personality_v0 {
  %5 = alloca i64, align 8
  %6 = getelementptr inbounds nuw i8, ptr %0, i64 160
  %7 = load ptr, ptr %6, align 8, !tbaa !92
  %8 = zext i32 %2 to i64
  %9 = getelementptr inbounds nuw i8, ptr %7, i64 40
  %10 = load i64, ptr %9, align 8, !tbaa !41, !noalias !127
  %11 = icmp eq i64 %10, 0
  br i1 %11, label %21, label %12

12:                                               ; preds = %4
  %13 = getelementptr inbounds nuw i8, ptr %7, i64 16
  %14 = getelementptr inbounds nuw i8, ptr %7, i64 24
  %15 = load i64, ptr %14, align 8, !tbaa !51, !noalias !127
  %16 = urem i64 %8, %15
  %17 = load ptr, ptr %13, align 8, !tbaa !52, !noalias !127
  %18 = getelementptr inbounds nuw ptr, ptr %17, i64 %16
  %19 = load ptr, ptr %18, align 8, !tbaa !53, !noalias !127
  %20 = icmp eq ptr %19, null
  br i1 %20, label %60, label %31

21:                                               ; preds = %4
  %22 = getelementptr inbounds nuw i8, ptr %7, i64 32
  br label %23

23:                                               ; preds = %27, %21
  %24 = phi ptr [ %22, %21 ], [ %25, %27 ]
  %25 = load ptr, ptr %24, align 8, !tbaa !54, !noalias !127
  %26 = icmp eq ptr %25, null
  br i1 %26, label %60, label %27

27:                                               ; preds = %23
  %28 = getelementptr inbounds nuw i8, ptr %25, i64 8
  %29 = load i64, ptr %28, align 8, !tbaa !30, !noalias !127
  %30 = icmp eq i64 %29, %8
  br i1 %30, label %48, label %23, !llvm.loop !55

31:                                               ; preds = %12
  %32 = load ptr, ptr %19, align 8, !tbaa !54, !noalias !127
  %33 = getelementptr inbounds nuw i8, ptr %32, i64 8
  %34 = load i64, ptr %33, align 8, !tbaa !30, !noalias !127
  %35 = icmp eq i64 %34, %8
  br i1 %35, label %48, label %38

36:                                               ; preds = %42
  %37 = icmp eq i64 %44, %8
  br i1 %37, label %48, label %38, !llvm.loop !57

38:                                               ; preds = %31, %36
  %39 = phi ptr [ %40, %36 ], [ %32, %31 ]
  %40 = load ptr, ptr %39, align 8, !tbaa !54, !noalias !127
  %41 = icmp eq ptr %40, null
  br i1 %41, label %60, label %42, !prof !58

42:                                               ; preds = %38
  %43 = getelementptr inbounds nuw i8, ptr %40, i64 8
  %44 = load i64, ptr %43, align 8, !tbaa !30, !noalias !127
  %45 = urem i64 %44, %15
  %46 = icmp eq i64 %45, %16
  br i1 %46, label %36, label %47, !prof !59, !llvm.loop !57

47:                                               ; preds = %42
  br label %60, !llvm.loop !57

48:                                               ; preds = %36, %27, %31
  %49 = phi ptr [ %32, %31 ], [ %25, %27 ], [ %40, %36 ]
  %50 = getelementptr inbounds nuw i8, ptr %7, i64 72
  %51 = load ptr, ptr %50, align 8, !tbaa !63
  %52 = getelementptr inbounds nuw i8, ptr %49, i64 16
  %53 = load ptr, ptr %52, align 8, !tbaa !60
  %54 = load ptr, ptr %53, align 8, !tbaa !63
  %55 = icmp eq ptr %51, %53
  %56 = icmp eq ptr %51, %54
  %57 = select i1 %55, i1 true, i1 %56
  br i1 %57, label %189, label %58

58:                                               ; preds = %48
  tail call void @_ZNSt8__detail15_List_node_base11_M_transferEPS0_S1_(ptr noundef nonnull align 8 dereferenceable(16) %51, ptr noundef nonnull %53, ptr noundef %54) #36
  %59 = load ptr, ptr %52, align 8, !tbaa !60
  br label %189

60:                                               ; preds = %38, %23, %12, %47
  %61 = getelementptr inbounds nuw i8, ptr %0, i64 168
  %62 = getelementptr inbounds nuw i8, ptr %0, i64 40
  %63 = load i32, ptr %62, align 8, !tbaa !32
  %64 = sext i32 %63 to i64
  %65 = getelementptr inbounds nuw i8, ptr %0, i64 176
  %66 = load ptr, ptr %65, align 8, !tbaa !72
  %67 = load ptr, ptr %61, align 8, !tbaa !73
  %68 = ptrtoint ptr %66 to i64
  %69 = ptrtoint ptr %67 to i64
  %70 = sub i64 %68, %69
  %71 = ashr exact i64 %70, 2
  %72 = icmp sgt i64 %71, -1
  tail call void @llvm.assume(i1 %72)
  %73 = icmp ult i64 %71, %64
  br i1 %73, label %74, label %79

74:                                               ; preds = %60
  %75 = sub nuw nsw i64 %64, %71
  invoke void @_ZNSt6vectorIfSaIfEE17_M_default_appendEm(ptr noundef nonnull align 8 dereferenceable(24) %61, i64 noundef %75)
          to label %76 unwind label %85

76:                                               ; preds = %74
  %77 = load i32, ptr %62, align 8, !tbaa !32
  %78 = sext i32 %77 to i64
  br label %102

79:                                               ; preds = %60
  %80 = icmp samesign ugt i64 %71, %64
  br i1 %80, label %81, label %102

81:                                               ; preds = %79
  %82 = getelementptr inbounds nuw float, ptr %67, i64 %64
  %83 = icmp eq ptr %66, %82
  br i1 %83, label %102, label %84

84:                                               ; preds = %81
  store ptr %82, ptr %65, align 8, !tbaa !72
  br label %102

85:                                               ; preds = %74
  %86 = landingpad { ptr, i32 }
          cleanup
          catch ptr @_ZTISt9exception
  %87 = extractvalue { ptr, i32 } %86, 1
  %88 = tail call i32 @llvm.eh.typeid.for.p0(ptr nonnull @_ZTISt9exception) #36
  %89 = icmp eq i32 %87, %88
  br i1 %89, label %90, label %198

90:                                               ; preds = %85
  %91 = extractvalue { ptr, i32 } %86, 0
  %92 = tail call ptr @__cxa_begin_catch(ptr %91) #36
  %93 = getelementptr inbounds nuw i8, ptr %0, i64 144
  %94 = load ptr, ptr %93, align 8, !tbaa !108
  %95 = load ptr, ptr %92, align 8, !tbaa !20
  %96 = getelementptr inbounds nuw i8, ptr %95, i64 16
  %97 = load ptr, ptr %96, align 8
  %98 = tail call noundef ptr %97(ptr noundef nonnull align 8 dereferenceable(8) %92) #36
  invoke void (ptr, i32, ptr, ...) @_Z6pj_logP6pj_ctxiPKcz(ptr noundef %94, i32 noundef 1, ptr noundef nonnull @.str.3, ptr noundef %98)
          to label %99 unwind label %100

99:                                               ; preds = %90
  tail call void @__cxa_end_catch()
  br label %196

100:                                              ; preds = %90
  %101 = landingpad { ptr, i32 }
          cleanup
  invoke void @__cxa_end_catch()
          to label %198 unwind label %200

102:                                              ; preds = %76, %84, %81, %79
  %103 = phi i64 [ %78, %76 ], [ %64, %84 ], [ %64, %81 ], [ %64, %79 ]
  %104 = shl nsw i64 %103, 2
  %105 = getelementptr inbounds nuw i8, ptr %0, i64 152
  %106 = load ptr, ptr %105, align 8, !tbaa !94
  %107 = sext i32 %2 to i64
  %108 = mul i64 %104, %107
  %109 = add i64 %108, 40
  %110 = load ptr, ptr %106, align 8, !tbaa !20
  %111 = getelementptr inbounds nuw i8, ptr %110, i64 32
  %112 = load ptr, ptr %111, align 8
  %113 = tail call noundef zeroext i1 %112(ptr noundef nonnull align 8 dereferenceable(73) %106, i64 noundef %109, i32 noundef 0)
  %114 = load ptr, ptr %105, align 8, !tbaa !94
  %115 = load ptr, ptr %61, align 8, !tbaa !73
  %116 = load ptr, ptr %114, align 8, !tbaa !20
  %117 = getelementptr inbounds nuw i8, ptr %116, i64 16
  %118 = load ptr, ptr %117, align 8
  %119 = tail call noundef i64 %118(ptr noundef nonnull align 8 dereferenceable(73) %114, ptr noundef nonnull %115, i64 noundef %104)
  %120 = icmp eq i64 %119, %104
  br i1 %120, label %124, label %121

121:                                              ; preds = %102
  %122 = getelementptr inbounds nuw i8, ptr %0, i64 144
  %123 = load ptr, ptr %122, align 8, !tbaa !108
  tail call void @_Z22proj_context_errno_setP6pj_ctxi(ptr noundef %123, i32 noundef 1029)
  br label %196

124:                                              ; preds = %102
  %125 = load ptr, ptr %61, align 8, !tbaa !73
  %126 = load i32, ptr %62, align 8, !tbaa !32
  switch i32 %126, label %127 [
    i32 0, label %165
    i32 1, label %151
  ]

127:                                              ; preds = %124
  %128 = and i32 %126, -2
  %129 = sext i32 %128 to i64
  br label %130

130:                                              ; preds = %130, %127
  %131 = phi ptr [ %125, %127 ], [ %141, %130 ]
  %132 = phi i64 [ 0, %127 ], [ %149, %130 ]
  %133 = getelementptr i8, ptr %131, i64 4
  %134 = load i8, ptr %131, align 1, !tbaa !31
  %135 = getelementptr i8, ptr %131, i64 3
  %136 = load i8, ptr %135, align 1, !tbaa !31
  store i8 %136, ptr %131, align 1, !tbaa !31
  store i8 %134, ptr %135, align 1, !tbaa !31
  %137 = getelementptr inbounds nuw i8, ptr %131, i64 1
  %138 = load i8, ptr %137, align 1, !tbaa !31
  %139 = getelementptr i8, ptr %131, i64 2
  %140 = load i8, ptr %139, align 1, !tbaa !31
  store i8 %140, ptr %137, align 1, !tbaa !31
  store i8 %138, ptr %139, align 1, !tbaa !31
  %141 = getelementptr i8, ptr %131, i64 8
  %142 = load i8, ptr %133, align 1, !tbaa !31
  %143 = getelementptr i8, ptr %131, i64 7
  %144 = load i8, ptr %143, align 1, !tbaa !31
  store i8 %144, ptr %133, align 1, !tbaa !31
  store i8 %142, ptr %143, align 1, !tbaa !31
  %145 = getelementptr i8, ptr %131, i64 5
  %146 = load i8, ptr %145, align 1, !tbaa !31
  %147 = getelementptr i8, ptr %131, i64 6
  %148 = load i8, ptr %147, align 1, !tbaa !31
  store i8 %148, ptr %145, align 1, !tbaa !31
  store i8 %146, ptr %147, align 1, !tbaa !31
  %149 = add i64 %132, 2
  %150 = icmp eq i64 %149, %129
  br i1 %150, label %151, label %130, !llvm.loop !130

151:                                              ; preds = %130, %124
  %152 = phi ptr [ %125, %124 ], [ %141, %130 ]
  %153 = and i32 %126, 1
  %154 = icmp eq i32 %153, 0
  br i1 %154, label %163, label %155

155:                                              ; preds = %151
  %156 = load i8, ptr %152, align 1, !tbaa !31
  %157 = getelementptr i8, ptr %152, i64 3
  %158 = load i8, ptr %157, align 1, !tbaa !31
  store i8 %158, ptr %152, align 1, !tbaa !31
  store i8 %156, ptr %157, align 1, !tbaa !31
  %159 = getelementptr inbounds nuw i8, ptr %152, i64 1
  %160 = load i8, ptr %159, align 1, !tbaa !31
  %161 = getelementptr i8, ptr %152, i64 2
  %162 = load i8, ptr %161, align 1, !tbaa !31
  store i8 %162, ptr %159, align 1, !tbaa !31
  store i8 %160, ptr %161, align 1, !tbaa !31
  br label %163

163:                                              ; preds = %151, %155
  %164 = load ptr, ptr %61, align 8, !tbaa !73
  br label %165

165:                                              ; preds = %124, %163
  %166 = phi ptr [ %164, %163 ], [ %125, %124 ]
  %167 = sext i32 %1 to i64
  %168 = getelementptr inbounds nuw float, ptr %166, i64 %167
  %169 = load float, ptr %168, align 4, !tbaa !39
  store float %169, ptr %3, align 4, !tbaa !39
  %170 = load ptr, ptr %6, align 8, !tbaa !92
  call void @llvm.lifetime.start.p0(i64 8, ptr nonnull %5) #36
  store i64 %8, ptr %5, align 8, !tbaa !30
  invoke void @_ZN5osgeo4proj5lru115CacheImSt6vectorIfSaIfEENS1_8NullLockESt13unordered_mapImSt14_List_iteratorINS1_12KeyValuePairImS5_EEESt4hashImESt8equal_toImESaISt4pairIKmSB_EEEE6insertERSH_RKS5_(ptr noundef nonnull align 8 dereferenceable(112) %170, ptr noundef nonnull align 8 dereferenceable(8) %5, ptr noundef nonnull align 8 dereferenceable(24) %61)
          to label %171 unwind label %172

171:                                              ; preds = %165
  call void @llvm.lifetime.end.p0(i64 8, ptr nonnull %5) #36
  br label %196

172:                                              ; preds = %165
  %173 = landingpad { ptr, i32 }
          cleanup
          catch ptr @_ZTISt9exception
  %174 = extractvalue { ptr, i32 } %173, 1
  %175 = call i32 @llvm.eh.typeid.for.p0(ptr nonnull @_ZTISt9exception) #36
  %176 = icmp eq i32 %174, %175
  br i1 %176, label %177, label %198

177:                                              ; preds = %172
  %178 = extractvalue { ptr, i32 } %173, 0
  %179 = call ptr @__cxa_begin_catch(ptr %178) #36
  %180 = getelementptr inbounds nuw i8, ptr %0, i64 144
  %181 = load ptr, ptr %180, align 8, !tbaa !108
  %182 = load ptr, ptr %179, align 8, !tbaa !20
  %183 = getelementptr inbounds nuw i8, ptr %182, i64 16
  %184 = load ptr, ptr %183, align 8
  %185 = call noundef ptr %184(ptr noundef nonnull align 8 dereferenceable(8) %179) #36
  invoke void (ptr, i32, ptr, ...) @_Z6pj_logP6pj_ctxiPKcz(ptr noundef %181, i32 noundef 1, ptr noundef nonnull @.str.3, ptr noundef %185)
          to label %186 unwind label %187

186:                                              ; preds = %177
  call void @__cxa_end_catch()
  br label %196

187:                                              ; preds = %177
  %188 = landingpad { ptr, i32 }
          cleanup
  invoke void @__cxa_end_catch()
          to label %198 unwind label %200

189:                                              ; preds = %58, %48
  %190 = phi ptr [ %53, %48 ], [ %59, %58 ]
  %191 = getelementptr inbounds nuw i8, ptr %190, i64 24
  %192 = sext i32 %1 to i64
  %193 = load ptr, ptr %191, align 8, !tbaa !73
  %194 = getelementptr inbounds nuw float, ptr %193, i64 %192
  %195 = load float, ptr %194, align 4, !tbaa !39
  store float %195, ptr %3, align 4, !tbaa !39
  br label %196

196:                                              ; preds = %189, %171, %186, %121, %99
  %197 = phi i1 [ false, %99 ], [ false, %121 ], [ true, %186 ], [ true, %171 ], [ true, %189 ]
  ret i1 %197

198:                                              ; preds = %172, %187, %100, %85
  %199 = phi { ptr, i32 } [ %86, %85 ], [ %101, %100 ], [ %173, %172 ], [ %188, %187 ]
  resume { ptr, i32 } %199

200:                                              ; preds = %187, %100
  %201 = landingpad { ptr, i32 }
          catch ptr null
  %202 = extractvalue { ptr, i32 } %201, 0
  call void @__clang_call_terminate(ptr %202) #35
  unreachable
}

; Function Attrs: nofree nosync nounwind memory(none)
declare i32 @llvm.eh.typeid.for.p0(ptr) #15

declare ptr @__cxa_begin_catch(ptr) local_unnamed_addr

declare void @__cxa_end_catch() local_unnamed_addr

; Function Attrs: noinline noreturn nounwind sspstrong uwtable
define linkonce_odr hidden void @__clang_call_terminate(ptr noundef %0) local_unnamed_addr #16 comdat {
  %2 = tail call ptr @__cxa_begin_catch(ptr %0) #36
  tail call void @_ZSt9terminatev() #35
  unreachable
}

; Function Attrs: cold nofree noreturn
declare void @_ZSt9terminatev() local_unnamed_addr #17

; Function Attrs: mustprogress nofree norecurse nosync nounwind sspstrong willreturn memory(none) uwtable
define hidden noundef zeroext i1 @_ZNK5osgeo4proj20GTXVerticalShiftGrid8isNodataEfd(ptr nonnull readnone align 8 captures(none) %0, float noundef %1, double noundef %2) unnamed_addr #18 align 2 {
  %4 = fpext float %1 to double
  %5 = fmul double %2, %4
  %6 = tail call double @llvm.fabs.f64(double %5)
  %7 = fcmp ogt double %6, 1.000000e+03
  %8 = fcmp oeq float %1, 0xC05638E220000000
  %9 = or i1 %8, %7
  ret i1 %9
}

; Function Attrs: mustprogress nofree norecurse nosync nounwind sspstrong willreturn memory(argmem: write) uwtable
define void @_ZN5osgeo4proj20VerticalShiftGridSetC2Ev(ptr noundef nonnull align 8 dereferenceable(96) initializes((0, 8)) %0) unnamed_addr #9 align 2 personality ptr @__gxx_personality_v0 {
  store ptr getelementptr inbounds nuw inrange(-16, 32) (i8, ptr @_ZTVN5osgeo4proj20VerticalShiftGridSetE, i64 16), ptr %0, align 8, !tbaa !20
  %2 = getelementptr inbounds nuw i8, ptr %0, i64 8
  %3 = getelementptr inbounds nuw i8, ptr %0, i64 24
  store ptr %3, ptr %2, align 8, !tbaa !22
  %4 = getelementptr inbounds nuw i8, ptr %0, i64 16
  store i64 0, ptr %4, align 8, !tbaa !29
  store i8 0, ptr %3, align 8, !tbaa !31
  %5 = getelementptr inbounds nuw i8, ptr %0, i64 40
  %6 = getelementptr inbounds nuw i8, ptr %0, i64 56
  store ptr %6, ptr %5, align 8, !tbaa !22
  %7 = getelementptr inbounds nuw i8, ptr %0, i64 48
  store i64 0, ptr %7, align 8, !tbaa !29
  store i8 0, ptr %6, align 8, !tbaa !31
  %8 = getelementptr inbounds nuw i8, ptr %0, i64 72
  tail call void @llvm.memset.p0.i64(ptr noundef nonnull align 8 dereferenceable(24) %8, i8 0, i64 24, i1 false)
  ret void
}

; Function Attrs: mustprogress nounwind sspstrong uwtable
define void @_ZN5osgeo4proj20VerticalShiftGridSetD2Ev(ptr noundef nonnull align 8 captures(address) dereferenceable(96) initializes((0, 8)) %0) unnamed_addr #4 align 2 personality ptr @__gxx_personality_v0 {
  store ptr getelementptr inbounds nuw inrange(-16, 32) (i8, ptr @_ZTVN5osgeo4proj20VerticalShiftGridSetE, i64 16), ptr %0, align 8, !tbaa !20
  %2 = getelementptr inbounds nuw i8, ptr %0, i64 72
  %3 = load ptr, ptr %2, align 8, !tbaa !96
  %4 = getelementptr inbounds nuw i8, ptr %0, i64 80
  %5 = load ptr, ptr %4, align 8, !tbaa !99
  %6 = icmp eq ptr %3, %5
  br i1 %6, label %20, label %7

7:                                                ; preds = %1, %15
  %8 = phi ptr [ %16, %15 ], [ %3, %1 ]
  %9 = load ptr, ptr %8, align 8, !tbaa !100
  %10 = icmp eq ptr %9, null
  br i1 %10, label %15, label %11

11:                                               ; preds = %7
  %12 = load ptr, ptr %9, align 8, !tbaa !20
  %13 = getelementptr inbounds nuw i8, ptr %12, i64 8
  %14 = load ptr, ptr %13, align 8
  tail call void %14(ptr noundef nonnull align 8 dereferenceable(144) %9) #36
  br label %15

15:                                               ; preds = %11, %7
  store ptr null, ptr %8, align 8, !tbaa !100
  %16 = getelementptr inbounds nuw i8, ptr %8, i64 8
  %17 = icmp eq ptr %16, %5
  br i1 %17, label %18, label %7, !llvm.loop !102

18:                                               ; preds = %15
  %19 = load ptr, ptr %2, align 8, !tbaa !96
  br label %20

20:                                               ; preds = %18, %1
  %21 = phi ptr [ %19, %18 ], [ %3, %1 ]
  %22 = icmp eq ptr %21, null
  br i1 %22, label %29, label %23

23:                                               ; preds = %20
  %24 = getelementptr inbounds nuw i8, ptr %0, i64 88
  %25 = load ptr, ptr %24, align 8, !tbaa !103
  %26 = ptrtoint ptr %25 to i64
  %27 = ptrtoint ptr %21 to i64
  %28 = sub i64 %26, %27
  tail call void @_ZdlPvm(ptr noundef nonnull %21, i64 noundef %28) #34
  br label %29

29:                                               ; preds = %20, %23
  %30 = getelementptr inbounds nuw i8, ptr %0, i64 40
  %31 = load ptr, ptr %30, align 8, !tbaa !26
  %32 = getelementptr inbounds nuw i8, ptr %0, i64 56
  %33 = icmp eq ptr %31, %32
  br i1 %33, label %34, label %38

34:                                               ; preds = %29
  %35 = getelementptr inbounds nuw i8, ptr %0, i64 48
  %36 = load i64, ptr %35, align 8, !tbaa !29
  %37 = icmp ult i64 %36, 16
  tail call void @llvm.assume(i1 %37)
  br label %41

38:                                               ; preds = %29
  %39 = load i64, ptr %32, align 8, !tbaa !31
  %40 = add i64 %39, 1
  tail call void @_ZdlPvm(ptr noundef %31, i64 noundef %40) #34
  br label %41

41:                                               ; preds = %34, %38
  %42 = getelementptr inbounds nuw i8, ptr %0, i64 8
  %43 = load ptr, ptr %42, align 8, !tbaa !26
  %44 = getelementptr inbounds nuw i8, ptr %0, i64 24
  %45 = icmp eq ptr %43, %44
  br i1 %45, label %46, label %50

46:                                               ; preds = %41
  %47 = getelementptr inbounds nuw i8, ptr %0, i64 16
  %48 = load i64, ptr %47, align 8, !tbaa !29
  %49 = icmp ult i64 %48, 16
  tail call void @llvm.assume(i1 %49)
  br label %53

50:                                               ; preds = %41
  %51 = load i64, ptr %44, align 8, !tbaa !31
  %52 = add i64 %51, 1
  tail call void @_ZdlPvm(ptr noundef %43, i64 noundef %52) #34
  br label %53

53:                                               ; preds = %46, %50
  ret void
}

; Function Attrs: mustprogress nounwind sspstrong uwtable
define void @_ZN5osgeo4proj20VerticalShiftGridSetD0Ev(ptr noundef nonnull align 8 dereferenceable(96) %0) unnamed_addr #4 align 2 {
  tail call void @_ZN5osgeo4proj20VerticalShiftGridSetD1Ev(ptr noundef nonnull align 8 dereferenceable(96) %0) #36
  tail call void @_ZdlPvm(ptr noundef nonnull %0, i64 noundef 96) #34
  ret void
}

; Function Attrs: mustprogress sspstrong uwtable
define hidden void @_ZN5osgeo4proj10BlockCache6insertEjjRKSt6vectorIhSaIhEE(ptr noundef nonnull align 8 dereferenceable(112) %0, i32 noundef %1, i32 noundef %2, ptr noundef nonnull align 8 dereferenceable(24) %3) local_unnamed_addr #2 align 2 {
  %5 = alloca i64, align 8
  call void @llvm.lifetime.start.p0(i64 8, ptr nonnull %5) #36
  %6 = zext i32 %1 to i64
  %7 = shl nuw i64 %6, 32
  %8 = zext i32 %2 to i64
  %9 = or disjoint i64 %7, %8
  store i64 %9, ptr %5, align 8, !tbaa !30
  call void @_ZN5osgeo4proj5lru115CacheImSt6vectorIhSaIhEENS1_8NullLockESt13unordered_mapImSt14_List_iteratorINS1_12KeyValuePairImS5_EEESt4hashImESt8equal_toImESaISt4pairIKmSB_EEEE6insertERSH_RKS5_(ptr noundef nonnull align 8 dereferenceable(112) %0, ptr noundef nonnull align 8 dereferenceable(8) %5, ptr noundef nonnull align 8 dereferenceable(24) %3)
  call void @llvm.lifetime.end.p0(i64 8, ptr nonnull %5) #36
  ret void
}

; Function Attrs: mustprogress sspstrong uwtable
define linkonce_odr hidden void @_ZN5osgeo4proj5lru115CacheImSt6vectorIhSaIhEENS1_8NullLockESt13unordered_mapImSt14_List_iteratorINS1_12KeyValuePairImS5_EEESt4hashImESt8equal_toImESaISt4pairIKmSB_EEEE6insertERSH_RKS5_(ptr noundef nonnull align 8 dereferenceable(112) %0, ptr noundef nonnull align 8 dereferenceable(8) %1, ptr noundef nonnull align 8 dereferenceable(24) %2) local_unnamed_addr #2 comdat align 2 personality ptr @__gxx_personality_v0 {
  %4 = getelementptr inbounds nuw i8, ptr %0, i64 16
  %5 = getelementptr inbounds nuw i8, ptr %0, i64 40
  %6 = load i64, ptr %5, align 8, !tbaa !131, !noalias !133
  %7 = icmp eq i64 %6, 0
  br i1 %7, label %17, label %8

8:                                                ; preds = %3
  %9 = load i64, ptr %1, align 8, !tbaa !30, !noalias !133
  %10 = getelementptr inbounds nuw i8, ptr %0, i64 24
  %11 = load i64, ptr %10, align 8, !tbaa !136, !noalias !133
  %12 = urem i64 %9, %11
  %13 = load ptr, ptr %4, align 8, !tbaa !137, !noalias !133
  %14 = getelementptr inbounds nuw ptr, ptr %13, i64 %12
  %15 = load ptr, ptr %14, align 8, !tbaa !53, !noalias !133
  %16 = icmp eq ptr %15, null
  br i1 %16, label %59, label %28

17:                                               ; preds = %3
  %18 = getelementptr inbounds nuw i8, ptr %0, i64 32
  %19 = load i64, ptr %1, align 8, !noalias !133
  br label %20

20:                                               ; preds = %24, %17
  %21 = phi ptr [ %18, %17 ], [ %22, %24 ]
  %22 = load ptr, ptr %21, align 8, !tbaa !54, !noalias !133
  %23 = icmp eq ptr %22, null
  br i1 %23, label %59, label %24

24:                                               ; preds = %20
  %25 = getelementptr inbounds nuw i8, ptr %22, i64 8
  %26 = load i64, ptr %25, align 8, !tbaa !30, !noalias !133
  %27 = icmp eq i64 %19, %26
  br i1 %27, label %45, label %20, !llvm.loop !138

28:                                               ; preds = %8
  %29 = load ptr, ptr %15, align 8, !tbaa !54, !noalias !133
  %30 = getelementptr inbounds nuw i8, ptr %29, i64 8
  %31 = load i64, ptr %30, align 8, !tbaa !30, !noalias !133
  %32 = icmp eq i64 %9, %31
  br i1 %32, label %45, label %35

33:                                               ; preds = %39
  %34 = icmp eq i64 %9, %41
  br i1 %34, label %45, label %35, !llvm.loop !139

35:                                               ; preds = %28, %33
  %36 = phi ptr [ %37, %33 ], [ %29, %28 ]
  %37 = load ptr, ptr %36, align 8, !tbaa !54, !noalias !133
  %38 = icmp eq ptr %37, null
  br i1 %38, label %59, label %39, !prof !58

39:                                               ; preds = %35
  %40 = getelementptr inbounds nuw i8, ptr %37, i64 8
  %41 = load i64, ptr %40, align 8, !tbaa !30, !noalias !133
  %42 = urem i64 %41, %11
  %43 = icmp eq i64 %42, %12
  br i1 %43, label %33, label %44, !prof !59, !llvm.loop !139

44:                                               ; preds = %39
  br label %59, !llvm.loop !139

45:                                               ; preds = %33, %24, %28
  %46 = phi ptr [ %29, %28 ], [ %22, %24 ], [ %37, %33 ]
  %47 = getelementptr inbounds nuw i8, ptr %46, i64 16
  %48 = load ptr, ptr %47, align 8, !tbaa !140
  %49 = getelementptr inbounds nuw i8, ptr %48, i64 24
  %50 = tail call noundef nonnull align 8 dereferenceable(24) ptr @_ZNSt6vectorIhSaIhEEaSERKS1_(ptr noundef nonnull align 8 dereferenceable(24) %49, ptr noundef nonnull align 8 dereferenceable(24) %2)
  %51 = getelementptr inbounds nuw i8, ptr %0, i64 72
  %52 = load ptr, ptr %51, align 8, !tbaa !63
  %53 = load ptr, ptr %47, align 8, !tbaa !140
  %54 = load ptr, ptr %53, align 8, !tbaa !63
  %55 = icmp eq ptr %52, %53
  %56 = icmp eq ptr %52, %54
  %57 = select i1 %55, i1 true, i1 %56
  br i1 %57, label %127, label %58

58:                                               ; preds = %45
  tail call void @_ZNSt8__detail15_List_node_base11_M_transferEPS0_S1_(ptr noundef nonnull align 8 dereferenceable(16) %52, ptr noundef nonnull %53, ptr noundef %54) #36
  br label %127

59:                                               ; preds = %35, %20, %8, %44
  %60 = phi i64 [ %9, %8 ], [ %9, %44 ], [ %19, %20 ], [ %9, %35 ]
  %61 = getelementptr inbounds nuw i8, ptr %0, i64 72
  %62 = load ptr, ptr %61, align 8, !tbaa !63
  %63 = tail call noalias noundef nonnull dereferenceable(48) ptr @_Znwm(i64 noundef 48) #37
  %64 = getelementptr inbounds nuw i8, ptr %63, i64 16
  store i64 %60, ptr %64, align 8, !tbaa !142
  %65 = getelementptr inbounds nuw i8, ptr %63, i64 24
  %66 = getelementptr inbounds nuw i8, ptr %2, i64 8
  %67 = load ptr, ptr %66, align 8, !tbaa !148
  %68 = load ptr, ptr %2, align 8, !tbaa !149
  %69 = ptrtoint ptr %67 to i64
  %70 = ptrtoint ptr %68 to i64
  %71 = sub i64 %69, %70
  %72 = icmp sgt i64 %71, -1
  tail call void @llvm.assume(i1 %72)
  tail call void @llvm.memset.p0.i64(ptr noundef nonnull align 8 dereferenceable(24) %65, i8 0, i64 24, i1 false)
  %73 = icmp eq ptr %67, %68
  br i1 %73, label %76, label %74

74:                                               ; preds = %59
  %75 = invoke noalias noundef nonnull ptr @_Znwm(i64 noundef %71) #37
          to label %80 unwind label %84

76:                                               ; preds = %59
  %77 = getelementptr inbounds nuw i8, ptr %63, i64 32
  %78 = getelementptr inbounds nuw i8, ptr null, i64 %71
  %79 = getelementptr inbounds nuw i8, ptr %63, i64 40
  tail call void @llvm.memset.p0.i64(ptr noundef nonnull align 8 dereferenceable(16) %65, i8 0, i64 16, i1 false)
  store ptr %78, ptr %79, align 8, !tbaa !150
  br label %86

80:                                               ; preds = %74
  store ptr %75, ptr %65, align 8, !tbaa !149
  %81 = getelementptr inbounds nuw i8, ptr %63, i64 32
  store ptr %75, ptr %81, align 8, !tbaa !148
  %82 = getelementptr inbounds nuw i8, ptr %75, i64 %71
  %83 = getelementptr inbounds nuw i8, ptr %63, i64 40
  store ptr %82, ptr %83, align 8, !tbaa !150
  tail call void @llvm.memcpy.p0.p0.i64(ptr nonnull align 1 %75, ptr align 1 %68, i64 %71, i1 false)
  br label %86

84:                                               ; preds = %74
  %85 = landingpad { ptr, i32 }
          cleanup
  tail call void @_ZdlPvm(ptr noundef nonnull %63, i64 noundef 48) #34
  resume { ptr, i32 } %85

86:                                               ; preds = %80, %76
  %87 = phi ptr [ %81, %80 ], [ %77, %76 ]
  %88 = phi ptr [ %82, %80 ], [ null, %76 ]
  store ptr %88, ptr %87, align 8, !tbaa !148
  tail call void @_ZNSt8__detail15_List_node_base7_M_hookEPS0_(ptr noundef nonnull align 8 dereferenceable(16) %63, ptr noundef %62) #36
  %89 = getelementptr inbounds nuw i8, ptr %0, i64 88
  %90 = load i64, ptr %89, align 8, !tbaa !75
  %91 = add i64 %90, 1
  store i64 %91, ptr %89, align 8, !tbaa !75
  %92 = load ptr, ptr %61, align 8, !tbaa !63
  %93 = tail call noundef nonnull align 8 dereferenceable(8) ptr @_ZNSt8__detail9_Map_baseImSt4pairIKmSt14_List_iteratorIN5osgeo4proj5lru1112KeyValuePairImSt6vectorIhSaIhEEEEEESaISD_ENS_10_Select1stESt8equal_toImESt4hashImENS_18_Mod_range_hashingENS_20_Default_ranged_hashENS_20_Prime_rehash_policyENS_17_Hashtable_traitsILb0ELb0ELb1EEELb1EEixERS2_(ptr noundef nonnull align 8 dereferenceable(56) %4, ptr noundef nonnull align 8 dereferenceable(8) %1)
  store ptr %92, ptr %93, align 8, !tbaa !77
  %94 = getelementptr inbounds nuw i8, ptr %0, i64 96
  %95 = load i64, ptr %94, align 8, !tbaa !151
  %96 = icmp eq i64 %95, 0
  br i1 %96, label %127, label %97

97:                                               ; preds = %86
  %98 = getelementptr inbounds nuw i8, ptr %0, i64 104
  %99 = load i64, ptr %98, align 8, !tbaa !157
  %100 = add i64 %99, %95
  %101 = load i64, ptr %5, align 8, !tbaa !131
  %102 = icmp ugt i64 %101, %100
  %103 = icmp ugt i64 %101, %95
  %104 = and i1 %102, %103
  br i1 %104, label %105, label %127

105:                                              ; preds = %97
  %106 = getelementptr inbounds nuw i8, ptr %0, i64 80
  br label %107

107:                                              ; preds = %123, %105
  %108 = load ptr, ptr %106, align 8, !tbaa !87
  %109 = getelementptr inbounds nuw i8, ptr %108, i64 16
  %110 = tail call noundef i64 @_ZNSt10_HashtableImSt4pairIKmSt14_List_iteratorIN5osgeo4proj5lru1112KeyValuePairImSt6vectorIhSaIhEEEEEESaISC_ENSt8__detail10_Select1stESt8equal_toImESt4hashImENSE_18_Mod_range_hashingENSE_20_Default_ranged_hashENSE_20_Prime_rehash_policyENSE_17_Hashtable_traitsILb0ELb0ELb1EEEE5eraseERS1_(ptr noundef nonnull align 8 dereferenceable(56) %4, ptr noundef nonnull align 8 dereferenceable(8) %109)
  %111 = load ptr, ptr %106, align 8, !tbaa !87
  %112 = load i64, ptr %89, align 8, !tbaa !75
  %113 = add i64 %112, -1
  store i64 %113, ptr %89, align 8, !tbaa !75
  tail call void @_ZNSt8__detail15_List_node_base9_M_unhookEv(ptr noundef nonnull align 8 dereferenceable(16) %111) #36
  %114 = getelementptr inbounds nuw i8, ptr %111, i64 24
  %115 = load ptr, ptr %114, align 8, !tbaa !149
  %116 = icmp eq ptr %115, null
  br i1 %116, label %123, label %117

117:                                              ; preds = %107
  %118 = getelementptr inbounds nuw i8, ptr %111, i64 40
  %119 = load ptr, ptr %118, align 8, !tbaa !150
  %120 = ptrtoint ptr %119 to i64
  %121 = ptrtoint ptr %115 to i64
  %122 = sub i64 %120, %121
  tail call void @_ZdlPvm(ptr noundef nonnull %115, i64 noundef %122) #34
  br label %123

123:                                              ; preds = %117, %107
  tail call void @_ZdlPvm(ptr noundef nonnull %111, i64 noundef 48) #34
  %124 = load i64, ptr %5, align 8, !tbaa !131
  %125 = load i64, ptr %94, align 8, !tbaa !151
  %126 = icmp ugt i64 %124, %125
  br i1 %126, label %107, label %127, !llvm.loop !158

127:                                              ; preds = %123, %97, %86, %58, %45
  ret void
}

; Function Attrs: mustprogress nounwind sspstrong uwtable
define hidden noundef ptr @_ZN5osgeo4proj10BlockCache3getEjj(ptr noundef nonnull readonly align 8 captures(none) dereferenceable(112) %0, i32 noundef %1, i32 noundef %2) local_unnamed_addr #4 align 2 personality ptr @__gxx_personality_v0 {
  %4 = zext i32 %1 to i64
  %5 = shl nuw i64 %4, 32
  %6 = zext i32 %2 to i64
  %7 = or disjoint i64 %5, %6
  %8 = getelementptr inbounds nuw i8, ptr %0, i64 40
  %9 = load i64, ptr %8, align 8, !tbaa !131, !noalias !159
  %10 = icmp eq i64 %9, 0
  br i1 %10, label %20, label %11

11:                                               ; preds = %3
  %12 = getelementptr inbounds nuw i8, ptr %0, i64 16
  %13 = getelementptr inbounds nuw i8, ptr %0, i64 24
  %14 = load i64, ptr %13, align 8, !tbaa !136, !noalias !159
  %15 = urem i64 %7, %14
  %16 = load ptr, ptr %12, align 8, !tbaa !137, !noalias !159
  %17 = getelementptr inbounds nuw ptr, ptr %16, i64 %15
  %18 = load ptr, ptr %17, align 8, !tbaa !53, !noalias !159
  %19 = icmp eq ptr %18, null
  br i1 %19, label %62, label %30

20:                                               ; preds = %3
  %21 = getelementptr inbounds nuw i8, ptr %0, i64 32
  br label %22

22:                                               ; preds = %26, %20
  %23 = phi ptr [ %21, %20 ], [ %24, %26 ]
  %24 = load ptr, ptr %23, align 8, !tbaa !54, !noalias !159
  %25 = icmp eq ptr %24, null
  br i1 %25, label %62, label %26

26:                                               ; preds = %22
  %27 = getelementptr inbounds nuw i8, ptr %24, i64 8
  %28 = load i64, ptr %27, align 8, !tbaa !30, !noalias !159
  %29 = icmp eq i64 %7, %28
  br i1 %29, label %47, label %22, !llvm.loop !138

30:                                               ; preds = %11
  %31 = load ptr, ptr %18, align 8, !tbaa !54, !noalias !159
  %32 = getelementptr inbounds nuw i8, ptr %31, i64 8
  %33 = load i64, ptr %32, align 8, !tbaa !30, !noalias !159
  %34 = icmp eq i64 %7, %33
  br i1 %34, label %47, label %37

35:                                               ; preds = %41
  %36 = icmp eq i64 %7, %43
  br i1 %36, label %47, label %37, !llvm.loop !139

37:                                               ; preds = %30, %35
  %38 = phi ptr [ %39, %35 ], [ %31, %30 ]
  %39 = load ptr, ptr %38, align 8, !tbaa !54, !noalias !159
  %40 = icmp eq ptr %39, null
  br i1 %40, label %62, label %41, !prof !58

41:                                               ; preds = %37
  %42 = getelementptr inbounds nuw i8, ptr %39, i64 8
  %43 = load i64, ptr %42, align 8, !tbaa !30, !noalias !159
  %44 = urem i64 %43, %14
  %45 = icmp eq i64 %44, %15
  br i1 %45, label %35, label %46, !prof !59, !llvm.loop !139

46:                                               ; preds = %41
  br label %62, !llvm.loop !139

47:                                               ; preds = %35, %26, %30
  %48 = phi ptr [ %31, %30 ], [ %24, %26 ], [ %39, %35 ]
  %49 = getelementptr inbounds nuw i8, ptr %0, i64 72
  %50 = load ptr, ptr %49, align 8, !tbaa !63
  %51 = getelementptr inbounds nuw i8, ptr %48, i64 16
  %52 = load ptr, ptr %51, align 8, !tbaa !140
  %53 = load ptr, ptr %52, align 8, !tbaa !63
  %54 = icmp eq ptr %50, %52
  %55 = icmp eq ptr %50, %53
  %56 = select i1 %54, i1 true, i1 %55
  br i1 %56, label %59, label %57

57:                                               ; preds = %47
  tail call void @_ZNSt8__detail15_List_node_base11_M_transferEPS0_S1_(ptr noundef nonnull align 8 dereferenceable(16) %50, ptr noundef nonnull %52, ptr noundef %53) #36
  %58 = load ptr, ptr %51, align 8, !tbaa !140
  br label %59

59:                                               ; preds = %57, %47
  %60 = phi ptr [ %52, %47 ], [ %58, %57 ]
  %61 = getelementptr inbounds nuw i8, ptr %60, i64 24
  br label %62

62:                                               ; preds = %37, %22, %11, %46, %59
  %63 = phi ptr [ %61, %59 ], [ null, %11 ], [ null, %46 ], [ null, %22 ], [ null, %37 ]
  ret ptr %63
}

; Function Attrs: mustprogress sspstrong uwtable
define hidden void @_ZN5osgeo4proj9GTiffGridC2EP6pj_ctxP4tiffRNS0_10BlockCacheEPNS0_4FileEjRKNSt7__cxx1112basic_stringIcSt11char_traitsIcESaIcEEEiiRKNS0_12ExtentAndResENS0_12TIFFDataTypeEttb(ptr noundef nonnull align 8 dereferenceable(340) initializes((0, 8)) %0, ptr noundef %1, ptr noundef %2, ptr noundef nonnull align 8 dereferenceable(112) %3, ptr noundef %4, i32 noundef %5, ptr noundef nonnull readonly align 8 captures(none) dereferenceable(32) %6, i32 noundef %7, i32 noundef %8, ptr noundef nonnull readonly align 8 captures(none) dereferenceable(72) %9, i32 noundef %10, i16 noundef zeroext %11, i16 noundef zeroext %12, i1 noundef zeroext %13) unnamed_addr #2 align 2 personality ptr @__gxx_personality_v0 {
  %15 = alloca i64, align 8
  %16 = alloca i64, align 8
  %17 = alloca i64, align 8
  %18 = alloca i64, align 8
  %19 = alloca i64, align 8
  %20 = alloca ptr, align 8
  %21 = alloca %"class.std::__cxx11::basic_string", align 8
  %22 = alloca %"class.std::__cxx11::basic_string", align 8
  %23 = alloca %"class.std::__cxx11::basic_string", align 8
  %24 = alloca %"class.std::__cxx11::basic_string", align 8
  %25 = alloca %"struct.std::pair", align 8
  %26 = alloca %"class.std::__cxx11::basic_string", align 8
  %27 = alloca double, align 8
  %28 = alloca double, align 8
  %29 = alloca %"class.std::__cxx11::basic_string", align 8
  %30 = alloca %"struct.std::pair", align 8
  %31 = alloca %"class.std::__cxx11::basic_string", align 8
  %32 = zext i1 %13 to i8
  store ptr getelementptr inbounds nuw inrange(-16, 40) (i8, ptr @_ZTVN5osgeo4proj4GridE, i64 16), ptr %0, align 8, !tbaa !20
  %33 = getelementptr inbounds nuw i8, ptr %0, i64 8
  %34 = getelementptr inbounds nuw i8, ptr %0, i64 24
  store ptr %34, ptr %33, align 8, !tbaa !22
  %35 = load ptr, ptr %6, align 8, !tbaa !26
  %36 = getelementptr inbounds nuw i8, ptr %6, i64 8
  %37 = load i64, ptr %36, align 8, !tbaa !29
  %38 = icmp ult i64 %37, 9223372036854775807
  tail call void @llvm.assume(i1 %38)
  call void @llvm.lifetime.start.p0(i64 8, ptr nonnull %19)
  store i64 %37, ptr %19, align 8, !tbaa !30
  %39 = icmp samesign ugt i64 %37, 15
  br i1 %39, label %40, label %43

40:                                               ; preds = %14
  %41 = call noundef ptr @_ZNSt7__cxx1112basic_stringIcSt11char_traitsIcESaIcEE9_M_createERmm(ptr noundef nonnull align 8 dereferenceable(32) %33, ptr noundef nonnull align 8 dereferenceable(8) %19, i64 noundef 0)
  store ptr %41, ptr %33, align 8, !tbaa !26
  %42 = load i64, ptr %19, align 8, !tbaa !30
  store i64 %42, ptr %34, align 8, !tbaa !31
  br label %43

43:                                               ; preds = %40, %14
  %44 = phi i64 [ %42, %40 ], [ %37, %14 ]
  %45 = phi ptr [ %41, %40 ], [ %34, %14 ]
  switch i64 %44, label %48 [
    i64 0, label %46
    i64 -1, label %50
  ]

46:                                               ; preds = %43
  %47 = load i8, ptr %35, align 1, !tbaa !31
  store i8 %47, ptr %45, align 1, !tbaa !31
  br label %50

48:                                               ; preds = %43
  %49 = add nuw i64 %44, 1
  call void @llvm.memcpy.p0.p0.i64(ptr noundef nonnull align 1 dereferenceable(1) %45, ptr noundef nonnull align 1 dereferenceable(1) %35, i64 %49, i1 false)
  br label %50

50:                                               ; preds = %43, %46, %48
  %51 = load i64, ptr %19, align 8, !tbaa !30
  %52 = getelementptr inbounds nuw i8, ptr %0, i64 16
  store i64 %51, ptr %52, align 8, !tbaa !29
  call void @llvm.lifetime.end.p0(i64 8, ptr nonnull %19)
  %53 = getelementptr inbounds nuw i8, ptr %0, i64 40
  store i32 %7, ptr %53, align 8, !tbaa !32
  %54 = getelementptr inbounds nuw i8, ptr %0, i64 44
  store i32 %8, ptr %54, align 4, !tbaa !35
  %55 = getelementptr inbounds nuw i8, ptr %0, i64 48
  call void @llvm.memcpy.p0.p0.i64(ptr noundef nonnull align 8 dereferenceable(72) %55, ptr noundef nonnull readonly align 8 dereferenceable(72) %9, i64 72, i1 false), !tbaa.struct !36
  store ptr getelementptr inbounds nuw inrange(-16, 40) (i8, ptr @_ZTVN5osgeo4proj9GTiffGridE, i64 16), ptr %0, align 8, !tbaa !20
  %56 = getelementptr inbounds nuw i8, ptr %0, i64 120
  store ptr %1, ptr %56, align 8, !tbaa !162
  %57 = getelementptr inbounds nuw i8, ptr %0, i64 128
  store ptr %2, ptr %57, align 8, !tbaa !182
  %58 = getelementptr inbounds nuw i8, ptr %0, i64 136
  store ptr %3, ptr %58, align 8, !tbaa !183
  %59 = getelementptr inbounds nuw i8, ptr %0, i64 144
  store ptr %4, ptr %59, align 8, !tbaa !184
  %60 = getelementptr inbounds nuw i8, ptr %0, i64 152
  store i32 %5, ptr %60, align 8, !tbaa !185
  %61 = getelementptr inbounds nuw i8, ptr %0, i64 156
  store i32 %10, ptr %61, align 4, !tbaa !186
  %62 = getelementptr inbounds nuw i8, ptr %0, i64 160
  store i16 %11, ptr %62, align 8, !tbaa !187
  %63 = getelementptr inbounds nuw i8, ptr %0, i64 162
  %64 = icmp eq i16 %11, 1
  %65 = select i1 %64, i16 -1, i16 %12
  store i16 %65, ptr %63, align 2, !tbaa !188
  %66 = getelementptr inbounds nuw i8, ptr %0, i64 164
  store i8 %32, ptr %66, align 4, !tbaa !189
  %67 = invoke i64 @TIFFCurrentDirOffset(ptr noundef %2)
          to label %68 unwind label %103

68:                                               ; preds = %50
  %69 = getelementptr inbounds nuw i8, ptr %0, i64 168
  store i64 %67, ptr %69, align 8, !tbaa !190
  %70 = invoke i32 @TIFFIsTiled(ptr noundef %2)
          to label %71 unwind label %103

71:                                               ; preds = %68
  %72 = getelementptr inbounds nuw i8, ptr %0, i64 176
  %73 = icmp ne i32 %70, 0
  %74 = zext i1 %73 to i8
  store i8 %74, ptr %72, align 8, !tbaa !191
  %75 = getelementptr inbounds nuw i8, ptr %0, i64 180
  store i32 0, ptr %75, align 4, !tbaa !192
  %76 = getelementptr inbounds nuw i8, ptr %0, i64 184
  store i32 0, ptr %76, align 8, !tbaa !193
  %77 = getelementptr inbounds nuw i8, ptr %0, i64 192
  %78 = getelementptr inbounds nuw i8, ptr %0, i64 216
  call void @llvm.memset.p0.i64(ptr noundef nonnull align 8 dereferenceable(24) %77, i8 0, i64 24, i1 false)
  store i32 -1, ptr %78, align 8, !tbaa !194
  %79 = getelementptr inbounds nuw i8, ptr %0, i64 220
  %80 = getelementptr inbounds nuw i8, ptr %0, i64 224
  %81 = getelementptr inbounds nuw i8, ptr %0, i64 228
  %82 = getelementptr inbounds nuw i8, ptr %0, i64 232
  %83 = getelementptr inbounds nuw i8, ptr %0, i64 256
  %84 = getelementptr inbounds nuw i8, ptr %0, i64 280
  %85 = getelementptr inbounds nuw i8, ptr %0, i64 288
  %86 = getelementptr inbounds nuw i8, ptr %0, i64 304
  call void @llvm.memset.p0.i64(ptr noundef nonnull align 4 dereferenceable(84) %79, i8 0, i64 84, i1 false)
  store ptr %85, ptr %86, align 8, !tbaa !195
  %87 = getelementptr inbounds nuw i8, ptr %0, i64 312
  store ptr %85, ptr %87, align 8, !tbaa !196
  %88 = getelementptr inbounds nuw i8, ptr %0, i64 320
  %89 = getelementptr inbounds nuw i8, ptr %0, i64 328
  %90 = getelementptr inbounds nuw i8, ptr %0, i64 329
  %91 = getelementptr inbounds nuw i8, ptr %0, i64 330
  %92 = getelementptr inbounds nuw i8, ptr %0, i64 332
  store float 0.000000e+00, ptr %92, align 4, !tbaa !197
  %93 = getelementptr inbounds nuw i8, ptr %0, i64 336
  store i32 0, ptr %93, align 8, !tbaa !198
  call void @llvm.memset.p0.i64(ptr noundef nonnull align 8 dereferenceable(11) %88, i8 0, i64 11, i1 false)
  br i1 %73, label %94, label %107

94:                                               ; preds = %71
  %95 = load ptr, ptr %57, align 8, !tbaa !182
  %96 = invoke i32 (ptr, i32, ...) @TIFFGetField(ptr noundef %95, i32 noundef 322, ptr noundef nonnull %75)
          to label %97 unwind label %105

97:                                               ; preds = %94
  %98 = load ptr, ptr %57, align 8, !tbaa !182
  %99 = invoke i32 (ptr, i32, ...) @TIFFGetField(ptr noundef %98, i32 noundef 323, ptr noundef nonnull %76)
          to label %100 unwind label %105

100:                                              ; preds = %97
  %101 = load i32, ptr %76, align 8
  %102 = load i32, ptr %54, align 4
  br label %115

103:                                              ; preds = %68, %50
  %104 = landingpad { ptr, i32 }
          cleanup
  br label %774

105:                                              ; preds = %115, %107, %97, %94
  %106 = landingpad { ptr, i32 }
          cleanup
  br label %746

107:                                              ; preds = %71
  store i32 %7, ptr %75, align 4, !tbaa !192
  %108 = load ptr, ptr %57, align 8, !tbaa !182
  %109 = invoke i32 (ptr, i32, ...) @TIFFGetField(ptr noundef %108, i32 noundef 278, ptr noundef nonnull %76)
          to label %110 unwind label %105

110:                                              ; preds = %107
  %111 = load i32, ptr %76, align 8, !tbaa !193
  %112 = load i32, ptr %54, align 4, !tbaa !35
  %113 = icmp ugt i32 %111, %112
  br i1 %113, label %114, label %115

114:                                              ; preds = %110
  store i32 %112, ptr %76, align 8, !tbaa !193
  br label %115

115:                                              ; preds = %100, %110, %114
  %116 = phi i32 [ %102, %100 ], [ %112, %110 ], [ %112, %114 ]
  %117 = phi i32 [ %101, %100 ], [ %111, %110 ], [ %112, %114 ]
  %118 = load i32, ptr %75, align 4, !tbaa !192
  %119 = icmp eq i32 %118, 256
  %120 = icmp eq i32 %117, 256
  %121 = select i1 %119, i1 %120, i1 false
  %122 = zext i1 %121 to i8
  store i8 %122, ptr %90, align 1, !tbaa !199
  %123 = load i32, ptr %53, align 8, !tbaa !32
  %124 = icmp eq i32 %118, %123
  %125 = icmp eq i32 %117, %116
  %126 = select i1 %124, i1 %125, i1 false
  %127 = zext i1 %126 to i8
  store i8 %127, ptr %91, align 2, !tbaa !200
  %128 = load ptr, ptr %57, align 8, !tbaa !182
  %129 = invoke i32 (ptr, i32, ...) @TIFFGetField(ptr noundef %128, i32 noundef 254, ptr noundef nonnull %93)
          to label %130 unwind label %105

130:                                              ; preds = %115
  %131 = load i32, ptr %53, align 8, !tbaa !32
  %132 = load i32, ptr %75, align 4, !tbaa !192
  %133 = add i32 %131, -1
  %134 = add i32 %133, %132
  %135 = udiv i32 %134, %132
  store i32 %135, ptr %79, align 4, !tbaa !201
  %136 = load i32, ptr %54, align 4, !tbaa !35
  %137 = load i32, ptr %76, align 8, !tbaa !193
  %138 = add i32 %136, -1
  %139 = add i32 %138, %137
  %140 = udiv i32 %139, %137
  store i32 %140, ptr %80, align 8, !tbaa !202
  %141 = mul i32 %140, %135
  store i32 %141, ptr %81, align 4, !tbaa !203
  call void @llvm.lifetime.start.p0(i64 8, ptr nonnull %20) #36
  store ptr null, ptr %20, align 8, !tbaa !204
  %142 = load ptr, ptr %57, align 8, !tbaa !182
  %143 = invoke i32 (ptr, i32, ...) @TIFFGetField(ptr noundef %142, i32 noundef 42112, ptr noundef nonnull %20)
          to label %144 unwind label %167

144:                                              ; preds = %130
  %145 = icmp eq i32 %143, 0
  br i1 %145, label %585, label %146

146:                                              ; preds = %144
  %147 = load ptr, ptr %20, align 8, !tbaa !204
  %148 = getelementptr inbounds nuw i8, ptr %21, i64 16
  %149 = getelementptr inbounds nuw i8, ptr %21, i64 8
  %150 = getelementptr inbounds nuw i8, ptr %22, i64 16
  %151 = getelementptr inbounds nuw i8, ptr %22, i64 8
  %152 = getelementptr inbounds nuw i8, ptr %23, i64 16
  %153 = getelementptr inbounds nuw i8, ptr %23, i64 8
  %154 = getelementptr inbounds nuw i8, ptr %24, i64 16
  %155 = getelementptr inbounds nuw i8, ptr %24, i64 8
  %156 = getelementptr inbounds nuw i8, ptr %25, i64 8
  %157 = getelementptr inbounds nuw i8, ptr %25, i64 24
  %158 = getelementptr inbounds nuw i8, ptr %25, i64 16
  %159 = getelementptr inbounds nuw i8, ptr %26, i64 16
  %160 = getelementptr inbounds nuw i8, ptr %26, i64 8
  %161 = getelementptr inbounds nuw i8, ptr %0, i64 240
  %162 = getelementptr inbounds nuw i8, ptr %0, i64 264
  br label %163

163:                                              ; preds = %551, %146
  %164 = phi ptr [ %147, %146 ], [ %524, %551 ]
  %165 = call noundef ptr @strstr(ptr noundef nonnull dereferenceable(1) %164, ptr noundef nonnull dereferenceable(1) @.str.4) #38
  %166 = icmp eq ptr %165, null
  br i1 %166, label %585, label %169

167:                                              ; preds = %585, %130
  %168 = landingpad { ptr, i32 }
          cleanup
  br label %744

169:                                              ; preds = %163
  %170 = call noundef ptr @strchr(ptr noundef nonnull dereferenceable(1) %165, i32 noundef 62) #38
  %171 = icmp eq ptr %170, null
  br i1 %171, label %585, label %172

172:                                              ; preds = %169
  %173 = call noundef ptr @strchr(ptr noundef nonnull dereferenceable(1) %170, i32 noundef 60) #38
  %174 = icmp eq ptr %173, null
  br i1 %174, label %585, label %175

175:                                              ; preds = %172
  call void @llvm.lifetime.start.p0(i64 32, ptr nonnull %21) #36
  store ptr %148, ptr %21, align 8, !tbaa !22
  store i64 0, ptr %149, align 8, !tbaa !29
  store i8 0, ptr %148, align 8, !tbaa !31
  %176 = ptrtoint ptr %170 to i64
  %177 = ptrtoint ptr %165 to i64
  %178 = sub i64 %176, %177
  %179 = icmp ugt i64 %178, 9223372036854775806
  br i1 %179, label %180, label %182

180:                                              ; preds = %175
  invoke void @_ZSt20__throw_length_errorPKc(ptr noundef nonnull @.str.127) #39
          to label %181 unwind label %199

181:                                              ; preds = %180
  unreachable

182:                                              ; preds = %175
  %183 = invoke noundef nonnull align 8 dereferenceable(32) ptr @_ZNSt7__cxx1112basic_stringIcSt11char_traitsIcESaIcEE9_M_appendEPKcm(ptr noundef nonnull align 8 dereferenceable(32) %21, ptr noundef nonnull %165, i64 noundef %178)
          to label %184 unwind label %197

184:                                              ; preds = %182
  call void @llvm.lifetime.start.p0(i64 32, ptr nonnull %22) #36
  store ptr %150, ptr %22, align 8, !tbaa !22
  store i64 0, ptr %151, align 8, !tbaa !29
  store i8 0, ptr %150, align 8, !tbaa !31
  %185 = getelementptr inbounds nuw i8, ptr %170, i64 1
  %186 = ptrtoint ptr %173 to i64
  %187 = ptrtoint ptr %185 to i64
  %188 = sub i64 %186, %187
  %189 = icmp ugt i64 %188, 9223372036854775806
  br i1 %189, label %190, label %192

190:                                              ; preds = %184
  invoke void @_ZSt20__throw_length_errorPKc(ptr noundef nonnull @.str.127) #39
          to label %191 unwind label %203

191:                                              ; preds = %190
  unreachable

192:                                              ; preds = %184
  %193 = invoke noundef nonnull align 8 dereferenceable(32) ptr @_ZNSt7__cxx1112basic_stringIcSt11char_traitsIcESaIcEE9_M_appendEPKcm(ptr noundef nonnull align 8 dereferenceable(32) %22, ptr noundef nonnull %185, i64 noundef %188)
          to label %194 unwind label %201

194:                                              ; preds = %192
  call void @llvm.lifetime.start.p0(i64 32, ptr nonnull %23) #36
  store ptr %152, ptr %23, align 8, !tbaa !22
  store i64 0, ptr %153, align 8, !tbaa !29
  store i8 0, ptr %152, align 8, !tbaa !31
  %195 = call noundef i64 @_ZNKSt7__cxx1112basic_stringIcSt11char_traitsIcESaIcEE4findEPKcmm(ptr noundef nonnull align 8 dereferenceable(32) %21, ptr noundef nonnull @.str.5, i64 noundef 0, i64 noundef 6) #36
  %196 = icmp eq i64 %195, -1
  br i1 %196, label %522, label %205

197:                                              ; preds = %182
  %198 = landingpad { ptr, i32 }
          cleanup
  br label %574

199:                                              ; preds = %180
  %200 = landingpad { ptr, i32 }
          cleanup
  br label %574

201:                                              ; preds = %192
  %202 = landingpad { ptr, i32 }
          cleanup
  br label %563

203:                                              ; preds = %190
  %204 = landingpad { ptr, i32 }
          cleanup
  br label %563

205:                                              ; preds = %194
  %206 = add i64 %195, 6
  %207 = call noundef i64 @_ZNKSt7__cxx1112basic_stringIcSt11char_traitsIcESaIcEE4findEcm(ptr noundef nonnull align 8 dereferenceable(32) %21, i8 noundef signext 34, i64 noundef %206) #36
  %208 = icmp eq i64 %207, -1
  br i1 %208, label %522, label %209

209:                                              ; preds = %205
  call void @llvm.lifetime.start.p0(i64 32, ptr nonnull %24) #36
  call void @llvm.experimental.noalias.scope.decl(metadata !205)
  %210 = load i64, ptr %149, align 8, !tbaa !29, !noalias !205
  %211 = icmp ult i64 %210, 9223372036854775807
  call void @llvm.assume(i1 %211)
  %212 = icmp ugt i64 %206, %210
  br i1 %212, label %213, label %215

213:                                              ; preds = %209
  invoke void (ptr, ...) @_ZSt24__throw_out_of_range_fmtPKcz(ptr noundef nonnull @.str.129, ptr noundef nonnull @.str.128, i64 noundef %206, i64 noundef %210) #39
          to label %214 unwind label %291

214:                                              ; preds = %213
  unreachable

215:                                              ; preds = %209
  %216 = sub i64 %207, %206
  store ptr %154, ptr %24, align 8, !tbaa !22, !alias.scope !205
  %217 = load ptr, ptr %21, align 8, !tbaa !26, !noalias !205
  %218 = getelementptr inbounds nuw i8, ptr %217, i64 %206
  %219 = sub nuw nsw i64 %210, %206
  %220 = call noundef i64 @llvm.umin.i64(i64 %216, i64 %219)
  call void @llvm.lifetime.start.p0(i64 8, ptr nonnull %18) #36, !noalias !205
  store i64 %220, ptr %18, align 8, !tbaa !30, !noalias !205
  %221 = icmp samesign ugt i64 %220, 15
  br i1 %221, label %222, label %226

222:                                              ; preds = %215
  %223 = invoke noundef ptr @_ZNSt7__cxx1112basic_stringIcSt11char_traitsIcESaIcEE9_M_createERmm(ptr noundef nonnull align 8 dereferenceable(32) %24, ptr noundef nonnull align 8 dereferenceable(8) %18, i64 noundef 0)
          to label %224 unwind label %289

224:                                              ; preds = %222
  store ptr %223, ptr %24, align 8, !tbaa !26, !alias.scope !205
  %225 = load i64, ptr %18, align 8, !tbaa !30, !noalias !205
  store i64 %225, ptr %154, align 8, !tbaa !31, !alias.scope !205
  br label %226

226:                                              ; preds = %224, %215
  %227 = phi ptr [ %223, %224 ], [ %154, %215 ]
  switch i64 %220, label %230 [
    i64 1, label %228
    i64 0, label %231
  ]

228:                                              ; preds = %226
  %229 = load i8, ptr %218, align 1, !tbaa !31
  store i8 %229, ptr %227, align 1, !tbaa !31
  br label %231

230:                                              ; preds = %226
  call void @llvm.memcpy.p0.p0.i64(ptr align 1 %227, ptr align 1 %218, i64 %220, i1 false)
  br label %231

231:                                              ; preds = %230, %228, %226
  %232 = load i64, ptr %18, align 8, !tbaa !30, !noalias !205
  store i64 %232, ptr %155, align 8, !tbaa !29, !alias.scope !205
  %233 = load ptr, ptr %24, align 8, !tbaa !26, !alias.scope !205
  %234 = getelementptr inbounds nuw i8, ptr %233, i64 %232
  store i8 0, ptr %234, align 1, !tbaa !31
  call void @llvm.lifetime.end.p0(i64 8, ptr nonnull %18) #36, !noalias !205
  %235 = load ptr, ptr %23, align 8, !tbaa !26
  %236 = icmp eq ptr %235, %152
  br i1 %236, label %237, label %242

237:                                              ; preds = %231
  %238 = load i64, ptr %153, align 8, !tbaa !29
  %239 = icmp ult i64 %238, 16
  call void @llvm.assume(i1 %239)
  %240 = load ptr, ptr %24, align 8, !tbaa !26
  %241 = icmp eq ptr %240, %154
  br i1 %241, label %245, label %260

242:                                              ; preds = %231
  %243 = load ptr, ptr %24, align 8, !tbaa !26
  %244 = icmp eq ptr %243, %154
  br i1 %244, label %245, label %258

245:                                              ; preds = %242, %237
  %246 = phi ptr [ %243, %242 ], [ %240, %237 ]
  %247 = load i64, ptr %155, align 8, !tbaa !29
  %248 = icmp ult i64 %247, 16
  call void @llvm.assume(i1 %248)
  switch i64 %247, label %251 [
    i64 0, label %252
    i64 1, label %249
  ]

249:                                              ; preds = %245
  %250 = load i8, ptr %246, align 1, !tbaa !31
  store i8 %250, ptr %235, align 1, !tbaa !31
  br label %252

251:                                              ; preds = %245
  call void @llvm.memcpy.p0.p0.i64(ptr align 1 %235, ptr align 1 %246, i64 %247, i1 false)
  br label %252

252:                                              ; preds = %251, %249, %245
  %253 = load i64, ptr %155, align 8, !tbaa !29
  %254 = icmp ult i64 %253, 9223372036854775807
  call void @llvm.assume(i1 %254)
  store i64 %253, ptr %153, align 8, !tbaa !29
  %255 = load ptr, ptr %23, align 8, !tbaa !26
  %256 = getelementptr inbounds nuw i8, ptr %255, i64 %253
  store i8 0, ptr %256, align 1, !tbaa !31
  %257 = load ptr, ptr %24, align 8, !tbaa !26
  br label %270

258:                                              ; preds = %242
  %259 = load i64, ptr %152, align 8, !tbaa !31
  br label %260

260:                                              ; preds = %258, %237
  %261 = phi ptr [ %243, %258 ], [ %240, %237 ]
  %262 = phi ptr [ %235, %258 ], [ null, %237 ]
  %263 = phi i64 [ %259, %258 ], [ undef, %237 ]
  store ptr %261, ptr %23, align 8, !tbaa !26
  %264 = load i64, ptr %155, align 8, !tbaa !29
  %265 = icmp ult i64 %264, 9223372036854775807
  call void @llvm.assume(i1 %265)
  store i64 %264, ptr %153, align 8, !tbaa !29
  %266 = load i64, ptr %154, align 8, !tbaa !31
  store i64 %266, ptr %152, align 8, !tbaa !31
  %267 = icmp eq ptr %262, null
  br i1 %267, label %269, label %268

268:                                              ; preds = %260
  store ptr %262, ptr %24, align 8, !tbaa !26
  store i64 %263, ptr %154, align 8, !tbaa !31
  br label %270

269:                                              ; preds = %260
  store ptr %154, ptr %24, align 8, !tbaa !26
  br label %270

270:                                              ; preds = %252, %268, %269
  %271 = phi ptr [ %257, %252 ], [ %262, %268 ], [ %154, %269 ]
  store i64 0, ptr %155, align 8, !tbaa !29
  store i8 0, ptr %271, align 1, !tbaa !31
  %272 = load ptr, ptr %24, align 8, !tbaa !26
  %273 = icmp eq ptr %272, %154
  br i1 %273, label %274, label %277

274:                                              ; preds = %270
  %275 = load i64, ptr %155, align 8, !tbaa !29
  %276 = icmp ult i64 %275, 16
  call void @llvm.assume(i1 %276)
  br label %280

277:                                              ; preds = %270
  %278 = load i64, ptr %154, align 8, !tbaa !31
  %279 = add i64 %278, 1
  call void @_ZdlPvm(ptr noundef %272, i64 noundef %279) #34
  br label %280

280:                                              ; preds = %274, %277
  call void @llvm.lifetime.end.p0(i64 32, ptr nonnull %24) #36
  %281 = call noundef i64 @_ZNKSt7__cxx1112basic_stringIcSt11char_traitsIcESaIcEE4findEPKcmm(ptr noundef nonnull align 8 dereferenceable(32) %21, ptr noundef nonnull @.str.6, i64 noundef 0, i64 noundef 8) #36
  %282 = icmp eq i64 %281, -1
  br i1 %282, label %295, label %283

283:                                              ; preds = %280
  %284 = load ptr, ptr %21, align 8, !tbaa !26
  %285 = getelementptr inbounds nuw i8, ptr %284, i64 %281
  %286 = getelementptr inbounds nuw i8, ptr %285, i64 8
  %287 = call i64 @__isoc23_strtol(ptr noundef nonnull %286, ptr noundef null, i32 noundef 10) #36
  %288 = trunc i64 %287 to i32
  br label %295

289:                                              ; preds = %222
  %290 = landingpad { ptr, i32 }
          cleanup
  br label %293

291:                                              ; preds = %213
  %292 = landingpad { ptr, i32 }
          cleanup
  br label %293

293:                                              ; preds = %291, %289
  %294 = phi { ptr, i32 } [ %290, %289 ], [ %292, %291 ]
  call void @llvm.lifetime.end.p0(i64 32, ptr nonnull %24) #36
  br label %552

295:                                              ; preds = %283, %280
  %296 = phi i32 [ -1, %280 ], [ %288, %283 ]
  call void @llvm.lifetime.start.p0(i64 40, ptr nonnull %25) #36
  store i32 %296, ptr %25, align 8, !tbaa !208
  store ptr %157, ptr %156, align 8, !tbaa !22
  %297 = load ptr, ptr %23, align 8, !tbaa !26
  %298 = load i64, ptr %153, align 8, !tbaa !29
  %299 = icmp ult i64 %298, 9223372036854775807
  call void @llvm.assume(i1 %299)
  call void @llvm.lifetime.start.p0(i64 8, ptr nonnull %17)
  store i64 %298, ptr %17, align 8, !tbaa !30
  %300 = icmp samesign ugt i64 %298, 15
  br i1 %300, label %301, label %305

301:                                              ; preds = %295
  %302 = invoke noundef ptr @_ZNSt7__cxx1112basic_stringIcSt11char_traitsIcESaIcEE9_M_createERmm(ptr noundef nonnull align 8 dereferenceable(32) %156, ptr noundef nonnull align 8 dereferenceable(8) %17, i64 noundef 0)
          to label %303 unwind label %332

303:                                              ; preds = %301
  store ptr %302, ptr %156, align 8, !tbaa !26
  %304 = load i64, ptr %17, align 8, !tbaa !30
  store i64 %304, ptr %157, align 8, !tbaa !31
  br label %305

305:                                              ; preds = %303, %295
  %306 = phi i64 [ %304, %303 ], [ %298, %295 ]
  %307 = phi ptr [ %302, %303 ], [ %157, %295 ]
  switch i64 %306, label %310 [
    i64 0, label %308
    i64 -1, label %312
  ]

308:                                              ; preds = %305
  %309 = load i8, ptr %297, align 1, !tbaa !31
  store i8 %309, ptr %307, align 1, !tbaa !31
  br label %312

310:                                              ; preds = %305
  %311 = add nuw i64 %306, 1
  call void @llvm.memcpy.p0.p0.i64(ptr noundef nonnull align 1 dereferenceable(1) %307, ptr noundef nonnull align 1 dereferenceable(1) %297, i64 %311, i1 false)
  br label %312

312:                                              ; preds = %310, %308, %305
  %313 = load i64, ptr %17, align 8, !tbaa !30
  store i64 %313, ptr %158, align 8, !tbaa !29
  call void @llvm.lifetime.end.p0(i64 8, ptr nonnull %17)
  %314 = invoke noundef nonnull align 8 dereferenceable(32) ptr @_ZNSt3mapISt4pairIiNSt7__cxx1112basic_stringIcSt11char_traitsIcESaIcEEEES6_St4lessIS7_ESaIS0_IKS7_S6_EEEixEOS7_(ptr noundef nonnull align 8 dereferenceable(48) %84, ptr noundef nonnull align 8 dereferenceable(40) %25)
          to label %315 unwind label %334

315:                                              ; preds = %312
  invoke void @_ZNSt7__cxx1112basic_stringIcSt11char_traitsIcESaIcEE9_M_assignERKS4_(ptr noundef nonnull align 8 dereferenceable(32) %314, ptr noundef nonnull align 8 dereferenceable(32) %22)
          to label %316 unwind label %334

316:                                              ; preds = %315
  %317 = load ptr, ptr %156, align 8, !tbaa !26
  %318 = icmp eq ptr %317, %157
  br i1 %318, label %319, label %322

319:                                              ; preds = %316
  %320 = load i64, ptr %158, align 8, !tbaa !29
  %321 = icmp ult i64 %320, 16
  call void @llvm.assume(i1 %321)
  br label %325

322:                                              ; preds = %316
  %323 = load i64, ptr %157, align 8, !tbaa !31
  %324 = add i64 %323, 1
  call void @_ZdlPvm(ptr noundef %317, i64 noundef %324) #34
  br label %325

325:                                              ; preds = %319, %322
  call void @llvm.lifetime.end.p0(i64 40, ptr nonnull %25) #36
  %326 = call noundef i64 @_ZNKSt7__cxx1112basic_stringIcSt11char_traitsIcESaIcEE4findEPKcmm(ptr noundef nonnull align 8 dereferenceable(32) %21, ptr noundef nonnull @.str.7, i64 noundef 0, i64 noundef 6) #36
  %327 = icmp eq i64 %326, -1
  br i1 %327, label %520, label %328

328:                                              ; preds = %325
  %329 = add i64 %326, 6
  %330 = call noundef i64 @_ZNKSt7__cxx1112basic_stringIcSt11char_traitsIcESaIcEE4findEcm(ptr noundef nonnull align 8 dereferenceable(32) %21, i8 noundef signext 34, i64 noundef %329) #36
  %331 = icmp eq i64 %330, -1
  br i1 %331, label %522, label %346

332:                                              ; preds = %301
  %333 = landingpad { ptr, i32 }
          cleanup
  br label %344

334:                                              ; preds = %315, %312
  %335 = landingpad { ptr, i32 }
          cleanup
  %336 = load ptr, ptr %156, align 8, !tbaa !26
  %337 = icmp eq ptr %336, %157
  br i1 %337, label %338, label %341

338:                                              ; preds = %334
  %339 = load i64, ptr %158, align 8, !tbaa !29
  %340 = icmp ult i64 %339, 16
  call void @llvm.assume(i1 %340)
  br label %344

341:                                              ; preds = %334
  %342 = load i64, ptr %157, align 8, !tbaa !31
  %343 = add i64 %342, 1
  call void @_ZdlPvm(ptr noundef %336, i64 noundef %343) #34
  br label %344

344:                                              ; preds = %341, %338, %332
  %345 = phi { ptr, i32 } [ %333, %332 ], [ %335, %338 ], [ %335, %341 ]
  call void @llvm.lifetime.end.p0(i64 40, ptr nonnull %25) #36
  br label %552

346:                                              ; preds = %328
  call void @llvm.lifetime.start.p0(i64 32, ptr nonnull %26) #36
  call void @llvm.experimental.noalias.scope.decl(metadata !210)
  %347 = load i64, ptr %149, align 8, !tbaa !29, !noalias !210
  %348 = icmp ult i64 %347, 9223372036854775807
  call void @llvm.assume(i1 %348)
  %349 = icmp ugt i64 %329, %347
  br i1 %349, label %350, label %352

350:                                              ; preds = %346
  invoke void (ptr, ...) @_ZSt24__throw_out_of_range_fmtPKcz(ptr noundef nonnull @.str.129, ptr noundef nonnull @.str.128, i64 noundef %329, i64 noundef %347) #39
          to label %351 unwind label %416

351:                                              ; preds = %350
  unreachable

352:                                              ; preds = %346
  %353 = sub i64 %330, %329
  store ptr %159, ptr %26, align 8, !tbaa !22, !alias.scope !210
  %354 = load ptr, ptr %21, align 8, !tbaa !26, !noalias !210
  %355 = getelementptr inbounds nuw i8, ptr %354, i64 %329
  %356 = sub nuw nsw i64 %347, %329
  %357 = call noundef i64 @llvm.umin.i64(i64 %353, i64 %356)
  call void @llvm.lifetime.start.p0(i64 8, ptr nonnull %16) #36, !noalias !210
  store i64 %357, ptr %16, align 8, !tbaa !30, !noalias !210
  %358 = icmp samesign ugt i64 %357, 15
  br i1 %358, label %359, label %363

359:                                              ; preds = %352
  %360 = invoke noundef ptr @_ZNSt7__cxx1112basic_stringIcSt11char_traitsIcESaIcEE9_M_createERmm(ptr noundef nonnull align 8 dereferenceable(32) %26, ptr noundef nonnull align 8 dereferenceable(8) %16, i64 noundef 0)
          to label %361 unwind label %414

361:                                              ; preds = %359
  store ptr %360, ptr %26, align 8, !tbaa !26, !alias.scope !210
  %362 = load i64, ptr %16, align 8, !tbaa !30, !noalias !210
  store i64 %362, ptr %159, align 8, !tbaa !31, !alias.scope !210
  br label %363

363:                                              ; preds = %361, %352
  %364 = phi ptr [ %360, %361 ], [ %159, %352 ]
  switch i64 %357, label %367 [
    i64 1, label %365
    i64 0, label %368
  ]

365:                                              ; preds = %363
  %366 = load i8, ptr %355, align 1, !tbaa !31
  store i8 %366, ptr %364, align 1, !tbaa !31
  br label %368

367:                                              ; preds = %363
  call void @llvm.memcpy.p0.p0.i64(ptr align 1 %364, ptr align 1 %355, i64 %357, i1 false)
  br label %368

368:                                              ; preds = %367, %365, %363
  %369 = load i64, ptr %16, align 8, !tbaa !30, !noalias !210
  store i64 %369, ptr %160, align 8, !tbaa !29, !alias.scope !210
  %370 = load ptr, ptr %26, align 8, !tbaa !26, !alias.scope !210
  %371 = getelementptr inbounds nuw i8, ptr %370, i64 %369
  store i8 0, ptr %371, align 1, !tbaa !31
  call void @llvm.lifetime.end.p0(i64 8, ptr nonnull %16) #36, !noalias !210
  %372 = load i64, ptr %160, align 8, !tbaa !29
  %373 = icmp ult i64 %372, 9223372036854775807
  call void @llvm.assume(i1 %373)
  switch i64 %372, label %498 [
    i64 6, label %374
    i64 5, label %438
  ]

374:                                              ; preds = %368
  %375 = load ptr, ptr %26, align 8, !tbaa !26
  %376 = call i32 @bcmp(ptr noundef nonnull dereferenceable(6) %375, ptr noundef nonnull dereferenceable(6) @.str.8, i64 6)
  %377 = icmp eq i32 %376, 0
  br i1 %377, label %378, label %498

378:                                              ; preds = %374
  %379 = icmp slt i32 %296, 0
  %380 = load i16, ptr %62, align 8
  %381 = zext i16 %380 to i32
  %382 = icmp ugt i32 %296, %381
  %383 = select i1 %379, i1 true, i1 %382
  br i1 %383, label %498, label %384

384:                                              ; preds = %378
  %385 = load ptr, ptr %82, align 8, !tbaa !213
  %386 = load ptr, ptr %161, align 8, !tbaa !213
  %387 = icmp eq ptr %385, %386
  br i1 %387, label %388, label %430

388:                                              ; preds = %384
  %389 = icmp eq i16 %380, 0
  br i1 %389, label %395, label %390

390:                                              ; preds = %388
  %391 = zext i16 %380 to i64
  invoke void @_ZNSt6vectorIdSaIdEE17_M_default_appendEm(ptr noundef nonnull align 8 dereferenceable(24) %82, i64 noundef %391)
          to label %392 unwind label %418

392:                                              ; preds = %390
  %393 = load i16, ptr %62, align 8, !tbaa !187
  %394 = zext i16 %393 to i64
  br label %395

395:                                              ; preds = %388, %392
  %396 = phi i64 [ %394, %392 ], [ 0, %388 ]
  call void @llvm.lifetime.start.p0(i64 8, ptr nonnull %27) #36
  store double 1.000000e+00, ptr %27, align 8, !tbaa !38
  %397 = load ptr, ptr %162, align 8, !tbaa !214
  %398 = load ptr, ptr %83, align 8, !tbaa !215
  %399 = ptrtoint ptr %397 to i64
  %400 = ptrtoint ptr %398 to i64
  %401 = sub i64 %399, %400
  %402 = ashr exact i64 %401, 3
  %403 = icmp sgt i64 %402, -1
  call void @llvm.assume(i1 %403)
  %404 = icmp samesign ult i64 %402, %396
  br i1 %404, label %405, label %407

405:                                              ; preds = %395
  %406 = sub nuw nsw i64 %396, %402
  invoke void @_ZNSt6vectorIdSaIdEE14_M_fill_insertEN9__gnu_cxx17__normal_iteratorIPdS1_EEmRKd(ptr noundef nonnull align 8 dereferenceable(24) %83, ptr %397, i64 noundef %406, ptr noundef nonnull align 8 dereferenceable(8) %27)
          to label %413 unwind label %420

407:                                              ; preds = %395
  %408 = icmp samesign ugt i64 %402, %396
  br i1 %408, label %409, label %413

409:                                              ; preds = %407
  %410 = getelementptr inbounds nuw double, ptr %398, i64 %396
  %411 = icmp eq ptr %397, %410
  br i1 %411, label %413, label %412

412:                                              ; preds = %409
  store ptr %410, ptr %162, align 8, !tbaa !214
  br label %413

413:                                              ; preds = %412, %409, %407, %405
  call void @llvm.lifetime.end.p0(i64 8, ptr nonnull %27) #36
  br label %430

414:                                              ; preds = %359
  %415 = landingpad { ptr, i32 }
          cleanup
  br label %518

416:                                              ; preds = %350
  %417 = landingpad { ptr, i32 }
          cleanup
  br label %518

418:                                              ; preds = %390, %430
  %419 = landingpad { ptr, i32 }
          cleanup
          catch ptr @_ZTISt9exception
  br label %422

420:                                              ; preds = %405
  %421 = landingpad { ptr, i32 }
          cleanup
          catch ptr @_ZTISt9exception
  call void @llvm.lifetime.end.p0(i64 8, ptr nonnull %27) #36
  br label %422

422:                                              ; preds = %420, %418
  %423 = phi { ptr, i32 } [ %419, %418 ], [ %421, %420 ]
  %424 = extractvalue { ptr, i32 } %423, 1
  %425 = call i32 @llvm.eh.typeid.for.p0(ptr nonnull @_ZTISt9exception) #36
  %426 = icmp eq i32 %424, %425
  br i1 %426, label %427, label %508

427:                                              ; preds = %422
  %428 = extractvalue { ptr, i32 } %423, 0
  %429 = call ptr @__cxa_begin_catch(ptr %428) #36
  invoke void @__cxa_end_catch()
          to label %498 unwind label %436

430:                                              ; preds = %413, %384
  %431 = invoke noundef double @_ZN5osgeo4proj8internal13c_locale_stodERKNSt7__cxx1112basic_stringIcSt11char_traitsIcESaIcEEE(ptr noundef nonnull align 8 dereferenceable(32) %22)
          to label %432 unwind label %418

432:                                              ; preds = %430
  %433 = zext nneg i32 %296 to i64
  %434 = load ptr, ptr %82, align 8, !tbaa !215
  %435 = getelementptr inbounds nuw double, ptr %434, i64 %433
  store double %431, ptr %435, align 8, !tbaa !38
  br label %498

436:                                              ; preds = %427
  %437 = landingpad { ptr, i32 }
          cleanup
  br label %508

438:                                              ; preds = %368
  %439 = load ptr, ptr %26, align 8, !tbaa !26
  %440 = call i32 @bcmp(ptr noundef nonnull dereferenceable(5) %439, ptr noundef nonnull dereferenceable(5) @.str.9, i64 5)
  %441 = icmp ne i32 %440, 0
  %442 = icmp slt i32 %296, 0
  %443 = select i1 %441, i1 true, i1 %442
  %444 = load i16, ptr %62, align 8
  %445 = zext i16 %444 to i32
  %446 = icmp ugt i32 %296, %445
  %447 = select i1 %443, i1 true, i1 %446
  br i1 %447, label %498, label %448

448:                                              ; preds = %438
  %449 = load ptr, ptr %82, align 8, !tbaa !213
  %450 = load ptr, ptr %161, align 8, !tbaa !213
  %451 = icmp eq ptr %449, %450
  br i1 %451, label %452, label %490

452:                                              ; preds = %448
  %453 = icmp eq i16 %444, 0
  br i1 %453, label %459, label %454

454:                                              ; preds = %452
  %455 = zext i16 %444 to i64
  invoke void @_ZNSt6vectorIdSaIdEE17_M_default_appendEm(ptr noundef nonnull align 8 dereferenceable(24) %82, i64 noundef %455)
          to label %456 unwind label %478

456:                                              ; preds = %454
  %457 = load i16, ptr %62, align 8, !tbaa !187
  %458 = zext i16 %457 to i64
  br label %459

459:                                              ; preds = %452, %456
  %460 = phi i64 [ %458, %456 ], [ 0, %452 ]
  call void @llvm.lifetime.start.p0(i64 8, ptr nonnull %28) #36
  store double 1.000000e+00, ptr %28, align 8, !tbaa !38
  %461 = load ptr, ptr %162, align 8, !tbaa !214
  %462 = load ptr, ptr %83, align 8, !tbaa !215
  %463 = ptrtoint ptr %461 to i64
  %464 = ptrtoint ptr %462 to i64
  %465 = sub i64 %463, %464
  %466 = ashr exact i64 %465, 3
  %467 = icmp sgt i64 %466, -1
  call void @llvm.assume(i1 %467)
  %468 = icmp samesign ult i64 %466, %460
  br i1 %468, label %469, label %471

469:                                              ; preds = %459
  %470 = sub nuw nsw i64 %460, %466
  invoke void @_ZNSt6vectorIdSaIdEE14_M_fill_insertEN9__gnu_cxx17__normal_iteratorIPdS1_EEmRKd(ptr noundef nonnull align 8 dereferenceable(24) %83, ptr %461, i64 noundef %470, ptr noundef nonnull align 8 dereferenceable(8) %28)
          to label %477 unwind label %480

471:                                              ; preds = %459
  %472 = icmp samesign ugt i64 %466, %460
  br i1 %472, label %473, label %477

473:                                              ; preds = %471
  %474 = getelementptr inbounds nuw double, ptr %462, i64 %460
  %475 = icmp eq ptr %461, %474
  br i1 %475, label %477, label %476

476:                                              ; preds = %473
  store ptr %474, ptr %162, align 8, !tbaa !214
  br label %477

477:                                              ; preds = %476, %473, %471, %469
  call void @llvm.lifetime.end.p0(i64 8, ptr nonnull %28) #36
  br label %490

478:                                              ; preds = %454, %490
  %479 = landingpad { ptr, i32 }
          cleanup
          catch ptr @_ZTISt9exception
  br label %482

480:                                              ; preds = %469
  %481 = landingpad { ptr, i32 }
          cleanup
          catch ptr @_ZTISt9exception
  call void @llvm.lifetime.end.p0(i64 8, ptr nonnull %28) #36
  br label %482

482:                                              ; preds = %480, %478
  %483 = phi { ptr, i32 } [ %479, %478 ], [ %481, %480 ]
  %484 = extractvalue { ptr, i32 } %483, 1
  %485 = call i32 @llvm.eh.typeid.for.p0(ptr nonnull @_ZTISt9exception) #36
  %486 = icmp eq i32 %484, %485
  br i1 %486, label %487, label %508

487:                                              ; preds = %482
  %488 = extractvalue { ptr, i32 } %483, 0
  %489 = call ptr @__cxa_begin_catch(ptr %488) #36
  invoke void @__cxa_end_catch()
          to label %498 unwind label %496

490:                                              ; preds = %477, %448
  %491 = invoke noundef double @_ZN5osgeo4proj8internal13c_locale_stodERKNSt7__cxx1112basic_stringIcSt11char_traitsIcESaIcEEE(ptr noundef nonnull align 8 dereferenceable(32) %22)
          to label %492 unwind label %478

492:                                              ; preds = %490
  %493 = zext nneg i32 %296 to i64
  %494 = load ptr, ptr %83, align 8, !tbaa !215
  %495 = getelementptr inbounds nuw double, ptr %494, i64 %493
  store double %491, ptr %495, align 8, !tbaa !38
  br label %498

496:                                              ; preds = %487
  %497 = landingpad { ptr, i32 }
          cleanup
  br label %508

498:                                              ; preds = %374, %368, %487, %427, %438, %492, %378, %432
  %499 = load ptr, ptr %26, align 8, !tbaa !26
  %500 = icmp eq ptr %499, %159
  br i1 %500, label %501, label %504

501:                                              ; preds = %498
  %502 = load i64, ptr %160, align 8, !tbaa !29
  %503 = icmp ult i64 %502, 16
  call void @llvm.assume(i1 %503)
  br label %507

504:                                              ; preds = %498
  %505 = load i64, ptr %159, align 8, !tbaa !31
  %506 = add i64 %505, 1
  call void @_ZdlPvm(ptr noundef %499, i64 noundef %506) #34
  br label %507

507:                                              ; preds = %504, %501
  call void @llvm.lifetime.end.p0(i64 32, ptr nonnull %26) #36
  br label %520

508:                                              ; preds = %482, %422, %496, %436
  %509 = phi { ptr, i32 } [ %437, %436 ], [ %497, %496 ], [ %483, %482 ], [ %423, %422 ]
  %510 = load ptr, ptr %26, align 8, !tbaa !26
  %511 = icmp eq ptr %510, %159
  br i1 %511, label %512, label %515

512:                                              ; preds = %508
  %513 = load i64, ptr %160, align 8, !tbaa !29
  %514 = icmp ult i64 %513, 16
  call void @llvm.assume(i1 %514)
  br label %518

515:                                              ; preds = %508
  %516 = load i64, ptr %159, align 8, !tbaa !31
  %517 = add i64 %516, 1
  call void @_ZdlPvm(ptr noundef %510, i64 noundef %517) #34
  br label %518

518:                                              ; preds = %414, %416, %515, %512
  %519 = phi { ptr, i32 } [ %509, %512 ], [ %509, %515 ], [ %415, %414 ], [ %417, %416 ]
  call void @llvm.lifetime.end.p0(i64 32, ptr nonnull %26) #36
  br label %552

520:                                              ; preds = %507, %325
  %521 = getelementptr inbounds nuw i8, ptr %173, i64 1
  br label %522

522:                                              ; preds = %328, %205, %520, %194
  %523 = phi i1 [ false, %194 ], [ true, %520 ], [ false, %205 ], [ false, %328 ]
  %524 = phi ptr [ %165, %194 ], [ %521, %520 ], [ %165, %205 ], [ %165, %328 ]
  %525 = load ptr, ptr %23, align 8, !tbaa !26
  %526 = icmp eq ptr %525, %152
  br i1 %526, label %527, label %530

527:                                              ; preds = %522
  %528 = load i64, ptr %153, align 8, !tbaa !29
  %529 = icmp ult i64 %528, 16
  call void @llvm.assume(i1 %529)
  br label %533

530:                                              ; preds = %522
  %531 = load i64, ptr %152, align 8, !tbaa !31
  %532 = add i64 %531, 1
  call void @_ZdlPvm(ptr noundef %525, i64 noundef %532) #34
  br label %533

533:                                              ; preds = %527, %530
  call void @llvm.lifetime.end.p0(i64 32, ptr nonnull %23) #36
  %534 = load ptr, ptr %22, align 8, !tbaa !26
  %535 = icmp eq ptr %534, %150
  br i1 %535, label %536, label %539

536:                                              ; preds = %533
  %537 = load i64, ptr %151, align 8, !tbaa !29
  %538 = icmp ult i64 %537, 16
  call void @llvm.assume(i1 %538)
  br label %542

539:                                              ; preds = %533
  %540 = load i64, ptr %150, align 8, !tbaa !31
  %541 = add i64 %540, 1
  call void @_ZdlPvm(ptr noundef %534, i64 noundef %541) #34
  br label %542

542:                                              ; preds = %536, %539
  call void @llvm.lifetime.end.p0(i64 32, ptr nonnull %22) #36
  %543 = load ptr, ptr %21, align 8, !tbaa !26
  %544 = icmp eq ptr %543, %148
  br i1 %544, label %545, label %548

545:                                              ; preds = %542
  %546 = load i64, ptr %149, align 8, !tbaa !29
  %547 = icmp ult i64 %546, 16
  call void @llvm.assume(i1 %547)
  br label %551

548:                                              ; preds = %542
  %549 = load i64, ptr %148, align 8, !tbaa !31
  %550 = add i64 %549, 1
  call void @_ZdlPvm(ptr noundef %543, i64 noundef %550) #34
  br label %551

551:                                              ; preds = %548, %545
  call void @llvm.lifetime.end.p0(i64 32, ptr nonnull %21) #36
  br i1 %523, label %163, label %585

552:                                              ; preds = %344, %518, %293
  %553 = phi { ptr, i32 } [ %294, %293 ], [ %519, %518 ], [ %345, %344 ]
  %554 = load ptr, ptr %23, align 8, !tbaa !26
  %555 = icmp eq ptr %554, %152
  br i1 %555, label %556, label %559

556:                                              ; preds = %552
  %557 = load i64, ptr %153, align 8, !tbaa !29
  %558 = icmp ult i64 %557, 16
  call void @llvm.assume(i1 %558)
  br label %562

559:                                              ; preds = %552
  %560 = load i64, ptr %152, align 8, !tbaa !31
  %561 = add i64 %560, 1
  call void @_ZdlPvm(ptr noundef %554, i64 noundef %561) #34
  br label %562

562:                                              ; preds = %556, %559
  call void @llvm.lifetime.end.p0(i64 32, ptr nonnull %23) #36
  br label %563

563:                                              ; preds = %201, %203, %562
  %564 = phi { ptr, i32 } [ %553, %562 ], [ %202, %201 ], [ %204, %203 ]
  %565 = load ptr, ptr %22, align 8, !tbaa !26
  %566 = icmp eq ptr %565, %150
  br i1 %566, label %567, label %570

567:                                              ; preds = %563
  %568 = load i64, ptr %151, align 8, !tbaa !29
  %569 = icmp ult i64 %568, 16
  call void @llvm.assume(i1 %569)
  br label %573

570:                                              ; preds = %563
  %571 = load i64, ptr %150, align 8, !tbaa !31
  %572 = add i64 %571, 1
  call void @_ZdlPvm(ptr noundef %565, i64 noundef %572) #34
  br label %573

573:                                              ; preds = %567, %570
  call void @llvm.lifetime.end.p0(i64 32, ptr nonnull %22) #36
  br label %574

574:                                              ; preds = %197, %199, %573
  %575 = phi { ptr, i32 } [ %564, %573 ], [ %198, %197 ], [ %200, %199 ]
  %576 = load ptr, ptr %21, align 8, !tbaa !26
  %577 = icmp eq ptr %576, %148
  br i1 %577, label %578, label %581

578:                                              ; preds = %574
  %579 = load i64, ptr %149, align 8, !tbaa !29
  %580 = icmp ult i64 %579, 16
  call void @llvm.assume(i1 %580)
  br label %584

581:                                              ; preds = %574
  %582 = load i64, ptr %148, align 8, !tbaa !31
  %583 = add i64 %582, 1
  call void @_ZdlPvm(ptr noundef %576, i64 noundef %583) #34
  br label %584

584:                                              ; preds = %578, %581
  call void @llvm.lifetime.end.p0(i64 32, ptr nonnull %21) #36
  br label %744

585:                                              ; preds = %172, %169, %163, %551, %144
  %586 = load ptr, ptr %57, align 8, !tbaa !182
  %587 = invoke i32 (ptr, i32, ...) @TIFFGetField(ptr noundef %586, i32 noundef 42113, ptr noundef nonnull %20)
          to label %588 unwind label %167

588:                                              ; preds = %585
  %589 = icmp eq i32 %587, 0
  br i1 %589, label %647, label %590

590:                                              ; preds = %588
  call void @llvm.lifetime.start.p0(i64 32, ptr nonnull %29) #36
  %591 = load ptr, ptr %20, align 8, !tbaa !204
  %592 = getelementptr inbounds nuw i8, ptr %29, i64 16
  store ptr %592, ptr %29, align 8, !tbaa !22
  %593 = icmp eq ptr %591, null
  br i1 %593, label %594, label %596

594:                                              ; preds = %590
  invoke void @_ZSt19__throw_logic_errorPKc(ptr noundef nonnull @.str.125) #39
          to label %595 unwind label %625

595:                                              ; preds = %594
  unreachable

596:                                              ; preds = %590
  %597 = call noundef i64 @strlen(ptr noundef nonnull dereferenceable(1) %591) #36
  call void @llvm.lifetime.start.p0(i64 8, ptr nonnull %15) #36
  store i64 %597, ptr %15, align 8, !tbaa !30
  %598 = icmp ugt i64 %597, 15
  br i1 %598, label %599, label %603

599:                                              ; preds = %596
  %600 = invoke noundef ptr @_ZNSt7__cxx1112basic_stringIcSt11char_traitsIcESaIcEE9_M_createERmm(ptr noundef nonnull align 8 dereferenceable(32) %29, ptr noundef nonnull align 8 dereferenceable(8) %15, i64 noundef 0)
          to label %601 unwind label %625

601:                                              ; preds = %599
  store ptr %600, ptr %29, align 8, !tbaa !26
  %602 = load i64, ptr %15, align 8, !tbaa !30
  store i64 %602, ptr %592, align 8, !tbaa !31
  br label %603

603:                                              ; preds = %601, %596
  %604 = phi ptr [ %600, %601 ], [ %592, %596 ]
  switch i64 %597, label %607 [
    i64 1, label %605
    i64 0, label %608
  ]

605:                                              ; preds = %603
  %606 = load i8, ptr %591, align 1, !tbaa !31
  store i8 %606, ptr %604, align 1, !tbaa !31
  br label %608

607:                                              ; preds = %603
  call void @llvm.memcpy.p0.p0.i64(ptr align 1 %604, ptr nonnull align 1 %591, i64 %597, i1 false)
  br label %608

608:                                              ; preds = %607, %605, %603
  %609 = load i64, ptr %15, align 8, !tbaa !30
  %610 = getelementptr inbounds nuw i8, ptr %29, i64 8
  store i64 %609, ptr %610, align 8, !tbaa !29
  %611 = load ptr, ptr %29, align 8, !tbaa !26
  %612 = getelementptr inbounds nuw i8, ptr %611, i64 %609
  store i8 0, ptr %612, align 1, !tbaa !31
  call void @llvm.lifetime.end.p0(i64 8, ptr nonnull %15) #36
  %613 = invoke noundef double @_ZN5osgeo4proj8internal13c_locale_stodERKNSt7__cxx1112basic_stringIcSt11char_traitsIcESaIcEEE(ptr noundef nonnull align 8 dereferenceable(32) %29)
          to label %614 unwind label %627

614:                                              ; preds = %608
  %615 = fptrunc double %613 to float
  store float %615, ptr %92, align 4, !tbaa !197
  %616 = load ptr, ptr %29, align 8, !tbaa !26
  %617 = icmp eq ptr %616, %592
  br i1 %617, label %618, label %621

618:                                              ; preds = %614
  %619 = load i64, ptr %610, align 8, !tbaa !29
  %620 = icmp ult i64 %619, 16
  call void @llvm.assume(i1 %620)
  br label %624

621:                                              ; preds = %614
  %622 = load i64, ptr %592, align 8, !tbaa !31
  %623 = add i64 %622, 1
  call void @_ZdlPvm(ptr noundef %616, i64 noundef %623) #34
  br label %624

624:                                              ; preds = %618, %621
  call void @llvm.lifetime.end.p0(i64 32, ptr nonnull %29) #36
  store i8 1, ptr %89, align 8, !tbaa !216
  br label %647

625:                                              ; preds = %599, %594
  %626 = landingpad { ptr, i32 }
          cleanup
          catch ptr @_ZTISt9exception
  br label %637

627:                                              ; preds = %608
  %628 = landingpad { ptr, i32 }
          cleanup
          catch ptr @_ZTISt9exception
  %629 = load ptr, ptr %29, align 8, !tbaa !26
  %630 = icmp eq ptr %629, %592
  br i1 %630, label %631, label %634

631:                                              ; preds = %627
  %632 = load i64, ptr %610, align 8, !tbaa !29
  %633 = icmp ult i64 %632, 16
  call void @llvm.assume(i1 %633)
  br label %637

634:                                              ; preds = %627
  %635 = load i64, ptr %592, align 8, !tbaa !31
  %636 = add i64 %635, 1
  call void @_ZdlPvm(ptr noundef %629, i64 noundef %636) #34
  br label %637

637:                                              ; preds = %634, %631, %625
  %638 = phi { ptr, i32 } [ %626, %625 ], [ %628, %631 ], [ %628, %634 ]
  %639 = extractvalue { ptr, i32 } %638, 1
  call void @llvm.lifetime.end.p0(i64 32, ptr nonnull %29) #36
  %640 = call i32 @llvm.eh.typeid.for.p0(ptr nonnull @_ZTISt9exception) #36
  %641 = icmp eq i32 %639, %640
  br i1 %641, label %642, label %744

642:                                              ; preds = %637
  %643 = extractvalue { ptr, i32 } %638, 0
  %644 = call ptr @__cxa_begin_catch(ptr %643) #36
  invoke void @__cxa_end_catch()
          to label %647 unwind label %645

645:                                              ; preds = %642
  %646 = landingpad { ptr, i32 }
          cleanup
  br label %744

647:                                              ; preds = %642, %624, %588
  call void @llvm.lifetime.start.p0(i64 40, ptr nonnull %30) #36
  store i32 -1, ptr %30, align 8, !tbaa !208
  %648 = getelementptr inbounds nuw i8, ptr %30, i64 8
  %649 = getelementptr inbounds nuw i8, ptr %30, i64 24
  store ptr %649, ptr %648, align 8, !tbaa !22
  call void @llvm.memcpy.p0.p0.i64(ptr noundef nonnull align 8 dereferenceable(9) %649, ptr noundef nonnull align 1 dereferenceable(9) @.str.10, i64 9, i1 false)
  %650 = getelementptr inbounds nuw i8, ptr %30, i64 16
  store i64 9, ptr %650, align 8, !tbaa !29
  %651 = getelementptr inbounds nuw i8, ptr %30, i64 33
  store i8 0, ptr %651, align 1, !tbaa !31
  %652 = invoke ptr @_ZNSt8_Rb_treeISt4pairIiNSt7__cxx1112basic_stringIcSt11char_traitsIcESaIcEEEES0_IKS7_S6_ESt10_Select1stIS9_ESt4lessIS7_ESaIS9_EE4findERS8_(ptr noundef nonnull align 8 dereferenceable(48) %84, ptr noundef nonnull align 8 dereferenceable(40) %30)
          to label %653 unwind label %720

653:                                              ; preds = %647
  %654 = load ptr, ptr %648, align 8, !tbaa !26
  %655 = icmp eq ptr %654, %649
  br i1 %655, label %656, label %659

656:                                              ; preds = %653
  %657 = load i64, ptr %650, align 8, !tbaa !29
  %658 = icmp ult i64 %657, 16
  call void @llvm.assume(i1 %658)
  br label %662

659:                                              ; preds = %653
  %660 = load i64, ptr %649, align 8, !tbaa !31
  %661 = add i64 %660, 1
  call void @_ZdlPvm(ptr noundef %654, i64 noundef %661) #34
  br label %662

662:                                              ; preds = %656, %659
  call void @llvm.lifetime.end.p0(i64 40, ptr nonnull %30) #36
  %663 = icmp eq ptr %652, %85
  br i1 %663, label %743, label %664

664:                                              ; preds = %662
  call void @llvm.lifetime.start.p0(i64 32, ptr nonnull %31) #36
  %665 = getelementptr inbounds nuw i8, ptr %652, i64 72
  call void @llvm.experimental.noalias.scope.decl(metadata !217)
  %666 = load ptr, ptr %665, align 8, !tbaa !26, !noalias !217
  %667 = getelementptr inbounds nuw i8, ptr %652, i64 80
  %668 = load i64, ptr %667, align 8, !tbaa !29, !noalias !217
  %669 = icmp ult i64 %668, 9223372036854775807
  call void @llvm.assume(i1 %669)
  %670 = getelementptr inbounds nuw i8, ptr %31, i64 16
  store ptr %670, ptr %31, align 8, !tbaa !22, !alias.scope !220
  %671 = getelementptr inbounds nuw i8, ptr %31, i64 8
  store i64 0, ptr %671, align 8, !tbaa !29, !alias.scope !220
  store i8 0, ptr %670, align 8, !tbaa !31, !alias.scope !220
  %672 = add nuw i64 %668, 2
  invoke void @_ZNSt7__cxx1112basic_stringIcSt11char_traitsIcESaIcEE7reserveEm(ptr noundef nonnull align 8 dereferenceable(32) %31, i64 noundef %672)
          to label %673 unwind label %688

673:                                              ; preds = %664
  %674 = load i64, ptr %671, align 8, !tbaa !29, !alias.scope !220
  %675 = icmp ult i64 %674, 9223372036854775807
  call void @llvm.assume(i1 %675)
  %676 = icmp samesign ugt i64 %674, 9223372036854775804
  br i1 %676, label %684, label %677

677:                                              ; preds = %673
  %678 = invoke noundef nonnull align 8 dereferenceable(32) ptr @_ZNSt7__cxx1112basic_stringIcSt11char_traitsIcESaIcEE9_M_appendEPKcm(ptr noundef nonnull align 8 dereferenceable(32) %31, ptr noundef nonnull @.str.11, i64 noundef 2)
          to label %679 unwind label %688

679:                                              ; preds = %677
  %680 = load i64, ptr %671, align 8, !tbaa !29, !alias.scope !220
  %681 = icmp ult i64 %680, 9223372036854775807
  call void @llvm.assume(i1 %681)
  %682 = sub nuw nsw i64 9223372036854775806, %680
  %683 = icmp samesign ult i64 %682, %668
  br i1 %683, label %684, label %686

684:                                              ; preds = %679, %673
  invoke void @_ZSt20__throw_length_errorPKc(ptr noundef nonnull @.str.127) #39
          to label %685 unwind label %688

685:                                              ; preds = %684
  unreachable

686:                                              ; preds = %679
  %687 = invoke noundef nonnull align 8 dereferenceable(32) ptr @_ZNSt7__cxx1112basic_stringIcSt11char_traitsIcESaIcEE9_M_appendEPKcm(ptr noundef nonnull align 8 dereferenceable(32) %31, ptr noundef %666, i64 noundef %668)
          to label %698 unwind label %688

688:                                              ; preds = %686, %684, %677, %664
  %689 = landingpad { ptr, i32 }
          cleanup
  %690 = load ptr, ptr %31, align 8, !tbaa !26, !alias.scope !220
  %691 = icmp eq ptr %690, %670
  br i1 %691, label %692, label %695

692:                                              ; preds = %688
  %693 = load i64, ptr %671, align 8, !tbaa !29, !alias.scope !220
  %694 = icmp ult i64 %693, 16
  call void @llvm.assume(i1 %694)
  br label %741

695:                                              ; preds = %688
  %696 = load i64, ptr %670, align 8, !tbaa !31, !alias.scope !220
  %697 = add i64 %696, 1
  call void @_ZdlPvm(ptr noundef %690, i64 noundef %697) #34
  br label %741

698:                                              ; preds = %686
  %699 = load ptr, ptr %31, align 8, !tbaa !26
  %700 = load i64, ptr %671, align 8, !tbaa !29
  %701 = icmp ult i64 %700, 9223372036854775807
  call void @llvm.assume(i1 %701)
  %702 = load i64, ptr %52, align 8, !tbaa !29
  %703 = icmp ult i64 %702, 9223372036854775807
  call void @llvm.assume(i1 %703)
  %704 = sub nuw nsw i64 9223372036854775806, %702
  %705 = icmp samesign ult i64 %704, %700
  br i1 %705, label %706, label %708

706:                                              ; preds = %698
  invoke void @_ZSt20__throw_length_errorPKc(ptr noundef nonnull @.str.127) #39
          to label %707 unwind label %731

707:                                              ; preds = %706
  unreachable

708:                                              ; preds = %698
  %709 = invoke noundef nonnull align 8 dereferenceable(32) ptr @_ZNSt7__cxx1112basic_stringIcSt11char_traitsIcESaIcEE9_M_appendEPKcm(ptr noundef nonnull align 8 dereferenceable(32) %33, ptr noundef %699, i64 noundef %700)
          to label %710 unwind label %731

710:                                              ; preds = %708
  %711 = load ptr, ptr %31, align 8, !tbaa !26
  %712 = icmp eq ptr %711, %670
  br i1 %712, label %713, label %716

713:                                              ; preds = %710
  %714 = load i64, ptr %671, align 8, !tbaa !29
  %715 = icmp ult i64 %714, 16
  call void @llvm.assume(i1 %715)
  br label %719

716:                                              ; preds = %710
  %717 = load i64, ptr %670, align 8, !tbaa !31
  %718 = add i64 %717, 1
  call void @_ZdlPvm(ptr noundef %711, i64 noundef %718) #34
  br label %719

719:                                              ; preds = %713, %716
  call void @llvm.lifetime.end.p0(i64 32, ptr nonnull %31) #36
  br label %743

720:                                              ; preds = %647
  %721 = landingpad { ptr, i32 }
          cleanup
  %722 = load ptr, ptr %648, align 8, !tbaa !26
  %723 = icmp eq ptr %722, %649
  br i1 %723, label %724, label %727

724:                                              ; preds = %720
  %725 = load i64, ptr %650, align 8, !tbaa !29
  %726 = icmp ult i64 %725, 16
  call void @llvm.assume(i1 %726)
  br label %730

727:                                              ; preds = %720
  %728 = load i64, ptr %649, align 8, !tbaa !31
  %729 = add i64 %728, 1
  call void @_ZdlPvm(ptr noundef %722, i64 noundef %729) #34
  br label %730

730:                                              ; preds = %727, %724
  call void @llvm.lifetime.end.p0(i64 40, ptr nonnull %30) #36
  br label %744

731:                                              ; preds = %708, %706
  %732 = landingpad { ptr, i32 }
          cleanup
  %733 = load ptr, ptr %31, align 8, !tbaa !26
  %734 = icmp eq ptr %733, %670
  br i1 %734, label %735, label %738

735:                                              ; preds = %731
  %736 = load i64, ptr %671, align 8, !tbaa !29
  %737 = icmp ult i64 %736, 16
  call void @llvm.assume(i1 %737)
  br label %741

738:                                              ; preds = %731
  %739 = load i64, ptr %670, align 8, !tbaa !31
  %740 = add i64 %739, 1
  call void @_ZdlPvm(ptr noundef %733, i64 noundef %740) #34
  br label %741

741:                                              ; preds = %738, %735, %695, %692
  %742 = phi { ptr, i32 } [ %689, %695 ], [ %689, %692 ], [ %732, %735 ], [ %732, %738 ]
  call void @llvm.lifetime.end.p0(i64 32, ptr nonnull %31) #36
  br label %744

743:                                              ; preds = %719, %662
  call void @llvm.lifetime.end.p0(i64 8, ptr nonnull %20) #36
  ret void

744:                                              ; preds = %730, %741, %645, %637, %584, %167
  %745 = phi { ptr, i32 } [ %646, %645 ], [ %638, %637 ], [ %168, %167 ], [ %575, %584 ], [ %742, %741 ], [ %721, %730 ]
  call void @llvm.lifetime.end.p0(i64 8, ptr nonnull %20) #36
  br label %746

746:                                              ; preds = %744, %105
  %747 = phi { ptr, i32 } [ %745, %744 ], [ %106, %105 ]
  call void @_ZNSt3mapISt4pairIiNSt7__cxx1112basic_stringIcSt11char_traitsIcESaIcEEEES6_St4lessIS7_ESaIS0_IKS7_S6_EEED2Ev(ptr noundef nonnull align 8 dereferenceable(48) %84) #36
  %748 = load ptr, ptr %83, align 8, !tbaa !215
  %749 = icmp eq ptr %748, null
  br i1 %749, label %756, label %750

750:                                              ; preds = %746
  %751 = getelementptr inbounds nuw i8, ptr %0, i64 272
  %752 = load ptr, ptr %751, align 8, !tbaa !223
  %753 = ptrtoint ptr %752 to i64
  %754 = ptrtoint ptr %748 to i64
  %755 = sub i64 %753, %754
  call void @_ZdlPvm(ptr noundef nonnull %748, i64 noundef %755) #34
  br label %756

756:                                              ; preds = %746, %750
  %757 = load ptr, ptr %82, align 8, !tbaa !215
  %758 = icmp eq ptr %757, null
  br i1 %758, label %765, label %759

759:                                              ; preds = %756
  %760 = getelementptr inbounds nuw i8, ptr %0, i64 248
  %761 = load ptr, ptr %760, align 8, !tbaa !223
  %762 = ptrtoint ptr %761 to i64
  %763 = ptrtoint ptr %757 to i64
  %764 = sub i64 %762, %763
  call void @_ZdlPvm(ptr noundef nonnull %757, i64 noundef %764) #34
  br label %765

765:                                              ; preds = %756, %759
  %766 = load ptr, ptr %77, align 8, !tbaa !149
  %767 = icmp eq ptr %766, null
  br i1 %767, label %774, label %768

768:                                              ; preds = %765
  %769 = getelementptr inbounds nuw i8, ptr %0, i64 208
  %770 = load ptr, ptr %769, align 8, !tbaa !150
  %771 = ptrtoint ptr %770 to i64
  %772 = ptrtoint ptr %766 to i64
  %773 = sub i64 %771, %772
  call void @_ZdlPvm(ptr noundef nonnull %766, i64 noundef %773) #34
  br label %774

774:                                              ; preds = %768, %765, %103
  %775 = phi { ptr, i32 } [ %104, %103 ], [ %747, %765 ], [ %747, %768 ]
  store ptr getelementptr inbounds nuw inrange(-16, 40) (i8, ptr @_ZTVN5osgeo4proj4GridE, i64 16), ptr %0, align 8, !tbaa !20
  %776 = load ptr, ptr %33, align 8, !tbaa !26
  %777 = icmp eq ptr %776, %34
  br i1 %777, label %778, label %781

778:                                              ; preds = %774
  %779 = load i64, ptr %52, align 8, !tbaa !29
  %780 = icmp ult i64 %779, 16
  call void @llvm.assume(i1 %780)
  br label %784

781:                                              ; preds = %774
  %782 = load i64, ptr %34, align 8, !tbaa !31
  %783 = add i64 %782, 1
  call void @_ZdlPvm(ptr noundef %776, i64 noundef %783) #34
  br label %784

784:                                              ; preds = %778, %781
  resume { ptr, i32 } %775
}

declare i64 @TIFFCurrentDirOffset(ptr noundef) local_unnamed_addr #12

declare i32 @TIFFIsTiled(ptr noundef) local_unnamed_addr #12

declare i32 @TIFFGetField(ptr noundef, i32 noundef, ...) local_unnamed_addr #12

; Function Attrs: mustprogress nocallback nofree nounwind willreturn memory(argmem: read)
declare noundef ptr @strstr(ptr noundef, ptr noundef captures(none)) local_unnamed_addr #19

; Function Attrs: mustprogress nocallback nofree nounwind willreturn memory(argmem: read)
declare noundef ptr @strchr(ptr noundef, i32 noundef) local_unnamed_addr #19

; Function Attrs: nounwind
declare noundef i64 @_ZNKSt7__cxx1112basic_stringIcSt11char_traitsIcESaIcEE4findEcm(ptr noundef nonnull align 8 dereferenceable(32), i8 noundef signext, i64 noundef) local_unnamed_addr #20

; Function Attrs: mustprogress sspstrong uwtable
define linkonce_odr noundef nonnull align 8 dereferenceable(32) ptr @_ZNSt3mapISt4pairIiNSt7__cxx1112basic_stringIcSt11char_traitsIcESaIcEEEES6_St4lessIS7_ESaIS0_IKS7_S6_EEEixEOS7_(ptr noundef nonnull align 8 dereferenceable(48) %0, ptr noundef nonnull align 8 dereferenceable(40) %1) local_unnamed_addr #2 comdat align 2 personality ptr @__gxx_personality_v0 {
  %3 = alloca %"class.std::tuple.360", align 8
  %4 = alloca %"class.std::tuple.347", align 1
  %5 = getelementptr inbounds nuw i8, ptr %0, i64 16
  %6 = load ptr, ptr %5, align 8, !tbaa !224
  %7 = getelementptr inbounds nuw i8, ptr %0, i64 8
  %8 = icmp eq ptr %6, null
  br i1 %8, label %77, label %9

9:                                                ; preds = %2
  %10 = load i32, ptr %1, align 8, !tbaa !208
  %11 = getelementptr inbounds nuw i8, ptr %1, i64 16
  %12 = load i64, ptr %11, align 8
  %13 = icmp ult i64 %12, 9223372036854775807
  %14 = getelementptr inbounds nuw i8, ptr %1, i64 8
  %15 = load ptr, ptr %14, align 8
  br label %16

16:                                               ; preds = %44, %9
  %17 = phi ptr [ %6, %9 ], [ %48, %44 ]
  %18 = phi ptr [ %7, %9 ], [ %46, %44 ]
  %19 = getelementptr inbounds nuw i8, ptr %17, i64 32
  %20 = load i32, ptr %19, align 8, !tbaa !208
  %21 = icmp slt i32 %20, %10
  br i1 %21, label %43, label %22

22:                                               ; preds = %16
  %23 = icmp slt i32 %10, %20
  br i1 %23, label %44, label %24

24:                                               ; preds = %22
  %25 = getelementptr inbounds nuw i8, ptr %17, i64 48
  %26 = load i64, ptr %25, align 8, !tbaa !29
  %27 = icmp ult i64 %26, 9223372036854775807
  tail call void @llvm.assume(i1 %27)
  tail call void @llvm.assume(i1 %13)
  %28 = tail call i64 @llvm.umin.i64(i64 %12, i64 %26)
  %29 = icmp eq i64 %28, 0
  br i1 %29, label %35, label %30

30:                                               ; preds = %24
  %31 = getelementptr inbounds nuw i8, ptr %17, i64 40
  %32 = load ptr, ptr %31, align 8, !tbaa !26
  %33 = tail call i32 @memcmp(ptr noundef %32, ptr noundef %15, i64 noundef %28) #36
  %34 = icmp eq i32 %33, 0
  br i1 %34, label %35, label %40

35:                                               ; preds = %30, %24
  %36 = sub nsw i64 %26, %12
  %37 = tail call i64 @llvm.smax.i64(i64 %36, i64 -2147483648)
  %38 = tail call i64 @llvm.smin.i64(i64 %37, i64 2147483647)
  %39 = trunc nsw i64 %38 to i32
  br label %40

40:                                               ; preds = %35, %30
  %41 = phi i32 [ %33, %30 ], [ %39, %35 ]
  %42 = icmp slt i32 %41, 0
  br i1 %42, label %43, label %44

43:                                               ; preds = %40, %16
  br label %44

44:                                               ; preds = %43, %40, %22
  %45 = phi i64 [ 24, %43 ], [ 16, %22 ], [ 16, %40 ]
  %46 = phi ptr [ %18, %43 ], [ %17, %22 ], [ %17, %40 ]
  %47 = getelementptr inbounds nuw i8, ptr %17, i64 %45
  %48 = load ptr, ptr %47, align 8, !tbaa !225
  %49 = icmp eq ptr %48, null
  br i1 %49, label %50, label %16, !llvm.loop !226

50:                                               ; preds = %44
  %51 = icmp eq ptr %46, %7
  br i1 %51, label %77, label %52

52:                                               ; preds = %50
  %53 = getelementptr inbounds nuw i8, ptr %46, i64 32
  %54 = load i32, ptr %53, align 8, !tbaa !208
  %55 = icmp slt i32 %10, %54
  br i1 %55, label %77, label %56

56:                                               ; preds = %52
  %57 = icmp slt i32 %54, %10
  br i1 %57, label %80, label %58

58:                                               ; preds = %56
  tail call void @llvm.assume(i1 %13)
  %59 = getelementptr inbounds nuw i8, ptr %46, i64 48
  %60 = load i64, ptr %59, align 8, !tbaa !29
  %61 = icmp ult i64 %60, 9223372036854775807
  tail call void @llvm.assume(i1 %61)
  %62 = tail call i64 @llvm.umin.i64(i64 %60, i64 %12)
  %63 = icmp eq i64 %62, 0
  br i1 %63, label %69, label %64

64:                                               ; preds = %58
  %65 = getelementptr inbounds nuw i8, ptr %46, i64 40
  %66 = load ptr, ptr %65, align 8, !tbaa !26
  %67 = tail call i32 @memcmp(ptr noundef %15, ptr noundef %66, i64 noundef %62) #36
  %68 = icmp eq i32 %67, 0
  br i1 %68, label %69, label %74

69:                                               ; preds = %64, %58
  %70 = sub nsw i64 %12, %60
  %71 = tail call i64 @llvm.smax.i64(i64 %70, i64 -2147483648)
  %72 = tail call i64 @llvm.smin.i64(i64 %71, i64 2147483647)
  %73 = trunc nsw i64 %72 to i32
  br label %74

74:                                               ; preds = %64, %69
  %75 = phi i32 [ %67, %64 ], [ %73, %69 ]
  %76 = icmp slt i32 %75, 0
  br i1 %76, label %77, label %80

77:                                               ; preds = %52, %2, %50, %74
  %78 = phi ptr [ %46, %74 ], [ %46, %50 ], [ %7, %2 ], [ %46, %52 ]
  call void @llvm.lifetime.start.p0(i64 8, ptr nonnull %3) #36
  store ptr %1, ptr %3, align 8, !tbaa !227, !alias.scope !229
  call void @llvm.lifetime.start.p0(i64 1, ptr nonnull %4) #36
  %79 = call ptr @_ZNSt8_Rb_treeISt4pairIiNSt7__cxx1112basic_stringIcSt11char_traitsIcESaIcEEEES0_IKS7_S6_ESt10_Select1stIS9_ESt4lessIS7_ESaIS9_EE22_M_emplace_hint_uniqueIJRKSt21piecewise_construct_tSt5tupleIJOS7_EESK_IJEEEEESt17_Rb_tree_iteratorIS9_ESt23_Rb_tree_const_iteratorIS9_EDpOT_(ptr noundef nonnull align 8 dereferenceable(48) %0, ptr %78, ptr noundef nonnull align 1 dereferenceable(1) @_ZSt19piecewise_construct, ptr noundef nonnull align 8 dereferenceable(8) %3, ptr noundef nonnull align 1 dereferenceable(1) %4)
  call void @llvm.lifetime.end.p0(i64 1, ptr nonnull %4) #36
  call void @llvm.lifetime.end.p0(i64 8, ptr nonnull %3) #36
  br label %80

80:                                               ; preds = %56, %77, %74
  %81 = phi ptr [ %79, %77 ], [ %46, %74 ], [ %46, %56 ]
  %82 = getelementptr inbounds nuw i8, ptr %81, i64 72
  ret ptr %82
}

; Function Attrs: inlinehint mustprogress nounwind sspstrong uwtable
define linkonce_odr noundef zeroext i1 @_ZSteqIcSt11char_traitsIcESaIcEEbRKNSt7__cxx1112basic_stringIT_T0_T1_EEPKS5_(ptr noundef nonnull align 8 dereferenceable(32) %0, ptr noundef %1) local_unnamed_addr #21 comdat {
  %3 = getelementptr inbounds nuw i8, ptr %0, i64 8
  %4 = load i64, ptr %3, align 8, !tbaa !29
  %5 = icmp ult i64 %4, 9223372036854775807
  tail call void @llvm.assume(i1 %5)
  %6 = tail call noundef i64 @strlen(ptr noundef nonnull dereferenceable(1) %1) #36
  %7 = icmp eq i64 %4, %6
  br i1 %7, label %8, label %14

8:                                                ; preds = %2
  %9 = icmp eq i64 %4, 0
  br i1 %9, label %14, label %10

10:                                               ; preds = %8
  %11 = load ptr, ptr %0, align 8, !tbaa !26
  %12 = tail call i32 @bcmp(ptr %11, ptr nonnull %1, i64 %4)
  %13 = icmp eq i32 %12, 0
  br label %14

14:                                               ; preds = %10, %8, %2
  %15 = phi i1 [ false, %2 ], [ %13, %10 ], [ true, %8 ]
  ret i1 %15
}

declare noundef double @_ZN5osgeo4proj8internal13c_locale_stodERKNSt7__cxx1112basic_stringIcSt11char_traitsIcESaIcEEE(ptr noundef nonnull align 8 dereferenceable(32)) local_unnamed_addr #12

; Function Attrs: mustprogress sspstrong uwtable
declare noundef nonnull align 8 dereferenceable(32) ptr @_ZNSt7__cxx1112basic_stringIcSt11char_traitsIcESaIcEEpLERKS4_(ptr noundef nonnull align 8 dereferenceable(32), ptr noundef nonnull align 8 dereferenceable(32)) local_unnamed_addr #2 align 2

; Function Attrs: mustprogress nounwind sspstrong uwtable
define linkonce_odr void @_ZNSt3mapISt4pairIiNSt7__cxx1112basic_stringIcSt11char_traitsIcESaIcEEEES6_St4lessIS7_ESaIS0_IKS7_S6_EEED2Ev(ptr noundef nonnull align 8 dereferenceable(48) %0) unnamed_addr #4 comdat align 2 personality ptr @__gxx_personality_v0 {
  %2 = getelementptr inbounds nuw i8, ptr %0, i64 16
  %3 = load ptr, ptr %2, align 8, !tbaa !224
  invoke void @_ZNSt8_Rb_treeISt4pairIiNSt7__cxx1112basic_stringIcSt11char_traitsIcESaIcEEEES0_IKS7_S6_ESt10_Select1stIS9_ESt4lessIS7_ESaIS9_EE8_M_eraseEPSt13_Rb_tree_nodeIS9_E(ptr noundef nonnull align 8 dereferenceable(48) %0, ptr noundef %3)
          to label %7 unwind label %4

4:                                                ; preds = %1
  %5 = landingpad { ptr, i32 }
          catch ptr null
  %6 = extractvalue { ptr, i32 } %5, 0
  tail call void @__clang_call_terminate(ptr %6) #35
  unreachable

7:                                                ; preds = %1
  ret void
}

; Function Attrs: mustprogress nounwind sspstrong uwtable
define hidden void @_ZN5osgeo4proj9GTiffGridD2Ev(ptr noundef nonnull align 8 dereferenceable(340) initializes((0, 8)) %0) unnamed_addr #4 align 2 personality ptr @__gxx_personality_v0 {
  store ptr getelementptr inbounds nuw inrange(-16, 40) (i8, ptr @_ZTVN5osgeo4proj9GTiffGridE, i64 16), ptr %0, align 8, !tbaa !20
  %2 = getelementptr inbounds nuw i8, ptr %0, i64 280
  %3 = getelementptr inbounds nuw i8, ptr %0, i64 296
  %4 = load ptr, ptr %3, align 8, !tbaa !224
  invoke void @_ZNSt8_Rb_treeISt4pairIiNSt7__cxx1112basic_stringIcSt11char_traitsIcESaIcEEEES0_IKS7_S6_ESt10_Select1stIS9_ESt4lessIS7_ESaIS9_EE8_M_eraseEPSt13_Rb_tree_nodeIS9_E(ptr noundef nonnull align 8 dereferenceable(48) %2, ptr noundef %4)
          to label %8 unwind label %5

5:                                                ; preds = %1
  %6 = landingpad { ptr, i32 }
          catch ptr null
  %7 = extractvalue { ptr, i32 } %6, 0
  tail call void @__clang_call_terminate(ptr %7) #35
  unreachable

8:                                                ; preds = %1
  %9 = getelementptr inbounds nuw i8, ptr %0, i64 256
  %10 = load ptr, ptr %9, align 8, !tbaa !215
  %11 = icmp eq ptr %10, null
  br i1 %11, label %18, label %12

12:                                               ; preds = %8
  %13 = getelementptr inbounds nuw i8, ptr %0, i64 272
  %14 = load ptr, ptr %13, align 8, !tbaa !223
  %15 = ptrtoint ptr %14 to i64
  %16 = ptrtoint ptr %10 to i64
  %17 = sub i64 %15, %16
  tail call void @_ZdlPvm(ptr noundef nonnull %10, i64 noundef %17) #34
  br label %18

18:                                               ; preds = %8, %12
  %19 = getelementptr inbounds nuw i8, ptr %0, i64 232
  %20 = load ptr, ptr %19, align 8, !tbaa !215
  %21 = icmp eq ptr %20, null
  br i1 %21, label %28, label %22

22:                                               ; preds = %18
  %23 = getelementptr inbounds nuw i8, ptr %0, i64 248
  %24 = load ptr, ptr %23, align 8, !tbaa !223
  %25 = ptrtoint ptr %24 to i64
  %26 = ptrtoint ptr %20 to i64
  %27 = sub i64 %25, %26
  tail call void @_ZdlPvm(ptr noundef nonnull %20, i64 noundef %27) #34
  br label %28

28:                                               ; preds = %18, %22
  %29 = getelementptr inbounds nuw i8, ptr %0, i64 192
  %30 = load ptr, ptr %29, align 8, !tbaa !149
  %31 = icmp eq ptr %30, null
  br i1 %31, label %38, label %32

32:                                               ; preds = %28
  %33 = getelementptr inbounds nuw i8, ptr %0, i64 208
  %34 = load ptr, ptr %33, align 8, !tbaa !150
  %35 = ptrtoint ptr %34 to i64
  %36 = ptrtoint ptr %30 to i64
  %37 = sub i64 %35, %36
  tail call void @_ZdlPvm(ptr noundef nonnull %30, i64 noundef %37) #34
  br label %38

38:                                               ; preds = %28, %32
  store ptr getelementptr inbounds nuw inrange(-16, 40) (i8, ptr @_ZTVN5osgeo4proj4GridE, i64 16), ptr %0, align 8, !tbaa !20
  %39 = getelementptr inbounds nuw i8, ptr %0, i64 8
  %40 = load ptr, ptr %39, align 8, !tbaa !26
  %41 = getelementptr inbounds nuw i8, ptr %0, i64 24
  %42 = icmp eq ptr %40, %41
  br i1 %42, label %43, label %47

43:                                               ; preds = %38
  %44 = getelementptr inbounds nuw i8, ptr %0, i64 16
  %45 = load i64, ptr %44, align 8, !tbaa !29
  %46 = icmp ult i64 %45, 16
  tail call void @llvm.assume(i1 %46)
  br label %50

47:                                               ; preds = %38
  %48 = load i64, ptr %41, align 8, !tbaa !31
  %49 = add i64 %48, 1
  tail call void @_ZdlPvm(ptr noundef %40, i64 noundef %49) #34
  br label %50

50:                                               ; preds = %43, %47
  ret void
}

; Function Attrs: mustprogress nounwind sspstrong uwtable
define hidden void @_ZN5osgeo4proj9GTiffGridD0Ev(ptr noundef nonnull align 8 dereferenceable(340) initializes((0, 8)) %0) unnamed_addr #4 align 2 {
  tail call void @_ZN5osgeo4proj9GTiffGridD2Ev(ptr noundef nonnull align 8 dereferenceable(340) %0) #36
  tail call void @_ZdlPvm(ptr noundef nonnull %0, i64 noundef 344) #34
  ret void
}

; Function Attrs: mustprogress sspstrong uwtable
define hidden noundef zeroext i1 @_ZNK5osgeo4proj9GTiffGrid7valueAtEtiiRf(ptr noundef nonnull align 8 dereferenceable(340) %0, i16 noundef zeroext %1, i32 noundef %2, i32 noundef %3, ptr noundef nonnull writeonly align 4 captures(none) dereferenceable(4) %4) local_unnamed_addr #2 align 2 personality ptr @__gxx_personality_v0 {
  %6 = alloca i64, align 8
  %7 = getelementptr inbounds nuw i8, ptr %0, i64 164
  %8 = load i8, ptr %7, align 4, !tbaa !189, !range !14, !noundef !15
  %9 = trunc nuw i8 %8 to i1
  %10 = getelementptr inbounds nuw i8, ptr %0, i64 44
  %11 = load i32, ptr %10, align 4
  %12 = xor i32 %3, -1
  %13 = add i32 %11, %12
  %14 = select i1 %9, i32 %3, i32 %13
  %15 = getelementptr inbounds nuw i8, ptr %0, i64 329
  %16 = load i8, ptr %15, align 1, !tbaa !199, !range !14, !noundef !15
  %17 = trunc nuw i8 %16 to i1
  br i1 %17, label %18, label %27

18:                                               ; preds = %5
  %19 = sdiv i32 %2, 256
  %20 = srem i32 %2, 256
  %21 = sdiv i32 %14, 256
  %22 = srem i32 %14, 256
  %23 = getelementptr inbounds nuw i8, ptr %0, i64 220
  %24 = load i32, ptr %23, align 4, !tbaa !201
  %25 = mul i32 %24, %21
  %26 = add i32 %25, %19
  br label %44

27:                                               ; preds = %5
  %28 = getelementptr inbounds nuw i8, ptr %0, i64 330
  %29 = load i8, ptr %28, align 2, !tbaa !200, !range !14, !noundef !15
  %30 = trunc nuw i8 %29 to i1
  br i1 %30, label %44, label %31

31:                                               ; preds = %27
  %32 = getelementptr inbounds nuw i8, ptr %0, i64 180
  %33 = load i32, ptr %32, align 4, !tbaa !192
  %34 = udiv i32 %2, %33
  %35 = urem i32 %2, %33
  %36 = getelementptr inbounds nuw i8, ptr %0, i64 184
  %37 = load i32, ptr %36, align 8, !tbaa !193
  %38 = udiv i32 %14, %37
  %39 = urem i32 %14, %37
  %40 = getelementptr inbounds nuw i8, ptr %0, i64 220
  %41 = load i32, ptr %40, align 4, !tbaa !201
  %42 = mul i32 %41, %38
  %43 = add i32 %42, %34
  br label %44

44:                                               ; preds = %27, %31, %18
  %45 = phi i32 [ %26, %18 ], [ %43, %31 ], [ 0, %27 ]
  %46 = phi i32 [ %22, %18 ], [ %39, %31 ], [ %14, %27 ]
  %47 = phi i32 [ %20, %18 ], [ %35, %31 ], [ %2, %27 ]
  %48 = getelementptr inbounds nuw i8, ptr %0, i64 162
  %49 = load i16, ptr %48, align 2, !tbaa !188
  %50 = icmp eq i16 %49, 2
  %51 = zext i16 %1 to i32
  %52 = getelementptr inbounds nuw i8, ptr %0, i64 228
  %53 = load i32, ptr %52, align 4
  %54 = mul i32 %53, %51
  %55 = select i1 %50, i32 %54, i32 0
  %56 = add i32 %55, %45
  %57 = getelementptr inbounds nuw i8, ptr %0, i64 216
  %58 = load i32, ptr %57, align 8, !tbaa !194
  %59 = icmp eq i32 %56, %58
  br i1 %59, label %60, label %62

60:                                               ; preds = %44
  %61 = getelementptr inbounds nuw i8, ptr %0, i64 192
  br label %211

62:                                               ; preds = %44
  %63 = getelementptr inbounds nuw i8, ptr %0, i64 136
  %64 = load ptr, ptr %63, align 8, !tbaa !232, !nonnull !15, !align !233
  %65 = getelementptr inbounds nuw i8, ptr %0, i64 152
  %66 = load i32, ptr %65, align 8, !tbaa !185
  %67 = zext i32 %66 to i64
  %68 = shl nuw i64 %67, 32
  %69 = zext i32 %56 to i64
  %70 = or disjoint i64 %68, %69
  %71 = getelementptr inbounds nuw i8, ptr %64, i64 40
  %72 = load i64, ptr %71, align 8, !tbaa !131, !noalias !234
  %73 = icmp eq i64 %72, 0
  br i1 %73, label %83, label %74

74:                                               ; preds = %62
  %75 = getelementptr inbounds nuw i8, ptr %64, i64 16
  %76 = getelementptr inbounds nuw i8, ptr %64, i64 24
  %77 = load i64, ptr %76, align 8, !tbaa !136, !noalias !234
  %78 = urem i64 %70, %77
  %79 = load ptr, ptr %75, align 8, !tbaa !137, !noalias !234
  %80 = getelementptr inbounds nuw ptr, ptr %79, i64 %78
  %81 = load ptr, ptr %80, align 8, !tbaa !53, !noalias !234
  %82 = icmp eq ptr %81, null
  br i1 %82, label %125, label %93

83:                                               ; preds = %62
  %84 = getelementptr inbounds nuw i8, ptr %64, i64 32
  br label %85

85:                                               ; preds = %89, %83
  %86 = phi ptr [ %84, %83 ], [ %87, %89 ]
  %87 = load ptr, ptr %86, align 8, !tbaa !54, !noalias !234
  %88 = icmp eq ptr %87, null
  br i1 %88, label %125, label %89

89:                                               ; preds = %85
  %90 = getelementptr inbounds nuw i8, ptr %87, i64 8
  %91 = load i64, ptr %90, align 8, !tbaa !30, !noalias !234
  %92 = icmp eq i64 %70, %91
  br i1 %92, label %110, label %85, !llvm.loop !138

93:                                               ; preds = %74
  %94 = load ptr, ptr %81, align 8, !tbaa !54, !noalias !234
  %95 = getelementptr inbounds nuw i8, ptr %94, i64 8
  %96 = load i64, ptr %95, align 8, !tbaa !30, !noalias !234
  %97 = icmp eq i64 %70, %96
  br i1 %97, label %110, label %100

98:                                               ; preds = %104
  %99 = icmp eq i64 %70, %106
  br i1 %99, label %110, label %100, !llvm.loop !139

100:                                              ; preds = %93, %98
  %101 = phi ptr [ %102, %98 ], [ %94, %93 ]
  %102 = load ptr, ptr %101, align 8, !tbaa !54, !noalias !234
  %103 = icmp eq ptr %102, null
  br i1 %103, label %125, label %104, !prof !58

104:                                              ; preds = %100
  %105 = getelementptr inbounds nuw i8, ptr %102, i64 8
  %106 = load i64, ptr %105, align 8, !tbaa !30, !noalias !234
  %107 = urem i64 %106, %77
  %108 = icmp eq i64 %107, %78
  br i1 %108, label %98, label %109, !prof !59, !llvm.loop !139

109:                                              ; preds = %104
  br label %125, !llvm.loop !139

110:                                              ; preds = %98, %89, %93
  %111 = phi ptr [ %94, %93 ], [ %87, %89 ], [ %102, %98 ]
  %112 = getelementptr inbounds nuw i8, ptr %64, i64 72
  %113 = load ptr, ptr %112, align 8, !tbaa !63
  %114 = getelementptr inbounds nuw i8, ptr %111, i64 16
  %115 = load ptr, ptr %114, align 8, !tbaa !140
  %116 = load ptr, ptr %115, align 8, !tbaa !63
  %117 = icmp eq ptr %113, %115
  %118 = icmp eq ptr %113, %116
  %119 = select i1 %117, i1 true, i1 %118
  br i1 %119, label %122, label %120

120:                                              ; preds = %110
  tail call void @_ZNSt8__detail15_List_node_base11_M_transferEPS0_S1_(ptr noundef nonnull align 8 dereferenceable(16) %113, ptr noundef nonnull %115, ptr noundef %116) #36
  %121 = load ptr, ptr %114, align 8, !tbaa !140
  br label %122

122:                                              ; preds = %120, %110
  %123 = phi ptr [ %115, %110 ], [ %121, %120 ]
  %124 = getelementptr inbounds nuw i8, ptr %123, i64 24
  br label %211

125:                                              ; preds = %100, %85, %74, %109
  %126 = getelementptr inbounds nuw i8, ptr %0, i64 128
  %127 = load ptr, ptr %126, align 8, !tbaa !182
  %128 = tail call i64 @TIFFCurrentDirOffset(ptr noundef %127)
  %129 = getelementptr inbounds nuw i8, ptr %0, i64 168
  %130 = load i64, ptr %129, align 8, !tbaa !190
  %131 = icmp eq i64 %128, %130
