; ModuleID = '/home/mitch/Documents/PROJ/src/iso19111/util.cpp'
source_filename = "/home/mitch/Documents/PROJ/src/iso19111/util.cpp"
target datalayout = "e-m:e-p270:32:32-p271:32:32-p272:64:64-i64:64-i128:128-f80:128-n8:16:32:64-S128"
target triple = "x86_64-pc-linux-gnu"

%"class.dropbox::oxygen::nn.66" = type { %"class.std::shared_ptr.67" }
%"class.std::shared_ptr.67" = type { %"class.std::__shared_ptr.68" }
%"class.std::__shared_ptr.68" = type { ptr, %"class.std::__shared_count" }
%"class.std::__shared_count" = type { ptr }
%"struct.osgeo::proj::util::BaseObjectNNPtr" = type { %"class.dropbox::oxygen::nn" }
%"class.dropbox::oxygen::nn" = type { %"class.std::shared_ptr" }
%"class.std::shared_ptr" = type { %"class.std::__shared_ptr" }
%"class.std::__shared_ptr" = type { ptr, %"class.std::__shared_count" }
%"class.std::__cxx11::basic_string" = type { %"struct.std::__cxx11::basic_string<char>::_Alloc_hider", i64, %union.anon }
%"struct.std::__cxx11::basic_string<char>::_Alloc_hider" = type { ptr }
%union.anon = type { i64, [8 x i8] }
%"class.dropbox::oxygen::nn.22" = type { %"class.std::shared_ptr.23" }
%"class.std::shared_ptr.23" = type { %"class.std::__shared_ptr.24" }
%"class.std::__shared_ptr.24" = type { ptr, %"class.std::__shared_count" }
%"class.dropbox::oxygen::nn.37" = type { %"class.std::shared_ptr.38" }
%"class.std::shared_ptr.38" = type { %"class.std::__shared_ptr.39" }
%"class.std::__shared_ptr.39" = type { ptr, %"class.std::__shared_count" }
%"class.std::shared_ptr.70" = type { %"class.std::__shared_ptr.71" }
%"class.std::__shared_ptr.71" = type { ptr, %"class.std::__shared_count" }
%"class.std::shared_ptr.63" = type { %"class.std::__shared_ptr.64" }
%"class.std::__shared_ptr.64" = type { ptr, %"class.std::__shared_count" }
%"class.dropbox::oxygen::nn.81" = type { %"class.std::shared_ptr.63" }
%"class.dropbox::oxygen::nn.82" = type { %"class.std::shared_ptr.70" }

$_ZNSt12__shared_ptrIN5osgeo4proj4util10BaseObjectELN9__gnu_cxx12_Lock_policyE2EED2Ev = comdat any

$_ZN5osgeo4proj4util17ArrayOfBaseObject14nn_make_sharedIS2_JEEEN7dropbox6oxygen2nnISt10shared_ptrIT_EEEDpOT0_ = comdat any

$_ZN5osgeo4proj4util11PropertyMap7Private3setERKNSt7__cxx1112basic_stringIcSt11char_traitsIcESaIcEEERKN7dropbox6oxygen2nnISt10shared_ptrINS1_10BoxedValueEEEE = comdat any

$_ZN7dropbox6oxygen2nnISt10shared_ptrIN5osgeo4proj4util10BoxedValueEEED2Ev = comdat any

$_ZN7dropbox6oxygen2nnISt10shared_ptrIN5osgeo4proj4util17ArrayOfBaseObjectEEED2Ev = comdat any

$_ZStplIcSt11char_traitsIcESaIcEENSt7__cxx1112basic_stringIT_T0_T1_EEPKS5_RKS8_ = comdat any

$_ZN5osgeo4proj4util9NameSpace14nn_make_sharedIS2_JRKS2_EEEN7dropbox6oxygen2nnISt10shared_ptrIT_EEEDpOT0_ = comdat any

$_ZN5osgeo4proj4util9LocalName11make_sharedIS2_JRA7_KcEEESt10shared_ptrIT_EDpOT0_ = comdat any

$_ZNSt12__shared_ptrIN5osgeo4proj4util9LocalNameELN9__gnu_cxx12_Lock_policyE2EED2Ev = comdat any

$_ZN7dropbox6oxygen2nnISt10shared_ptrIN5osgeo4proj4util9NameSpaceEEED2Ev = comdat any

$_ZN5osgeo4proj4util9NameSpace14nn_make_sharedIS2_JSt10shared_ptrINS1_9LocalNameEEEEEN7dropbox6oxygen2nnIS4_IT_EEEDpOT0_ = comdat any

$_ZNSt10unique_ptrIN5osgeo4proj4util9LocalName7PrivateESt14default_deleteIS4_EED2Ev = comdat any

$_ZNSt12__shared_ptrIN5osgeo4proj4util9NameSpaceELN9__gnu_cxx12_Lock_policyE2EED2Ev = comdat any

$_ZN5osgeo4proj4util9LocalName14nn_make_sharedIS2_JRKS2_EEEN7dropbox6oxygen2nnISt10shared_ptrIT_EEEDpOT0_ = comdat any

$_ZN5osgeo4proj4util9LocalName14nn_make_sharedIS2_JN7dropbox6oxygen2nnISt10shared_ptrINS1_9NameSpaceEEEENSt7__cxx1112basic_stringIcSt11char_traitsIcESaIcEEEEEENS6_IS7_IT_EEEDpOT0_ = comdat any

$_ZN7dropbox6oxygen2nnISt10shared_ptrIN5osgeo4proj4util11GenericNameEEED2Ev = comdat any

$_ZN5osgeo4proj4util9NameSpace14nn_make_sharedIS2_JRKN7dropbox6oxygen2nnISt10shared_ptrINS1_11GenericNameEEEEEEENS6_IS7_IT_EEEDpOT0_ = comdat any

$_ZN5osgeo4proj4util9LocalName14nn_make_sharedIS2_JRKSt10shared_ptrINS1_9NameSpaceEERKNSt7__cxx1112basic_stringIcSt11char_traitsIcESaIcEEEEEEN7dropbox6oxygen2nnIS4_IT_EEEDpOT0_ = comdat any

$_ZN5osgeo4proj4util9LocalName14nn_make_sharedIS2_JRKSt10shared_ptrINS1_9NameSpaceEERNSt7__cxx1112basic_stringIcSt11char_traitsIcESaIcEEEEEEN7dropbox6oxygen2nnIS4_IT_EEEDpOT0_ = comdat any

$__clang_call_terminate = comdat any

$_ZNSt16_Sp_counted_baseILN9__gnu_cxx12_Lock_policyE2EE24_M_release_last_use_coldEv = comdat any

$_ZNSt7__cxx114listISt4pairINS_12basic_stringIcSt11char_traitsIcESaIcEEEN5osgeo4proj4util15BaseObjectNNPtrEESaISB_EE14_M_create_nodeIJRKS6_RKN7dropbox6oxygen2nnISt10shared_ptrINS9_10BoxedValueEEEEEEEPSt10_List_nodeISB_EDpOT_ = comdat any

$_ZNSt6vectorIN5osgeo4proj4util15BaseObjectNNPtrESaIS3_EE17_M_realloc_appendIJRKS3_EEEvDpOT_ = comdat any

$_ZNSt15_Sp_counted_ptrIPN5osgeo4proj4util17ArrayOfBaseObjectELN9__gnu_cxx12_Lock_policyE2EED0Ev = comdat any

$_ZNSt15_Sp_counted_ptrIPN5osgeo4proj4util17ArrayOfBaseObjectELN9__gnu_cxx12_Lock_policyE2EE10_M_disposeEv = comdat any

$_ZNSt15_Sp_counted_ptrIPN5osgeo4proj4util17ArrayOfBaseObjectELN9__gnu_cxx12_Lock_policyE2EE10_M_destroyEv = comdat any

$_ZNSt15_Sp_counted_ptrIPN5osgeo4proj4util17ArrayOfBaseObjectELN9__gnu_cxx12_Lock_policyE2EE14_M_get_deleterERKSt9type_info = comdat any

$_ZNSt7__cxx1110_List_baseISt4pairINS_12basic_stringIcSt11char_traitsIcESaIcEEEN5osgeo4proj4util15BaseObjectNNPtrEESaISB_EED2Ev = comdat any

$_ZNSt7__cxx114listISt4pairINS_12basic_stringIcSt11char_traitsIcESaIcEEEN5osgeo4proj4util15BaseObjectNNPtrEESaISB_EE14_M_create_nodeIJRKSB_EEEPSt10_List_nodeISB_EDpOT_ = comdat any

$_ZNSt7__cxx114listISt4pairINS_12basic_stringIcSt11char_traitsIcESaIcEEEN5osgeo4proj4util15BaseObjectNNPtrEESaISB_EE14_M_create_nodeIJRKS6_RKSA_EEEPSt10_List_nodeISB_EDpOT_ = comdat any

$_ZNSt23_Sp_counted_ptr_inplaceIN5osgeo4proj4util10BoxedValueESaIvELN9__gnu_cxx12_Lock_policyE2EED0Ev = comdat any

$_ZNSt23_Sp_counted_ptr_inplaceIN5osgeo4proj4util10BoxedValueESaIvELN9__gnu_cxx12_Lock_policyE2EE10_M_disposeEv = comdat any

$_ZNSt23_Sp_counted_ptr_inplaceIN5osgeo4proj4util10BoxedValueESaIvELN9__gnu_cxx12_Lock_policyE2EE10_M_destroyEv = comdat any

$_ZNSt23_Sp_counted_ptr_inplaceIN5osgeo4proj4util10BoxedValueESaIvELN9__gnu_cxx12_Lock_policyE2EE14_M_get_deleterERKSt9type_info = comdat any

$_ZNKSt14default_deleteIN5osgeo4proj4util9NameSpace7PrivateEEclEPS4_ = comdat any

$_ZN5osgeo4proj4util9NameSpace7PrivateC2ERKS3_ = comdat any

$_ZNSt15_Sp_counted_ptrIPN5osgeo4proj4util9NameSpaceELN9__gnu_cxx12_Lock_policyE2EED0Ev = comdat any

$_ZNSt15_Sp_counted_ptrIPN5osgeo4proj4util9NameSpaceELN9__gnu_cxx12_Lock_policyE2EE10_M_disposeEv = comdat any

$_ZNSt15_Sp_counted_ptrIPN5osgeo4proj4util9NameSpaceELN9__gnu_cxx12_Lock_policyE2EE10_M_destroyEv = comdat any

$_ZNSt15_Sp_counted_ptrIPN5osgeo4proj4util9NameSpaceELN9__gnu_cxx12_Lock_policyE2EE14_M_get_deleterERKSt9type_info = comdat any

$_ZNSt16_Sp_counted_baseILN9__gnu_cxx12_Lock_policyE2EED2Ev = comdat any

$_ZNSt15_Sp_counted_ptrIPN5osgeo4proj4util9LocalNameELN9__gnu_cxx12_Lock_policyE2EED0Ev = comdat any

$_ZNSt15_Sp_counted_ptrIPN5osgeo4proj4util9LocalNameELN9__gnu_cxx12_Lock_policyE2EE10_M_disposeEv = comdat any

$_ZNSt15_Sp_counted_ptrIPN5osgeo4proj4util9LocalNameELN9__gnu_cxx12_Lock_policyE2EE10_M_destroyEv = comdat any

$_ZNSt15_Sp_counted_ptrIPN5osgeo4proj4util9LocalNameELN9__gnu_cxx12_Lock_policyE2EE14_M_get_deleterERKSt9type_info = comdat any

$_ZNSt12__shared_ptrIN5osgeo4proj4util11GenericNameELN9__gnu_cxx12_Lock_policyE2EED2Ev = comdat any

$_ZTVSt15_Sp_counted_ptrIPN5osgeo4proj4util17ArrayOfBaseObjectELN9__gnu_cxx12_Lock_policyE2EE = comdat any

$_ZTISt15_Sp_counted_ptrIPN5osgeo4proj4util17ArrayOfBaseObjectELN9__gnu_cxx12_Lock_policyE2EE = comdat any

$_ZTSSt15_Sp_counted_ptrIPN5osgeo4proj4util17ArrayOfBaseObjectELN9__gnu_cxx12_Lock_policyE2EE = comdat any

$_ZTISt16_Sp_counted_baseILN9__gnu_cxx12_Lock_policyE2EE = comdat any

$_ZTSSt16_Sp_counted_baseILN9__gnu_cxx12_Lock_policyE2EE = comdat any

$_ZTISt11_Mutex_baseILN9__gnu_cxx12_Lock_policyE2EE = comdat any

$_ZTSSt11_Mutex_baseILN9__gnu_cxx12_Lock_policyE2EE = comdat any

$_ZTVSt23_Sp_counted_ptr_inplaceIN5osgeo4proj4util10BoxedValueESaIvELN9__gnu_cxx12_Lock_policyE2EE = comdat any

$_ZTISt23_Sp_counted_ptr_inplaceIN5osgeo4proj4util10BoxedValueESaIvELN9__gnu_cxx12_Lock_policyE2EE = comdat any

$_ZTSSt23_Sp_counted_ptr_inplaceIN5osgeo4proj4util10BoxedValueESaIvELN9__gnu_cxx12_Lock_policyE2EE = comdat any

$_ZTSSt19_Sp_make_shared_tag = comdat any

$_ZZNSt19_Sp_make_shared_tag5_S_tiEvE5__tag = comdat any

$_ZTVSt15_Sp_counted_ptrIPN5osgeo4proj4util9NameSpaceELN9__gnu_cxx12_Lock_policyE2EE = comdat any

$_ZTISt15_Sp_counted_ptrIPN5osgeo4proj4util9NameSpaceELN9__gnu_cxx12_Lock_policyE2EE = comdat any

$_ZTSSt15_Sp_counted_ptrIPN5osgeo4proj4util9NameSpaceELN9__gnu_cxx12_Lock_policyE2EE = comdat any

$_ZTVSt15_Sp_counted_ptrIPN5osgeo4proj4util9LocalNameELN9__gnu_cxx12_Lock_policyE2EE = comdat any

$_ZTISt15_Sp_counted_ptrIPN5osgeo4proj4util9LocalNameELN9__gnu_cxx12_Lock_policyE2EE = comdat any

$_ZTSSt15_Sp_counted_ptrIPN5osgeo4proj4util9LocalNameELN9__gnu_cxx12_Lock_policyE2EE = comdat any

@_ZTVN5osgeo4proj4util10BaseObjectE = unnamed_addr constant { [4 x ptr] } { [4 x ptr] [ptr null, ptr @_ZTIN5osgeo4proj4util10BaseObjectE, ptr @_ZN5osgeo4proj4util10BaseObjectD1Ev, ptr @_ZN5osgeo4proj4util10BaseObjectD0Ev] }, align 8
@_ZTVN5osgeo4proj4util10BoxedValueE = hidden unnamed_addr constant { [4 x ptr] } { [4 x ptr] [ptr null, ptr @_ZTIN5osgeo4proj4util10BoxedValueE, ptr @_ZN5osgeo4proj4util10BoxedValueD1Ev, ptr @_ZN5osgeo4proj4util10BoxedValueD0Ev] }, align 8
@.str = private unnamed_addr constant [1 x i8] zeroinitializer, align 1
@_ZTVN5osgeo4proj4util17ArrayOfBaseObjectE = hidden unnamed_addr constant { [4 x ptr] } { [4 x ptr] [ptr null, ptr @_ZTIN5osgeo4proj4util17ArrayOfBaseObjectE, ptr @_ZN5osgeo4proj4util17ArrayOfBaseObjectD1Ev, ptr @_ZN5osgeo4proj4util17ArrayOfBaseObjectD0Ev] }, align 8
@.str.1 = private unnamed_addr constant [24 x i8] c"Invalid value type for \00", align 1
@_ZTIN5osgeo4proj4util25InvalidValueTypeExceptionE = constant { ptr, ptr, ptr } { ptr getelementptr inbounds (ptr, ptr @_ZTVN10__cxxabiv120__si_class_type_infoE, i64 2), ptr @_ZTSN5osgeo4proj4util25InvalidValueTypeExceptionE, ptr @_ZTIN5osgeo4proj4util9ExceptionE }, align 8
@_ZTVN10__cxxabiv120__si_class_type_infoE = external global [0 x ptr]
@_ZTSN5osgeo4proj4util25InvalidValueTypeExceptionE = constant [46 x i8] c"N5osgeo4proj4util25InvalidValueTypeExceptionE\00", align 1
@_ZTIN5osgeo4proj4util9ExceptionE = constant { ptr, ptr, ptr } { ptr getelementptr inbounds (ptr, ptr @_ZTVN10__cxxabiv120__si_class_type_infoE, i64 2), ptr @_ZTSN5osgeo4proj4util9ExceptionE, ptr @_ZTISt9exception }, align 8
@_ZTSN5osgeo4proj4util9ExceptionE = constant [29 x i8] c"N5osgeo4proj4util9ExceptionE\00", align 1
@_ZTISt9exception = external constant ptr
@_ZTVN5osgeo4proj4util11GenericNameE = hidden unnamed_addr constant { [7 x ptr] } { [7 x ptr] [ptr null, ptr @_ZTIN5osgeo4proj4util11GenericNameE, ptr @_ZN5osgeo4proj4util11GenericNameD1Ev, ptr @_ZN5osgeo4proj4util11GenericNameD0Ev, ptr @__cxa_pure_virtual, ptr @__cxa_pure_virtual, ptr @__cxa_pure_virtual] }, align 8
@.str.2 = private unnamed_addr constant [7 x i8] c"global\00", align 1
@_ZTVN5osgeo4proj4util9LocalNameE = hidden unnamed_addr constant { [7 x ptr] } { [7 x ptr] [ptr null, ptr @_ZTIN5osgeo4proj4util9LocalNameE, ptr @_ZN5osgeo4proj4util9LocalNameD1Ev, ptr @_ZN5osgeo4proj4util9LocalNameD0Ev, ptr @_ZNK5osgeo4proj4util9LocalName5scopeEv, ptr @_ZNK5osgeo4proj4util9LocalName8toStringB5cxx11Ev, ptr @_ZNK5osgeo4proj4util9LocalName20toFullyQualifiedNameEv] }, align 8
@_ZN5osgeo4proj4util9NameSpace6GLOBALE = external local_unnamed_addr global %"class.dropbox::oxygen::nn.66", align 8
@.str.3 = private unnamed_addr constant [10 x i8] c"separator\00", align 1
@.str.4 = private unnamed_addr constant [15 x i8] c"separator.head\00", align 1
@_ZTVN5osgeo4proj4util9ExceptionE = unnamed_addr constant { [5 x ptr] } { [5 x ptr] [ptr null, ptr @_ZTIN5osgeo4proj4util9ExceptionE, ptr @_ZN5osgeo4proj4util9ExceptionD1Ev, ptr @_ZN5osgeo4proj4util9ExceptionD0Ev, ptr @_ZNK5osgeo4proj4util9Exception4whatEv] }, align 8
@_ZTVN5osgeo4proj4util25InvalidValueTypeExceptionE = unnamed_addr constant { [5 x ptr] } { [5 x ptr] [ptr null, ptr @_ZTIN5osgeo4proj4util25InvalidValueTypeExceptionE, ptr @_ZN5osgeo4proj4util25InvalidValueTypeExceptionD1Ev, ptr @_ZN5osgeo4proj4util25InvalidValueTypeExceptionD0Ev, ptr @_ZNK5osgeo4proj4util9Exception4whatEv] }, align 8
@_ZTVN5osgeo4proj4util29UnsupportedOperationExceptionE = unnamed_addr constant { [5 x ptr] } { [5 x ptr] [ptr null, ptr @_ZTIN5osgeo4proj4util29UnsupportedOperationExceptionE, ptr @_ZN5osgeo4proj4util29UnsupportedOperationExceptionD1Ev, ptr @_ZN5osgeo4proj4util29UnsupportedOperationExceptionD0Ev, ptr @_ZNK5osgeo4proj4util9Exception4whatEv] }, align 8
@_ZTIN5osgeo4proj4util10BaseObjectE = constant { ptr, ptr } { ptr getelementptr inbounds (ptr, ptr @_ZTVN10__cxxabiv117__class_type_infoE, i64 2), ptr @_ZTSN5osgeo4proj4util10BaseObjectE }, align 8
@_ZTVN10__cxxabiv117__class_type_infoE = external global [0 x ptr]
@_ZTSN5osgeo4proj4util10BaseObjectE = constant [31 x i8] c"N5osgeo4proj4util10BaseObjectE\00", align 1
@_ZTIN5osgeo4proj4util10BoxedValueE = hidden constant { ptr, ptr, ptr } { ptr getelementptr inbounds (ptr, ptr @_ZTVN10__cxxabiv120__si_class_type_infoE, i64 2), ptr @_ZTSN5osgeo4proj4util10BoxedValueE, ptr @_ZTIN5osgeo4proj4util10BaseObjectE }, align 8
@_ZTSN5osgeo4proj4util10BoxedValueE = hidden constant [31 x i8] c"N5osgeo4proj4util10BoxedValueE\00", align 1
@_ZTIN5osgeo4proj4util17ArrayOfBaseObjectE = hidden constant { ptr, ptr, ptr } { ptr getelementptr inbounds (ptr, ptr @_ZTVN10__cxxabiv120__si_class_type_infoE, i64 2), ptr @_ZTSN5osgeo4proj4util17ArrayOfBaseObjectE, ptr @_ZTIN5osgeo4proj4util10BaseObjectE }, align 8
@_ZTSN5osgeo4proj4util17ArrayOfBaseObjectE = hidden constant [38 x i8] c"N5osgeo4proj4util17ArrayOfBaseObjectE\00", align 1
@_ZTIN5osgeo4proj4util11GenericNameE = hidden constant { ptr, ptr, ptr } { ptr getelementptr inbounds (ptr, ptr @_ZTVN10__cxxabiv120__si_class_type_infoE, i64 2), ptr @_ZTSN5osgeo4proj4util11GenericNameE, ptr @_ZTIN5osgeo4proj4util10BaseObjectE }, align 8
@_ZTSN5osgeo4proj4util11GenericNameE = hidden constant [32 x i8] c"N5osgeo4proj4util11GenericNameE\00", align 1
@_ZTIN5osgeo4proj4util9LocalNameE = hidden constant { ptr, ptr, ptr } { ptr getelementptr inbounds (ptr, ptr @_ZTVN10__cxxabiv120__si_class_type_infoE, i64 2), ptr @_ZTSN5osgeo4proj4util9LocalNameE, ptr @_ZTIN5osgeo4proj4util11GenericNameE }, align 8
@_ZTSN5osgeo4proj4util9LocalNameE = hidden constant [29 x i8] c"N5osgeo4proj4util9LocalNameE\00", align 1
@_ZTIN5osgeo4proj4util29UnsupportedOperationExceptionE = constant { ptr, ptr, ptr } { ptr getelementptr inbounds (ptr, ptr @_ZTVN10__cxxabiv120__si_class_type_infoE, i64 2), ptr @_ZTSN5osgeo4proj4util29UnsupportedOperationExceptionE, ptr @_ZTIN5osgeo4proj4util9ExceptionE }, align 8
@_ZTSN5osgeo4proj4util29UnsupportedOperationExceptionE = constant [50 x i8] c"N5osgeo4proj4util29UnsupportedOperationExceptionE\00", align 1
@_ZTVN5osgeo4proj4util11IComparableE = unnamed_addr constant { [5 x ptr] } { [5 x ptr] [ptr null, ptr @_ZTIN5osgeo4proj4util11IComparableE, ptr @_ZN5osgeo4proj4util11IComparableD1Ev, ptr @_ZN5osgeo4proj4util11IComparableD0Ev, ptr @__cxa_pure_virtual] }, align 8
@_ZTIN5osgeo4proj4util11IComparableE = constant { ptr, ptr } { ptr getelementptr inbounds (ptr, ptr @_ZTVN10__cxxabiv117__class_type_infoE, i64 2), ptr @_ZTSN5osgeo4proj4util11IComparableE }, align 8
@_ZTSN5osgeo4proj4util11IComparableE = constant [32 x i8] c"N5osgeo4proj4util11IComparableE\00", align 1
@__libc_single_threaded = external local_unnamed_addr global i8, align 1
@.str.5 = private unnamed_addr constant [50 x i8] c"basic_string: construction from null is not valid\00", align 1
@.str.6 = private unnamed_addr constant [26 x i8] c"vector::_M_realloc_append\00", align 1
@_ZTVSt15_Sp_counted_ptrIPN5osgeo4proj4util17ArrayOfBaseObjectELN9__gnu_cxx12_Lock_policyE2EE = linkonce_odr hidden unnamed_addr constant { [7 x ptr] } { [7 x ptr] [ptr null, ptr @_ZTISt15_Sp_counted_ptrIPN5osgeo4proj4util17ArrayOfBaseObjectELN9__gnu_cxx12_Lock_policyE2EE, ptr @_ZNSt16_Sp_counted_baseILN9__gnu_cxx12_Lock_policyE2EED2Ev, ptr @_ZNSt15_Sp_counted_ptrIPN5osgeo4proj4util17ArrayOfBaseObjectELN9__gnu_cxx12_Lock_policyE2EED0Ev, ptr @_ZNSt15_Sp_counted_ptrIPN5osgeo4proj4util17ArrayOfBaseObjectELN9__gnu_cxx12_Lock_policyE2EE10_M_disposeEv, ptr @_ZNSt15_Sp_counted_ptrIPN5osgeo4proj4util17ArrayOfBaseObjectELN9__gnu_cxx12_Lock_policyE2EE10_M_destroyEv, ptr @_ZNSt15_Sp_counted_ptrIPN5osgeo4proj4util17ArrayOfBaseObjectELN9__gnu_cxx12_Lock_policyE2EE14_M_get_deleterERKSt9type_info] }, comdat, align 8
@_ZTISt15_Sp_counted_ptrIPN5osgeo4proj4util17ArrayOfBaseObjectELN9__gnu_cxx12_Lock_policyE2EE = linkonce_odr hidden constant { ptr, ptr, ptr } { ptr getelementptr inbounds (ptr, ptr @_ZTVN10__cxxabiv120__si_class_type_infoE, i64 2), ptr @_ZTSSt15_Sp_counted_ptrIPN5osgeo4proj4util17ArrayOfBaseObjectELN9__gnu_cxx12_Lock_policyE2EE, ptr @_ZTISt16_Sp_counted_baseILN9__gnu_cxx12_Lock_policyE2EE }, comdat, align 8
@_ZTSSt15_Sp_counted_ptrIPN5osgeo4proj4util17ArrayOfBaseObjectELN9__gnu_cxx12_Lock_policyE2EE = linkonce_odr hidden constant [89 x i8] c"St15_Sp_counted_ptrIPN5osgeo4proj4util17ArrayOfBaseObjectELN9__gnu_cxx12_Lock_policyE2EE\00", comdat, align 1
@_ZTISt16_Sp_counted_baseILN9__gnu_cxx12_Lock_policyE2EE = linkonce_odr constant { ptr, ptr, ptr } { ptr getelementptr inbounds (ptr, ptr @_ZTVN10__cxxabiv120__si_class_type_infoE, i64 2), ptr @_ZTSSt16_Sp_counted_baseILN9__gnu_cxx12_Lock_policyE2EE, ptr @_ZTISt11_Mutex_baseILN9__gnu_cxx12_Lock_policyE2EE }, comdat, align 8
@_ZTSSt16_Sp_counted_baseILN9__gnu_cxx12_Lock_policyE2EE = linkonce_odr constant [52 x i8] c"St16_Sp_counted_baseILN9__gnu_cxx12_Lock_policyE2EE\00", comdat, align 1
@_ZTISt11_Mutex_baseILN9__gnu_cxx12_Lock_policyE2EE = linkonce_odr constant { ptr, ptr } { ptr getelementptr inbounds (ptr, ptr @_ZTVN10__cxxabiv117__class_type_infoE, i64 2), ptr @_ZTSSt11_Mutex_baseILN9__gnu_cxx12_Lock_policyE2EE }, comdat, align 8
@_ZTSSt11_Mutex_baseILN9__gnu_cxx12_Lock_policyE2EE = linkonce_odr constant [47 x i8] c"St11_Mutex_baseILN9__gnu_cxx12_Lock_policyE2EE\00", comdat, align 1
@_ZTVSt23_Sp_counted_ptr_inplaceIN5osgeo4proj4util10BoxedValueESaIvELN9__gnu_cxx12_Lock_policyE2EE = linkonce_odr hidden unnamed_addr constant { [7 x ptr] } { [7 x ptr] [ptr null, ptr @_ZTISt23_Sp_counted_ptr_inplaceIN5osgeo4proj4util10BoxedValueESaIvELN9__gnu_cxx12_Lock_policyE2EE, ptr @_ZNSt16_Sp_counted_baseILN9__gnu_cxx12_Lock_policyE2EED2Ev, ptr @_ZNSt23_Sp_counted_ptr_inplaceIN5osgeo4proj4util10BoxedValueESaIvELN9__gnu_cxx12_Lock_policyE2EED0Ev, ptr @_ZNSt23_Sp_counted_ptr_inplaceIN5osgeo4proj4util10BoxedValueESaIvELN9__gnu_cxx12_Lock_policyE2EE10_M_disposeEv, ptr @_ZNSt23_Sp_counted_ptr_inplaceIN5osgeo4proj4util10BoxedValueESaIvELN9__gnu_cxx12_Lock_policyE2EE10_M_destroyEv, ptr @_ZNSt23_Sp_counted_ptr_inplaceIN5osgeo4proj4util10BoxedValueESaIvELN9__gnu_cxx12_Lock_policyE2EE14_M_get_deleterERKSt9type_info] }, comdat, align 8
@_ZTISt23_Sp_counted_ptr_inplaceIN5osgeo4proj4util10BoxedValueESaIvELN9__gnu_cxx12_Lock_policyE2EE = linkonce_odr hidden constant { ptr, ptr, ptr } { ptr getelementptr inbounds (ptr, ptr @_ZTVN10__cxxabiv120__si_class_type_infoE, i64 2), ptr @_ZTSSt23_Sp_counted_ptr_inplaceIN5osgeo4proj4util10BoxedValueESaIvELN9__gnu_cxx12_Lock_policyE2EE, ptr @_ZTISt16_Sp_counted_baseILN9__gnu_cxx12_Lock_policyE2EE }, comdat, align 8
@_ZTSSt23_Sp_counted_ptr_inplaceIN5osgeo4proj4util10BoxedValueESaIvELN9__gnu_cxx12_Lock_policyE2EE = linkonce_odr hidden constant [94 x i8] c"St23_Sp_counted_ptr_inplaceIN5osgeo4proj4util10BoxedValueESaIvELN9__gnu_cxx12_Lock_policyE2EE\00", comdat, align 1
@_ZTSSt19_Sp_make_shared_tag = linkonce_odr constant [24 x i8] c"St19_Sp_make_shared_tag\00", comdat, align 1
@_ZZNSt19_Sp_make_shared_tag5_S_tiEvE5__tag = linkonce_odr constant [16 x i8] zeroinitializer, comdat, align 8
@.str.7 = private unnamed_addr constant [21 x i8] c"basic_string::append\00", align 1
@_ZTVSt15_Sp_counted_ptrIPN5osgeo4proj4util9NameSpaceELN9__gnu_cxx12_Lock_policyE2EE = linkonce_odr hidden unnamed_addr constant { [7 x ptr] } { [7 x ptr] [ptr null, ptr @_ZTISt15_Sp_counted_ptrIPN5osgeo4proj4util9NameSpaceELN9__gnu_cxx12_Lock_policyE2EE, ptr @_ZNSt16_Sp_counted_baseILN9__gnu_cxx12_Lock_policyE2EED2Ev, ptr @_ZNSt15_Sp_counted_ptrIPN5osgeo4proj4util9NameSpaceELN9__gnu_cxx12_Lock_policyE2EED0Ev, ptr @_ZNSt15_Sp_counted_ptrIPN5osgeo4proj4util9NameSpaceELN9__gnu_cxx12_Lock_policyE2EE10_M_disposeEv, ptr @_ZNSt15_Sp_counted_ptrIPN5osgeo4proj4util9NameSpaceELN9__gnu_cxx12_Lock_policyE2EE10_M_destroyEv, ptr @_ZNSt15_Sp_counted_ptrIPN5osgeo4proj4util9NameSpaceELN9__gnu_cxx12_Lock_policyE2EE14_M_get_deleterERKSt9type_info] }, comdat, align 8
@_ZTISt15_Sp_counted_ptrIPN5osgeo4proj4util9NameSpaceELN9__gnu_cxx12_Lock_policyE2EE = linkonce_odr hidden constant { ptr, ptr, ptr } { ptr getelementptr inbounds (ptr, ptr @_ZTVN10__cxxabiv120__si_class_type_infoE, i64 2), ptr @_ZTSSt15_Sp_counted_ptrIPN5osgeo4proj4util9NameSpaceELN9__gnu_cxx12_Lock_policyE2EE, ptr @_ZTISt16_Sp_counted_baseILN9__gnu_cxx12_Lock_policyE2EE }, comdat, align 8
@_ZTSSt15_Sp_counted_ptrIPN5osgeo4proj4util9NameSpaceELN9__gnu_cxx12_Lock_policyE2EE = linkonce_odr hidden constant [80 x i8] c"St15_Sp_counted_ptrIPN5osgeo4proj4util9NameSpaceELN9__gnu_cxx12_Lock_policyE2EE\00", comdat, align 1
@_ZTVSt15_Sp_counted_ptrIPN5osgeo4proj4util9LocalNameELN9__gnu_cxx12_Lock_policyE2EE = linkonce_odr hidden unnamed_addr constant { [7 x ptr] } { [7 x ptr] [ptr null, ptr @_ZTISt15_Sp_counted_ptrIPN5osgeo4proj4util9LocalNameELN9__gnu_cxx12_Lock_policyE2EE, ptr @_ZNSt16_Sp_counted_baseILN9__gnu_cxx12_Lock_policyE2EED2Ev, ptr @_ZNSt15_Sp_counted_ptrIPN5osgeo4proj4util9LocalNameELN9__gnu_cxx12_Lock_policyE2EED0Ev, ptr @_ZNSt15_Sp_counted_ptrIPN5osgeo4proj4util9LocalNameELN9__gnu_cxx12_Lock_policyE2EE10_M_disposeEv, ptr @_ZNSt15_Sp_counted_ptrIPN5osgeo4proj4util9LocalNameELN9__gnu_cxx12_Lock_policyE2EE10_M_destroyEv, ptr @_ZNSt15_Sp_counted_ptrIPN5osgeo4proj4util9LocalNameELN9__gnu_cxx12_Lock_policyE2EE14_M_get_deleterERKSt9type_info] }, comdat, align 8
@_ZTISt15_Sp_counted_ptrIPN5osgeo4proj4util9LocalNameELN9__gnu_cxx12_Lock_policyE2EE = linkonce_odr hidden constant { ptr, ptr, ptr } { ptr getelementptr inbounds (ptr, ptr @_ZTVN10__cxxabiv120__si_class_type_infoE, i64 2), ptr @_ZTSSt15_Sp_counted_ptrIPN5osgeo4proj4util9LocalNameELN9__gnu_cxx12_Lock_policyE2EE, ptr @_ZTISt16_Sp_counted_baseILN9__gnu_cxx12_Lock_policyE2EE }, comdat, align 8
@_ZTSSt15_Sp_counted_ptrIPN5osgeo4proj4util9LocalNameELN9__gnu_cxx12_Lock_policyE2EE = linkonce_odr hidden constant [80 x i8] c"St15_Sp_counted_ptrIPN5osgeo4proj4util9LocalNameELN9__gnu_cxx12_Lock_policyE2EE\00", comdat, align 1

@_ZN5osgeo4proj4util10BaseObjectC1Ev = hidden unnamed_addr alias void (ptr), ptr @_ZN5osgeo4proj4util10BaseObjectC2Ev
@_ZN5osgeo4proj4util10BaseObjectD1Ev = unnamed_addr alias void (ptr), ptr @_ZN5osgeo4proj4util10BaseObjectD2Ev
@_ZN5osgeo4proj4util15BaseObjectNNPtrD1Ev = unnamed_addr alias void (ptr), ptr @_ZN5osgeo4proj4util15BaseObjectNNPtrD2Ev
@_ZN5osgeo4proj4util10BoxedValueC1Ev = hidden unnamed_addr alias void (ptr), ptr @_ZN5osgeo4proj4util10BoxedValueC2Ev
@_ZN5osgeo4proj4util10BoxedValueC1EPKc = unnamed_addr alias void (ptr, ptr), ptr @_ZN5osgeo4proj4util10BoxedValueC2EPKc
@_ZN5osgeo4proj4util10BoxedValueC1ERKNSt7__cxx1112basic_stringIcSt11char_traitsIcESaIcEEE = unnamed_addr alias void (ptr, ptr), ptr @_ZN5osgeo4proj4util10BoxedValueC2ERKNSt7__cxx1112basic_stringIcSt11char_traitsIcESaIcEEE
@_ZN5osgeo4proj4util10BoxedValueC1Ei = unnamed_addr alias void (ptr, i32), ptr @_ZN5osgeo4proj4util10BoxedValueC2Ei
@_ZN5osgeo4proj4util10BoxedValueC1Eb = unnamed_addr alias void (ptr, i1), ptr @_ZN5osgeo4proj4util10BoxedValueC2Eb
@_ZN5osgeo4proj4util10BoxedValueC1ERKS2_ = hidden unnamed_addr alias void (ptr, ptr), ptr @_ZN5osgeo4proj4util10BoxedValueC2ERKS2_
@_ZN5osgeo4proj4util10BoxedValueD1Ev = unnamed_addr alias void (ptr), ptr @_ZN5osgeo4proj4util10BoxedValueD2Ev
@_ZN5osgeo4proj4util17ArrayOfBaseObjectC1Ev = hidden unnamed_addr alias void (ptr), ptr @_ZN5osgeo4proj4util17ArrayOfBaseObjectC2Ev
@_ZN5osgeo4proj4util17ArrayOfBaseObjectD1Ev = unnamed_addr alias void (ptr), ptr @_ZN5osgeo4proj4util17ArrayOfBaseObjectD2Ev
@_ZN5osgeo4proj4util11PropertyMapC1Ev = unnamed_addr alias void (ptr), ptr @_ZN5osgeo4proj4util11PropertyMapC2Ev
@_ZN5osgeo4proj4util11PropertyMapC1ERKS2_ = unnamed_addr alias void (ptr, ptr), ptr @_ZN5osgeo4proj4util11PropertyMapC2ERKS2_
@_ZN5osgeo4proj4util11PropertyMapD1Ev = unnamed_addr alias void (ptr), ptr @_ZN5osgeo4proj4util11PropertyMapD2Ev
@_ZN5osgeo4proj4util11GenericNameD1Ev = unnamed_addr alias void (ptr), ptr @_ZN5osgeo4proj4util11GenericNameD2Ev
@_ZN5osgeo4proj4util9NameSpaceC1ERKSt10shared_ptrINS1_11GenericNameEE = hidden unnamed_addr alias void (ptr, ptr), ptr @_ZN5osgeo4proj4util9NameSpaceC2ERKSt10shared_ptrINS1_11GenericNameEE
@_ZN5osgeo4proj4util9NameSpaceC1ERKS2_ = hidden unnamed_addr alias void (ptr, ptr), ptr @_ZN5osgeo4proj4util9NameSpaceC2ERKS2_
@_ZN5osgeo4proj4util9NameSpaceD1Ev = unnamed_addr alias void (ptr), ptr @_ZN5osgeo4proj4util9NameSpaceD2Ev
@_ZN5osgeo4proj4util9LocalNameC1ERKNSt7__cxx1112basic_stringIcSt11char_traitsIcESaIcEEE = hidden unnamed_addr alias void (ptr, ptr), ptr @_ZN5osgeo4proj4util9LocalNameC2ERKNSt7__cxx1112basic_stringIcSt11char_traitsIcESaIcEEE
@_ZN5osgeo4proj4util9LocalNameC1ERKSt10shared_ptrINS1_9NameSpaceEERKNSt7__cxx1112basic_stringIcSt11char_traitsIcESaIcEEE = hidden unnamed_addr alias void (ptr, ptr, ptr), ptr @_ZN5osgeo4proj4util9LocalNameC2ERKSt10shared_ptrINS1_9NameSpaceEERKNSt7__cxx1112basic_stringIcSt11char_traitsIcESaIcEEE
@_ZN5osgeo4proj4util9LocalNameC1ERKS2_ = hidden unnamed_addr alias void (ptr, ptr), ptr @_ZN5osgeo4proj4util9LocalNameC2ERKS2_
@_ZN5osgeo4proj4util9LocalNameD1Ev = unnamed_addr alias void (ptr), ptr @_ZN5osgeo4proj4util9LocalNameD2Ev
@_ZN5osgeo4proj4util8CodeListD1Ev = unnamed_addr alias void (ptr), ptr @_ZN5osgeo4proj4util8CodeListD2Ev
@_ZN5osgeo4proj4util9ExceptionC1EPKc = hidden unnamed_addr alias void (ptr, ptr), ptr @_ZN5osgeo4proj4util9ExceptionC2EPKc
@_ZN5osgeo4proj4util9ExceptionC1ERKNSt7__cxx1112basic_stringIcSt11char_traitsIcESaIcEEE = hidden unnamed_addr alias void (ptr, ptr), ptr @_ZN5osgeo4proj4util9ExceptionC2ERKNSt7__cxx1112basic_stringIcSt11char_traitsIcESaIcEEE
@_ZN5osgeo4proj4util9ExceptionC1ERKS2_ = unnamed_addr alias void (ptr, ptr), ptr @_ZN5osgeo4proj4util9ExceptionC2ERKS2_
@_ZN5osgeo4proj4util9ExceptionD1Ev = unnamed_addr alias void (ptr), ptr @_ZN5osgeo4proj4util9ExceptionD2Ev
@_ZN5osgeo4proj4util25InvalidValueTypeExceptionC1EPKc = hidden unnamed_addr alias void (ptr, ptr), ptr @_ZN5osgeo4proj4util25InvalidValueTypeExceptionC2EPKc
@_ZN5osgeo4proj4util25InvalidValueTypeExceptionC1ERKNSt7__cxx1112basic_stringIcSt11char_traitsIcESaIcEEE = hidden unnamed_addr alias void (ptr, ptr), ptr @_ZN5osgeo4proj4util25InvalidValueTypeExceptionC2ERKNSt7__cxx1112basic_stringIcSt11char_traitsIcESaIcEEE
@_ZN5osgeo4proj4util25InvalidValueTypeExceptionD2Ev = unnamed_addr alias void (ptr), ptr @_ZN5osgeo4proj4util9ExceptionD2Ev
@_ZN5osgeo4proj4util25InvalidValueTypeExceptionD1Ev = unnamed_addr alias void (ptr), ptr @_ZN5osgeo4proj4util25InvalidValueTypeExceptionD2Ev
@_ZN5osgeo4proj4util25InvalidValueTypeExceptionC1ERKS2_ = unnamed_addr alias void (ptr, ptr), ptr @_ZN5osgeo4proj4util25InvalidValueTypeExceptionC2ERKS2_
@_ZN5osgeo4proj4util29UnsupportedOperationExceptionC1EPKc = hidden unnamed_addr alias void (ptr, ptr), ptr @_ZN5osgeo4proj4util29UnsupportedOperationExceptionC2EPKc
@_ZN5osgeo4proj4util29UnsupportedOperationExceptionC1ERKNSt7__cxx1112basic_stringIcSt11char_traitsIcESaIcEEE = hidden unnamed_addr alias void (ptr, ptr), ptr @_ZN5osgeo4proj4util29UnsupportedOperationExceptionC2ERKNSt7__cxx1112basic_stringIcSt11char_traitsIcESaIcEEE
@_ZN5osgeo4proj4util29UnsupportedOperationExceptionD2Ev = unnamed_addr alias void (ptr), ptr @_ZN5osgeo4proj4util9ExceptionD2Ev
@_ZN5osgeo4proj4util29UnsupportedOperationExceptionD1Ev = unnamed_addr alias void (ptr), ptr @_ZN5osgeo4proj4util29UnsupportedOperationExceptionD2Ev
@_ZN5osgeo4proj4util29UnsupportedOperationExceptionC1ERKS2_ = unnamed_addr alias void (ptr, ptr), ptr @_ZN5osgeo4proj4util29UnsupportedOperationExceptionC2ERKS2_
@_ZN5osgeo4proj4util11IComparableD1Ev = unnamed_addr alias void (ptr), ptr @_ZN5osgeo4proj4util11IComparableD2Ev

; Function Attrs: mustprogress sspstrong uwtable
define hidden void @_ZN5osgeo4proj4util10BaseObjectC2Ev(ptr noundef nonnull writeonly align 8 captures(none) dereferenceable(16) initializes((0, 16)) %0) unnamed_addr #0 align 2 personality ptr @__gxx_personality_v0 {
  store ptr getelementptr inbounds nuw inrange(-16, 16) (i8, ptr @_ZTVN5osgeo4proj4util10BaseObjectE, i64 16), ptr %0, align 8, !tbaa !4
  %2 = getelementptr inbounds nuw i8, ptr %0, i64 8
  tail call void @llvm.experimental.noalias.scope.decl(metadata !7)
  %3 = tail call noalias noundef nonnull dereferenceable(16) ptr @_Znwm(i64 noundef 16) #29, !noalias !7
  tail call void @llvm.memset.p0.i64(ptr noundef nonnull align 8 dereferenceable(16) %3, i8 0, i64 16, i1 false), !noalias !7
  store ptr %3, ptr %2, align 8, !tbaa !10, !alias.scope !7
  ret void
}

; Function Attrs: mustprogress nounwind sspstrong uwtable
define void @_ZN5osgeo4proj4util10BaseObjectD2Ev(ptr noundef nonnull align 8 captures(none) dereferenceable(16) initializes((0, 8)) %0) unnamed_addr #1 align 2 personality ptr @__gxx_personality_v0 {
  store ptr getelementptr inbounds nuw inrange(-16, 16) (i8, ptr @_ZTVN5osgeo4proj4util10BaseObjectE, i64 16), ptr %0, align 8, !tbaa !4
  %2 = getelementptr inbounds nuw i8, ptr %0, i64 8
  %3 = load ptr, ptr %2, align 8, !tbaa !10
  %4 = icmp eq ptr %3, null
  br i1 %4, label %26, label %5

5:                                                ; preds = %1
  %6 = getelementptr inbounds nuw i8, ptr %3, i64 8
  %7 = load ptr, ptr %6, align 8, !tbaa !14
  %8 = icmp eq ptr %7, null
  br i1 %8, label %25, label %9

9:                                                ; preds = %5
  %10 = getelementptr inbounds nuw i8, ptr %7, i64 12
  %11 = load i8, ptr @__libc_single_threaded, align 1, !tbaa !17
  %12 = icmp eq i8 %11, 0
  br i1 %12, label %16, label %13

13:                                               ; preds = %9
  %14 = load i32, ptr %10, align 4, !tbaa !18
  %15 = add nsw i32 %14, -1
  store i32 %15, ptr %10, align 4, !tbaa !18
  br label %18

16:                                               ; preds = %9
  %17 = atomicrmw volatile add ptr %10, i32 -1 acq_rel, align 4
  br label %18

18:                                               ; preds = %16, %13
  %19 = phi i32 [ %14, %13 ], [ %17, %16 ]
  %20 = icmp eq i32 %19, 1
  br i1 %20, label %21, label %25

21:                                               ; preds = %18
  %22 = load ptr, ptr %7, align 8, !tbaa !4
  %23 = getelementptr inbounds nuw i8, ptr %22, i64 24
  %24 = load ptr, ptr %23, align 8
  tail call void %24(ptr noundef nonnull align 8 dereferenceable(16) %7) #30
  br label %25

25:                                               ; preds = %21, %18, %5
  tail call void @_ZdlPvm(ptr noundef nonnull %3, i64 noundef 16) #31
  br label %26

26:                                               ; preds = %1, %25
  store ptr null, ptr %2, align 8, !tbaa !10
  ret void
}

; Function Attrs: mustprogress nounwind sspstrong uwtable
define void @_ZN5osgeo4proj4util10BaseObjectD0Ev(ptr noundef nonnull align 8 dereferenceable(16) %0) unnamed_addr #1 align 2 {
  tail call void @_ZN5osgeo4proj4util10BaseObjectD1Ev(ptr noundef nonnull align 8 dereferenceable(16) %0) #30
  tail call void @_ZdlPvm(ptr noundef nonnull %0, i64 noundef 16) #31
  ret void
}

; Function Attrs: nobuiltin nounwind
declare void @_ZdlPvm(ptr noundef, i64 noundef) local_unnamed_addr #2

; Function Attrs: mustprogress nounwind sspstrong uwtable
define void @_ZN5osgeo4proj4util15BaseObjectNNPtrD2Ev(ptr noundef nonnull readonly align 8 captures(none) dereferenceable(16) %0) unnamed_addr #1 align 2 personality ptr @__gxx_personality_v0 {
  %2 = getelementptr inbounds nuw i8, ptr %0, i64 8
  %3 = load ptr, ptr %2, align 8, !tbaa !20
  %4 = icmp eq ptr %3, null
  br i1 %4, label %29, label %5

5:                                                ; preds = %1
  %6 = getelementptr inbounds nuw i8, ptr %3, i64 8
  %7 = load atomic i64, ptr %6 acquire, align 8
  %8 = icmp eq i64 %7, 4294967297
  %9 = trunc i64 %7 to i32
  br i1 %8, label %10, label %18

10:                                               ; preds = %5
  store i32 0, ptr %6, align 8, !tbaa !22
  %11 = getelementptr inbounds nuw i8, ptr %3, i64 12
  store i32 0, ptr %11, align 4, !tbaa !24
  %12 = load ptr, ptr %3, align 8, !tbaa !4
  %13 = getelementptr inbounds nuw i8, ptr %12, i64 16
  %14 = load ptr, ptr %13, align 8
  tail call void %14(ptr noundef nonnull align 8 dereferenceable(16) %3) #30
  %15 = load ptr, ptr %3, align 8, !tbaa !4
  %16 = getelementptr inbounds nuw i8, ptr %15, i64 24
  %17 = load ptr, ptr %16, align 8
  tail call void %17(ptr noundef nonnull align 8 dereferenceable(16) %3) #30
  br label %29

18:                                               ; preds = %5
  %19 = load i8, ptr @__libc_single_threaded, align 1, !tbaa !17
  %20 = icmp eq i8 %19, 0
  br i1 %20, label %23, label %21

21:                                               ; preds = %18
  %22 = add nsw i32 %9, -1
  store i32 %22, ptr %6, align 4, !tbaa !18
  br label %25

23:                                               ; preds = %18
  %24 = atomicrmw volatile add ptr %6, i32 -1 acq_rel, align 4
  br label %25

25:                                               ; preds = %23, %21
  %26 = phi i32 [ %9, %21 ], [ %24, %23 ]
  %27 = icmp eq i32 %26, 1
  br i1 %27, label %28, label %29, !prof !25

28:                                               ; preds = %25
  tail call void @_ZNSt16_Sp_counted_baseILN9__gnu_cxx12_Lock_policyE2EE24_M_release_last_use_coldEv(ptr noundef nonnull align 8 dereferenceable(16) %3) #30
  br label %29

29:                                               ; preds = %1, %10, %25, %28
  ret void
}

; Function Attrs: mustprogress nounwind sspstrong uwtable
define hidden noundef nonnull align 8 dereferenceable(16) ptr @_ZN5osgeo4proj4util10BaseObjectaSEOS2_(ptr noundef nonnull readonly returned align 8 captures(ret: address, provenance) dereferenceable(16) %0, ptr noundef nonnull readnone align 8 captures(none) dereferenceable(16) %1) local_unnamed_addr #1 align 2 personality ptr @__gxx_personality_v0 {
  %3 = getelementptr inbounds nuw i8, ptr %0, i64 8
  %4 = load ptr, ptr %3, align 8, !tbaa !10
  store ptr null, ptr %4, align 8, !tbaa !26
  %5 = getelementptr inbounds nuw i8, ptr %4, i64 8
  %6 = load ptr, ptr %5, align 8, !tbaa !14
  store ptr null, ptr %5, align 8, !tbaa !14
  %7 = icmp eq ptr %6, null
  br i1 %7, label %24, label %8

8:                                                ; preds = %2
  %9 = getelementptr inbounds nuw i8, ptr %6, i64 12
  %10 = load i8, ptr @__libc_single_threaded, align 1, !tbaa !17
  %11 = icmp eq i8 %10, 0
  br i1 %11, label %15, label %12

12:                                               ; preds = %8
  %13 = load i32, ptr %9, align 4, !tbaa !18
  %14 = add nsw i32 %13, -1
  store i32 %14, ptr %9, align 4, !tbaa !18
  br label %17

15:                                               ; preds = %8
  %16 = atomicrmw volatile add ptr %9, i32 -1 acq_rel, align 4
  br label %17

17:                                               ; preds = %15, %12
  %18 = phi i32 [ %13, %12 ], [ %16, %15 ]
  %19 = icmp eq i32 %18, 1
  br i1 %19, label %20, label %24

20:                                               ; preds = %17
  %21 = load ptr, ptr %6, align 8, !tbaa !4
  %22 = getelementptr inbounds nuw i8, ptr %21, i64 24
  %23 = load ptr, ptr %22, align 8
  tail call void %23(ptr noundef nonnull align 8 dereferenceable(16) %6) #30
  br label %24

24:                                               ; preds = %2, %17, %20
  ret ptr %0
}

; Function Attrs: mustprogress sspstrong uwtable
define hidden void @_ZN5osgeo4proj4util10BaseObject10assignSelfERKNS1_15BaseObjectNNPtrE(ptr noundef nonnull readonly align 8 captures(none) dereferenceable(16) %0, ptr noundef nonnull readonly align 8 captures(none) dereferenceable(16) %1) local_unnamed_addr #0 align 2 personality ptr @__gxx_personality_v0 {
  %3 = getelementptr inbounds nuw i8, ptr %0, i64 8
  %4 = load ptr, ptr %3, align 8, !tbaa !10
  %5 = load ptr, ptr %1, align 8, !tbaa !28
  store ptr %5, ptr %4, align 8, !tbaa !30
  %6 = getelementptr inbounds nuw i8, ptr %1, i64 8
  %7 = getelementptr inbounds nuw i8, ptr %4, i64 8
  %8 = load ptr, ptr %6, align 8, !tbaa !20
  %9 = icmp eq ptr %8, null
  br i1 %9, label %19, label %10

10:                                               ; preds = %2
  %11 = getelementptr inbounds nuw i8, ptr %8, i64 12
  %12 = load i8, ptr @__libc_single_threaded, align 1, !tbaa !17
  %13 = icmp eq i8 %12, 0
  br i1 %13, label %17, label %14

14:                                               ; preds = %10
  %15 = load i32, ptr %11, align 4, !tbaa !18
  %16 = add nsw i32 %15, 1
  store i32 %16, ptr %11, align 4, !tbaa !18
  br label %19

17:                                               ; preds = %10
  %18 = atomicrmw volatile add ptr %11, i32 1 acq_rel, align 4
  br label %19

19:                                               ; preds = %17, %14, %2
  %20 = load ptr, ptr %7, align 8, !tbaa !14
  %21 = icmp eq ptr %20, null
  br i1 %21, label %38, label %22

22:                                               ; preds = %19
  %23 = getelementptr inbounds nuw i8, ptr %20, i64 12
  %24 = load i8, ptr @__libc_single_threaded, align 1, !tbaa !17
  %25 = icmp eq i8 %24, 0
  br i1 %25, label %29, label %26

26:                                               ; preds = %22
  %27 = load i32, ptr %23, align 4, !tbaa !18
  %28 = add nsw i32 %27, -1
  store i32 %28, ptr %23, align 4, !tbaa !18
  br label %31

29:                                               ; preds = %22
  %30 = atomicrmw volatile add ptr %23, i32 -1 acq_rel, align 4
  br label %31

31:                                               ; preds = %29, %26
  %32 = phi i32 [ %27, %26 ], [ %30, %29 ]
  %33 = icmp eq i32 %32, 1
  br i1 %33, label %34, label %38

34:                                               ; preds = %31
  %35 = load ptr, ptr %20, align 8, !tbaa !4
  %36 = getelementptr inbounds nuw i8, ptr %35, i64 24
  %37 = load ptr, ptr %36, align 8
  tail call void %37(ptr noundef nonnull align 8 dereferenceable(16) %20) #30
  br label %38

38:                                               ; preds = %19, %31, %34
  store ptr %8, ptr %7, align 8, !tbaa !14
  ret void
}

; Function Attrs: mustprogress sspstrong uwtable
define hidden void @_ZNK5osgeo4proj4util10BaseObject16shared_from_thisEv(ptr dead_on_unwind noalias writable writeonly sret(%"struct.osgeo::proj::util::BaseObjectNNPtr") align 8 captures(none) %0, ptr noundef nonnull readonly align 8 captures(none) dereferenceable(16) %1) local_unnamed_addr #0 align 2 personality ptr @__gxx_personality_v0 {
  %3 = getelementptr inbounds nuw i8, ptr %1, i64 8
  %4 = load ptr, ptr %3, align 8, !tbaa !10
  %5 = getelementptr inbounds nuw i8, ptr %4, i64 8
  %6 = load ptr, ptr %5, align 8, !tbaa !14, !noalias !32
  %7 = icmp eq ptr %6, null
  br i1 %7, label %26, label %8

8:                                                ; preds = %2
  %9 = getelementptr inbounds nuw i8, ptr %6, i64 8
  %10 = load atomic i32, ptr %9 monotonic, align 8, !noalias !32
  br label %11

11:                                               ; preds = %14, %8
  %12 = phi i32 [ %10, %8 ], [ %18, %14 ]
  %13 = icmp eq i32 %12, 0
  br i1 %13, label %26, label %14

14:                                               ; preds = %11
  %15 = add nsw i32 %12, 1
  %16 = cmpxchg weak ptr %9, i32 %12, i32 %15 acq_rel monotonic, align 8, !noalias !32
  %17 = extractvalue { i32, i1 } %16, 1
  %18 = extractvalue { i32, i1 } %16, 0
  br i1 %17, label %19, label %11, !llvm.loop !35

19:                                               ; preds = %14
  %20 = load atomic i32, ptr %9 monotonic, align 8, !noalias !32
  %21 = freeze i32 %20
  %22 = icmp eq i32 %21, 0
  %23 = load ptr, ptr %4, align 8, !noalias !32
  %24 = icmp eq ptr %23, null
  %25 = select i1 %22, i1 true, i1 %24
  br i1 %25, label %26, label %27

26:                                               ; preds = %11, %19, %2
  tail call void @abort() #32, !noalias !37
  unreachable

27:                                               ; preds = %19
  %28 = load i8, ptr @__libc_single_threaded, align 1, !tbaa !17
  %29 = icmp eq i8 %28, 0
  br i1 %29, label %32, label %30

30:                                               ; preds = %27
  %31 = add nsw i32 %21, 1
  store i32 %31, ptr %9, align 4, !tbaa !18
  br label %34

32:                                               ; preds = %27
  %33 = atomicrmw volatile add ptr %9, i32 1 acq_rel, align 4
  br label %34

34:                                               ; preds = %32, %30
  store ptr %23, ptr %0, align 8, !tbaa !28
  %35 = getelementptr inbounds nuw i8, ptr %0, i64 8
  store ptr %6, ptr %35, align 8, !tbaa !20
  %36 = load atomic i64, ptr %9 acquire, align 8
  %37 = icmp eq i64 %36, 4294967297
  %38 = trunc i64 %36 to i32
  br i1 %37, label %39, label %47

39:                                               ; preds = %34
  store i32 0, ptr %9, align 8, !tbaa !22
  %40 = getelementptr inbounds nuw i8, ptr %6, i64 12
  store i32 0, ptr %40, align 4, !tbaa !24
  %41 = load ptr, ptr %6, align 8, !tbaa !4
  %42 = getelementptr inbounds nuw i8, ptr %41, i64 16
  %43 = load ptr, ptr %42, align 8
  tail call void %43(ptr noundef nonnull align 8 dereferenceable(16) %6) #30
  %44 = load ptr, ptr %6, align 8, !tbaa !4
  %45 = getelementptr inbounds nuw i8, ptr %44, i64 24
  %46 = load ptr, ptr %45, align 8
  tail call void %46(ptr noundef nonnull align 8 dereferenceable(16) %6) #30
  br label %58

47:                                               ; preds = %34
  %48 = load i8, ptr @__libc_single_threaded, align 1, !tbaa !17
  %49 = icmp eq i8 %48, 0
  br i1 %49, label %52, label %50

50:                                               ; preds = %47
  %51 = add nsw i32 %38, -1
  store i32 %51, ptr %9, align 4, !tbaa !18
  br label %54

52:                                               ; preds = %47
  %53 = atomicrmw volatile add ptr %9, i32 -1 acq_rel, align 4
  br label %54

54:                                               ; preds = %52, %50
  %55 = phi i32 [ %38, %50 ], [ %53, %52 ]
  %56 = icmp eq i32 %55, 1
  br i1 %56, label %57, label %58, !prof !25

57:                                               ; preds = %54
  tail call void @_ZNSt16_Sp_counted_baseILN9__gnu_cxx12_Lock_policyE2EE24_M_release_last_use_coldEv(ptr noundef nonnull align 8 dereferenceable(16) %6) #30
  br label %58

58:                                               ; preds = %57, %54, %39
  ret void
}

; Function Attrs: mustprogress nocallback nofree nosync nounwind willreturn memory(argmem: readwrite)
declare void @llvm.lifetime.start.p0(i64 immarg, ptr captures(none)) #3

declare i32 @__gxx_personality_v0(...)

; Function Attrs: mustprogress nounwind sspstrong uwtable
define linkonce_odr void @_ZNSt12__shared_ptrIN5osgeo4proj4util10BaseObjectELN9__gnu_cxx12_Lock_policyE2EED2Ev(ptr noundef nonnull align 8 dereferenceable(16) %0) unnamed_addr #1 comdat align 2 personality ptr @__gxx_personality_v0 {
  %2 = getelementptr inbounds nuw i8, ptr %0, i64 8
  %3 = load ptr, ptr %2, align 8, !tbaa !20
  %4 = icmp eq ptr %3, null
  br i1 %4, label %29, label %5

5:                                                ; preds = %1
  %6 = getelementptr inbounds nuw i8, ptr %3, i64 8
  %7 = load atomic i64, ptr %6 acquire, align 8
  %8 = icmp eq i64 %7, 4294967297
  %9 = trunc i64 %7 to i32
  br i1 %8, label %10, label %18

10:                                               ; preds = %5
  store i32 0, ptr %6, align 8, !tbaa !22
  %11 = getelementptr inbounds nuw i8, ptr %3, i64 12
  store i32 0, ptr %11, align 4, !tbaa !24
  %12 = load ptr, ptr %3, align 8, !tbaa !4
  %13 = getelementptr inbounds nuw i8, ptr %12, i64 16
  %14 = load ptr, ptr %13, align 8
  tail call void %14(ptr noundef nonnull align 8 dereferenceable(16) %3) #30
  %15 = load ptr, ptr %3, align 8, !tbaa !4
  %16 = getelementptr inbounds nuw i8, ptr %15, i64 24
  %17 = load ptr, ptr %16, align 8
  tail call void %17(ptr noundef nonnull align 8 dereferenceable(16) %3) #30
  br label %29

18:                                               ; preds = %5
  %19 = load i8, ptr @__libc_single_threaded, align 1, !tbaa !17
  %20 = icmp eq i8 %19, 0
  br i1 %20, label %23, label %21

21:                                               ; preds = %18
  %22 = add nsw i32 %9, -1
  store i32 %22, ptr %6, align 4, !tbaa !18
  br label %25

23:                                               ; preds = %18
  %24 = atomicrmw volatile add ptr %6, i32 -1 acq_rel, align 4
  br label %25

25:                                               ; preds = %23, %21
  %26 = phi i32 [ %9, %21 ], [ %24, %23 ]
  %27 = icmp eq i32 %26, 1
  br i1 %27, label %28, label %29, !prof !25

28:                                               ; preds = %25
  tail call void @_ZNSt16_Sp_counted_baseILN9__gnu_cxx12_Lock_policyE2EE24_M_release_last_use_coldEv(ptr noundef nonnull align 8 dereferenceable(16) %3) #30
  br label %29

29:                                               ; preds = %1, %10, %25, %28
  ret void
}

; Function Attrs: mustprogress nocallback nofree nosync nounwind willreturn memory(argmem: readwrite)
declare void @llvm.lifetime.end.p0(i64 immarg, ptr captures(none)) #3

; Function Attrs: mustprogress sspstrong uwtable
define hidden void @_ZN5osgeo4proj4util10BoxedValueC2Ev(ptr noundef nonnull align 8 captures(none) dereferenceable(24) initializes((0, 16)) %0) unnamed_addr #0 align 2 personality ptr @__gxx_personality_v0 {
  store ptr getelementptr inbounds nuw inrange(-16, 16) (i8, ptr @_ZTVN5osgeo4proj4util10BaseObjectE, i64 16), ptr %0, align 8, !tbaa !4
  %2 = getelementptr inbounds nuw i8, ptr %0, i64 8
  tail call void @llvm.experimental.noalias.scope.decl(metadata !40)
  %3 = tail call noalias noundef nonnull dereferenceable(16) ptr @_Znwm(i64 noundef 16) #29, !noalias !40
  tail call void @llvm.memset.p0.i64(ptr noundef nonnull align 8 dereferenceable(16) %3, i8 0, i64 16, i1 false), !noalias !40
  store ptr %3, ptr %2, align 8, !tbaa !10, !alias.scope !40
  store ptr getelementptr inbounds nuw inrange(-16, 16) (i8, ptr @_ZTVN5osgeo4proj4util10BoxedValueE, i64 16), ptr %0, align 8, !tbaa !4
  tail call void @llvm.experimental.noalias.scope.decl(metadata !43)
  %4 = invoke noalias noundef nonnull dereferenceable(48) ptr @_Znwm(i64 noundef 48) #29
          to label %5 unwind label %12

5:                                                ; preds = %1
  %6 = getelementptr inbounds nuw i8, ptr %0, i64 16
  store i32 0, ptr %4, align 8, !tbaa !46, !noalias !43
  %7 = getelementptr inbounds nuw i8, ptr %4, i64 8
  %8 = getelementptr inbounds nuw i8, ptr %4, i64 24
  store ptr %8, ptr %7, align 8, !tbaa !54, !noalias !43
  store i8 0, ptr %8, align 1, !tbaa !17, !noalias !43
  %9 = getelementptr inbounds nuw i8, ptr %4, i64 16
  store i64 0, ptr %9, align 8, !tbaa !55, !noalias !43
  %10 = getelementptr inbounds nuw i8, ptr %4, i64 40
  store i32 0, ptr %10, align 8, !tbaa !56, !noalias !43
  %11 = getelementptr inbounds nuw i8, ptr %4, i64 44
  store i8 0, ptr %11, align 4, !tbaa !57, !noalias !43
  store ptr %4, ptr %6, align 8, !tbaa !58, !alias.scope !43
  ret void

12:                                               ; preds = %1
  %13 = landingpad { ptr, i32 }
          cleanup
  tail call void @_ZN5osgeo4proj4util10BaseObjectD2Ev(ptr noundef nonnull align 8 dereferenceable(16) %0) #30
  resume { ptr, i32 } %13
}

; Function Attrs: mustprogress sspstrong uwtable
define void @_ZN5osgeo4proj4util10BoxedValueC2EPKc(ptr noundef nonnull align 8 captures(none) dereferenceable(24) initializes((0, 16)) %0, ptr noundef readonly captures(address_is_null) %1) unnamed_addr #0 align 2 personality ptr @__gxx_personality_v0 {
  %3 = alloca i64, align 8
  %4 = alloca i64, align 8
  %5 = alloca %"class.std::__cxx11::basic_string", align 8
  store ptr getelementptr inbounds nuw inrange(-16, 16) (i8, ptr @_ZTVN5osgeo4proj4util10BaseObjectE, i64 16), ptr %0, align 8, !tbaa !4
  %6 = getelementptr inbounds nuw i8, ptr %0, i64 8
  tail call void @llvm.experimental.noalias.scope.decl(metadata !60)
  %7 = tail call noalias noundef nonnull dereferenceable(16) ptr @_Znwm(i64 noundef 16) #29, !noalias !60
  tail call void @llvm.memset.p0.i64(ptr noundef nonnull align 8 dereferenceable(16) %7, i8 0, i64 16, i1 false), !noalias !60
  store ptr %7, ptr %6, align 8, !tbaa !10, !alias.scope !60
  store ptr getelementptr inbounds nuw inrange(-16, 16) (i8, ptr @_ZTVN5osgeo4proj4util10BoxedValueE, i64 16), ptr %0, align 8, !tbaa !4
  call void @llvm.lifetime.start.p0(i64 32, ptr nonnull %5) #30
  %8 = icmp eq ptr %1, null
  %9 = select i1 %8, ptr @.str, ptr %1
  %10 = getelementptr inbounds nuw i8, ptr %5, i64 16
  store ptr %10, ptr %5, align 8, !tbaa !54
  %11 = call noundef i64 @strlen(ptr noundef nonnull dereferenceable(1) %9) #30
  call void @llvm.lifetime.start.p0(i64 8, ptr nonnull %4) #30
  store i64 %11, ptr %4, align 8, !tbaa !63
  %12 = icmp ugt i64 %11, 15
  br i1 %12, label %13, label %17

13:                                               ; preds = %2
  %14 = invoke noundef ptr @_ZNSt7__cxx1112basic_stringIcSt11char_traitsIcESaIcEE9_M_createERmm(ptr noundef nonnull align 8 dereferenceable(32) %5, ptr noundef nonnull align 8 dereferenceable(8) %4, i64 noundef 0)
          to label %15 unwind label %63

15:                                               ; preds = %13
  store ptr %14, ptr %5, align 8, !tbaa !64
  %16 = load i64, ptr %4, align 8, !tbaa !63
  store i64 %16, ptr %10, align 8, !tbaa !17
  br label %17

17:                                               ; preds = %15, %2
  %18 = phi ptr [ %14, %15 ], [ %10, %2 ]
  switch i64 %11, label %21 [
    i64 1, label %19
    i64 0, label %22
  ]

19:                                               ; preds = %17
  %20 = load i8, ptr %9, align 1, !tbaa !17
  store i8 %20, ptr %18, align 1, !tbaa !17
  br label %22

21:                                               ; preds = %17
  call void @llvm.memcpy.p0.p0.i64(ptr align 1 %18, ptr nonnull align 1 %9, i64 %11, i1 false)
  br label %22

22:                                               ; preds = %21, %19, %17
  %23 = load i64, ptr %4, align 8, !tbaa !63
  %24 = getelementptr inbounds nuw i8, ptr %5, i64 8
  store i64 %23, ptr %24, align 8, !tbaa !55
  %25 = load ptr, ptr %5, align 8, !tbaa !64
  %26 = getelementptr inbounds nuw i8, ptr %25, i64 %23
  store i8 0, ptr %26, align 1, !tbaa !17
  call void @llvm.lifetime.end.p0(i64 8, ptr nonnull %4) #30
  %27 = getelementptr inbounds nuw i8, ptr %0, i64 16
  call void @llvm.experimental.noalias.scope.decl(metadata !65)
  %28 = invoke noalias noundef nonnull dereferenceable(48) ptr @_Znwm(i64 noundef 48) #29
          to label %29 unwind label %65

29:                                               ; preds = %22
  store i32 0, ptr %28, align 8, !tbaa !46, !noalias !65
  %30 = getelementptr inbounds nuw i8, ptr %28, i64 8
  %31 = getelementptr inbounds nuw i8, ptr %28, i64 24
  store ptr %31, ptr %30, align 8, !tbaa !54, !noalias !65
  %32 = load ptr, ptr %5, align 8, !tbaa !64, !noalias !65
  %33 = load i64, ptr %24, align 8, !tbaa !55, !noalias !65
  %34 = icmp ult i64 %33, 9223372036854775807
  call void @llvm.assume(i1 %34)
  call void @llvm.lifetime.start.p0(i64 8, ptr nonnull %3), !noalias !65
  store i64 %33, ptr %3, align 8, !tbaa !63, !noalias !65
  %35 = icmp samesign ugt i64 %33, 15
  br i1 %35, label %36, label %40

36:                                               ; preds = %29
  %37 = invoke noundef ptr @_ZNSt7__cxx1112basic_stringIcSt11char_traitsIcESaIcEE9_M_createERmm(ptr noundef nonnull align 8 dereferenceable(32) %30, ptr noundef nonnull align 8 dereferenceable(8) %3, i64 noundef 0)
          to label %38 unwind label %47, !noalias !65

38:                                               ; preds = %36
  store ptr %37, ptr %30, align 8, !tbaa !64, !noalias !65
  %39 = load i64, ptr %3, align 8, !tbaa !63, !noalias !65
  store i64 %39, ptr %31, align 8, !tbaa !17, !noalias !65
  br label %40

40:                                               ; preds = %38, %29
  %41 = phi i64 [ %39, %38 ], [ %33, %29 ]
  %42 = phi ptr [ %37, %38 ], [ %31, %29 ]
  switch i64 %41, label %45 [
    i64 0, label %43
    i64 -1, label %49
  ]

43:                                               ; preds = %40
  %44 = load i8, ptr %32, align 1, !tbaa !17, !noalias !65
  store i8 %44, ptr %42, align 1, !tbaa !17, !noalias !65
  br label %49

45:                                               ; preds = %40
  %46 = add nuw i64 %41, 1
  call void @llvm.memcpy.p0.p0.i64(ptr noundef nonnull align 1 dereferenceable(1) %42, ptr noundef nonnull align 1 dereferenceable(1) %32, i64 %46, i1 false), !noalias !65
  br label %49

47:                                               ; preds = %36
  %48 = landingpad { ptr, i32 }
          cleanup
  call void @_ZdlPvm(ptr noundef nonnull %28, i64 noundef 48) #31, !noalias !65
  br label %67

49:                                               ; preds = %45, %43, %40
  %50 = load i64, ptr %3, align 8, !tbaa !63, !noalias !65
  %51 = getelementptr inbounds nuw i8, ptr %28, i64 16
  store i64 %50, ptr %51, align 8, !tbaa !55, !noalias !65
  call void @llvm.lifetime.end.p0(i64 8, ptr nonnull %3), !noalias !65
  %52 = getelementptr inbounds nuw i8, ptr %28, i64 40
  store i32 0, ptr %52, align 8, !tbaa !56, !noalias !65
  %53 = getelementptr inbounds nuw i8, ptr %28, i64 44
  store i8 0, ptr %53, align 4, !tbaa !57, !noalias !65
  store ptr %28, ptr %27, align 8, !tbaa !58, !alias.scope !65
  %54 = load ptr, ptr %5, align 8, !tbaa !64
  %55 = icmp eq ptr %54, %10
  br i1 %55, label %56, label %59

56:                                               ; preds = %49
  %57 = load i64, ptr %24, align 8, !tbaa !55
  %58 = icmp ult i64 %57, 16
  call void @llvm.assume(i1 %58)
  br label %62

59:                                               ; preds = %49
  %60 = load i64, ptr %10, align 8, !tbaa !17
  %61 = add i64 %60, 1
  call void @_ZdlPvm(ptr noundef %54, i64 noundef %61) #31
  br label %62

62:                                               ; preds = %56, %59
  call void @llvm.lifetime.end.p0(i64 32, ptr nonnull %5) #30
  ret void

63:                                               ; preds = %13
  %64 = landingpad { ptr, i32 }
          cleanup
  br label %77

65:                                               ; preds = %22
  %66 = landingpad { ptr, i32 }
          cleanup
  br label %67

67:                                               ; preds = %47, %65
  %68 = phi { ptr, i32 } [ %66, %65 ], [ %48, %47 ]
  %69 = load ptr, ptr %5, align 8, !tbaa !64
  %70 = icmp eq ptr %69, %10
  br i1 %70, label %71, label %74

71:                                               ; preds = %67
  %72 = load i64, ptr %24, align 8, !tbaa !55
  %73 = icmp ult i64 %72, 16
  call void @llvm.assume(i1 %73)
  br label %77

74:                                               ; preds = %67
  %75 = load i64, ptr %10, align 8, !tbaa !17
  %76 = add i64 %75, 1
  call void @_ZdlPvm(ptr noundef %69, i64 noundef %76) #31
  br label %77

77:                                               ; preds = %74, %71, %63
  %78 = phi { ptr, i32 } [ %64, %63 ], [ %68, %71 ], [ %68, %74 ]
  call void @llvm.lifetime.end.p0(i64 32, ptr nonnull %5) #30
  call void @_ZN5osgeo4proj4util10BaseObjectD2Ev(ptr noundef nonnull align 8 dereferenceable(16) %0) #30
  resume { ptr, i32 } %78
}

; Function Attrs: mustprogress sspstrong uwtable
define void @_ZN5osgeo4proj4util10BoxedValueC2ERKNSt7__cxx1112basic_stringIcSt11char_traitsIcESaIcEEE(ptr noundef nonnull align 8 captures(none) dereferenceable(24) initializes((0, 16)) %0, ptr noundef nonnull readonly align 8 captures(none) dereferenceable(32) %1) unnamed_addr #0 align 2 personality ptr @__gxx_personality_v0 {
  %3 = alloca i64, align 8
  store ptr getelementptr inbounds nuw inrange(-16, 16) (i8, ptr @_ZTVN5osgeo4proj4util10BaseObjectE, i64 16), ptr %0, align 8, !tbaa !4
  %4 = getelementptr inbounds nuw i8, ptr %0, i64 8
  tail call void @llvm.experimental.noalias.scope.decl(metadata !68)
  %5 = tail call noalias noundef nonnull dereferenceable(16) ptr @_Znwm(i64 noundef 16) #29, !noalias !68
  tail call void @llvm.memset.p0.i64(ptr noundef nonnull align 8 dereferenceable(16) %5, i8 0, i64 16, i1 false), !noalias !68
  store ptr %5, ptr %4, align 8, !tbaa !10, !alias.scope !68
  store ptr getelementptr inbounds nuw inrange(-16, 16) (i8, ptr @_ZTVN5osgeo4proj4util10BoxedValueE, i64 16), ptr %0, align 8, !tbaa !4
  tail call void @llvm.experimental.noalias.scope.decl(metadata !71)
  %6 = invoke noalias noundef nonnull dereferenceable(48) ptr @_Znwm(i64 noundef 48) #29
          to label %7 unwind label %34

7:                                                ; preds = %2
  store i32 0, ptr %6, align 8, !tbaa !46, !noalias !71
  %8 = getelementptr inbounds nuw i8, ptr %6, i64 8
  %9 = getelementptr inbounds nuw i8, ptr %6, i64 24
  store ptr %9, ptr %8, align 8, !tbaa !54, !noalias !71
  %10 = load ptr, ptr %1, align 8, !tbaa !64, !noalias !71
  %11 = getelementptr inbounds nuw i8, ptr %1, i64 8
  %12 = load i64, ptr %11, align 8, !tbaa !55, !noalias !71
  %13 = icmp ult i64 %12, 9223372036854775807
  tail call void @llvm.assume(i1 %13)
  call void @llvm.lifetime.start.p0(i64 8, ptr nonnull %3), !noalias !71
  store i64 %12, ptr %3, align 8, !tbaa !63, !noalias !71
  %14 = icmp samesign ugt i64 %12, 15
  br i1 %14, label %15, label %19

15:                                               ; preds = %7
  %16 = invoke noundef ptr @_ZNSt7__cxx1112basic_stringIcSt11char_traitsIcESaIcEE9_M_createERmm(ptr noundef nonnull align 8 dereferenceable(32) %8, ptr noundef nonnull align 8 dereferenceable(8) %3, i64 noundef 0)
          to label %17 unwind label %26, !noalias !71

17:                                               ; preds = %15
  store ptr %16, ptr %8, align 8, !tbaa !64, !noalias !71
  %18 = load i64, ptr %3, align 8, !tbaa !63, !noalias !71
  store i64 %18, ptr %9, align 8, !tbaa !17, !noalias !71
  br label %19

19:                                               ; preds = %17, %7
  %20 = phi i64 [ %18, %17 ], [ %12, %7 ]
  %21 = phi ptr [ %16, %17 ], [ %9, %7 ]
  switch i64 %20, label %24 [
    i64 0, label %22
    i64 -1, label %28
  ]

22:                                               ; preds = %19
  %23 = load i8, ptr %10, align 1, !tbaa !17, !noalias !71
  store i8 %23, ptr %21, align 1, !tbaa !17, !noalias !71
  br label %28

24:                                               ; preds = %19
  %25 = add nuw i64 %20, 1
  call void @llvm.memcpy.p0.p0.i64(ptr noundef nonnull align 1 dereferenceable(1) %21, ptr noundef nonnull align 1 dereferenceable(1) %10, i64 %25, i1 false), !noalias !71
  br label %28

26:                                               ; preds = %15
  %27 = landingpad { ptr, i32 }
          cleanup
  call void @_ZdlPvm(ptr noundef nonnull %6, i64 noundef 48) #31, !noalias !71
  br label %36

28:                                               ; preds = %24, %22, %19
  %29 = getelementptr inbounds nuw i8, ptr %0, i64 16
  %30 = load i64, ptr %3, align 8, !tbaa !63, !noalias !71
  %31 = getelementptr inbounds nuw i8, ptr %6, i64 16
  store i64 %30, ptr %31, align 8, !tbaa !55, !noalias !71
  call void @llvm.lifetime.end.p0(i64 8, ptr nonnull %3), !noalias !71
  %32 = getelementptr inbounds nuw i8, ptr %6, i64 40
  store i32 0, ptr %32, align 8, !tbaa !56, !noalias !71
  %33 = getelementptr inbounds nuw i8, ptr %6, i64 44
  store i8 0, ptr %33, align 4, !tbaa !57, !noalias !71
  store ptr %6, ptr %29, align 8, !tbaa !58, !alias.scope !71
  ret void

34:                                               ; preds = %2
  %35 = landingpad { ptr, i32 }
          cleanup
  br label %36

36:                                               ; preds = %26, %34
  %37 = phi { ptr, i32 } [ %35, %34 ], [ %27, %26 ]
  call void @_ZN5osgeo4proj4util10BaseObjectD2Ev(ptr noundef nonnull align 8 dereferenceable(16) %0) #30
  resume { ptr, i32 } %37
}

; Function Attrs: mustprogress sspstrong uwtable
define void @_ZN5osgeo4proj4util10BoxedValueC2Ei(ptr noundef nonnull align 8 captures(none) dereferenceable(24) initializes((0, 16)) %0, i32 noundef %1) unnamed_addr #0 align 2 personality ptr @__gxx_personality_v0 {
  store ptr getelementptr inbounds nuw inrange(-16, 16) (i8, ptr @_ZTVN5osgeo4proj4util10BaseObjectE, i64 16), ptr %0, align 8, !tbaa !4
  %3 = getelementptr inbounds nuw i8, ptr %0, i64 8
  tail call void @llvm.experimental.noalias.scope.decl(metadata !74)
  %4 = tail call noalias noundef nonnull dereferenceable(16) ptr @_Znwm(i64 noundef 16) #29, !noalias !74
  tail call void @llvm.memset.p0.i64(ptr noundef nonnull align 8 dereferenceable(16) %4, i8 0, i64 16, i1 false), !noalias !74
  store ptr %4, ptr %3, align 8, !tbaa !10, !alias.scope !74
  store ptr getelementptr inbounds nuw inrange(-16, 16) (i8, ptr @_ZTVN5osgeo4proj4util10BoxedValueE, i64 16), ptr %0, align 8, !tbaa !4
  tail call void @llvm.experimental.noalias.scope.decl(metadata !77)
  %5 = invoke noalias noundef nonnull dereferenceable(48) ptr @_Znwm(i64 noundef 48) #29
          to label %6 unwind label %13

6:                                                ; preds = %2
  %7 = getelementptr inbounds nuw i8, ptr %0, i64 16
  store i32 1, ptr %5, align 8, !tbaa !46, !noalias !77
  %8 = getelementptr inbounds nuw i8, ptr %5, i64 8
  %9 = getelementptr inbounds nuw i8, ptr %5, i64 24
  store ptr %9, ptr %8, align 8, !tbaa !54, !noalias !77
  %10 = getelementptr inbounds nuw i8, ptr %5, i64 16
  store i64 0, ptr %10, align 8, !tbaa !55, !noalias !77
  store i8 0, ptr %9, align 1, !tbaa !17, !noalias !77
  %11 = getelementptr inbounds nuw i8, ptr %5, i64 40
  store i32 %1, ptr %11, align 8, !tbaa !56, !noalias !77
  %12 = getelementptr inbounds nuw i8, ptr %5, i64 44
  store i8 0, ptr %12, align 4, !tbaa !57, !noalias !77
  store ptr %5, ptr %7, align 8, !tbaa !58, !alias.scope !77
  ret void

13:                                               ; preds = %2
  %14 = landingpad { ptr, i32 }
          cleanup
  tail call void @_ZN5osgeo4proj4util10BaseObjectD2Ev(ptr noundef nonnull align 8 dereferenceable(16) %0) #30
  resume { ptr, i32 } %14
}

; Function Attrs: mustprogress sspstrong uwtable
define void @_ZN5osgeo4proj4util10BoxedValueC2Eb(ptr noundef nonnull align 8 captures(none) dereferenceable(24) initializes((0, 16)) %0, i1 noundef zeroext %1) unnamed_addr #0 align 2 personality ptr @__gxx_personality_v0 {
  store ptr getelementptr inbounds nuw inrange(-16, 16) (i8, ptr @_ZTVN5osgeo4proj4util10BaseObjectE, i64 16), ptr %0, align 8, !tbaa !4
  %3 = getelementptr inbounds nuw i8, ptr %0, i64 8
  tail call void @llvm.experimental.noalias.scope.decl(metadata !80)
  %4 = tail call noalias noundef nonnull dereferenceable(16) ptr @_Znwm(i64 noundef 16) #29, !noalias !80
  tail call void @llvm.memset.p0.i64(ptr noundef nonnull align 8 dereferenceable(16) %4, i8 0, i64 16, i1 false), !noalias !80
  store ptr %4, ptr %3, align 8, !tbaa !10, !alias.scope !80
  store ptr getelementptr inbounds nuw inrange(-16, 16) (i8, ptr @_ZTVN5osgeo4proj4util10BoxedValueE, i64 16), ptr %0, align 8, !tbaa !4
  tail call void @llvm.experimental.noalias.scope.decl(metadata !83)
  %5 = invoke noalias noundef nonnull dereferenceable(48) ptr @_Znwm(i64 noundef 48) #29
          to label %6 unwind label %14

6:                                                ; preds = %2
  %7 = getelementptr inbounds nuw i8, ptr %0, i64 16
  %8 = zext i1 %1 to i8
  store i32 2, ptr %5, align 8, !tbaa !46, !noalias !83
  %9 = getelementptr inbounds nuw i8, ptr %5, i64 8
  %10 = getelementptr inbounds nuw i8, ptr %5, i64 24
  store ptr %10, ptr %9, align 8, !tbaa !54, !noalias !83
  %11 = getelementptr inbounds nuw i8, ptr %5, i64 16
  store i64 0, ptr %11, align 8, !tbaa !55, !noalias !83
  store i8 0, ptr %10, align 1, !tbaa !17, !noalias !83
  %12 = getelementptr inbounds nuw i8, ptr %5, i64 40
  store i32 0, ptr %12, align 8, !tbaa !56, !noalias !83
  %13 = getelementptr inbounds nuw i8, ptr %5, i64 44
  store i8 %8, ptr %13, align 4, !tbaa !57, !noalias !83
  store ptr %5, ptr %7, align 8, !tbaa !58, !alias.scope !83
  ret void

14:                                               ; preds = %2
  %15 = landingpad { ptr, i32 }
          cleanup
  tail call void @_ZN5osgeo4proj4util10BaseObjectD2Ev(ptr noundef nonnull align 8 dereferenceable(16) %0) #30
  resume { ptr, i32 } %15
}

; Function Attrs: mustprogress sspstrong uwtable
define hidden void @_ZN5osgeo4proj4util10BoxedValueC2ERKS2_(ptr noundef nonnull align 8 captures(none) dereferenceable(24) initializes((0, 16)) %0, ptr noundef nonnull readonly align 8 captures(none) dereferenceable(24) %1) unnamed_addr #0 align 2 personality ptr @__gxx_personality_v0 {
  %3 = alloca i64, align 8
  store ptr getelementptr inbounds nuw inrange(-16, 16) (i8, ptr @_ZTVN5osgeo4proj4util10BaseObjectE, i64 16), ptr %0, align 8, !tbaa !4
  %4 = getelementptr inbounds nuw i8, ptr %0, i64 8
  tail call void @llvm.experimental.noalias.scope.decl(metadata !86)
  %5 = tail call noalias noundef nonnull dereferenceable(16) ptr @_Znwm(i64 noundef 16) #29, !noalias !86
  tail call void @llvm.memset.p0.i64(ptr noundef nonnull align 8 dereferenceable(16) %5, i8 0, i64 16, i1 false), !noalias !86
  store ptr %5, ptr %4, align 8, !tbaa !10, !alias.scope !86
  store ptr getelementptr inbounds nuw inrange(-16, 16) (i8, ptr @_ZTVN5osgeo4proj4util10BoxedValueE, i64 16), ptr %0, align 8, !tbaa !4
  %6 = getelementptr inbounds nuw i8, ptr %1, i64 16
  %7 = load ptr, ptr %6, align 8, !tbaa !58
  tail call void @llvm.experimental.noalias.scope.decl(metadata !89)
  %8 = invoke noalias noundef nonnull dereferenceable(48) ptr @_Znwm(i64 noundef 48) #29
          to label %9 unwind label %38

9:                                                ; preds = %2
  %10 = load i32, ptr %7, align 8, !tbaa !46, !noalias !89
  store i32 %10, ptr %8, align 8, !tbaa !46, !noalias !89
  %11 = getelementptr inbounds nuw i8, ptr %8, i64 8
  %12 = getelementptr inbounds nuw i8, ptr %7, i64 8
  %13 = getelementptr inbounds nuw i8, ptr %8, i64 24
  store ptr %13, ptr %11, align 8, !tbaa !54, !noalias !89
  %14 = load ptr, ptr %12, align 8, !tbaa !64, !noalias !89
  %15 = getelementptr inbounds nuw i8, ptr %7, i64 16
  %16 = load i64, ptr %15, align 8, !tbaa !55, !noalias !89
  %17 = icmp ult i64 %16, 9223372036854775807
  tail call void @llvm.assume(i1 %17)
  call void @llvm.lifetime.start.p0(i64 8, ptr nonnull %3), !noalias !89
  store i64 %16, ptr %3, align 8, !tbaa !63, !noalias !89
  %18 = icmp samesign ugt i64 %16, 15
  br i1 %18, label %19, label %23

19:                                               ; preds = %9
  %20 = invoke noundef ptr @_ZNSt7__cxx1112basic_stringIcSt11char_traitsIcESaIcEE9_M_createERmm(ptr noundef nonnull align 8 dereferenceable(32) %11, ptr noundef nonnull align 8 dereferenceable(8) %3, i64 noundef 0)
          to label %21 unwind label %30, !noalias !89

21:                                               ; preds = %19
  store ptr %20, ptr %11, align 8, !tbaa !64, !noalias !89
  %22 = load i64, ptr %3, align 8, !tbaa !63, !noalias !89
  store i64 %22, ptr %13, align 8, !tbaa !17, !noalias !89
  br label %23

23:                                               ; preds = %21, %9
  %24 = phi i64 [ %22, %21 ], [ %16, %9 ]
  %25 = phi ptr [ %20, %21 ], [ %13, %9 ]
  switch i64 %24, label %28 [
    i64 0, label %26
    i64 -1, label %32
  ]

26:                                               ; preds = %23
  %27 = load i8, ptr %14, align 1, !tbaa !17, !noalias !89
  store i8 %27, ptr %25, align 1, !tbaa !17, !noalias !89
  br label %32

28:                                               ; preds = %23
  %29 = add nuw i64 %24, 1
  call void @llvm.memcpy.p0.p0.i64(ptr noundef nonnull align 1 dereferenceable(1) %25, ptr noundef nonnull align 1 dereferenceable(1) %14, i64 %29, i1 false), !noalias !89
  br label %32

30:                                               ; preds = %19
  %31 = landingpad { ptr, i32 }
          cleanup
  call void @_ZdlPvm(ptr noundef nonnull %8, i64 noundef 48) #31, !noalias !89
  br label %40

32:                                               ; preds = %28, %26, %23
  %33 = getelementptr inbounds nuw i8, ptr %0, i64 16
  %34 = load i64, ptr %3, align 8, !tbaa !63, !noalias !89
  %35 = getelementptr inbounds nuw i8, ptr %8, i64 16
  store i64 %34, ptr %35, align 8, !tbaa !55, !noalias !89
  call void @llvm.lifetime.end.p0(i64 8, ptr nonnull %3), !noalias !89
  %36 = getelementptr inbounds nuw i8, ptr %8, i64 40
  %37 = getelementptr inbounds nuw i8, ptr %7, i64 40
  call void @llvm.memcpy.p0.p0.i64(ptr noundef nonnull align 8 dereferenceable(5) %36, ptr noundef nonnull align 8 dereferenceable(5) %37, i64 5, i1 false), !noalias !89
  store ptr %8, ptr %33, align 8, !tbaa !58, !alias.scope !89
  ret void

38:                                               ; preds = %2
  %39 = landingpad { ptr, i32 }
          cleanup
  br label %40

40:                                               ; preds = %30, %38
  %41 = phi { ptr, i32 } [ %39, %38 ], [ %31, %30 ]
  call void @_ZN5osgeo4proj4util10BaseObjectD2Ev(ptr noundef nonnull align 8 dereferenceable(16) %0) #30
  resume { ptr, i32 } %41
}

; Function Attrs: mustprogress nounwind sspstrong uwtable
define void @_ZN5osgeo4proj4util10BoxedValueD2Ev(ptr noundef nonnull align 8 captures(none) dereferenceable(24) initializes((0, 8)) %0) unnamed_addr #1 align 2 personality ptr @__gxx_personality_v0 {
  %2 = getelementptr inbounds nuw i8, ptr %0, i64 16
  %3 = load ptr, ptr %2, align 8, !tbaa !58
  %4 = icmp eq ptr %3, null
  br i1 %4, label %18, label %5

5:                                                ; preds = %1
  %6 = getelementptr inbounds nuw i8, ptr %3, i64 8
  %7 = load ptr, ptr %6, align 8, !tbaa !64
  %8 = getelementptr inbounds nuw i8, ptr %3, i64 24
  %9 = icmp eq ptr %7, %8
  br i1 %9, label %10, label %14

10:                                               ; preds = %5
  %11 = getelementptr inbounds nuw i8, ptr %3, i64 16
  %12 = load i64, ptr %11, align 8, !tbaa !55
  %13 = icmp ult i64 %12, 16
  tail call void @llvm.assume(i1 %13)
  br label %17

14:                                               ; preds = %5
  %15 = load i64, ptr %8, align 8, !tbaa !17
  %16 = add i64 %15, 1
  tail call void @_ZdlPvm(ptr noundef %7, i64 noundef %16) #31
  br label %17

17:                                               ; preds = %14, %10
  tail call void @_ZdlPvm(ptr noundef nonnull %3, i64 noundef 48) #31
  br label %18

18:                                               ; preds = %1, %17
  store ptr null, ptr %2, align 8, !tbaa !58
  store ptr getelementptr inbounds nuw inrange(-16, 16) (i8, ptr @_ZTVN5osgeo4proj4util10BaseObjectE, i64 16), ptr %0, align 8, !tbaa !4
  %19 = getelementptr inbounds nuw i8, ptr %0, i64 8
  %20 = load ptr, ptr %19, align 8, !tbaa !10
  %21 = icmp eq ptr %20, null
  br i1 %21, label %43, label %22

22:                                               ; preds = %18
  %23 = getelementptr inbounds nuw i8, ptr %20, i64 8
  %24 = load ptr, ptr %23, align 8, !tbaa !14
  %25 = icmp eq ptr %24, null
  br i1 %25, label %42, label %26

26:                                               ; preds = %22
  %27 = getelementptr inbounds nuw i8, ptr %24, i64 12
  %28 = load i8, ptr @__libc_single_threaded, align 1, !tbaa !17
  %29 = icmp eq i8 %28, 0
  br i1 %29, label %33, label %30

30:                                               ; preds = %26
  %31 = load i32, ptr %27, align 4, !tbaa !18
  %32 = add nsw i32 %31, -1
  store i32 %32, ptr %27, align 4, !tbaa !18
  br label %35

33:                                               ; preds = %26
  %34 = atomicrmw volatile add ptr %27, i32 -1 acq_rel, align 4
  br label %35

35:                                               ; preds = %33, %30
  %36 = phi i32 [ %31, %30 ], [ %34, %33 ]
  %37 = icmp eq i32 %36, 1
  br i1 %37, label %38, label %42

38:                                               ; preds = %35
  %39 = load ptr, ptr %24, align 8, !tbaa !4
  %40 = getelementptr inbounds nuw i8, ptr %39, i64 24
  %41 = load ptr, ptr %40, align 8
  tail call void %41(ptr noundef nonnull align 8 dereferenceable(16) %24) #30
  br label %42

42:                                               ; preds = %38, %35, %22
  tail call void @_ZdlPvm(ptr noundef nonnull %20, i64 noundef 16) #31
  br label %43

43:                                               ; preds = %18, %42
  store ptr null, ptr %19, align 8, !tbaa !10
  ret void
}

; Function Attrs: mustprogress nounwind sspstrong uwtable
define void @_ZN5osgeo4proj4util10BoxedValueD0Ev(ptr noundef nonnull align 8 dereferenceable(24) %0) unnamed_addr #1 align 2 {
  tail call void @_ZN5osgeo4proj4util10BoxedValueD1Ev(ptr noundef nonnull align 8 dereferenceable(24) %0) #30
  tail call void @_ZdlPvm(ptr noundef nonnull %0, i64 noundef 24) #31
  ret void
}

; Function Attrs: mustprogress nofree norecurse nosync nounwind sspstrong willreturn memory(argmem: read) uwtable
define hidden noundef nonnull align 4 dereferenceable(4) ptr @_ZNK5osgeo4proj4util10BoxedValue4typeEv(ptr noundef nonnull readonly align 8 captures(none) dereferenceable(24) %0) local_unnamed_addr #4 align 2 {
  %2 = getelementptr inbounds nuw i8, ptr %0, i64 16
  %3 = load ptr, ptr %2, align 8, !tbaa !58
  ret ptr %3
}

; Function Attrs: mustprogress nofree norecurse nosync nounwind sspstrong willreturn memory(argmem: read) uwtable
define hidden noundef nonnull align 8 dereferenceable(32) ptr @_ZNK5osgeo4proj4util10BoxedValue11stringValueB5cxx11Ev(ptr noundef nonnull readonly align 8 captures(none) dereferenceable(24) %0) local_unnamed_addr #4 align 2 {
  %2 = getelementptr inbounds nuw i8, ptr %0, i64 16
  %3 = load ptr, ptr %2, align 8, !tbaa !58
  %4 = getelementptr inbounds nuw i8, ptr %3, i64 8
  ret ptr %4
}

; Function Attrs: mustprogress nofree norecurse nosync nounwind sspstrong willreturn memory(read, inaccessiblemem: none) uwtable
define hidden noundef i32 @_ZNK5osgeo4proj4util10BoxedValue12integerValueEv(ptr noundef nonnull readonly align 8 captures(none) dereferenceable(24) %0) local_unnamed_addr #5 align 2 {
  %2 = getelementptr inbounds nuw i8, ptr %0, i64 16
  %3 = load ptr, ptr %2, align 8, !tbaa !58
  %4 = getelementptr inbounds nuw i8, ptr %3, i64 40
  %5 = load i32, ptr %4, align 8, !tbaa !56
  ret i32 %5
}

; Function Attrs: mustprogress nofree norecurse nosync nounwind sspstrong willreturn memory(read, inaccessiblemem: none) uwtable
define hidden noundef zeroext i1 @_ZNK5osgeo4proj4util10BoxedValue12booleanValueEv(ptr noundef nonnull readonly align 8 captures(none) dereferenceable(24) %0) local_unnamed_addr #5 align 2 {
  %2 = getelementptr inbounds nuw i8, ptr %0, i64 16
  %3 = load ptr, ptr %2, align 8, !tbaa !58
  %4 = getelementptr inbounds nuw i8, ptr %3, i64 44
  %5 = load i8, ptr %4, align 4, !tbaa !57, !range !92, !noundef !93
  %6 = trunc nuw i8 %5 to i1
  ret i1 %6
}

; Function Attrs: mustprogress sspstrong uwtable
define hidden void @_ZN5osgeo4proj4util17ArrayOfBaseObjectC2Ev(ptr noundef nonnull align 8 captures(none) dereferenceable(24) initializes((0, 16)) %0) unnamed_addr #0 align 2 personality ptr @__gxx_personality_v0 {
  store ptr getelementptr inbounds nuw inrange(-16, 16) (i8, ptr @_ZTVN5osgeo4proj4util10BaseObjectE, i64 16), ptr %0, align 8, !tbaa !4
  %2 = getelementptr inbounds nuw i8, ptr %0, i64 8
  tail call void @llvm.experimental.noalias.scope.decl(metadata !94)
  %3 = tail call noalias noundef nonnull dereferenceable(16) ptr @_Znwm(i64 noundef 16) #29, !noalias !94
  tail call void @llvm.memset.p0.i64(ptr noundef nonnull align 8 dereferenceable(16) %3, i8 0, i64 16, i1 false), !noalias !94
  store ptr %3, ptr %2, align 8, !tbaa !10, !alias.scope !94
  store ptr getelementptr inbounds nuw inrange(-16, 16) (i8, ptr @_ZTVN5osgeo4proj4util17ArrayOfBaseObjectE, i64 16), ptr %0, align 8, !tbaa !4
  tail call void @llvm.experimental.noalias.scope.decl(metadata !97)
  %4 = invoke noalias noundef nonnull dereferenceable(24) ptr @_Znwm(i64 noundef 24) #29
          to label %5 unwind label %7

5:                                                ; preds = %1
  %6 = getelementptr inbounds nuw i8, ptr %0, i64 16
  tail call void @llvm.memset.p0.i64(ptr noundef nonnull align 8 dereferenceable(24) %4, i8 0, i64 24, i1 false), !noalias !97
  store ptr %4, ptr %6, align 8, !tbaa !100, !alias.scope !97
  ret void

7:                                                ; preds = %1
  %8 = landingpad { ptr, i32 }
          cleanup
  tail call void @_ZN5osgeo4proj4util10BaseObjectD2Ev(ptr noundef nonnull align 8 dereferenceable(16) %0) #30
  resume { ptr, i32 } %8
}

; Function Attrs: mustprogress nounwind sspstrong uwtable
define void @_ZN5osgeo4proj4util17ArrayOfBaseObjectD2Ev(ptr noundef nonnull align 8 captures(none) dereferenceable(24) %0) unnamed_addr #1 align 2 personality ptr @__gxx_personality_v0 {
  %2 = getelementptr inbounds nuw i8, ptr %0, i64 16
  %3 = load ptr, ptr %2, align 8, !tbaa !100
  %4 = icmp eq ptr %3, null
  br i1 %4, label %26, label %5

5:                                                ; preds = %1
  %6 = load ptr, ptr %3, align 8, !tbaa !102
  %7 = getelementptr inbounds nuw i8, ptr %3, i64 8
  %8 = load ptr, ptr %7, align 8, !tbaa !105
  %9 = icmp eq ptr %6, %8
  br i1 %9, label %16, label %10

10:                                               ; preds = %5, %10
  %11 = phi ptr [ %12, %10 ], [ %6, %5 ]
  tail call void @_ZN5osgeo4proj4util15BaseObjectNNPtrD1Ev(ptr noundef nonnull align 8 dereferenceable(16) %11) #30
  %12 = getelementptr inbounds nuw i8, ptr %11, i64 16
  %13 = icmp eq ptr %12, %8
  br i1 %13, label %14, label %10, !llvm.loop !106

14:                                               ; preds = %10
  %15 = load ptr, ptr %3, align 8, !tbaa !102
  br label %16

16:                                               ; preds = %14, %5
  %17 = phi ptr [ %15, %14 ], [ %6, %5 ]
  %18 = icmp eq ptr %17, null
  br i1 %18, label %25, label %19

19:                                               ; preds = %16
  %20 = getelementptr inbounds nuw i8, ptr %3, i64 16
  %21 = load ptr, ptr %20, align 8, !tbaa !107
  %22 = ptrtoint ptr %21 to i64
  %23 = ptrtoint ptr %17 to i64
  %24 = sub i64 %22, %23
  tail call void @_ZdlPvm(ptr noundef nonnull %17, i64 noundef %24) #31
  br label %25

25:                                               ; preds = %19, %16
  tail call void @_ZdlPvm(ptr noundef nonnull %3, i64 noundef 24) #31
  br label %26

26:                                               ; preds = %1, %25
  store ptr null, ptr %2, align 8, !tbaa !100
  store ptr getelementptr inbounds nuw inrange(-16, 16) (i8, ptr @_ZTVN5osgeo4proj4util10BaseObjectE, i64 16), ptr %0, align 8, !tbaa !4
  %27 = getelementptr inbounds nuw i8, ptr %0, i64 8
  %28 = load ptr, ptr %27, align 8, !tbaa !10
  %29 = icmp eq ptr %28, null
  br i1 %29, label %51, label %30

30:                                               ; preds = %26
  %31 = getelementptr inbounds nuw i8, ptr %28, i64 8
  %32 = load ptr, ptr %31, align 8, !tbaa !14
  %33 = icmp eq ptr %32, null
  br i1 %33, label %50, label %34

34:                                               ; preds = %30
  %35 = getelementptr inbounds nuw i8, ptr %32, i64 12
  %36 = load i8, ptr @__libc_single_threaded, align 1, !tbaa !17
  %37 = icmp eq i8 %36, 0
  br i1 %37, label %41, label %38

38:                                               ; preds = %34
  %39 = load i32, ptr %35, align 4, !tbaa !18
  %40 = add nsw i32 %39, -1
  store i32 %40, ptr %35, align 4, !tbaa !18
  br label %43

41:                                               ; preds = %34
  %42 = atomicrmw volatile add ptr %35, i32 -1 acq_rel, align 4
  br label %43

43:                                               ; preds = %41, %38
  %44 = phi i32 [ %39, %38 ], [ %42, %41 ]
  %45 = icmp eq i32 %44, 1
  br i1 %45, label %46, label %50

46:                                               ; preds = %43
  %47 = load ptr, ptr %32, align 8, !tbaa !4
  %48 = getelementptr inbounds nuw i8, ptr %47, i64 24
  %49 = load ptr, ptr %48, align 8
  tail call void %49(ptr noundef nonnull align 8 dereferenceable(16) %32) #30
  br label %50

50:                                               ; preds = %46, %43, %30
  tail call void @_ZdlPvm(ptr noundef nonnull %28, i64 noundef 16) #31
  br label %51

51:                                               ; preds = %26, %50
  store ptr null, ptr %27, align 8, !tbaa !10
  ret void
}

; Function Attrs: mustprogress nounwind sspstrong uwtable
define void @_ZN5osgeo4proj4util17ArrayOfBaseObjectD0Ev(ptr noundef nonnull align 8 dereferenceable(24) %0) unnamed_addr #1 align 2 {
  tail call void @_ZN5osgeo4proj4util17ArrayOfBaseObjectD1Ev(ptr noundef nonnull align 8 dereferenceable(24) %0) #30
  tail call void @_ZdlPvm(ptr noundef nonnull %0, i64 noundef 24) #31
  ret void
}

; Function Attrs: mustprogress sspstrong uwtable
define void @_ZN5osgeo4proj4util17ArrayOfBaseObject3addERKNS1_15BaseObjectNNPtrE(ptr noundef nonnull readonly align 8 captures(none) dereferenceable(24) %0, ptr noundef nonnull align 8 dereferenceable(16) %1) local_unnamed_addr #0 align 2 personality ptr @__gxx_personality_v0 {
  %3 = getelementptr inbounds nuw i8, ptr %0, i64 16
  %4 = load ptr, ptr %3, align 8, !tbaa !100
  %5 = getelementptr inbounds nuw i8, ptr %4, i64 8
  %6 = load ptr, ptr %5, align 8, !tbaa !105
  %7 = getelementptr inbounds nuw i8, ptr %4, i64 16
  %8 = load ptr, ptr %7, align 8, !tbaa !107
  %9 = icmp eq ptr %6, %8
  br i1 %9, label %29, label %10

10:                                               ; preds = %2
  %11 = load ptr, ptr %1, align 8, !tbaa !28
  store ptr %11, ptr %6, align 8, !tbaa !28
  %12 = getelementptr inbounds nuw i8, ptr %6, i64 8
  %13 = getelementptr inbounds nuw i8, ptr %1, i64 8
  %14 = load ptr, ptr %13, align 8, !tbaa !20
  store ptr %14, ptr %12, align 8, !tbaa !20
  %15 = icmp eq ptr %14, null
  br i1 %15, label %26, label %16

16:                                               ; preds = %10
  %17 = getelementptr inbounds nuw i8, ptr %14, i64 8
  %18 = load i8, ptr @__libc_single_threaded, align 1, !tbaa !17
  %19 = icmp eq i8 %18, 0
  br i1 %19, label %23, label %20

20:                                               ; preds = %16
  %21 = load i32, ptr %17, align 4, !tbaa !18
  %22 = add nsw i32 %21, 1
  store i32 %22, ptr %17, align 4, !tbaa !18
  br label %26

23:                                               ; preds = %16
  %24 = atomicrmw volatile add ptr %17, i32 1 acq_rel, align 4
  %25 = load ptr, ptr %5, align 8, !tbaa !105
  br label %26

26:                                               ; preds = %23, %20, %10
  %27 = phi ptr [ %6, %10 ], [ %6, %20 ], [ %25, %23 ]
  %28 = getelementptr inbounds nuw i8, ptr %27, i64 16
  store ptr %28, ptr %5, align 8, !tbaa !105
  br label %30

29:                                               ; preds = %2
  tail call void @_ZNSt6vectorIN5osgeo4proj4util15BaseObjectNNPtrESaIS3_EE17_M_realloc_appendIJRKS3_EEEvDpOT_(ptr noundef nonnull align 8 dereferenceable(24) %4, ptr noundef nonnull align 8 dereferenceable(16) %1)
  br label %30

30:                                               ; preds = %26, %29
  ret void
}

; Function Attrs: mustprogress nofree norecurse nosync nounwind sspstrong willreturn memory(read, inaccessiblemem: none) uwtable
define hidden ptr @_ZNK5osgeo4proj4util17ArrayOfBaseObject5beginEv(ptr noundef nonnull readonly align 8 captures(none) dereferenceable(24) %0) local_unnamed_addr #5 align 2 {
  %2 = getelementptr inbounds nuw i8, ptr %0, i64 16
  %3 = load ptr, ptr %2, align 8, !tbaa !100
  %4 = load ptr, ptr %3, align 8, !tbaa !108
  ret ptr %4
}

; Function Attrs: mustprogress nofree norecurse nosync nounwind sspstrong willreturn memory(read, inaccessiblemem: none) uwtable
define hidden ptr @_ZNK5osgeo4proj4util17ArrayOfBaseObject3endEv(ptr noundef nonnull readonly align 8 captures(none) dereferenceable(24) %0) local_unnamed_addr #5 align 2 {
  %2 = getelementptr inbounds nuw i8, ptr %0, i64 16
  %3 = load ptr, ptr %2, align 8, !tbaa !100
  %4 = getelementptr inbounds nuw i8, ptr %3, i64 8
  %5 = load ptr, ptr %4, align 8, !tbaa !108
  ret ptr %5
}

; Function Attrs: mustprogress nofree norecurse nosync nounwind sspstrong willreturn memory(read, inaccessiblemem: none) uwtable
define hidden noundef zeroext i1 @_ZNK5osgeo4proj4util17ArrayOfBaseObject5emptyEv(ptr noundef nonnull readonly align 8 captures(none) dereferenceable(24) %0) local_unnamed_addr #5 align 2 {
  %2 = getelementptr inbounds nuw i8, ptr %0, i64 16
  %3 = load ptr, ptr %2, align 8, !tbaa !100
  %4 = load ptr, ptr %3, align 8, !tbaa !108
  %5 = getelementptr inbounds nuw i8, ptr %3, i64 8
  %6 = load ptr, ptr %5, align 8, !tbaa !108
  %7 = icmp eq ptr %4, %6
  ret i1 %7
}

; Function Attrs: mustprogress sspstrong uwtable
define void @_ZN5osgeo4proj4util17ArrayOfBaseObject6createEv(ptr dead_on_unwind noalias writable sret(%"class.dropbox::oxygen::nn.22") align 8 %0) local_unnamed_addr #0 align 2 {
  tail call void @_ZN5osgeo4proj4util17ArrayOfBaseObject14nn_make_sharedIS2_JEEEN7dropbox6oxygen2nnISt10shared_ptrIT_EEEDpOT0_(ptr dead_on_unwind writable sret(%"class.dropbox::oxygen::nn.22") align 8 %0)
  ret void
}

; Function Attrs: mustprogress sspstrong uwtable
define linkonce_odr hidden void @_ZN5osgeo4proj4util17ArrayOfBaseObject14nn_make_sharedIS2_JEEEN7dropbox6oxygen2nnISt10shared_ptrIT_EEEDpOT0_(ptr dead_on_unwind noalias writable sret(%"class.dropbox::oxygen::nn.22") align 8 %0) local_unnamed_addr #0 comdat align 2 personality ptr @__gxx_personality_v0 {
  %2 = tail call noalias noundef nonnull dereferenceable(24) ptr @_Znwm(i64 noundef 24) #29
  store ptr getelementptr inbounds nuw inrange(-16, 16) (i8, ptr @_ZTVN5osgeo4proj4util10BaseObjectE, i64 16), ptr %2, align 8, !tbaa !4
  tail call void @llvm.experimental.noalias.scope.decl(metadata !109)
  %3 = invoke noalias noundef nonnull dereferenceable(16) ptr @_Znwm(i64 noundef 16) #29
          to label %4 unwind label %29

4:                                                ; preds = %1
  %5 = getelementptr inbounds nuw i8, ptr %2, i64 8
  tail call void @llvm.memset.p0.i64(ptr noundef nonnull align 8 dereferenceable(16) %3, i8 0, i64 16, i1 false), !noalias !109
  store ptr %3, ptr %5, align 8, !tbaa !10, !alias.scope !109
  store ptr getelementptr inbounds nuw inrange(-16, 16) (i8, ptr @_ZTVN5osgeo4proj4util17ArrayOfBaseObjectE, i64 16), ptr %2, align 8, !tbaa !4
  tail call void @llvm.experimental.noalias.scope.decl(metadata !112)
  %6 = invoke noalias noundef nonnull dereferenceable(24) ptr @_Znwm(i64 noundef 24) #29
          to label %9 unwind label %7

7:                                                ; preds = %4
  %8 = landingpad { ptr, i32 }
          cleanup
  tail call void @_ZN5osgeo4proj4util10BaseObjectD2Ev(ptr noundef nonnull align 8 dereferenceable(24) %2) #30
  br label %31

9:                                                ; preds = %4
  %10 = getelementptr inbounds nuw i8, ptr %2, i64 16
  tail call void @llvm.memset.p0.i64(ptr noundef nonnull align 8 dereferenceable(24) %6, i8 0, i64 24, i1 false), !noalias !112
  store ptr %6, ptr %10, align 8, !tbaa !100, !alias.scope !112
  %11 = invoke noalias noundef nonnull dereferenceable(24) ptr @_Znwm(i64 noundef 24) #29
          to label %24 unwind label %12

12:                                               ; preds = %9
  %13 = landingpad { ptr, i32 }
          catch ptr null
  %14 = extractvalue { ptr, i32 } %13, 0
  %15 = tail call ptr @__cxa_begin_catch(ptr %14) #30
  tail call void @_ZN5osgeo4proj4util17ArrayOfBaseObjectD1Ev(ptr noundef nonnull align 8 dereferenceable(24) %2) #30
  tail call void @_ZdlPvm(ptr noundef nonnull %2, i64 noundef 24) #31
  invoke void @__cxa_rethrow() #33
          to label %23 unwind label %16

16:                                               ; preds = %12
  %17 = landingpad { ptr, i32 }
          cleanup
  invoke void @__cxa_end_catch()
          to label %18 unwind label %20

18:                                               ; preds = %16, %31
  %19 = phi { ptr, i32 } [ %32, %31 ], [ %17, %16 ]
  resume { ptr, i32 } %19

20:                                               ; preds = %16
  %21 = landingpad { ptr, i32 }
          catch ptr null
  %22 = extractvalue { ptr, i32 } %21, 0
  tail call void @__clang_call_terminate(ptr %22) #34
  unreachable

23:                                               ; preds = %12
  unreachable

24:                                               ; preds = %9
  %25 = getelementptr inbounds nuw i8, ptr %11, i64 8
  store i32 1, ptr %25, align 8, !tbaa !22
  %26 = getelementptr inbounds nuw i8, ptr %11, i64 12
  store i32 1, ptr %26, align 4, !tbaa !24
  store ptr getelementptr inbounds nuw inrange(-16, 40) (i8, ptr @_ZTVSt15_Sp_counted_ptrIPN5osgeo4proj4util17ArrayOfBaseObjectELN9__gnu_cxx12_Lock_policyE2EE, i64 16), ptr %11, align 8, !tbaa !4
  %27 = getelementptr inbounds nuw i8, ptr %11, i64 16
  store ptr %2, ptr %27, align 8, !tbaa !115
  store ptr %2, ptr %0, align 8, !tbaa !118
  %28 = getelementptr inbounds nuw i8, ptr %0, i64 8
  store ptr %11, ptr %28, align 8, !tbaa !20
  ret void

29:                                               ; preds = %1
  %30 = landingpad { ptr, i32 }
          cleanup
  br label %31

31:                                               ; preds = %7, %29
  %32 = phi { ptr, i32 } [ %30, %29 ], [ %8, %7 ]
  tail call void @_ZdlPvm(ptr noundef nonnull %2, i64 noundef 24) #31
  br label %18
}

; Function Attrs: mustprogress sspstrong uwtable
define void @_ZN5osgeo4proj4util11PropertyMapC2Ev(ptr noundef nonnull writeonly align 8 captures(none) dereferenceable(8) initializes((0, 8)) %0) unnamed_addr #0 align 2 personality ptr @__gxx_personality_v0 {
  tail call void @llvm.experimental.noalias.scope.decl(metadata !120)
  %2 = tail call noalias noundef nonnull dereferenceable(24) ptr @_Znwm(i64 noundef 24) #29, !noalias !120
  %3 = getelementptr inbounds nuw i8, ptr %2, i64 8
  store ptr %2, ptr %3, align 8, !tbaa !123, !noalias !120
  store ptr %2, ptr %2, align 8, !tbaa !126, !noalias !120
  %4 = getelementptr inbounds nuw i8, ptr %2, i64 16
  store i64 0, ptr %4, align 8, !tbaa !63, !noalias !120
  store ptr %2, ptr %0, align 8, !tbaa !127, !alias.scope !120
  ret void
}

; Function Attrs: mustprogress sspstrong uwtable
define void @_ZN5osgeo4proj4util11PropertyMapC2ERKS2_(ptr noundef nonnull writeonly align 8 captures(none) dereferenceable(8) %0, ptr noundef nonnull readonly align 8 captures(none) dereferenceable(8) %1) unnamed_addr #0 align 2 personality ptr @__gxx_personality_v0 {
  %3 = load ptr, ptr %1, align 8, !tbaa !127
  tail call void @llvm.experimental.noalias.scope.decl(metadata !129)
  %4 = tail call noalias noundef nonnull dereferenceable(24) ptr @_Znwm(i64 noundef 24) #29, !noalias !129
  %5 = getelementptr inbounds nuw i8, ptr %4, i64 8
  store ptr %4, ptr %5, align 8, !tbaa !123, !noalias !129
  store ptr %4, ptr %4, align 8, !tbaa !126, !noalias !129
  %6 = getelementptr inbounds nuw i8, ptr %4, i64 16
  store i64 0, ptr %6, align 8, !tbaa !63, !noalias !129
  %7 = load ptr, ptr %3, align 8, !tbaa !126, !noalias !129
  %8 = icmp eq ptr %7, %3
  br i1 %8, label %23, label %9

9:                                                ; preds = %2, %13
  %10 = phi ptr [ %16, %13 ], [ %7, %2 ]
  %11 = getelementptr inbounds nuw i8, ptr %10, i64 16
  %12 = invoke noundef ptr @_ZNSt7__cxx114listISt4pairINS_12basic_stringIcSt11char_traitsIcESaIcEEEN5osgeo4proj4util15BaseObjectNNPtrEESaISB_EE14_M_create_nodeIJRKSB_EEEPSt10_List_nodeISB_EDpOT_(ptr noundef nonnull align 8 dereferenceable(24) %4, ptr noundef nonnull align 8 dereferenceable(48) %11)
          to label %13 unwind label %21, !noalias !129

13:                                               ; preds = %9
  tail call void @_ZNSt8__detail15_List_node_base7_M_hookEPS0_(ptr noundef nonnull align 8 dereferenceable(16) %12, ptr noundef nonnull align 8 dereferenceable(24) %4) #30, !noalias !129
  %14 = load i64, ptr %6, align 8, !tbaa !132, !noalias !129
  %15 = add i64 %14, 1
  store i64 %15, ptr %6, align 8, !tbaa !132, !noalias !129
  %16 = load ptr, ptr %10, align 8, !tbaa !126, !noalias !129
  %17 = icmp eq ptr %16, %3
  br i1 %17, label %18, label %9, !llvm.loop !134

18:                                               ; preds = %13
  %19 = load ptr, ptr %4, align 8, !tbaa !126, !noalias !129
  %20 = icmp ne ptr %19, %4
  tail call void @llvm.assume(i1 %20)
  br label %23

21:                                               ; preds = %9
  %22 = landingpad { ptr, i32 }
          cleanup
  tail call void @_ZNSt7__cxx1110_List_baseISt4pairINS_12basic_stringIcSt11char_traitsIcESaIcEEEN5osgeo4proj4util15BaseObjectNNPtrEESaISB_EED2Ev(ptr noundef nonnull align 8 dereferenceable(24) %4) #30, !noalias !129
  tail call void @_ZdlPvm(ptr noundef nonnull %4, i64 noundef 24) #31, !noalias !129
  resume { ptr, i32 } %22

23:                                               ; preds = %2, %18
  store ptr %4, ptr %0, align 8, !tbaa !127, !alias.scope !129
  ret void
}

; Function Attrs: mustprogress nounwind sspstrong uwtable
define void @_ZN5osgeo4proj4util11PropertyMapD2Ev(ptr noundef nonnull align 8 captures(none) dereferenceable(8) %0) unnamed_addr #1 align 2 personality ptr @__gxx_personality_v0 {
  %2 = load ptr, ptr %0, align 8, !tbaa !127
  %3 = icmp eq ptr %2, null
  br i1 %3, label %25, label %4

4:                                                ; preds = %1
  %5 = load ptr, ptr %2, align 8, !tbaa !126
  %6 = icmp eq ptr %5, %2
  br i1 %6, label %24, label %7

7:                                                ; preds = %4, %22
  %8 = phi ptr [ %9, %22 ], [ %5, %4 ]
  %9 = load ptr, ptr %8, align 8, !tbaa !126
  %10 = getelementptr inbounds nuw i8, ptr %8, i64 16
  %11 = getelementptr inbounds nuw i8, ptr %8, i64 48
  tail call void @_ZN5osgeo4proj4util15BaseObjectNNPtrD1Ev(ptr noundef nonnull align 8 dereferenceable(16) %11) #30
  %12 = load ptr, ptr %10, align 8, !tbaa !64
  %13 = getelementptr inbounds nuw i8, ptr %8, i64 32
  %14 = icmp eq ptr %12, %13
  br i1 %14, label %15, label %19

15:                                               ; preds = %7
  %16 = getelementptr inbounds nuw i8, ptr %8, i64 24
  %17 = load i64, ptr %16, align 8, !tbaa !55
  %18 = icmp ult i64 %17, 16
  tail call void @llvm.assume(i1 %18)
  br label %22

19:                                               ; preds = %7
  %20 = load i64, ptr %13, align 8, !tbaa !17
  %21 = add i64 %20, 1
  tail call void @_ZdlPvm(ptr noundef %12, i64 noundef %21) #31
  br label %22

22:                                               ; preds = %19, %15
  tail call void @_ZdlPvm(ptr noundef nonnull %8, i64 noundef 64) #31
  %23 = icmp eq ptr %9, %2
  br i1 %23, label %24, label %7, !llvm.loop !135

24:                                               ; preds = %22, %4
  tail call void @_ZdlPvm(ptr noundef %2, i64 noundef 24) #31
  br label %25

25:                                               ; preds = %1, %24
  store ptr null, ptr %0, align 8, !tbaa !127
  ret void
}

; Function Attrs: mustprogress nofree norecurse nounwind sspstrong memory(read, inaccessiblemem: write) uwtable
define hidden noundef ptr @_ZNK5osgeo4proj4util11PropertyMap3getERKNSt7__cxx1112basic_stringIcSt11char_traitsIcESaIcEEE(ptr noundef nonnull readonly align 8 captures(none) dereferenceable(8) %0, ptr noundef nonnull readonly align 8 captures(none) dereferenceable(32) %1) local_unnamed_addr #6 align 2 personality ptr @__gxx_personality_v0 {
  %3 = load ptr, ptr %0, align 8, !tbaa !127
  %4 = load ptr, ptr %3, align 8, !tbaa !126
  %5 = icmp eq ptr %4, %3
  br i1 %5, label %31, label %6

6:                                                ; preds = %2
  %7 = getelementptr inbounds nuw i8, ptr %1, i64 8
  %8 = load i64, ptr %7, align 8, !tbaa !55
  %9 = icmp ult i64 %8, 9223372036854775807
  tail call void @llvm.assume(i1 %9)
  %10 = load ptr, ptr %1, align 8
  %11 = icmp eq i64 %8, 0
  br label %12

12:                                               ; preds = %6, %26
  %13 = phi ptr [ %4, %6 ], [ %27, %26 ]
  %14 = getelementptr inbounds nuw i8, ptr %13, i64 16
  %15 = getelementptr inbounds nuw i8, ptr %13, i64 24
  %16 = load i64, ptr %15, align 8, !tbaa !55
  %17 = icmp ult i64 %16, 9223372036854775807
  tail call void @llvm.assume(i1 %17)
  %18 = icmp eq i64 %16, %8
  br i1 %18, label %19, label %26

19:                                               ; preds = %12
  br i1 %11, label %20, label %22

20:                                               ; preds = %19
  %21 = getelementptr inbounds nuw i8, ptr %13, i64 48
  br label %31

22:                                               ; preds = %19
  %23 = load ptr, ptr %14, align 8, !tbaa !64
  %24 = tail call i32 @bcmp(ptr %23, ptr %10, i64 %8)
  %25 = icmp eq i32 %24, 0
  br i1 %25, label %29, label %26

26:                                               ; preds = %12, %22
  %27 = load ptr, ptr %13, align 8, !tbaa !126
  %28 = icmp eq ptr %27, %3
  br i1 %28, label %31, label %12

29:                                               ; preds = %22
  %30 = getelementptr inbounds nuw i8, ptr %13, i64 48
  br label %31

31:                                               ; preds = %26, %29, %2, %20
  %32 = phi ptr [ %21, %20 ], [ %30, %29 ], [ null, %2 ], [ null, %26 ]
  ret ptr %32
}

; Function Attrs: mustprogress nounwind sspstrong uwtable
define hidden void @_ZN5osgeo4proj4util11PropertyMap5unsetERKNSt7__cxx1112basic_stringIcSt11char_traitsIcESaIcEEE(ptr noundef nonnull readonly align 8 captures(none) dereferenceable(8) %0, ptr noundef nonnull readonly align 8 captures(none) dereferenceable(32) %1) local_unnamed_addr #1 align 2 personality ptr @__gxx_personality_v0 {
  %3 = load ptr, ptr %0, align 8, !tbaa !127
  %4 = load ptr, ptr %3, align 8, !tbaa !126
  %5 = icmp eq ptr %4, %3
  br i1 %5, label %43, label %6

6:                                                ; preds = %2
  %7 = getelementptr inbounds nuw i8, ptr %1, i64 8
  %8 = load i64, ptr %7, align 8, !tbaa !55
  %9 = icmp ult i64 %8, 9223372036854775807
  tail call void @llvm.assume(i1 %9)
  %10 = load ptr, ptr %1, align 8
  %11 = icmp eq i64 %8, 0
  br label %12

12:                                               ; preds = %6, %40
  %13 = phi ptr [ %4, %6 ], [ %41, %40 ]
  %14 = getelementptr inbounds nuw i8, ptr %13, i64 16
  %15 = getelementptr inbounds nuw i8, ptr %13, i64 24
  %16 = load i64, ptr %15, align 8, !tbaa !55
  %17 = icmp ult i64 %16, 9223372036854775807
  tail call void @llvm.assume(i1 %17)
  %18 = icmp eq i64 %16, %8
  br i1 %18, label %19, label %40

19:                                               ; preds = %12
  br i1 %11, label %24, label %20

20:                                               ; preds = %19
  %21 = load ptr, ptr %14, align 8, !tbaa !64
  %22 = tail call i32 @bcmp(ptr %21, ptr %10, i64 %8)
  %23 = icmp eq i32 %22, 0
  br i1 %23, label %24, label %40

24:                                               ; preds = %19, %20
  %25 = getelementptr inbounds nuw i8, ptr %3, i64 16
  %26 = load i64, ptr %25, align 8, !tbaa !132
  %27 = add i64 %26, -1
  store i64 %27, ptr %25, align 8, !tbaa !132
  tail call void @_ZNSt8__detail15_List_node_base9_M_unhookEv(ptr noundef nonnull align 8 dereferenceable(16) %13) #30
  %28 = getelementptr inbounds nuw i8, ptr %13, i64 48
  tail call void @_ZN5osgeo4proj4util15BaseObjectNNPtrD1Ev(ptr noundef nonnull align 8 dereferenceable(16) %28) #30
  %29 = load ptr, ptr %14, align 8, !tbaa !64
  %30 = getelementptr inbounds nuw i8, ptr %13, i64 32
  %31 = icmp eq ptr %29, %30
  br i1 %31, label %32, label %36

32:                                               ; preds = %24
  %33 = getelementptr inbounds nuw i8, ptr %13, i64 24
  %34 = load i64, ptr %33, align 8, !tbaa !55
  %35 = icmp ult i64 %34, 16
  tail call void @llvm.assume(i1 %35)
  br label %39

36:                                               ; preds = %24
  %37 = load i64, ptr %30, align 8, !tbaa !17
  %38 = add i64 %37, 1
  tail call void @_ZdlPvm(ptr noundef %29, i64 noundef %38) #31
  br label %39

39:                                               ; preds = %32, %36
  tail call void @_ZdlPvm(ptr noundef nonnull %13, i64 noundef 64) #31
  br label %43

40:                                               ; preds = %12, %20
  %41 = load ptr, ptr %13, align 8, !tbaa !126
  %42 = icmp eq ptr %41, %3
  br i1 %42, label %43, label %12, !llvm.loop !136

43:                                               ; preds = %40, %2, %39
  ret void
}

; Function Attrs: mustprogress sspstrong uwtable
define noundef nonnull align 8 dereferenceable(8) ptr @_ZN5osgeo4proj4util11PropertyMap3setERKNSt7__cxx1112basic_stringIcSt11char_traitsIcESaIcEEERKNS1_15BaseObjectNNPtrE(ptr noundef nonnull readonly returned align 8 captures(ret: address, provenance) dereferenceable(8) %0, ptr noundef nonnull align 8 dereferenceable(32) %1, ptr noundef nonnull align 8 dereferenceable(16) %2) local_unnamed_addr #0 align 2 personality ptr @__gxx_personality_v0 {
  %4 = load ptr, ptr %0, align 8, !tbaa !127
  %5 = load ptr, ptr %4, align 8, !tbaa !126
  %6 = icmp eq ptr %5, %4
  br i1 %6, label %76, label %7

7:                                                ; preds = %3
  %8 = getelementptr inbounds nuw i8, ptr %1, i64 8
  %9 = load i64, ptr %8, align 8, !tbaa !55
  %10 = icmp ult i64 %9, 9223372036854775807
  tail call void @llvm.assume(i1 %10)
  %11 = load ptr, ptr %1, align 8
  %12 = icmp eq i64 %9, 0
  br label %13

13:                                               ; preds = %7, %73
  %14 = phi ptr [ %5, %7 ], [ %74, %73 ]
  %15 = getelementptr inbounds nuw i8, ptr %14, i64 16
  %16 = getelementptr inbounds nuw i8, ptr %14, i64 24
  %17 = load i64, ptr %16, align 8, !tbaa !55
  %18 = icmp ult i64 %17, 9223372036854775807
  tail call void @llvm.assume(i1 %18)
  %19 = icmp eq i64 %17, %9
  br i1 %19, label %20, label %73

20:                                               ; preds = %13
  br i1 %12, label %25, label %21

21:                                               ; preds = %20
  %22 = load ptr, ptr %15, align 8, !tbaa !64
  %23 = tail call i32 @bcmp(ptr %22, ptr %11, i64 %9)
  %24 = icmp eq i32 %23, 0
  br i1 %24, label %25, label %73

25:                                               ; preds = %20, %21
  %26 = getelementptr inbounds nuw i8, ptr %14, i64 48
  %27 = load ptr, ptr %2, align 8, !tbaa !28
  store ptr %27, ptr %26, align 8, !tbaa !28
  %28 = getelementptr inbounds nuw i8, ptr %14, i64 56
  %29 = getelementptr inbounds nuw i8, ptr %2, i64 8
  %30 = load ptr, ptr %29, align 8, !tbaa !20
  %31 = load ptr, ptr %28, align 8, !tbaa !20
  %32 = icmp eq ptr %30, %31
  br i1 %32, label %81, label %33

33:                                               ; preds = %25
  %34 = icmp eq ptr %30, null
  br i1 %34, label %45, label %35

35:                                               ; preds = %33
  %36 = getelementptr inbounds nuw i8, ptr %30, i64 8
  %37 = load i8, ptr @__libc_single_threaded, align 1, !tbaa !17
  %38 = icmp eq i8 %37, 0
  br i1 %38, label %42, label %39

39:                                               ; preds = %35
  %40 = load i32, ptr %36, align 4, !tbaa !18
  %41 = add nsw i32 %40, 1
  store i32 %41, ptr %36, align 4, !tbaa !18
  br label %45

42:                                               ; preds = %35
  %43 = atomicrmw volatile add ptr %36, i32 1 acq_rel, align 4
  %44 = load ptr, ptr %28, align 8, !tbaa !20
  br label %45

45:                                               ; preds = %42, %39, %33
  %46 = phi ptr [ %31, %33 ], [ %31, %39 ], [ %44, %42 ]
  %47 = icmp eq ptr %46, null
  br i1 %47, label %72, label %48

48:                                               ; preds = %45
  %49 = getelementptr inbounds nuw i8, ptr %46, i64 8
  %50 = load atomic i64, ptr %49 acquire, align 8
  %51 = icmp eq i64 %50, 4294967297
  %52 = trunc i64 %50 to i32
  br i1 %51, label %53, label %61

53:                                               ; preds = %48
  store i32 0, ptr %49, align 8, !tbaa !22
  %54 = getelementptr inbounds nuw i8, ptr %46, i64 12
  store i32 0, ptr %54, align 4, !tbaa !24
  %55 = load ptr, ptr %46, align 8, !tbaa !4
  %56 = getelementptr inbounds nuw i8, ptr %55, i64 16
  %57 = load ptr, ptr %56, align 8
  tail call void %57(ptr noundef nonnull align 8 dereferenceable(16) %46) #30
  %58 = load ptr, ptr %46, align 8, !tbaa !4
  %59 = getelementptr inbounds nuw i8, ptr %58, i64 24
  %60 = load ptr, ptr %59, align 8
  tail call void %60(ptr noundef nonnull align 8 dereferenceable(16) %46) #30
  br label %72

61:                                               ; preds = %48
  %62 = load i8, ptr @__libc_single_threaded, align 1, !tbaa !17
  %63 = icmp eq i8 %62, 0
  br i1 %63, label %66, label %64

64:                                               ; preds = %61
  %65 = add nsw i32 %52, -1
  store i32 %65, ptr %49, align 4, !tbaa !18
  br label %68

66:                                               ; preds = %61
  %67 = atomicrmw volatile add ptr %49, i32 -1 acq_rel, align 4
  br label %68

68:                                               ; preds = %66, %64
  %69 = phi i32 [ %52, %64 ], [ %67, %66 ]
  %70 = icmp eq i32 %69, 1
  br i1 %70, label %71, label %72, !prof !25

71:                                               ; preds = %68
  tail call void @_ZNSt16_Sp_counted_baseILN9__gnu_cxx12_Lock_policyE2EE24_M_release_last_use_coldEv(ptr noundef nonnull align 8 dereferenceable(16) %46) #30
  br label %72

72:                                               ; preds = %71, %68, %53, %45
  store ptr %30, ptr %28, align 8, !tbaa !20
  br label %81

73:                                               ; preds = %13, %21
  %74 = load ptr, ptr %14, align 8, !tbaa !126
  %75 = icmp eq ptr %74, %4
  br i1 %75, label %76, label %13

76:                                               ; preds = %73, %3
  %77 = tail call noundef ptr @_ZNSt7__cxx114listISt4pairINS_12basic_stringIcSt11char_traitsIcESaIcEEEN5osgeo4proj4util15BaseObjectNNPtrEESaISB_EE14_M_create_nodeIJRKS6_RKSA_EEEPSt10_List_nodeISB_EDpOT_(ptr noundef nonnull align 8 dereferenceable(24) %4, ptr noundef nonnull align 8 dereferenceable(32) %1, ptr noundef nonnull align 8 dereferenceable(16) %2)
  tail call void @_ZNSt8__detail15_List_node_base7_M_hookEPS0_(ptr noundef nonnull align 8 dereferenceable(16) %77, ptr noundef nonnull align 8 dereferenceable(24) %4) #30
  %78 = getelementptr inbounds nuw i8, ptr %4, i64 16
  %79 = load i64, ptr %78, align 8, !tbaa !132
  %80 = add i64 %79, 1
  store i64 %80, ptr %78, align 8, !tbaa !132
  br label %81

81:                                               ; preds = %72, %25, %76
  ret ptr %0
}

; Function Attrs: mustprogress sspstrong uwtable
define noundef nonnull align 8 dereferenceable(8) ptr @_ZN5osgeo4proj4util11PropertyMap3setERKNSt7__cxx1112basic_stringIcSt11char_traitsIcESaIcEEESA_(ptr noundef nonnull readonly returned align 8 captures(ret: address, provenance) dereferenceable(8) %0, ptr noundef nonnull align 8 dereferenceable(32) %1, ptr noundef nonnull align 8 dereferenceable(32) %2) local_unnamed_addr #0 align 2 personality ptr @__gxx_personality_v0 {
  %4 = alloca %"class.dropbox::oxygen::nn.37", align 8
  %5 = load ptr, ptr %0, align 8, !tbaa !127
  call void @llvm.lifetime.start.p0(i64 16, ptr nonnull %4) #30
  tail call void @llvm.experimental.noalias.scope.decl(metadata !137)
  %6 = tail call noalias noundef nonnull dereferenceable(40) ptr @_Znwm(i64 noundef 40) #29, !noalias !140
  %7 = getelementptr inbounds nuw i8, ptr %6, i64 8
  store i32 1, ptr %7, align 8, !tbaa !22, !noalias !140
  %8 = getelementptr inbounds nuw i8, ptr %6, i64 12
  store i32 1, ptr %8, align 4, !tbaa !24, !noalias !140
  store ptr getelementptr inbounds nuw inrange(-16, 40) (i8, ptr @_ZTVSt23_Sp_counted_ptr_inplaceIN5osgeo4proj4util10BoxedValueESaIvELN9__gnu_cxx12_Lock_policyE2EE, i64 16), ptr %6, align 8, !tbaa !4, !noalias !140
  %9 = getelementptr inbounds nuw i8, ptr %6, i64 16
  invoke void @_ZN5osgeo4proj4util10BoxedValueC1ERKNSt7__cxx1112basic_stringIcSt11char_traitsIcESaIcEEE(ptr noundef nonnull align 8 dereferenceable(24) %9, ptr noundef nonnull align 8 dereferenceable(32) %2)
          to label %14 unwind label %12, !noalias !140

10:                                               ; preds = %44, %12
  %11 = phi { ptr, i32 } [ %13, %12 ], [ %45, %44 ]
  resume { ptr, i32 } %11

12:                                               ; preds = %3
  %13 = landingpad { ptr, i32 }
          cleanup
  tail call void @_ZdlPvm(ptr noundef nonnull %6, i64 noundef 40) #31, !noalias !140
  br label %10

14:                                               ; preds = %3
  store ptr %9, ptr %4, align 8, !tbaa !143, !alias.scope !137
  %15 = getelementptr inbounds nuw i8, ptr %4, i64 8
  store ptr %6, ptr %15, align 8, !tbaa !20, !alias.scope !137
  invoke void @_ZN5osgeo4proj4util11PropertyMap7Private3setERKNSt7__cxx1112basic_stringIcSt11char_traitsIcESaIcEEERKN7dropbox6oxygen2nnISt10shared_ptrINS1_10BoxedValueEEEE(ptr noundef nonnull align 8 dereferenceable(24) %5, ptr noundef nonnull align 8 dereferenceable(32) %1, ptr noundef nonnull align 8 dereferenceable(16) %4)
          to label %16 unwind label %44

16:                                               ; preds = %14
  %17 = load ptr, ptr %15, align 8, !tbaa !20
  %18 = icmp eq ptr %17, null
  br i1 %18, label %43, label %19

19:                                               ; preds = %16
  %20 = getelementptr inbounds nuw i8, ptr %17, i64 8
  %21 = load atomic i64, ptr %20 acquire, align 8
  %22 = icmp eq i64 %21, 4294967297
  %23 = trunc i64 %21 to i32
  br i1 %22, label %24, label %32

24:                                               ; preds = %19
  store i32 0, ptr %20, align 8, !tbaa !22
  %25 = getelementptr inbounds nuw i8, ptr %17, i64 12
  store i32 0, ptr %25, align 4, !tbaa !24
  %26 = load ptr, ptr %17, align 8, !tbaa !4
  %27 = getelementptr inbounds nuw i8, ptr %26, i64 16
  %28 = load ptr, ptr %27, align 8
  call void %28(ptr noundef nonnull align 8 dereferenceable(16) %17) #30
  %29 = load ptr, ptr %17, align 8, !tbaa !4
  %30 = getelementptr inbounds nuw i8, ptr %29, i64 24
  %31 = load ptr, ptr %30, align 8
  call void %31(ptr noundef nonnull align 8 dereferenceable(16) %17) #30
  br label %43

32:                                               ; preds = %19
  %33 = load i8, ptr @__libc_single_threaded, align 1, !tbaa !17
  %34 = icmp eq i8 %33, 0
  br i1 %34, label %37, label %35

35:                                               ; preds = %32
  %36 = add nsw i32 %23, -1
  store i32 %36, ptr %20, align 4, !tbaa !18
  br label %39

37:                                               ; preds = %32
  %38 = atomicrmw volatile add ptr %20, i32 -1 acq_rel, align 4
  br label %39

39:                                               ; preds = %37, %35
  %40 = phi i32 [ %23, %35 ], [ %38, %37 ]
  %41 = icmp eq i32 %40, 1
  br i1 %41, label %42, label %43, !prof !25

42:                                               ; preds = %39
  call void @_ZNSt16_Sp_counted_baseILN9__gnu_cxx12_Lock_policyE2EE24_M_release_last_use_coldEv(ptr noundef nonnull align 8 dereferenceable(16) %17) #30
  br label %43

43:                                               ; preds = %16, %24, %39, %42
  call void @llvm.lifetime.end.p0(i64 16, ptr nonnull %4) #30
  ret ptr %0

44:                                               ; preds = %14
  %45 = landingpad { ptr, i32 }
          cleanup
  call void @_ZN7dropbox6oxygen2nnISt10shared_ptrIN5osgeo4proj4util10BoxedValueEEED2Ev(ptr noundef nonnull align 8 dereferenceable(16) %4) #30
  call void @llvm.lifetime.end.p0(i64 16, ptr nonnull %4) #30
  br label %10
}

; Function Attrs: mustprogress sspstrong uwtable
define linkonce_odr hidden void @_ZN5osgeo4proj4util11PropertyMap7Private3setERKNSt7__cxx1112basic_stringIcSt11char_traitsIcESaIcEEERKN7dropbox6oxygen2nnISt10shared_ptrINS1_10BoxedValueEEEE(ptr noundef nonnull align 8 dereferenceable(24) %0, ptr noundef nonnull align 8 dereferenceable(32) %1, ptr noundef nonnull align 8 dereferenceable(16) %2) local_unnamed_addr #0 comdat align 2 personality ptr @__gxx_personality_v0 {
  %4 = alloca %"struct.osgeo::proj::util::BaseObjectNNPtr", align 8
  %5 = load ptr, ptr %0, align 8, !tbaa !126
  %6 = icmp eq ptr %5, %0
  br i1 %6, label %100, label %7

7:                                                ; preds = %3
  %8 = getelementptr inbounds nuw i8, ptr %1, i64 8
  %9 = load i64, ptr %8, align 8, !tbaa !55
  %10 = icmp ult i64 %9, 9223372036854775807
  tail call void @llvm.assume(i1 %10)
  %11 = load ptr, ptr %1, align 8
  %12 = icmp eq i64 %9, 0
  br label %13

13:                                               ; preds = %7, %96
  %14 = phi ptr [ %5, %7 ], [ %97, %96 ]
  %15 = getelementptr inbounds nuw i8, ptr %14, i64 16
  %16 = getelementptr inbounds nuw i8, ptr %14, i64 24
  %17 = load i64, ptr %16, align 8, !tbaa !55
  %18 = icmp ult i64 %17, 9223372036854775807
  tail call void @llvm.assume(i1 %18)
  %19 = icmp eq i64 %17, %9
  br i1 %19, label %20, label %96

20:                                               ; preds = %13
  br i1 %12, label %25, label %21

21:                                               ; preds = %20
  %22 = load ptr, ptr %15, align 8, !tbaa !64
  %23 = tail call i32 @bcmp(ptr %22, ptr %11, i64 %9)
  %24 = icmp eq i32 %23, 0
  br i1 %24, label %25, label %96

25:                                               ; preds = %20, %21
  call void @llvm.lifetime.start.p0(i64 16, ptr nonnull %4) #30
  %26 = load ptr, ptr %2, align 8, !tbaa !143
  store ptr %26, ptr %4, align 8, !tbaa !28
  %27 = getelementptr inbounds nuw i8, ptr %4, i64 8
  %28 = getelementptr inbounds nuw i8, ptr %2, i64 8
  %29 = load ptr, ptr %28, align 8, !tbaa !20
  store ptr %29, ptr %27, align 8, !tbaa !20
  %30 = icmp eq ptr %29, null
  br i1 %30, label %49, label %31

31:                                               ; preds = %25
  %32 = getelementptr inbounds nuw i8, ptr %29, i64 8
  %33 = load i8, ptr @__libc_single_threaded, align 1, !tbaa !17
  %34 = icmp eq i8 %33, 0
  br i1 %34, label %38, label %35

35:                                               ; preds = %31
  %36 = load i32, ptr %32, align 4, !tbaa !18
  %37 = add nsw i32 %36, 1
  store i32 %37, ptr %32, align 4, !tbaa !18
  br label %42

38:                                               ; preds = %31
  %39 = atomicrmw volatile add ptr %32, i32 1 acq_rel, align 4
  %40 = load ptr, ptr %27, align 8, !tbaa !20
  %41 = load ptr, ptr %4, align 8, !tbaa !28
  br label %42

42:                                               ; preds = %35, %38
  %43 = phi ptr [ %41, %38 ], [ %26, %35 ]
  %44 = phi ptr [ %40, %38 ], [ %29, %35 ]
  %45 = getelementptr inbounds nuw i8, ptr %14, i64 48
  store ptr %43, ptr %45, align 8, !tbaa !28
  %46 = getelementptr inbounds nuw i8, ptr %14, i64 56
  %47 = load ptr, ptr %46, align 8, !tbaa !20
  %48 = icmp eq ptr %44, %47
  br i1 %48, label %99, label %54

49:                                               ; preds = %25
  %50 = getelementptr inbounds nuw i8, ptr %14, i64 48
  store ptr %26, ptr %50, align 8, !tbaa !28
  %51 = getelementptr inbounds nuw i8, ptr %14, i64 56
  %52 = load ptr, ptr %51, align 8, !tbaa !20
  %53 = icmp eq ptr %52, null
  br i1 %53, label %99, label %66

54:                                               ; preds = %42
  %55 = icmp eq ptr %44, null
  br i1 %55, label %66, label %56

56:                                               ; preds = %54
  %57 = getelementptr inbounds nuw i8, ptr %44, i64 8
  %58 = load i8, ptr @__libc_single_threaded, align 1, !tbaa !17
  %59 = icmp eq i8 %58, 0
  br i1 %59, label %63, label %60

60:                                               ; preds = %56
  %61 = load i32, ptr %57, align 4, !tbaa !18
  %62 = add nsw i32 %61, 1
  store i32 %62, ptr %57, align 4, !tbaa !18
  br label %66

63:                                               ; preds = %56
  %64 = atomicrmw volatile add ptr %57, i32 1 acq_rel, align 4
  %65 = load ptr, ptr %46, align 8, !tbaa !20
  br label %66

66:                                               ; preds = %49, %63, %60, %54
  %67 = phi ptr [ null, %54 ], [ %44, %60 ], [ %44, %63 ], [ null, %49 ]
  %68 = phi ptr [ %46, %54 ], [ %46, %60 ], [ %46, %63 ], [ %51, %49 ]
  %69 = phi ptr [ %47, %54 ], [ %47, %60 ], [ %65, %63 ], [ %52, %49 ]
  %70 = icmp eq ptr %69, null
  br i1 %70, label %95, label %71

71:                                               ; preds = %66
  %72 = getelementptr inbounds nuw i8, ptr %69, i64 8
  %73 = load atomic i64, ptr %72 acquire, align 8
  %74 = icmp eq i64 %73, 4294967297
  %75 = trunc i64 %73 to i32
  br i1 %74, label %76, label %84

76:                                               ; preds = %71
  store i32 0, ptr %72, align 8, !tbaa !22
  %77 = getelementptr inbounds nuw i8, ptr %69, i64 12
  store i32 0, ptr %77, align 4, !tbaa !24
  %78 = load ptr, ptr %69, align 8, !tbaa !4
  %79 = getelementptr inbounds nuw i8, ptr %78, i64 16
  %80 = load ptr, ptr %79, align 8
  tail call void %80(ptr noundef nonnull align 8 dereferenceable(16) %69) #30
  %81 = load ptr, ptr %69, align 8, !tbaa !4
  %82 = getelementptr inbounds nuw i8, ptr %81, i64 24
  %83 = load ptr, ptr %82, align 8
  tail call void %83(ptr noundef nonnull align 8 dereferenceable(16) %69) #30
  br label %95

84:                                               ; preds = %71
  %85 = load i8, ptr @__libc_single_threaded, align 1, !tbaa !17
  %86 = icmp eq i8 %85, 0
  br i1 %86, label %89, label %87

87:                                               ; preds = %84
  %88 = add nsw i32 %75, -1
  store i32 %88, ptr %72, align 4, !tbaa !18
  br label %91

89:                                               ; preds = %84
  %90 = atomicrmw volatile add ptr %72, i32 -1 acq_rel, align 4
  br label %91

91:                                               ; preds = %89, %87
  %92 = phi i32 [ %75, %87 ], [ %90, %89 ]
  %93 = icmp eq i32 %92, 1
  br i1 %93, label %94, label %95, !prof !25

94:                                               ; preds = %91
  tail call void @_ZNSt16_Sp_counted_baseILN9__gnu_cxx12_Lock_policyE2EE24_M_release_last_use_coldEv(ptr noundef nonnull align 8 dereferenceable(16) %69) #30
  br label %95

95:                                               ; preds = %94, %91, %76, %66
  store ptr %67, ptr %68, align 8, !tbaa !20
  br label %99

96:                                               ; preds = %13, %21
  %97 = load ptr, ptr %14, align 8, !tbaa !126
  %98 = icmp eq ptr %97, %0
  br i1 %98, label %100, label %13

99:                                               ; preds = %49, %95, %42
  call void @_ZN5osgeo4proj4util15BaseObjectNNPtrD1Ev(ptr noundef nonnull align 8 dereferenceable(16) %4) #30
  call void @llvm.lifetime.end.p0(i64 16, ptr nonnull %4) #30
  br label %105

100:                                              ; preds = %96, %3
  %101 = tail call noundef ptr @_ZNSt7__cxx114listISt4pairINS_12basic_stringIcSt11char_traitsIcESaIcEEEN5osgeo4proj4util15BaseObjectNNPtrEESaISB_EE14_M_create_nodeIJRKS6_RKN7dropbox6oxygen2nnISt10shared_ptrINS9_10BoxedValueEEEEEEEPSt10_List_nodeISB_EDpOT_(ptr noundef nonnull align 8 dereferenceable(24) %0, ptr noundef nonnull align 8 dereferenceable(32) %1, ptr noundef nonnull align 8 dereferenceable(16) %2)
  tail call void @_ZNSt8__detail15_List_node_base7_M_hookEPS0_(ptr noundef nonnull align 8 dereferenceable(16) %101, ptr noundef nonnull align 8 dereferenceable(24) %0) #30
  %102 = getelementptr inbounds nuw i8, ptr %0, i64 16
  %103 = load i64, ptr %102, align 8, !tbaa !132
  %104 = add i64 %103, 1
  store i64 %104, ptr %102, align 8, !tbaa !132
  br label %105

105:                                              ; preds = %99, %100
  ret void
}

; Function Attrs: inlinehint mustprogress nounwind sspstrong uwtable
define linkonce_odr hidden void @_ZN7dropbox6oxygen2nnISt10shared_ptrIN5osgeo4proj4util10BoxedValueEEED2Ev(ptr noundef nonnull align 8 dereferenceable(16) %0) unnamed_addr #7 comdat align 2 personality ptr @__gxx_personality_v0 {
  %2 = getelementptr inbounds nuw i8, ptr %0, i64 8
  %3 = load ptr, ptr %2, align 8, !tbaa !20
  %4 = icmp eq ptr %3, null
  br i1 %4, label %29, label %5

5:                                                ; preds = %1
  %6 = getelementptr inbounds nuw i8, ptr %3, i64 8
  %7 = load atomic i64, ptr %6 acquire, align 8
  %8 = icmp eq i64 %7, 4294967297
  %9 = trunc i64 %7 to i32
  br i1 %8, label %10, label %18

10:                                               ; preds = %5
  store i32 0, ptr %6, align 8, !tbaa !22
  %11 = getelementptr inbounds nuw i8, ptr %3, i64 12
  store i32 0, ptr %11, align 4, !tbaa !24
  %12 = load ptr, ptr %3, align 8, !tbaa !4
  %13 = getelementptr inbounds nuw i8, ptr %12, i64 16
  %14 = load ptr, ptr %13, align 8
  tail call void %14(ptr noundef nonnull align 8 dereferenceable(16) %3) #30
  %15 = load ptr, ptr %3, align 8, !tbaa !4
  %16 = getelementptr inbounds nuw i8, ptr %15, i64 24
  %17 = load ptr, ptr %16, align 8
  tail call void %17(ptr noundef nonnull align 8 dereferenceable(16) %3) #30
  br label %29

18:                                               ; preds = %5
  %19 = load i8, ptr @__libc_single_threaded, align 1, !tbaa !17
  %20 = icmp eq i8 %19, 0
  br i1 %20, label %23, label %21

21:                                               ; preds = %18
  %22 = add nsw i32 %9, -1
  store i32 %22, ptr %6, align 4, !tbaa !18
  br label %25

23:                                               ; preds = %18
  %24 = atomicrmw volatile add ptr %6, i32 -1 acq_rel, align 4
  br label %25

25:                                               ; preds = %23, %21
  %26 = phi i32 [ %9, %21 ], [ %24, %23 ]
  %27 = icmp eq i32 %26, 1
  br i1 %27, label %28, label %29, !prof !25

28:                                               ; preds = %25
  tail call void @_ZNSt16_Sp_counted_baseILN9__gnu_cxx12_Lock_policyE2EE24_M_release_last_use_coldEv(ptr noundef nonnull align 8 dereferenceable(16) %3) #30
  br label %29

29:                                               ; preds = %1, %10, %25, %28
  ret void
}

; Function Attrs: mustprogress sspstrong uwtable
define noundef nonnull align 8 dereferenceable(8) ptr @_ZN5osgeo4proj4util11PropertyMap3setERKNSt7__cxx1112basic_stringIcSt11char_traitsIcESaIcEEEPKc(ptr noundef nonnull readonly returned align 8 captures(ret: address, provenance) dereferenceable(8) %0, ptr noundef nonnull align 8 dereferenceable(32) %1, ptr noundef %2) local_unnamed_addr #0 align 2 personality ptr @__gxx_personality_v0 {
  %4 = alloca %"class.dropbox::oxygen::nn.37", align 8
  %5 = load ptr, ptr %0, align 8, !tbaa !127
  call void @llvm.lifetime.start.p0(i64 16, ptr nonnull %4) #30
  tail call void @llvm.experimental.noalias.scope.decl(metadata !146)
  %6 = tail call noalias noundef nonnull dereferenceable(40) ptr @_Znwm(i64 noundef 40) #29, !noalias !149
  %7 = getelementptr inbounds nuw i8, ptr %6, i64 8
  store i32 1, ptr %7, align 8, !tbaa !22, !noalias !149
  %8 = getelementptr inbounds nuw i8, ptr %6, i64 12
  store i32 1, ptr %8, align 4, !tbaa !24, !noalias !149
  store ptr getelementptr inbounds nuw inrange(-16, 40) (i8, ptr @_ZTVSt23_Sp_counted_ptr_inplaceIN5osgeo4proj4util10BoxedValueESaIvELN9__gnu_cxx12_Lock_policyE2EE, i64 16), ptr %6, align 8, !tbaa !4, !noalias !149
  %9 = getelementptr inbounds nuw i8, ptr %6, i64 16
  invoke void @_ZN5osgeo4proj4util10BoxedValueC1EPKc(ptr noundef nonnull align 8 dereferenceable(24) %9, ptr noundef %2)
          to label %14 unwind label %12, !noalias !149

10:                                               ; preds = %44, %12
  %11 = phi { ptr, i32 } [ %13, %12 ], [ %45, %44 ]
  resume { ptr, i32 } %11

12:                                               ; preds = %3
  %13 = landingpad { ptr, i32 }
          cleanup
  tail call void @_ZdlPvm(ptr noundef nonnull %6, i64 noundef 40) #31, !noalias !149
  br label %10

14:                                               ; preds = %3
  store ptr %9, ptr %4, align 8, !tbaa !143, !alias.scope !146
  %15 = getelementptr inbounds nuw i8, ptr %4, i64 8
  store ptr %6, ptr %15, align 8, !tbaa !20, !alias.scope !146
  invoke void @_ZN5osgeo4proj4util11PropertyMap7Private3setERKNSt7__cxx1112basic_stringIcSt11char_traitsIcESaIcEEERKN7dropbox6oxygen2nnISt10shared_ptrINS1_10BoxedValueEEEE(ptr noundef nonnull align 8 dereferenceable(24) %5, ptr noundef nonnull align 8 dereferenceable(32) %1, ptr noundef nonnull align 8 dereferenceable(16) %4)
          to label %16 unwind label %44

16:                                               ; preds = %14
  %17 = load ptr, ptr %15, align 8, !tbaa !20
  %18 = icmp eq ptr %17, null
  br i1 %18, label %43, label %19

19:                                               ; preds = %16
  %20 = getelementptr inbounds nuw i8, ptr %17, i64 8
  %21 = load atomic i64, ptr %20 acquire, align 8
  %22 = icmp eq i64 %21, 4294967297
  %23 = trunc i64 %21 to i32
  br i1 %22, label %24, label %32

24:                                               ; preds = %19
  store i32 0, ptr %20, align 8, !tbaa !22
  %25 = getelementptr inbounds nuw i8, ptr %17, i64 12
  store i32 0, ptr %25, align 4, !tbaa !24
  %26 = load ptr, ptr %17, align 8, !tbaa !4
  %27 = getelementptr inbounds nuw i8, ptr %26, i64 16
  %28 = load ptr, ptr %27, align 8
  call void %28(ptr noundef nonnull align 8 dereferenceable(16) %17) #30
  %29 = load ptr, ptr %17, align 8, !tbaa !4
  %30 = getelementptr inbounds nuw i8, ptr %29, i64 24
  %31 = load ptr, ptr %30, align 8
  call void %31(ptr noundef nonnull align 8 dereferenceable(16) %17) #30
  br label %43

32:                                               ; preds = %19
  %33 = load i8, ptr @__libc_single_threaded, align 1, !tbaa !17
  %34 = icmp eq i8 %33, 0
  br i1 %34, label %37, label %35

35:                                               ; preds = %32
  %36 = add nsw i32 %23, -1
  store i32 %36, ptr %20, align 4, !tbaa !18
  br label %39

37:                                               ; preds = %32
  %38 = atomicrmw volatile add ptr %20, i32 -1 acq_rel, align 4
  br label %39

39:                                               ; preds = %37, %35
  %40 = phi i32 [ %23, %35 ], [ %38, %37 ]
  %41 = icmp eq i32 %40, 1
  br i1 %41, label %42, label %43, !prof !25

42:                                               ; preds = %39
  call void @_ZNSt16_Sp_counted_baseILN9__gnu_cxx12_Lock_policyE2EE24_M_release_last_use_coldEv(ptr noundef nonnull align 8 dereferenceable(16) %17) #30
  br label %43

43:                                               ; preds = %16, %24, %39, %42
  call void @llvm.lifetime.end.p0(i64 16, ptr nonnull %4) #30
  ret ptr %0

44:                                               ; preds = %14
  %45 = landingpad { ptr, i32 }
          cleanup
  call void @_ZN7dropbox6oxygen2nnISt10shared_ptrIN5osgeo4proj4util10BoxedValueEEED2Ev(ptr noundef nonnull align 8 dereferenceable(16) %4) #30
  call void @llvm.lifetime.end.p0(i64 16, ptr nonnull %4) #30
  br label %10
}

; Function Attrs: mustprogress sspstrong uwtable
define noundef nonnull align 8 dereferenceable(8) ptr @_ZN5osgeo4proj4util11PropertyMap3setERKNSt7__cxx1112basic_stringIcSt11char_traitsIcESaIcEEEi(ptr noundef nonnull readonly returned align 8 captures(ret: address, provenance) dereferenceable(8) %0, ptr noundef nonnull align 8 dereferenceable(32) %1, i32 noundef %2) local_unnamed_addr #0 align 2 personality ptr @__gxx_personality_v0 {
  %4 = alloca %"class.dropbox::oxygen::nn.37", align 8
  %5 = load ptr, ptr %0, align 8, !tbaa !127
  call void @llvm.lifetime.start.p0(i64 16, ptr nonnull %4) #30
  tail call void @llvm.experimental.noalias.scope.decl(metadata !152)
  %6 = tail call noalias noundef nonnull dereferenceable(40) ptr @_Znwm(i64 noundef 40) #29, !noalias !155
  %7 = getelementptr inbounds nuw i8, ptr %6, i64 8
  store i32 1, ptr %7, align 8, !tbaa !22, !noalias !155
  %8 = getelementptr inbounds nuw i8, ptr %6, i64 12
  store i32 1, ptr %8, align 4, !tbaa !24, !noalias !155
  store ptr getelementptr inbounds nuw inrange(-16, 40) (i8, ptr @_ZTVSt23_Sp_counted_ptr_inplaceIN5osgeo4proj4util10BoxedValueESaIvELN9__gnu_cxx12_Lock_policyE2EE, i64 16), ptr %6, align 8, !tbaa !4, !noalias !155
  %9 = getelementptr inbounds nuw i8, ptr %6, i64 16
  invoke void @_ZN5osgeo4proj4util10BoxedValueC1Ei(ptr noundef nonnull align 8 dereferenceable(24) %9, i32 noundef %2)
          to label %14 unwind label %12, !noalias !155

10:                                               ; preds = %44, %12
  %11 = phi { ptr, i32 } [ %13, %12 ], [ %45, %44 ]
  resume { ptr, i32 } %11

12:                                               ; preds = %3
  %13 = landingpad { ptr, i32 }
          cleanup
  tail call void @_ZdlPvm(ptr noundef nonnull %6, i64 noundef 40) #31, !noalias !155
  br label %10

14:                                               ; preds = %3
  store ptr %9, ptr %4, align 8, !tbaa !143, !alias.scope !152
  %15 = getelementptr inbounds nuw i8, ptr %4, i64 8
  store ptr %6, ptr %15, align 8, !tbaa !20, !alias.scope !152
  invoke void @_ZN5osgeo4proj4util11PropertyMap7Private3setERKNSt7__cxx1112basic_stringIcSt11char_traitsIcESaIcEEERKN7dropbox6oxygen2nnISt10shared_ptrINS1_10BoxedValueEEEE(ptr noundef nonnull align 8 dereferenceable(24) %5, ptr noundef nonnull align 8 dereferenceable(32) %1, ptr noundef nonnull align 8 dereferenceable(16) %4)
          to label %16 unwind label %44

16:                                               ; preds = %14
  %17 = load ptr, ptr %15, align 8, !tbaa !20
  %18 = icmp eq ptr %17, null
  br i1 %18, label %43, label %19

19:                                               ; preds = %16
  %20 = getelementptr inbounds nuw i8, ptr %17, i64 8
  %21 = load atomic i64, ptr %20 acquire, align 8
  %22 = icmp eq i64 %21, 4294967297
  %23 = trunc i64 %21 to i32
  br i1 %22, label %24, label %32

24:                                               ; preds = %19
  store i32 0, ptr %20, align 8, !tbaa !22
  %25 = getelementptr inbounds nuw i8, ptr %17, i64 12
  store i32 0, ptr %25, align 4, !tbaa !24
  %26 = load ptr, ptr %17, align 8, !tbaa !4
  %27 = getelementptr inbounds nuw i8, ptr %26, i64 16
  %28 = load ptr, ptr %27, align 8
  call void %28(ptr noundef nonnull align 8 dereferenceable(16) %17) #30
  %29 = load ptr, ptr %17, align 8, !tbaa !4
  %30 = getelementptr inbounds nuw i8, ptr %29, i64 24
  %31 = load ptr, ptr %30, align 8
  call void %31(ptr noundef nonnull align 8 dereferenceable(16) %17) #30
  br label %43

32:                                               ; preds = %19
  %33 = load i8, ptr @__libc_single_threaded, align 1, !tbaa !17
  %34 = icmp eq i8 %33, 0
  br i1 %34, label %37, label %35

35:                                               ; preds = %32
  %36 = add nsw i32 %23, -1
  store i32 %36, ptr %20, align 4, !tbaa !18
  br label %39

37:                                               ; preds = %32
  %38 = atomicrmw volatile add ptr %20, i32 -1 acq_rel, align 4
  br label %39

39:                                               ; preds = %37, %35
  %40 = phi i32 [ %23, %35 ], [ %38, %37 ]
  %41 = icmp eq i32 %40, 1
  br i1 %41, label %42, label %43, !prof !25

42:                                               ; preds = %39
  call void @_ZNSt16_Sp_counted_baseILN9__gnu_cxx12_Lock_policyE2EE24_M_release_last_use_coldEv(ptr noundef nonnull align 8 dereferenceable(16) %17) #30
  br label %43

43:                                               ; preds = %16, %24, %39, %42
  call void @llvm.lifetime.end.p0(i64 16, ptr nonnull %4) #30
  ret ptr %0

44:                                               ; preds = %14
  %45 = landingpad { ptr, i32 }
          cleanup
  call void @_ZN7dropbox6oxygen2nnISt10shared_ptrIN5osgeo4proj4util10BoxedValueEEED2Ev(ptr noundef nonnull align 8 dereferenceable(16) %4) #30
  call void @llvm.lifetime.end.p0(i64 16, ptr nonnull %4) #30
  br label %10
}

; Function Attrs: mustprogress sspstrong uwtable
define noundef nonnull align 8 dereferenceable(8) ptr @_ZN5osgeo4proj4util11PropertyMap3setERKNSt7__cxx1112basic_stringIcSt11char_traitsIcESaIcEEEb(ptr noundef nonnull readonly returned align 8 captures(ret: address, provenance) dereferenceable(8) %0, ptr noundef nonnull align 8 dereferenceable(32) %1, i1 noundef zeroext %2) local_unnamed_addr #0 align 2 personality ptr @__gxx_personality_v0 {
  %4 = alloca %"class.dropbox::oxygen::nn.37", align 8
  %5 = load ptr, ptr %0, align 8, !tbaa !127
  call void @llvm.lifetime.start.p0(i64 16, ptr nonnull %4) #30
  tail call void @llvm.experimental.noalias.scope.decl(metadata !158)
  %6 = tail call noalias noundef nonnull dereferenceable(40) ptr @_Znwm(i64 noundef 40) #29, !noalias !161
  %7 = getelementptr inbounds nuw i8, ptr %6, i64 8
  store i32 1, ptr %7, align 8, !tbaa !22, !noalias !161
  %8 = getelementptr inbounds nuw i8, ptr %6, i64 12
  store i32 1, ptr %8, align 4, !tbaa !24, !noalias !161
  store ptr getelementptr inbounds nuw inrange(-16, 40) (i8, ptr @_ZTVSt23_Sp_counted_ptr_inplaceIN5osgeo4proj4util10BoxedValueESaIvELN9__gnu_cxx12_Lock_policyE2EE, i64 16), ptr %6, align 8, !tbaa !4, !noalias !161
  %9 = getelementptr inbounds nuw i8, ptr %6, i64 16
  invoke void @_ZN5osgeo4proj4util10BoxedValueC1Eb(ptr noundef nonnull align 8 dereferenceable(24) %9, i1 noundef zeroext %2)
          to label %14 unwind label %12, !noalias !161

10:                                               ; preds = %44, %12
  %11 = phi { ptr, i32 } [ %13, %12 ], [ %45, %44 ]
  resume { ptr, i32 } %11

12:                                               ; preds = %3
  %13 = landingpad { ptr, i32 }
          cleanup
  tail call void @_ZdlPvm(ptr noundef nonnull %6, i64 noundef 40) #31, !noalias !161
  br label %10

14:                                               ; preds = %3
  store ptr %9, ptr %4, align 8, !tbaa !143, !alias.scope !158
  %15 = getelementptr inbounds nuw i8, ptr %4, i64 8
  store ptr %6, ptr %15, align 8, !tbaa !20, !alias.scope !158
  invoke void @_ZN5osgeo4proj4util11PropertyMap7Private3setERKNSt7__cxx1112basic_stringIcSt11char_traitsIcESaIcEEERKN7dropbox6oxygen2nnISt10shared_ptrINS1_10BoxedValueEEEE(ptr noundef nonnull align 8 dereferenceable(24) %5, ptr noundef nonnull align 8 dereferenceable(32) %1, ptr noundef nonnull align 8 dereferenceable(16) %4)
          to label %16 unwind label %44

16:                                               ; preds = %14
  %17 = load ptr, ptr %15, align 8, !tbaa !20
  %18 = icmp eq ptr %17, null
  br i1 %18, label %43, label %19

19:                                               ; preds = %16
  %20 = getelementptr inbounds nuw i8, ptr %17, i64 8
  %21 = load atomic i64, ptr %20 acquire, align 8
  %22 = icmp eq i64 %21, 4294967297
  %23 = trunc i64 %21 to i32
  br i1 %22, label %24, label %32

24:                                               ; preds = %19
  store i32 0, ptr %20, align 8, !tbaa !22
  %25 = getelementptr inbounds nuw i8, ptr %17, i64 12
  store i32 0, ptr %25, align 4, !tbaa !24
  %26 = load ptr, ptr %17, align 8, !tbaa !4
  %27 = getelementptr inbounds nuw i8, ptr %26, i64 16
  %28 = load ptr, ptr %27, align 8
  call void %28(ptr noundef nonnull align 8 dereferenceable(16) %17) #30
  %29 = load ptr, ptr %17, align 8, !tbaa !4
  %30 = getelementptr inbounds nuw i8, ptr %29, i64 24
  %31 = load ptr, ptr %30, align 8
  call void %31(ptr noundef nonnull align 8 dereferenceable(16) %17) #30
  br label %43

32:                                               ; preds = %19
  %33 = load i8, ptr @__libc_single_threaded, align 1, !tbaa !17
  %34 = icmp eq i8 %33, 0
  br i1 %34, label %37, label %35

35:                                               ; preds = %32
  %36 = add nsw i32 %23, -1
  store i32 %36, ptr %20, align 4, !tbaa !18
  br label %39

37:                                               ; preds = %32
  %38 = atomicrmw volatile add ptr %20, i32 -1 acq_rel, align 4
  br label %39

39:                                               ; preds = %37, %35
  %40 = phi i32 [ %23, %35 ], [ %38, %37 ]
  %41 = icmp eq i32 %40, 1
  br i1 %41, label %42, label %43, !prof !25

42:                                               ; preds = %39
  call void @_ZNSt16_Sp_counted_baseILN9__gnu_cxx12_Lock_policyE2EE24_M_release_last_use_coldEv(ptr noundef nonnull align 8 dereferenceable(16) %17) #30
  br label %43

43:                                               ; preds = %16, %24, %39, %42
  call void @llvm.lifetime.end.p0(i64 16, ptr nonnull %4) #30
  ret ptr %0

44:                                               ; preds = %14
  %45 = landingpad { ptr, i32 }
          cleanup
  call void @_ZN7dropbox6oxygen2nnISt10shared_ptrIN5osgeo4proj4util10BoxedValueEEED2Ev(ptr noundef nonnull align 8 dereferenceable(16) %4) #30
  call void @llvm.lifetime.end.p0(i64 16, ptr nonnull %4) #30
  br label %10
}

; Function Attrs: mustprogress sspstrong uwtable
define noundef nonnull align 8 dereferenceable(8) ptr @_ZN5osgeo4proj4util11PropertyMap3setERKNSt7__cxx1112basic_stringIcSt11char_traitsIcESaIcEEERKSt6vectorIS8_SaIS8_EE(ptr noundef nonnull returned align 8 captures(ret: address, provenance) dereferenceable(8) %0, ptr noundef nonnull align 8 dereferenceable(32) %1, ptr noundef nonnull readonly align 8 captures(none) dereferenceable(24) %2) local_unnamed_addr #0 align 2 personality ptr @__gxx_personality_v0 {
  %4 = alloca %"struct.osgeo::proj::util::BaseObjectNNPtr", align 8
  %5 = alloca %"class.std::shared_ptr", align 8
  %6 = alloca %"class.dropbox::oxygen::nn.22", align 8
  %7 = alloca %"struct.osgeo::proj::util::BaseObjectNNPtr", align 8
  %8 = alloca %"class.dropbox::oxygen::nn.37", align 8
  call void @llvm.lifetime.start.p0(i64 16, ptr nonnull %6) #30
  call void @_ZN5osgeo4proj4util17ArrayOfBaseObject14nn_make_sharedIS2_JEEEN7dropbox6oxygen2nnISt10shared_ptrIT_EEEDpOT0_(ptr dead_on_unwind nonnull writable sret(%"class.dropbox::oxygen::nn.22") align 8 %6)
  %9 = load ptr, ptr %2, align 8, !tbaa !164
  %10 = getelementptr inbounds nuw i8, ptr %2, i64 8
  %11 = load ptr, ptr %10, align 8, !tbaa !164
  %12 = icmp eq ptr %9, %11
  br i1 %12, label %16, label %13

13:                                               ; preds = %3
  %14 = getelementptr inbounds nuw i8, ptr %8, i64 8
  %15 = getelementptr inbounds nuw i8, ptr %7, i64 8
  br label %40

16:                                               ; preds = %107, %3
  call void @llvm.lifetime.start.p0(i64 16, ptr nonnull %4) #30
  call void @llvm.lifetime.start.p0(i64 16, ptr nonnull %5) #30
  %17 = load ptr, ptr %6, align 8, !tbaa !118
  store ptr %17, ptr %5, align 8, !tbaa !28
  %18 = getelementptr inbounds nuw i8, ptr %5, i64 8
  %19 = getelementptr inbounds nuw i8, ptr %6, i64 8
  %20 = load ptr, ptr %19, align 8, !tbaa !20
  store ptr %20, ptr %18, align 8, !tbaa !20
  %21 = icmp eq ptr %20, null
  br i1 %21, label %33, label %22

22:                                               ; preds = %16
  %23 = getelementptr inbounds nuw i8, ptr %20, i64 8
  %24 = load i8, ptr @__libc_single_threaded, align 1, !tbaa !17
  %25 = icmp eq i8 %24, 0
  br i1 %25, label %29, label %26

26:                                               ; preds = %22
  %27 = load i32, ptr %23, align 4, !tbaa !18
  %28 = add nsw i32 %27, 1
  store i32 %28, ptr %23, align 4, !tbaa !18
  br label %33

29:                                               ; preds = %22
  %30 = atomicrmw volatile add ptr %23, i32 1 acq_rel, align 4
  %31 = load ptr, ptr %5, align 8, !tbaa !28
  %32 = load ptr, ptr %18, align 8, !tbaa !20
  br label %33

33:                                               ; preds = %29, %26, %16
  %34 = phi ptr [ null, %16 ], [ %20, %26 ], [ %32, %29 ]
  %35 = phi ptr [ %17, %16 ], [ %17, %26 ], [ %31, %29 ]
  store ptr %35, ptr %4, align 8, !tbaa !28
  %36 = getelementptr inbounds nuw i8, ptr %4, i64 8
  store ptr null, ptr %18, align 8, !tbaa !20
  store ptr %34, ptr %36, align 8, !tbaa !20
  store ptr null, ptr %5, align 8, !tbaa !28
  %37 = invoke noundef nonnull align 8 dereferenceable(8) ptr @_ZN5osgeo4proj4util11PropertyMap3setERKNSt7__cxx1112basic_stringIcSt11char_traitsIcESaIcEEERKNS1_15BaseObjectNNPtrE(ptr noundef nonnull align 8 dereferenceable(8) %0, ptr noundef nonnull align 8 dereferenceable(32) %1, ptr noundef nonnull align 8 dereferenceable(16) %4)
          to label %116 unwind label %38

38:                                               ; preds = %33
  %39 = landingpad { ptr, i32 }
          cleanup
  call void @_ZN5osgeo4proj4util15BaseObjectNNPtrD1Ev(ptr noundef nonnull align 8 dereferenceable(16) %4) #30
  call void @_ZNSt12__shared_ptrIN5osgeo4proj4util10BaseObjectELN9__gnu_cxx12_Lock_policyE2EED2Ev(ptr noundef nonnull align 8 dereferenceable(16) %5) #30
  call void @llvm.lifetime.end.p0(i64 16, ptr nonnull %5) #30
  call void @llvm.lifetime.end.p0(i64 16, ptr nonnull %4) #30
  br label %144

40:                                               ; preds = %13, %107
  %41 = phi ptr [ %9, %13 ], [ %108, %107 ]
  %42 = load ptr, ptr %6, align 8, !tbaa !118
  call void @llvm.lifetime.start.p0(i64 16, ptr nonnull %7) #30
  call void @llvm.lifetime.start.p0(i64 16, ptr nonnull %8) #30
  call void @llvm.experimental.noalias.scope.decl(metadata !166)
  %43 = invoke noalias noundef nonnull dereferenceable(40) ptr @_Znwm(i64 noundef 40) #29
          to label %44 unwind label %110

44:                                               ; preds = %40
  %45 = getelementptr inbounds nuw i8, ptr %43, i64 8
  store i32 1, ptr %45, align 8, !tbaa !22, !noalias !169
  %46 = getelementptr inbounds nuw i8, ptr %43, i64 12
  store i32 1, ptr %46, align 4, !tbaa !24, !noalias !169
  store ptr getelementptr inbounds nuw inrange(-16, 40) (i8, ptr @_ZTVSt23_Sp_counted_ptr_inplaceIN5osgeo4proj4util10BoxedValueESaIvELN9__gnu_cxx12_Lock_policyE2EE, i64 16), ptr %43, align 8, !tbaa !4, !noalias !169
  %47 = getelementptr inbounds nuw i8, ptr %43, i64 16
  invoke void @_ZN5osgeo4proj4util10BoxedValueC1ERKNSt7__cxx1112basic_stringIcSt11char_traitsIcESaIcEEE(ptr noundef nonnull align 8 dereferenceable(24) %47, ptr noundef nonnull align 8 dereferenceable(32) %41)
          to label %50 unwind label %48, !noalias !169

48:                                               ; preds = %44
  %49 = landingpad { ptr, i32 }
          cleanup
  call void @_ZdlPvm(ptr noundef nonnull %43, i64 noundef 40) #31, !noalias !169
  br label %114

50:                                               ; preds = %44
  store ptr %47, ptr %8, align 8, !tbaa !143, !alias.scope !166
  store ptr %43, ptr %14, align 8, !tbaa !20, !alias.scope !166
  %51 = load i8, ptr @__libc_single_threaded, align 1, !tbaa !17
  %52 = icmp eq i8 %51, 0
  br i1 %52, label %56, label %53

53:                                               ; preds = %50
  %54 = load i32, ptr %45, align 4, !tbaa !18
  %55 = add nsw i32 %54, 1
  store i32 %55, ptr %45, align 4, !tbaa !18
  br label %58

56:                                               ; preds = %50
  %57 = atomicrmw volatile add ptr %45, i32 1 acq_rel, align 4
  br label %58

58:                                               ; preds = %53, %56
  store ptr %47, ptr %7, align 8, !tbaa !28
  store ptr %43, ptr %15, align 8, !tbaa !20
  %59 = getelementptr inbounds nuw i8, ptr %42, i64 16
  %60 = load ptr, ptr %59, align 8, !tbaa !100
  %61 = getelementptr inbounds nuw i8, ptr %60, i64 8
  %62 = load ptr, ptr %61, align 8, !tbaa !105
  %63 = getelementptr inbounds nuw i8, ptr %60, i64 16
  %64 = load ptr, ptr %63, align 8, !tbaa !107
  %65 = icmp eq ptr %62, %64
  br i1 %65, label %79, label %66

66:                                               ; preds = %58
  store ptr %47, ptr %62, align 8, !tbaa !28
  %67 = getelementptr inbounds nuw i8, ptr %62, i64 8
  store ptr %43, ptr %67, align 8, !tbaa !20
  %68 = load i8, ptr @__libc_single_threaded, align 1, !tbaa !17
  %69 = icmp eq i8 %68, 0
  br i1 %69, label %73, label %70

70:                                               ; preds = %66
  %71 = load i32, ptr %45, align 4, !tbaa !18
  %72 = add nsw i32 %71, 1
  store i32 %72, ptr %45, align 4, !tbaa !18
  br label %76

73:                                               ; preds = %66
  %74 = atomicrmw volatile add ptr %45, i32 1 acq_rel, align 4
  %75 = load ptr, ptr %61, align 8, !tbaa !105
  br label %76

76:                                               ; preds = %73, %70
  %77 = phi ptr [ %62, %70 ], [ %75, %73 ]
  %78 = getelementptr inbounds nuw i8, ptr %77, i64 16
  store ptr %78, ptr %61, align 8, !tbaa !105
  br label %80

79:                                               ; preds = %58
  invoke void @_ZNSt6vectorIN5osgeo4proj4util15BaseObjectNNPtrESaIS3_EE17_M_realloc_appendIJRKS3_EEEvDpOT_(ptr noundef nonnull align 8 dereferenceable(24) %60, ptr noundef nonnull align 8 dereferenceable(16) %7)
          to label %80 unwind label %112

80:                                               ; preds = %76, %79
  call void @_ZN5osgeo4proj4util15BaseObjectNNPtrD1Ev(ptr noundef nonnull align 8 dereferenceable(16) %7) #30
  %81 = load ptr, ptr %14, align 8, !tbaa !20
  %82 = icmp eq ptr %81, null
  br i1 %82, label %107, label %83

83:                                               ; preds = %80
  %84 = getelementptr inbounds nuw i8, ptr %81, i64 8
  %85 = load atomic i64, ptr %84 acquire, align 8
  %86 = icmp eq i64 %85, 4294967297
  %87 = trunc i64 %85 to i32
  br i1 %86, label %88, label %96

88:                                               ; preds = %83
  store i32 0, ptr %84, align 8, !tbaa !22
  %89 = getelementptr inbounds nuw i8, ptr %81, i64 12
  store i32 0, ptr %89, align 4, !tbaa !24
  %90 = load ptr, ptr %81, align 8, !tbaa !4
  %91 = getelementptr inbounds nuw i8, ptr %90, i64 16
  %92 = load ptr, ptr %91, align 8
  call void %92(ptr noundef nonnull align 8 dereferenceable(16) %81) #30
  %93 = load ptr, ptr %81, align 8, !tbaa !4
  %94 = getelementptr inbounds nuw i8, ptr %93, i64 24
  %95 = load ptr, ptr %94, align 8
  call void %95(ptr noundef nonnull align 8 dereferenceable(16) %81) #30
  br label %107

96:                                               ; preds = %83
  %97 = load i8, ptr @__libc_single_threaded, align 1, !tbaa !17
  %98 = icmp eq i8 %97, 0
  br i1 %98, label %101, label %99

99:                                               ; preds = %96
  %100 = add nsw i32 %87, -1
  store i32 %100, ptr %84, align 4, !tbaa !18
  br label %103

101:                                              ; preds = %96
  %102 = atomicrmw volatile add ptr %84, i32 -1 acq_rel, align 4
  br label %103

103:                                              ; preds = %101, %99
  %104 = phi i32 [ %87, %99 ], [ %102, %101 ]
  %105 = icmp eq i32 %104, 1
  br i1 %105, label %106, label %107, !prof !25

106:                                              ; preds = %103
  call void @_ZNSt16_Sp_counted_baseILN9__gnu_cxx12_Lock_policyE2EE24_M_release_last_use_coldEv(ptr noundef nonnull align 8 dereferenceable(16) %81) #30
  br label %107

107:                                              ; preds = %80, %88, %103, %106
  call void @llvm.lifetime.end.p0(i64 16, ptr nonnull %8) #30
  call void @llvm.lifetime.end.p0(i64 16, ptr nonnull %7) #30
  %108 = getelementptr inbounds nuw i8, ptr %41, i64 32
  %109 = icmp eq ptr %108, %11
  br i1 %109, label %16, label %40

110:                                              ; preds = %40
  %111 = landingpad { ptr, i32 }
          cleanup
  br label %114

112:                                              ; preds = %79
  %113 = landingpad { ptr, i32 }
          cleanup
  call void @_ZN5osgeo4proj4util15BaseObjectNNPtrD1Ev(ptr noundef nonnull align 8 dereferenceable(16) %7) #30
  call void @_ZN7dropbox6oxygen2nnISt10shared_ptrIN5osgeo4proj4util10BoxedValueEEED2Ev(ptr noundef nonnull align 8 dereferenceable(16) %8) #30
  br label %114

114:                                              ; preds = %110, %48, %112
  %115 = phi { ptr, i32 } [ %113, %112 ], [ %111, %110 ], [ %49, %48 ]
  call void @llvm.lifetime.end.p0(i64 16, ptr nonnull %8) #30
  call void @llvm.lifetime.end.p0(i64 16, ptr nonnull %7) #30
  br label %144

116:                                              ; preds = %33
  call void @_ZN5osgeo4proj4util15BaseObjectNNPtrD1Ev(ptr noundef nonnull align 8 dereferenceable(16) %4) #30
  call void @llvm.lifetime.end.p0(i64 16, ptr nonnull %5) #30
  call void @llvm.lifetime.end.p0(i64 16, ptr nonnull %4) #30
  %117 = load ptr, ptr %19, align 8, !tbaa !20
  %118 = icmp eq ptr %117, null
  br i1 %118, label %143, label %119

119:                                              ; preds = %116
  %120 = getelementptr inbounds nuw i8, ptr %117, i64 8
  %121 = load atomic i64, ptr %120 acquire, align 8
  %122 = icmp eq i64 %121, 4294967297
  %123 = trunc i64 %121 to i32
  br i1 %122, label %124, label %132

124:                                              ; preds = %119
  store i32 0, ptr %120, align 8, !tbaa !22
  %125 = getelementptr inbounds nuw i8, ptr %117, i64 12
  store i32 0, ptr %125, align 4, !tbaa !24
  %126 = load ptr, ptr %117, align 8, !tbaa !4
  %127 = getelementptr inbounds nuw i8, ptr %126, i64 16
  %128 = load ptr, ptr %127, align 8
  call void %128(ptr noundef nonnull align 8 dereferenceable(16) %117) #30
  %129 = load ptr, ptr %117, align 8, !tbaa !4
  %130 = getelementptr inbounds nuw i8, ptr %129, i64 24
  %131 = load ptr, ptr %130, align 8
  call void %131(ptr noundef nonnull align 8 dereferenceable(16) %117) #30
  br label %143

132:                                              ; preds = %119
  %133 = load i8, ptr @__libc_single_threaded, align 1, !tbaa !17
  %134 = icmp eq i8 %133, 0
  br i1 %134, label %137, label %135

135:                                              ; preds = %132
  %136 = add nsw i32 %123, -1
  store i32 %136, ptr %120, align 4, !tbaa !18
  br label %139

137:                                              ; preds = %132
  %138 = atomicrmw volatile add ptr %120, i32 -1 acq_rel, align 4
  br label %139

139:                                              ; preds = %137, %135
  %140 = phi i32 [ %123, %135 ], [ %138, %137 ]
  %141 = icmp eq i32 %140, 1
  br i1 %141, label %142, label %143, !prof !25

142:                                              ; preds = %139
  call void @_ZNSt16_Sp_counted_baseILN9__gnu_cxx12_Lock_policyE2EE24_M_release_last_use_coldEv(ptr noundef nonnull align 8 dereferenceable(16) %117) #30
  br label %143

143:                                              ; preds = %116, %124, %139, %142
  call void @llvm.lifetime.end.p0(i64 16, ptr nonnull %6) #30
  ret ptr %0

144:                                              ; preds = %38, %114
  %145 = phi { ptr, i32 } [ %115, %114 ], [ %39, %38 ]
  call void @_ZN7dropbox6oxygen2nnISt10shared_ptrIN5osgeo4proj4util17ArrayOfBaseObjectEEED2Ev(ptr noundef nonnull align 8 dereferenceable(16) %6) #30
  call void @llvm.lifetime.end.p0(i64 16, ptr nonnull %6) #30
  resume { ptr, i32 } %145
}

; Function Attrs: inlinehint mustprogress nounwind sspstrong uwtable
define linkonce_odr hidden void @_ZN7dropbox6oxygen2nnISt10shared_ptrIN5osgeo4proj4util17ArrayOfBaseObjectEEED2Ev(ptr noundef nonnull align 8 dereferenceable(16) %0) unnamed_addr #7 comdat align 2 personality ptr @__gxx_personality_v0 {
  %2 = getelementptr inbounds nuw i8, ptr %0, i64 8
  %3 = load ptr, ptr %2, align 8, !tbaa !20
  %4 = icmp eq ptr %3, null
  br i1 %4, label %29, label %5

5:                                                ; preds = %1
  %6 = getelementptr inbounds nuw i8, ptr %3, i64 8
  %7 = load atomic i64, ptr %6 acquire, align 8
  %8 = icmp eq i64 %7, 4294967297
  %9 = trunc i64 %7 to i32
  br i1 %8, label %10, label %18

10:                                               ; preds = %5
  store i32 0, ptr %6, align 8, !tbaa !22
  %11 = getelementptr inbounds nuw i8, ptr %3, i64 12
  store i32 0, ptr %11, align 4, !tbaa !24
  %12 = load ptr, ptr %3, align 8, !tbaa !4
  %13 = getelementptr inbounds nuw i8, ptr %12, i64 16
  %14 = load ptr, ptr %13, align 8
  tail call void %14(ptr noundef nonnull align 8 dereferenceable(16) %3) #30
  %15 = load ptr, ptr %3, align 8, !tbaa !4
  %16 = getelementptr inbounds nuw i8, ptr %15, i64 24
  %17 = load ptr, ptr %16, align 8
  tail call void %17(ptr noundef nonnull align 8 dereferenceable(16) %3) #30
  br label %29

18:                                               ; preds = %5
  %19 = load i8, ptr @__libc_single_threaded, align 1, !tbaa !17
  %20 = icmp eq i8 %19, 0
  br i1 %20, label %23, label %21

21:                                               ; preds = %18
  %22 = add nsw i32 %9, -1
  store i32 %22, ptr %6, align 4, !tbaa !18
  br label %25

23:                                               ; preds = %18
  %24 = atomicrmw volatile add ptr %6, i32 -1 acq_rel, align 4
  br label %25

25:                                               ; preds = %23, %21
  %26 = phi i32 [ %9, %21 ], [ %24, %23 ]
  %27 = icmp eq i32 %26, 1
  br i1 %27, label %28, label %29, !prof !25

28:                                               ; preds = %25
  tail call void @_ZNSt16_Sp_counted_baseILN9__gnu_cxx12_Lock_policyE2EE24_M_release_last_use_coldEv(ptr noundef nonnull align 8 dereferenceable(16) %3) #30
  br label %29

29:                                               ; preds = %1, %10, %25, %28
  ret void
}

; Function Attrs: mustprogress sspstrong uwtable
define hidden noundef zeroext i1 @_ZNK5osgeo4proj4util11PropertyMap14getStringValueERKNSt7__cxx1112basic_stringIcSt11char_traitsIcESaIcEEERS8_(ptr noundef nonnull readonly align 8 captures(none) dereferenceable(8) %0, ptr noundef nonnull align 8 dereferenceable(32) %1, ptr noundef nonnull align 8 dereferenceable(32) %2) local_unnamed_addr #0 align 2 personality ptr @__gxx_personality_v0 {
  %4 = alloca %"class.std::__cxx11::basic_string", align 8
  %5 = load ptr, ptr %0, align 8, !tbaa !127
  %6 = load ptr, ptr %5, align 8, !tbaa !126
  %7 = icmp eq ptr %6, %5
  br i1 %7, label %66, label %8

8:                                                ; preds = %3
  %9 = getelementptr inbounds nuw i8, ptr %1, i64 8
  %10 = load i64, ptr %9, align 8, !tbaa !55
  %11 = icmp ult i64 %10, 9223372036854775807
  tail call void @llvm.assume(i1 %11)
  %12 = load ptr, ptr %1, align 8
  %13 = icmp eq i64 %10, 0
  br label %14

14:                                               ; preds = %8, %63
  %15 = phi ptr [ %6, %8 ], [ %64, %63 ]
  %16 = getelementptr inbounds nuw i8, ptr %15, i64 16
  %17 = getelementptr inbounds nuw i8, ptr %15, i64 24
  %18 = load i64, ptr %17, align 8, !tbaa !55
  %19 = icmp ult i64 %18, 9223372036854775807
  tail call void @llvm.assume(i1 %19)
  %20 = icmp eq i64 %18, %10
  br i1 %20, label %21, label %63

21:                                               ; preds = %14
  br i1 %13, label %26, label %22

22:                                               ; preds = %21
  %23 = load ptr, ptr %16, align 8, !tbaa !64
  %24 = tail call i32 @bcmp(ptr %23, ptr %12, i64 %10)
  %25 = icmp eq i32 %24, 0
  br i1 %25, label %26, label %63

26:                                               ; preds = %21, %22
  %27 = getelementptr inbounds nuw i8, ptr %15, i64 48
  %28 = load ptr, ptr %27, align 8, !tbaa !28
  %29 = icmp eq ptr %28, null
  br i1 %29, label %40, label %30

30:                                               ; preds = %26
  %31 = load ptr, ptr %28, align 8, !tbaa !4
  %32 = icmp eq ptr %31, getelementptr inbounds nuw inrange(-16, 16) (i8, ptr @_ZTVN5osgeo4proj4util10BoxedValueE, i64 16)
  br i1 %32, label %33, label %40

33:                                               ; preds = %30
  %34 = getelementptr inbounds nuw i8, ptr %28, i64 16
  %35 = load ptr, ptr %34, align 8, !tbaa !58
  %36 = load i32, ptr %35, align 4, !tbaa !172
  %37 = icmp eq i32 %36, 0
  br i1 %37, label %38, label %40

38:                                               ; preds = %33
  %39 = getelementptr inbounds nuw i8, ptr %35, i64 8
  tail call void @_ZNSt7__cxx1112basic_stringIcSt11char_traitsIcESaIcEE9_M_assignERKS4_(ptr noundef nonnull align 8 dereferenceable(32) %2, ptr noundef nonnull align 8 dereferenceable(32) %39)
  br label %66

40:                                               ; preds = %30, %26, %33
  %41 = tail call ptr @__cxa_allocate_exception(i64 40) #30
  call void @llvm.lifetime.start.p0(i64 32, ptr nonnull %4) #30
  invoke void @_ZStplIcSt11char_traitsIcESaIcEENSt7__cxx1112basic_stringIT_T0_T1_EEPKS5_RKS8_(ptr dead_on_unwind nonnull writable sret(%"class.std::__cxx11::basic_string") align 8 %4, ptr noundef nonnull @.str.1, ptr noundef nonnull align 8 dereferenceable(32) %1)
          to label %42 unwind label %44

42:                                               ; preds = %40
  invoke void @_ZN5osgeo4proj4util25InvalidValueTypeExceptionC2ERKNSt7__cxx1112basic_stringIcSt11char_traitsIcESaIcEEE(ptr noundef nonnull align 8 dereferenceable(40) %41, ptr noundef nonnull align 8 dereferenceable(32) %4)
          to label %43 unwind label %46

43:                                               ; preds = %42
  invoke void @__cxa_throw(ptr nonnull %41, ptr nonnull @_ZTIN5osgeo4proj4util25InvalidValueTypeExceptionE, ptr nonnull @_ZN5osgeo4proj4util25InvalidValueTypeExceptionD1Ev) #33
          to label %68 unwind label %46

44:                                               ; preds = %40
  %45 = landingpad { ptr, i32 }
          cleanup
  call void @llvm.lifetime.end.p0(i64 32, ptr nonnull %4) #30
  br label %59

46:                                               ; preds = %43, %42
  %47 = phi i1 [ false, %43 ], [ true, %42 ]
  %48 = landingpad { ptr, i32 }
          cleanup
  %49 = load ptr, ptr %4, align 8, !tbaa !64
  %50 = getelementptr inbounds nuw i8, ptr %4, i64 16
  %51 = icmp eq ptr %49, %50
  br i1 %51, label %52, label %56

52:                                               ; preds = %46
  %53 = getelementptr inbounds nuw i8, ptr %4, i64 8
  %54 = load i64, ptr %53, align 8, !tbaa !55
  %55 = icmp ult i64 %54, 16
  call void @llvm.assume(i1 %55)
  call void @llvm.lifetime.end.p0(i64 32, ptr nonnull %4) #30
  br i1 %47, label %59, label %61

56:                                               ; preds = %46
  %57 = load i64, ptr %50, align 8, !tbaa !17
  %58 = add i64 %57, 1
  call void @_ZdlPvm(ptr noundef %49, i64 noundef %58) #31
  call void @llvm.lifetime.end.p0(i64 32, ptr nonnull %4) #30
  br i1 %47, label %59, label %61

59:                                               ; preds = %52, %44, %56
  %60 = phi { ptr, i32 } [ %45, %44 ], [ %48, %56 ], [ %48, %52 ]
  call void @__cxa_free_exception(ptr %41) #30
  br label %61

61:                                               ; preds = %52, %59, %56
  %62 = phi { ptr, i32 } [ %60, %59 ], [ %48, %56 ], [ %48, %52 ]
  resume { ptr, i32 } %62

63:                                               ; preds = %14, %22
  %64 = load ptr, ptr %15, align 8, !tbaa !126
  %65 = icmp eq ptr %64, %5
  br i1 %65, label %66, label %14

66:                                               ; preds = %63, %3, %38
  %67 = phi i1 [ true, %38 ], [ false, %3 ], [ false, %63 ]
  ret i1 %67

68:                                               ; preds = %43
  unreachable
}

declare ptr @__cxa_allocate_exception(i64) local_unnamed_addr

; Function Attrs: inlinehint mustprogress sspstrong uwtable
define linkonce_odr void @_ZStplIcSt11char_traitsIcESaIcEENSt7__cxx1112basic_stringIT_T0_T1_EEPKS5_RKS8_(ptr dead_on_unwind noalias writable sret(%"class.std::__cxx11::basic_string") align 8 %0, ptr noundef %1, ptr noundef nonnull align 8 dereferenceable(32) %2) local_unnamed_addr #8 comdat personality ptr @__gxx_personality_v0 {
  %4 = tail call noundef i64 @strlen(ptr noundef nonnull dereferenceable(1) %1) #30
  %5 = load ptr, ptr %2, align 8, !tbaa !64
  %6 = getelementptr inbounds nuw i8, ptr %2, i64 8
  %7 = load i64, ptr %6, align 8, !tbaa !55
  %8 = icmp ult i64 %7, 9223372036854775807
  tail call void @llvm.assume(i1 %8)
  %9 = getelementptr inbounds nuw i8, ptr %0, i64 16
  store ptr %9, ptr %0, align 8, !tbaa !54, !alias.scope !173
  %10 = getelementptr inbounds nuw i8, ptr %0, i64 8
  store i64 0, ptr %10, align 8, !tbaa !55, !alias.scope !173
  store i8 0, ptr %9, align 8, !tbaa !17, !alias.scope !173
  %11 = add i64 %7, %4
  invoke void @_ZNSt7__cxx1112basic_stringIcSt11char_traitsIcESaIcEE7reserveEm(ptr noundef nonnull align 8 dereferenceable(32) %0, i64 noundef %11)
          to label %12 unwind label %28

12:                                               ; preds = %3
  %13 = load i64, ptr %10, align 8, !tbaa !55, !alias.scope !173
  %14 = icmp ult i64 %13, 9223372036854775807
  tail call void @llvm.assume(i1 %14)
  %15 = sub nuw nsw i64 9223372036854775806, %13
  %16 = icmp ult i64 %15, %4
  br i1 %16, label %24, label %17

17:                                               ; preds = %12
  %18 = invoke noundef nonnull align 8 dereferenceable(32) ptr @_ZNSt7__cxx1112basic_stringIcSt11char_traitsIcESaIcEE9_M_appendEPKcm(ptr noundef nonnull align 8 dereferenceable(32) %0, ptr noundef nonnull %1, i64 noundef %4)
          to label %19 unwind label %28

19:                                               ; preds = %17
  %20 = load i64, ptr %10, align 8, !tbaa !55, !alias.scope !173
  %21 = icmp ult i64 %20, 9223372036854775807
  tail call void @llvm.assume(i1 %21)
  %22 = sub nuw nsw i64 9223372036854775806, %20
  %23 = icmp samesign ult i64 %22, %7
  br i1 %23, label %24, label %26

24:                                               ; preds = %19, %12
  invoke void @_ZSt20__throw_length_errorPKc(ptr noundef nonnull @.str.7) #9
          to label %25 unwind label %28

25:                                               ; preds = %24
  unreachable

26:                                               ; preds = %19
  %27 = invoke noundef nonnull align 8 dereferenceable(32) ptr @_ZNSt7__cxx1112basic_stringIcSt11char_traitsIcESaIcEE9_M_appendEPKcm(ptr noundef nonnull align 8 dereferenceable(32) %0, ptr noundef %5, i64 noundef %7)
          to label %38 unwind label %28

28:                                               ; preds = %26, %24, %17, %3
  %29 = landingpad { ptr, i32 }
          cleanup
  %30 = load ptr, ptr %0, align 8, !tbaa !64, !alias.scope !173
  %31 = icmp eq ptr %30, %9
  br i1 %31, label %32, label %35

32:                                               ; preds = %28
  %33 = load i64, ptr %10, align 8, !tbaa !55, !alias.scope !173
  %34 = icmp ult i64 %33, 16
  tail call void @llvm.assume(i1 %34)
  br label %39

35:                                               ; preds = %28
  %36 = load i64, ptr %9, align 8, !tbaa !17, !alias.scope !173
  %37 = add i64 %36, 1
  tail call void @_ZdlPvm(ptr noundef %30, i64 noundef %37) #31
  br label %39

38:                                               ; preds = %26
  ret void

39:                                               ; preds = %32, %35
  resume { ptr, i32 } %29
}

; Function Attrs: cold noreturn
declare void @__cxa_throw(ptr, ptr, ptr) local_unnamed_addr #9

declare void @__cxa_free_exception(ptr) local_unnamed_addr

; Function Attrs: mustprogress sspstrong uwtable
define hidden noundef zeroext i1 @_ZNK5osgeo4proj4util11PropertyMap14getStringValueERKNSt7__cxx1112basic_stringIcSt11char_traitsIcESaIcEEERNS1_8optionalIS8_EE(ptr noundef nonnull readonly align 8 captures(none) dereferenceable(8) %0, ptr noundef nonnull align 8 dereferenceable(32) %1, ptr noundef nonnull align 8 dereferenceable(40) %2) local_unnamed_addr #0 align 2 personality ptr @__gxx_personality_v0 {
  %4 = alloca %"class.std::__cxx11::basic_string", align 8
  %5 = load ptr, ptr %0, align 8, !tbaa !127
  %6 = load ptr, ptr %5, align 8, !tbaa !126
  %7 = icmp eq ptr %6, %5
  br i1 %7, label %67, label %8

8:                                                ; preds = %3
  %9 = getelementptr inbounds nuw i8, ptr %1, i64 8
  %10 = load i64, ptr %9, align 8, !tbaa !55
  %11 = icmp ult i64 %10, 9223372036854775807
  tail call void @llvm.assume(i1 %11)
  %12 = load ptr, ptr %1, align 8
  %13 = icmp eq i64 %10, 0
  br label %14

14:                                               ; preds = %8, %64
  %15 = phi ptr [ %6, %8 ], [ %65, %64 ]
  %16 = getelementptr inbounds nuw i8, ptr %15, i64 16
  %17 = getelementptr inbounds nuw i8, ptr %15, i64 24
  %18 = load i64, ptr %17, align 8, !tbaa !55
  %19 = icmp ult i64 %18, 9223372036854775807
  tail call void @llvm.assume(i1 %19)
  %20 = icmp eq i64 %18, %10
  br i1 %20, label %21, label %64

21:                                               ; preds = %14
  br i1 %13, label %26, label %22

22:                                               ; preds = %21
  %23 = load ptr, ptr %16, align 8, !tbaa !64
  %24 = tail call i32 @bcmp(ptr %23, ptr %12, i64 %10)
  %25 = icmp eq i32 %24, 0
  br i1 %25, label %26, label %64

26:                                               ; preds = %21, %22
  %27 = getelementptr inbounds nuw i8, ptr %15, i64 48
  %28 = load ptr, ptr %27, align 8, !tbaa !28
  %29 = icmp eq ptr %28, null
  br i1 %29, label %41, label %30

30:                                               ; preds = %26
  %31 = load ptr, ptr %28, align 8, !tbaa !4
  %32 = icmp eq ptr %31, getelementptr inbounds nuw inrange(-16, 16) (i8, ptr @_ZTVN5osgeo4proj4util10BoxedValueE, i64 16)
  br i1 %32, label %33, label %41

33:                                               ; preds = %30
  %34 = getelementptr inbounds nuw i8, ptr %28, i64 16
  %35 = load ptr, ptr %34, align 8, !tbaa !58
  %36 = load i32, ptr %35, align 4, !tbaa !172
  %37 = icmp eq i32 %36, 0
  br i1 %37, label %38, label %41

38:                                               ; preds = %33
  %39 = getelementptr inbounds nuw i8, ptr %35, i64 8
  store i8 1, ptr %2, align 8, !tbaa !176
  %40 = getelementptr inbounds nuw i8, ptr %2, i64 8
  tail call void @_ZNSt7__cxx1112basic_stringIcSt11char_traitsIcESaIcEE9_M_assignERKS4_(ptr noundef nonnull align 8 dereferenceable(32) %40, ptr noundef nonnull align 8 dereferenceable(32) %39)
  br label %67

41:                                               ; preds = %30, %26, %33
  %42 = tail call ptr @__cxa_allocate_exception(i64 40) #30
  call void @llvm.lifetime.start.p0(i64 32, ptr nonnull %4) #30
  invoke void @_ZStplIcSt11char_traitsIcESaIcEENSt7__cxx1112basic_stringIT_T0_T1_EEPKS5_RKS8_(ptr dead_on_unwind nonnull writable sret(%"class.std::__cxx11::basic_string") align 8 %4, ptr noundef nonnull @.str.1, ptr noundef nonnull align 8 dereferenceable(32) %1)
          to label %43 unwind label %45

43:                                               ; preds = %41
  invoke void @_ZN5osgeo4proj4util25InvalidValueTypeExceptionC2ERKNSt7__cxx1112basic_stringIcSt11char_traitsIcESaIcEEE(ptr noundef nonnull align 8 dereferenceable(40) %42, ptr noundef nonnull align 8 dereferenceable(32) %4)
          to label %44 unwind label %47

44:                                               ; preds = %43
  invoke void @__cxa_throw(ptr nonnull %42, ptr nonnull @_ZTIN5osgeo4proj4util25InvalidValueTypeExceptionE, ptr nonnull @_ZN5osgeo4proj4util25InvalidValueTypeExceptionD1Ev) #33
          to label %69 unwind label %47

45:                                               ; preds = %41
  %46 = landingpad { ptr, i32 }
          cleanup
  call void @llvm.lifetime.end.p0(i64 32, ptr nonnull %4) #30
  br label %60

47:                                               ; preds = %44, %43
  %48 = phi i1 [ false, %44 ], [ true, %43 ]
  %49 = landingpad { ptr, i32 }
          cleanup
  %50 = load ptr, ptr %4, align 8, !tbaa !64
  %51 = getelementptr inbounds nuw i8, ptr %4, i64 16
  %52 = icmp eq ptr %50, %51
  br i1 %52, label %53, label %57

53:                                               ; preds = %47
  %54 = getelementptr inbounds nuw i8, ptr %4, i64 8
  %55 = load i64, ptr %54, align 8, !tbaa !55
  %56 = icmp ult i64 %55, 16
  call void @llvm.assume(i1 %56)
  call void @llvm.lifetime.end.p0(i64 32, ptr nonnull %4) #30
  br i1 %48, label %60, label %62

57:                                               ; preds = %47
  %58 = load i64, ptr %51, align 8, !tbaa !17
  %59 = add i64 %58, 1
  call void @_ZdlPvm(ptr noundef %50, i64 noundef %59) #31
  call void @llvm.lifetime.end.p0(i64 32, ptr nonnull %4) #30
  br i1 %48, label %60, label %62

60:                                               ; preds = %53, %45, %57
  %61 = phi { ptr, i32 } [ %46, %45 ], [ %49, %57 ], [ %49, %53 ]
  call void @__cxa_free_exception(ptr %42) #30
  br label %62

62:                                               ; preds = %53, %60, %57
  %63 = phi { ptr, i32 } [ %61, %60 ], [ %49, %57 ], [ %49, %53 ]
  resume { ptr, i32 } %63

64:                                               ; preds = %14, %22
  %65 = load ptr, ptr %15, align 8, !tbaa !126
  %66 = icmp eq ptr %65, %5
  br i1 %66, label %67, label %14

67:                                               ; preds = %64, %3, %38
  %68 = phi i1 [ true, %38 ], [ false, %3 ], [ false, %64 ]
  ret i1 %68

69:                                               ; preds = %44
  unreachable
}

; Function Attrs: mustprogress sspstrong uwtable
define hidden void @_ZN5osgeo4proj4util11GenericNameC2Ev(ptr noundef nonnull align 8 captures(none) dereferenceable(24) initializes((0, 16)) %0) unnamed_addr #0 align 2 personality ptr @__gxx_personality_v0 {
  store ptr getelementptr inbounds nuw inrange(-16, 16) (i8, ptr @_ZTVN5osgeo4proj4util10BaseObjectE, i64 16), ptr %0, align 8, !tbaa !4
  %2 = getelementptr inbounds nuw i8, ptr %0, i64 8
  tail call void @llvm.experimental.noalias.scope.decl(metadata !178)
  %3 = tail call noalias noundef nonnull dereferenceable(16) ptr @_Znwm(i64 noundef 16) #29, !noalias !178
  tail call void @llvm.memset.p0.i64(ptr noundef nonnull align 8 dereferenceable(16) %3, i8 0, i64 16, i1 false), !noalias !178
  store ptr %3, ptr %2, align 8, !tbaa !10, !alias.scope !178
  store ptr getelementptr inbounds nuw inrange(-16, 40) (i8, ptr @_ZTVN5osgeo4proj4util11GenericNameE, i64 16), ptr %0, align 8, !tbaa !4
  %4 = invoke noalias noundef nonnull dereferenceable(1) ptr @_Znwm(i64 noundef 1) #29
          to label %5 unwind label %7

5:                                                ; preds = %1
  %6 = getelementptr inbounds nuw i8, ptr %0, i64 16
  store ptr %4, ptr %6, align 8, !tbaa !181, !alias.scope !183
  ret void

7:                                                ; preds = %1
  %8 = landingpad { ptr, i32 }
          cleanup
  tail call void @_ZN5osgeo4proj4util10BaseObjectD2Ev(ptr noundef nonnull align 8 dereferenceable(16) %0) #30
  resume { ptr, i32 } %8
}

; Function Attrs: mustprogress sspstrong uwtable
define hidden void @_ZN5osgeo4proj4util11GenericNameC2ERKS2_(ptr noundef nonnull align 8 captures(none) dereferenceable(24) initializes((0, 16)) %0, ptr noundef nonnull readonly align 8 captures(none) dereferenceable(24) %1) unnamed_addr #0 align 2 personality ptr @__gxx_personality_v0 {
  store ptr getelementptr inbounds nuw inrange(-16, 16) (i8, ptr @_ZTVN5osgeo4proj4util10BaseObjectE, i64 16), ptr %0, align 8, !tbaa !4
  %3 = getelementptr inbounds nuw i8, ptr %0, i64 8
  tail call void @llvm.experimental.noalias.scope.decl(metadata !186)
  %4 = tail call noalias noundef nonnull dereferenceable(16) ptr @_Znwm(i64 noundef 16) #29, !noalias !186
  tail call void @llvm.memset.p0.i64(ptr noundef nonnull align 8 dereferenceable(16) %4, i8 0, i64 16, i1 false), !noalias !186
  store ptr %4, ptr %3, align 8, !tbaa !10, !alias.scope !186
  store ptr getelementptr inbounds nuw inrange(-16, 40) (i8, ptr @_ZTVN5osgeo4proj4util11GenericNameE, i64 16), ptr %0, align 8, !tbaa !4
  %5 = invoke noalias noundef nonnull dereferenceable(1) ptr @_Znwm(i64 noundef 1) #29
          to label %6 unwind label %8

6:                                                ; preds = %2
  %7 = getelementptr inbounds nuw i8, ptr %0, i64 16
  store ptr %5, ptr %7, align 8, !tbaa !181, !alias.scope !189
  ret void

8:                                                ; preds = %2
  %9 = landingpad { ptr, i32 }
          cleanup
  tail call void @_ZN5osgeo4proj4util10BaseObjectD2Ev(ptr noundef nonnull align 8 dereferenceable(16) %0) #30
  resume { ptr, i32 } %9
}

; Function Attrs: mustprogress nounwind sspstrong uwtable
define void @_ZN5osgeo4proj4util11GenericNameD2Ev(ptr noundef nonnull align 8 captures(none) dereferenceable(24) initializes((0, 8)) %0) unnamed_addr #1 align 2 personality ptr @__gxx_personality_v0 {
  store ptr getelementptr inbounds nuw inrange(-16, 40) (i8, ptr @_ZTVN5osgeo4proj4util11GenericNameE, i64 16), ptr %0, align 8, !tbaa !4
  %2 = getelementptr inbounds nuw i8, ptr %0, i64 16
  %3 = load ptr, ptr %2, align 8, !tbaa !181
  %4 = icmp eq ptr %3, null
  br i1 %4, label %6, label %5

5:                                                ; preds = %1
  tail call void @_ZdlPvm(ptr noundef nonnull %3, i64 noundef 1) #31
  br label %6

6:                                                ; preds = %1, %5
  store ptr null, ptr %2, align 8, !tbaa !181
  store ptr getelementptr inbounds nuw inrange(-16, 16) (i8, ptr @_ZTVN5osgeo4proj4util10BaseObjectE, i64 16), ptr %0, align 8, !tbaa !4
  %7 = getelementptr inbounds nuw i8, ptr %0, i64 8
  %8 = load ptr, ptr %7, align 8, !tbaa !10
  %9 = icmp eq ptr %8, null
  br i1 %9, label %31, label %10

10:                                               ; preds = %6
  %11 = getelementptr inbounds nuw i8, ptr %8, i64 8
  %12 = load ptr, ptr %11, align 8, !tbaa !14
  %13 = icmp eq ptr %12, null
  br i1 %13, label %30, label %14

14:                                               ; preds = %10
  %15 = getelementptr inbounds nuw i8, ptr %12, i64 12
  %16 = load i8, ptr @__libc_single_threaded, align 1, !tbaa !17
  %17 = icmp eq i8 %16, 0
  br i1 %17, label %21, label %18

18:                                               ; preds = %14
  %19 = load i32, ptr %15, align 4, !tbaa !18
  %20 = add nsw i32 %19, -1
  store i32 %20, ptr %15, align 4, !tbaa !18
  br label %23

21:                                               ; preds = %14
  %22 = atomicrmw volatile add ptr %15, i32 -1 acq_rel, align 4
  br label %23

23:                                               ; preds = %21, %18
  %24 = phi i32 [ %19, %18 ], [ %22, %21 ]
  %25 = icmp eq i32 %24, 1
  br i1 %25, label %26, label %30

26:                                               ; preds = %23
  %27 = load ptr, ptr %12, align 8, !tbaa !4
  %28 = getelementptr inbounds nuw i8, ptr %27, i64 24
  %29 = load ptr, ptr %28, align 8
  tail call void %29(ptr noundef nonnull align 8 dereferenceable(16) %12) #30
  br label %30

30:                                               ; preds = %26, %23, %10
  tail call void @_ZdlPvm(ptr noundef nonnull %8, i64 noundef 16) #31
  br label %31

31:                                               ; preds = %6, %30
  store ptr null, ptr %7, align 8, !tbaa !10
  ret void
}

; Function Attrs: cold mustprogress noreturn nounwind sspstrong memory(inaccessiblemem: write) uwtable
define void @_ZN5osgeo4proj4util11GenericNameD0Ev(ptr nonnull readnone align 8 captures(none) %0) unnamed_addr #10 align 2 {
  tail call void @llvm.trap() #34
  unreachable
}

; Function Attrs: cold noreturn nounwind memory(inaccessiblemem: write)
declare void @llvm.trap() #11

; Function Attrs: mustprogress sspstrong uwtable
define hidden void @_ZN5osgeo4proj4util9NameSpaceC2ERKSt10shared_ptrINS1_11GenericNameEE(ptr noundef nonnull writeonly align 8 captures(none) dereferenceable(8) initializes((0, 8)) %0, ptr noundef nonnull readonly align 8 captures(none) dereferenceable(16) %1) unnamed_addr #0 align 2 personality ptr @__gxx_personality_v0 {
  tail call void @llvm.experimental.noalias.scope.decl(metadata !192)
  %3 = tail call noalias noundef nonnull dereferenceable(88) ptr @_Znwm(i64 noundef 88) #29, !noalias !192
  %4 = getelementptr inbounds nuw i8, ptr %3, i64 24
  %5 = getelementptr inbounds nuw i8, ptr %3, i64 40
  %6 = getelementptr inbounds nuw i8, ptr %3, i64 8
  tail call void @llvm.memset.p0.i64(ptr noundef nonnull align 8 dereferenceable(80) %6, i8 0, i64 80, i1 false), !noalias !192
  store ptr %5, ptr %4, align 8, !tbaa !54, !noalias !192
  store i8 58, ptr %5, align 1, !tbaa !17, !noalias !192
  %7 = getelementptr inbounds nuw i8, ptr %3, i64 32
  store i64 1, ptr %7, align 8, !tbaa !55, !noalias !192
  %8 = getelementptr inbounds nuw i8, ptr %3, i64 56
  %9 = getelementptr inbounds nuw i8, ptr %3, i64 72
  store ptr %9, ptr %8, align 8, !tbaa !54, !noalias !192
  store i8 58, ptr %9, align 1, !tbaa !17, !noalias !192
  %10 = getelementptr inbounds nuw i8, ptr %3, i64 64
  store i64 1, ptr %10, align 8, !tbaa !55, !noalias !192
  store ptr %3, ptr %0, align 8, !tbaa !195, !alias.scope !192
  %11 = load ptr, ptr %1, align 8, !tbaa !197
  store ptr %11, ptr %3, align 8, !tbaa !197
  %12 = getelementptr inbounds nuw i8, ptr %3, i64 8
  %13 = getelementptr inbounds nuw i8, ptr %1, i64 8
  %14 = load ptr, ptr %13, align 8, !tbaa !20
  %15 = icmp eq ptr %14, null
  br i1 %15, label %52, label %16

16:                                               ; preds = %2
  %17 = getelementptr inbounds nuw i8, ptr %14, i64 8
  %18 = load i8, ptr @__libc_single_threaded, align 1, !tbaa !17
  %19 = icmp eq i8 %18, 0
  br i1 %19, label %23, label %20

20:                                               ; preds = %16
  %21 = load i32, ptr %17, align 4, !tbaa !18
  %22 = add nsw i32 %21, 1
  store i32 %22, ptr %17, align 4, !tbaa !18
  br label %51

23:                                               ; preds = %16
  %24 = atomicrmw volatile add ptr %17, i32 1 acq_rel, align 4
  %25 = load ptr, ptr %12, align 8, !tbaa !20
  %26 = icmp eq ptr %25, null
  br i1 %26, label %51, label %27

27:                                               ; preds = %23
  %28 = getelementptr inbounds nuw i8, ptr %25, i64 8
  %29 = load atomic i64, ptr %28 acquire, align 8
  %30 = icmp eq i64 %29, 4294967297
  %31 = trunc i64 %29 to i32
  br i1 %30, label %32, label %40

32:                                               ; preds = %27
  store i32 0, ptr %28, align 8, !tbaa !22
  %33 = getelementptr inbounds nuw i8, ptr %25, i64 12
  store i32 0, ptr %33, align 4, !tbaa !24
  %34 = load ptr, ptr %25, align 8, !tbaa !4
  %35 = getelementptr inbounds nuw i8, ptr %34, i64 16
  %36 = load ptr, ptr %35, align 8
  tail call void %36(ptr noundef nonnull align 8 dereferenceable(16) %25) #30
  %37 = load ptr, ptr %25, align 8, !tbaa !4
  %38 = getelementptr inbounds nuw i8, ptr %37, i64 24
  %39 = load ptr, ptr %38, align 8
  tail call void %39(ptr noundef nonnull align 8 dereferenceable(16) %25) #30
  br label %51

40:                                               ; preds = %27
  %41 = load i8, ptr @__libc_single_threaded, align 1, !tbaa !17
  %42 = icmp eq i8 %41, 0
  br i1 %42, label %45, label %43

43:                                               ; preds = %40
  %44 = add nsw i32 %31, -1
  store i32 %44, ptr %28, align 4, !tbaa !18
  br label %47

45:                                               ; preds = %40
  %46 = atomicrmw volatile add ptr %28, i32 -1 acq_rel, align 4
  br label %47

47:                                               ; preds = %45, %43
  %48 = phi i32 [ %31, %43 ], [ %46, %45 ]
  %49 = icmp eq i32 %48, 1
  br i1 %49, label %50, label %51, !prof !25

50:                                               ; preds = %47
  tail call void @_ZNSt16_Sp_counted_baseILN9__gnu_cxx12_Lock_policyE2EE24_M_release_last_use_coldEv(ptr noundef nonnull align 8 dereferenceable(16) %25) #30
  br label %51

51:                                               ; preds = %20, %50, %47, %32, %23
  store ptr %14, ptr %12, align 8, !tbaa !20
  br label %52

52:                                               ; preds = %2, %51
  ret void
}

; Function Attrs: mustprogress sspstrong uwtable
define hidden void @_ZN5osgeo4proj4util9NameSpaceC2ERKS2_(ptr noundef nonnull writeonly align 8 captures(none) dereferenceable(8) %0, ptr noundef nonnull readonly align 8 captures(none) dereferenceable(8) %1) unnamed_addr #0 align 2 personality ptr @__gxx_personality_v0 {
  %3 = load ptr, ptr %1, align 8, !tbaa !195
  tail call void @llvm.experimental.noalias.scope.decl(metadata !200)
  %4 = tail call noalias noundef nonnull dereferenceable(88) ptr @_Znwm(i64 noundef 88) #29, !noalias !200
  invoke void @_ZN5osgeo4proj4util9NameSpace7PrivateC2ERKS3_(ptr noundef nonnull align 8 dereferenceable(88) %4, ptr noundef nonnull align 8 dereferenceable(88) %3)
          to label %7 unwind label %5, !noalias !200

5:                                                ; preds = %2
  %6 = landingpad { ptr, i32 }
          cleanup
  tail call void @_ZdlPvm(ptr noundef nonnull %4, i64 noundef 88) #31, !noalias !200
  resume { ptr, i32 } %6

7:                                                ; preds = %2
  store ptr %4, ptr %0, align 8, !tbaa !195, !alias.scope !200
  ret void
}

; Function Attrs: mustprogress nounwind sspstrong uwtable
define void @_ZN5osgeo4proj4util9NameSpaceD2Ev(ptr noundef nonnull align 8 dereferenceable(8) %0) unnamed_addr #1 align 2 personality ptr @__gxx_personality_v0 {
  %2 = load ptr, ptr %0, align 8, !tbaa !195
  %3 = icmp eq ptr %2, null
  br i1 %3, label %5, label %4

4:                                                ; preds = %1
  tail call void @_ZNKSt14default_deleteIN5osgeo4proj4util9NameSpace7PrivateEEclEPS4_(ptr noundef nonnull align 8 dereferenceable(8) %0, ptr noundef nonnull %2)
  br label %5

5:                                                ; preds = %1, %4
  store ptr null, ptr %0, align 8, !tbaa !195
  ret void
}

; Function Attrs: mustprogress nofree norecurse nosync nounwind sspstrong willreturn memory(read, inaccessiblemem: none) uwtable
define noundef zeroext i1 @_ZNK5osgeo4proj4util9NameSpace8isGlobalEv(ptr noundef nonnull readonly align 8 captures(none) dereferenceable(8) %0) local_unnamed_addr #5 align 2 {
  %2 = load ptr, ptr %0, align 8, !tbaa !195
  %3 = getelementptr inbounds nuw i8, ptr %2, i64 16
  %4 = load i8, ptr %3, align 8, !tbaa !203, !range !92, !noundef !93
  %5 = trunc nuw i8 %4 to i1
  ret i1 %5
}

; Function Attrs: mustprogress sspstrong uwtable
define hidden void @_ZNK5osgeo4proj4util9NameSpace17getGlobalFromThisEv(ptr dead_on_unwind noalias writable sret(%"class.dropbox::oxygen::nn.66") align 8 %0, ptr noundef nonnull align 8 dereferenceable(8) %1) local_unnamed_addr #0 align 2 personality ptr @__gxx_personality_v0 {
  %3 = alloca %"class.std::shared_ptr.70", align 8
  tail call void @_ZN5osgeo4proj4util9NameSpace14nn_make_sharedIS2_JRKS2_EEEN7dropbox6oxygen2nnISt10shared_ptrIT_EEEDpOT0_(ptr dead_on_unwind writable sret(%"class.dropbox::oxygen::nn.66") align 8 %0, ptr noundef nonnull align 8 dereferenceable(8) %1)
  %4 = load ptr, ptr %0, align 8, !tbaa !206
  %5 = load ptr, ptr %4, align 8, !tbaa !195
  %6 = getelementptr inbounds nuw i8, ptr %5, i64 16
  store i8 1, ptr %6, align 8, !tbaa !203
  call void @llvm.lifetime.start.p0(i64 16, ptr nonnull %3) #30
  invoke void @_ZN5osgeo4proj4util9LocalName11make_sharedIS2_JRA7_KcEEESt10shared_ptrIT_EDpOT0_(ptr dead_on_unwind nonnull writable sret(%"class.std::shared_ptr.70") align 8 %3, ptr noundef nonnull align 1 dereferenceable(7) @.str.2)
          to label %7 unwind label %68

7:                                                ; preds = %2
  %8 = load ptr, ptr %0, align 8, !tbaa !206
  %9 = load ptr, ptr %8, align 8, !tbaa !195
  %10 = load ptr, ptr %3, align 8, !tbaa !209
  %11 = getelementptr inbounds nuw i8, ptr %3, i64 8
  %12 = load ptr, ptr %11, align 8, !tbaa !20
  call void @llvm.memset.p0.i64(ptr noundef nonnull align 8 dereferenceable(16) %3, i8 0, i64 16, i1 false)
  store ptr %10, ptr %9, align 8, !tbaa !212
  %13 = getelementptr inbounds nuw i8, ptr %9, i64 8
  %14 = load ptr, ptr %13, align 8, !tbaa !20
  store ptr %12, ptr %13, align 8, !tbaa !20
  %15 = icmp eq ptr %14, null
  br i1 %15, label %40, label %16

16:                                               ; preds = %7
  %17 = getelementptr inbounds nuw i8, ptr %14, i64 8
  %18 = load atomic i64, ptr %17 acquire, align 8
  %19 = icmp eq i64 %18, 4294967297
  %20 = trunc i64 %18 to i32
  br i1 %19, label %21, label %29

21:                                               ; preds = %16
  store i32 0, ptr %17, align 8, !tbaa !22
  %22 = getelementptr inbounds nuw i8, ptr %14, i64 12
  store i32 0, ptr %22, align 4, !tbaa !24
  %23 = load ptr, ptr %14, align 8, !tbaa !4
  %24 = getelementptr inbounds nuw i8, ptr %23, i64 16
  %25 = load ptr, ptr %24, align 8
  call void %25(ptr noundef nonnull align 8 dereferenceable(16) %14) #30
  %26 = load ptr, ptr %14, align 8, !tbaa !4
  %27 = getelementptr inbounds nuw i8, ptr %26, i64 24
  %28 = load ptr, ptr %27, align 8
  call void %28(ptr noundef nonnull align 8 dereferenceable(16) %14) #30
  br label %40

29:                                               ; preds = %16
  %30 = load i8, ptr @__libc_single_threaded, align 1, !tbaa !17
  %31 = icmp eq i8 %30, 0
  br i1 %31, label %34, label %32

32:                                               ; preds = %29
  %33 = add nsw i32 %20, -1
  store i32 %33, ptr %17, align 4, !tbaa !18
  br label %36

34:                                               ; preds = %29
  %35 = atomicrmw volatile add ptr %17, i32 -1 acq_rel, align 4
  br label %36

36:                                               ; preds = %34, %32
  %37 = phi i32 [ %20, %32 ], [ %35, %34 ]
  %38 = icmp eq i32 %37, 1
  br i1 %38, label %39, label %40, !prof !25

39:                                               ; preds = %36
  call void @_ZNSt16_Sp_counted_baseILN9__gnu_cxx12_Lock_policyE2EE24_M_release_last_use_coldEv(ptr noundef nonnull align 8 dereferenceable(16) %14) #30
  br label %40

40:                                               ; preds = %7, %21, %36, %39
  %41 = load ptr, ptr %11, align 8, !tbaa !20
  %42 = icmp eq ptr %41, null
  br i1 %42, label %67, label %43

43:                                               ; preds = %40
  %44 = getelementptr inbounds nuw i8, ptr %41, i64 8
  %45 = load atomic i64, ptr %44 acquire, align 8
  %46 = icmp eq i64 %45, 4294967297
  %47 = trunc i64 %45 to i32
  br i1 %46, label %48, label %56

48:                                               ; preds = %43
  store i32 0, ptr %44, align 8, !tbaa !22
  %49 = getelementptr inbounds nuw i8, ptr %41, i64 12
  store i32 0, ptr %49, align 4, !tbaa !24
  %50 = load ptr, ptr %41, align 8, !tbaa !4
  %51 = getelementptr inbounds nuw i8, ptr %50, i64 16
  %52 = load ptr, ptr %51, align 8
  call void %52(ptr noundef nonnull align 8 dereferenceable(16) %41) #30
  %53 = load ptr, ptr %41, align 8, !tbaa !4
  %54 = getelementptr inbounds nuw i8, ptr %53, i64 24
  %55 = load ptr, ptr %54, align 8
  call void %55(ptr noundef nonnull align 8 dereferenceable(16) %41) #30
  br label %67

56:                                               ; preds = %43
  %57 = load i8, ptr @__libc_single_threaded, align 1, !tbaa !17
  %58 = icmp eq i8 %57, 0
  br i1 %58, label %61, label %59

59:                                               ; preds = %56
  %60 = add nsw i32 %47, -1
  store i32 %60, ptr %44, align 4, !tbaa !18
  br label %63

61:                                               ; preds = %56
  %62 = atomicrmw volatile add ptr %44, i32 -1 acq_rel, align 4
  br label %63

63:                                               ; preds = %61, %59
  %64 = phi i32 [ %47, %59 ], [ %62, %61 ]
  %65 = icmp eq i32 %64, 1
  br i1 %65, label %66, label %67, !prof !25

66:                                               ; preds = %63
  call void @_ZNSt16_Sp_counted_baseILN9__gnu_cxx12_Lock_policyE2EE24_M_release_last_use_coldEv(ptr noundef nonnull align 8 dereferenceable(16) %41) #30
  br label %67

67:                                               ; preds = %40, %48, %63, %66
  call void @llvm.lifetime.end.p0(i64 16, ptr nonnull %3) #30
  ret void

68:                                               ; preds = %2
  %69 = landingpad { ptr, i32 }
          cleanup
  call void @llvm.lifetime.end.p0(i64 16, ptr nonnull %3) #30
  call void @_ZN7dropbox6oxygen2nnISt10shared_ptrIN5osgeo4proj4util9NameSpaceEEED2Ev(ptr noundef nonnull align 8 dereferenceable(16) %0) #30
  resume { ptr, i32 } %69
}

; Function Attrs: mustprogress sspstrong uwtable
define linkonce_odr hidden void @_ZN5osgeo4proj4util9NameSpace14nn_make_sharedIS2_JRKS2_EEEN7dropbox6oxygen2nnISt10shared_ptrIT_EEEDpOT0_(ptr dead_on_unwind noalias writable sret(%"class.dropbox::oxygen::nn.66") align 8 %0, ptr noundef nonnull align 8 dereferenceable(8) %1) local_unnamed_addr #0 comdat align 2 personality ptr @__gxx_personality_v0 {
  %3 = tail call noalias noundef nonnull dereferenceable(8) ptr @_Znwm(i64 noundef 8) #29
  %4 = load ptr, ptr %1, align 8, !tbaa !195
  tail call void @llvm.experimental.noalias.scope.decl(metadata !213)
  %5 = invoke noalias noundef nonnull dereferenceable(88) ptr @_Znwm(i64 noundef 88) #29
          to label %6 unwind label %28

6:                                                ; preds = %2
  invoke void @_ZN5osgeo4proj4util9NameSpace7PrivateC2ERKS3_(ptr noundef nonnull align 8 dereferenceable(88) %5, ptr noundef nonnull align 8 dereferenceable(88) %4)
          to label %9 unwind label %7, !noalias !213

7:                                                ; preds = %6
  %8 = landingpad { ptr, i32 }
          cleanup
  tail call void @_ZdlPvm(ptr noundef nonnull %5, i64 noundef 88) #31, !noalias !213
  br label %30

9:                                                ; preds = %6
  store ptr %5, ptr %3, align 8, !tbaa !195, !alias.scope !213
  %10 = invoke noalias noundef nonnull dereferenceable(24) ptr @_Znwm(i64 noundef 24) #29
          to label %23 unwind label %11

11:                                               ; preds = %9
  %12 = landingpad { ptr, i32 }
          catch ptr null
  %13 = extractvalue { ptr, i32 } %12, 0
  %14 = tail call ptr @__cxa_begin_catch(ptr %13) #30
  tail call void @_ZN5osgeo4proj4util9NameSpaceD1Ev(ptr noundef nonnull align 8 dereferenceable(8) %3) #30
  tail call void @_ZdlPvm(ptr noundef nonnull %3, i64 noundef 8) #31
  invoke void @__cxa_rethrow() #33
          to label %22 unwind label %15

15:                                               ; preds = %11
  %16 = landingpad { ptr, i32 }
          cleanup
  invoke void @__cxa_end_catch()
          to label %17 unwind label %19

17:                                               ; preds = %15, %30
  %18 = phi { ptr, i32 } [ %31, %30 ], [ %16, %15 ]
  resume { ptr, i32 } %18

19:                                               ; preds = %15
  %20 = landingpad { ptr, i32 }
          catch ptr null
  %21 = extractvalue { ptr, i32 } %20, 0
  tail call void @__clang_call_terminate(ptr %21) #34
  unreachable

22:                                               ; preds = %11
  unreachable

23:                                               ; preds = %9
  %24 = getelementptr inbounds nuw i8, ptr %10, i64 8
  store i32 1, ptr %24, align 8, !tbaa !22
  %25 = getelementptr inbounds nuw i8, ptr %10, i64 12
  store i32 1, ptr %25, align 4, !tbaa !24
  store ptr getelementptr inbounds nuw inrange(-16, 40) (i8, ptr @_ZTVSt15_Sp_counted_ptrIPN5osgeo4proj4util9NameSpaceELN9__gnu_cxx12_Lock_policyE2EE, i64 16), ptr %10, align 8, !tbaa !4
  %26 = getelementptr inbounds nuw i8, ptr %10, i64 16
  store ptr %3, ptr %26, align 8, !tbaa !216
  store ptr %3, ptr %0, align 8, !tbaa !206
  %27 = getelementptr inbounds nuw i8, ptr %0, i64 8
  store ptr %10, ptr %27, align 8, !tbaa !20
  ret void

28:                                               ; preds = %2
  %29 = landingpad { ptr, i32 }
          cleanup
  br label %30

30:                                               ; preds = %7, %28
  %31 = phi { ptr, i32 } [ %29, %28 ], [ %8, %7 ]
  tail call void @_ZdlPvm(ptr noundef nonnull %3, i64 noundef 8) #31
  br label %17
}

; Function Attrs: mustprogress sspstrong uwtable
define linkonce_odr hidden void @_ZN5osgeo4proj4util9LocalName11make_sharedIS2_JRA7_KcEEESt10shared_ptrIT_EDpOT0_(ptr dead_on_unwind noalias writable sret(%"class.std::shared_ptr.70") align 8 %0, ptr noundef nonnull align 1 dereferenceable(7) %1) local_unnamed_addr #0 comdat align 2 personality ptr @__gxx_personality_v0 {
  %3 = alloca i64, align 8
  %4 = alloca %"class.std::__cxx11::basic_string", align 8
  %5 = tail call noalias noundef nonnull dereferenceable(32) ptr @_Znwm(i64 noundef 32) #29
  call void @llvm.lifetime.start.p0(i64 32, ptr nonnull %4) #30
  %6 = getelementptr inbounds nuw i8, ptr %4, i64 16
  store ptr %6, ptr %4, align 8, !tbaa !54
  %7 = call noundef i64 @strlen(ptr noundef nonnull dereferenceable(1) %1) #30
  call void @llvm.lifetime.start.p0(i64 8, ptr nonnull %3) #30
  store i64 %7, ptr %3, align 8, !tbaa !63
  %8 = icmp ugt i64 %7, 15
  br i1 %8, label %9, label %13

9:                                                ; preds = %2
  %10 = invoke noundef ptr @_ZNSt7__cxx1112basic_stringIcSt11char_traitsIcESaIcEE9_M_createERmm(ptr noundef nonnull align 8 dereferenceable(32) %4, ptr noundef nonnull align 8 dereferenceable(8) %3, i64 noundef 0)
          to label %11 unwind label %52

11:                                               ; preds = %9
  store ptr %10, ptr %4, align 8, !tbaa !64
  %12 = load i64, ptr %3, align 8, !tbaa !63
  store i64 %12, ptr %6, align 8, !tbaa !17
  br label %13

13:                                               ; preds = %11, %2
  %14 = phi ptr [ %10, %11 ], [ %6, %2 ]
  switch i64 %7, label %17 [
    i64 1, label %15
    i64 0, label %18
  ]

15:                                               ; preds = %13
  %16 = load i8, ptr %1, align 1, !tbaa !17
  store i8 %16, ptr %14, align 1, !tbaa !17
  br label %18

17:                                               ; preds = %13
  call void @llvm.memcpy.p0.p0.i64(ptr align 1 %14, ptr nonnull align 1 %1, i64 %7, i1 false)
  br label %18

18:                                               ; preds = %17, %15, %13
  %19 = load i64, ptr %3, align 8, !tbaa !63
  %20 = getelementptr inbounds nuw i8, ptr %4, i64 8
  store i64 %19, ptr %20, align 8, !tbaa !55
  %21 = load ptr, ptr %4, align 8, !tbaa !64
  %22 = getelementptr inbounds nuw i8, ptr %21, i64 %19
  store i8 0, ptr %22, align 1, !tbaa !17
  call void @llvm.lifetime.end.p0(i64 8, ptr nonnull %3) #30
  invoke void @_ZN5osgeo4proj4util9LocalNameC2ERKNSt7__cxx1112basic_stringIcSt11char_traitsIcESaIcEEE(ptr noundef nonnull align 8 dereferenceable(32) %5, ptr noundef nonnull align 8 dereferenceable(32) %4)
          to label %23 unwind label %54

23:                                               ; preds = %18
  store ptr %5, ptr %0, align 8, !tbaa !209
  %24 = getelementptr inbounds nuw i8, ptr %0, i64 8
  store ptr null, ptr %24, align 8, !tbaa !20
  %25 = invoke noalias noundef nonnull dereferenceable(24) ptr @_Znwm(i64 noundef 24) #29
          to label %39 unwind label %26

26:                                               ; preds = %23
  %27 = landingpad { ptr, i32 }
          catch ptr null
  %28 = extractvalue { ptr, i32 } %27, 0
  %29 = call ptr @__cxa_begin_catch(ptr %28) #30
  %30 = load ptr, ptr %5, align 8, !tbaa !4
  %31 = getelementptr inbounds nuw i8, ptr %30, i64 8
  %32 = load ptr, ptr %31, align 8
  call void %32(ptr noundef nonnull align 8 dereferenceable(32) %5) #30
  invoke void @__cxa_rethrow() #33
          to label %38 unwind label %33

33:                                               ; preds = %26
  %34 = landingpad { ptr, i32 }
          cleanup
  invoke void @__cxa_end_catch()
          to label %61 unwind label %35

35:                                               ; preds = %33
  %36 = landingpad { ptr, i32 }
          catch ptr null
  %37 = extractvalue { ptr, i32 } %36, 0
  call void @__clang_call_terminate(ptr %37) #34
  unreachable

38:                                               ; preds = %26
  unreachable

39:                                               ; preds = %23
  %40 = getelementptr inbounds nuw i8, ptr %25, i64 8
  store i32 1, ptr %40, align 8, !tbaa !22
  %41 = getelementptr inbounds nuw i8, ptr %25, i64 12
  store i32 1, ptr %41, align 4, !tbaa !24
  store ptr getelementptr inbounds nuw inrange(-16, 40) (i8, ptr @_ZTVSt15_Sp_counted_ptrIPN5osgeo4proj4util9LocalNameELN9__gnu_cxx12_Lock_policyE2EE, i64 16), ptr %25, align 8, !tbaa !4
  %42 = getelementptr inbounds nuw i8, ptr %25, i64 16
  store ptr %5, ptr %42, align 8, !tbaa !218
  store ptr %25, ptr %24, align 8, !tbaa !20
  %43 = load ptr, ptr %4, align 8, !tbaa !64
  %44 = icmp eq ptr %43, %6
  br i1 %44, label %45, label %48

45:                                               ; preds = %39
  %46 = load i64, ptr %20, align 8, !tbaa !55
  %47 = icmp ult i64 %46, 16
  call void @llvm.assume(i1 %47)
  br label %51

48:                                               ; preds = %39
  %49 = load i64, ptr %6, align 8, !tbaa !17
  %50 = add i64 %49, 1
  call void @_ZdlPvm(ptr noundef %43, i64 noundef %50) #31
  br label %51

51:                                               ; preds = %45, %48
  call void @llvm.lifetime.end.p0(i64 32, ptr nonnull %4) #30
  ret void

52:                                               ; preds = %9
  %53 = landingpad { ptr, i32 }
          cleanup
  br label %73

54:                                               ; preds = %18
  %55 = landingpad { ptr, i32 }
          cleanup
  %56 = load ptr, ptr %4, align 8, !tbaa !64
  %57 = icmp eq ptr %56, %6
  br i1 %57, label %67, label %58

58:                                               ; preds = %54
  %59 = load i64, ptr %6, align 8, !tbaa !17
  %60 = add i64 %59, 1
  call void @_ZdlPvm(ptr noundef %56, i64 noundef %60) #31
  br label %73

61:                                               ; preds = %33
  %62 = load ptr, ptr %4, align 8, !tbaa !64
  %63 = icmp eq ptr %62, %6
  br i1 %63, label %64, label %70

64:                                               ; preds = %61
  %65 = load i64, ptr %20, align 8, !tbaa !55
  %66 = icmp ult i64 %65, 16
  call void @llvm.assume(i1 %66)
  call void @llvm.lifetime.end.p0(i64 32, ptr nonnull %4) #30
  br label %75

67:                                               ; preds = %54
  %68 = load i64, ptr %20, align 8, !tbaa !55
  %69 = icmp ult i64 %68, 16
  call void @llvm.assume(i1 %69)
  br label %73

70:                                               ; preds = %61
  %71 = load i64, ptr %6, align 8, !tbaa !17
  %72 = add i64 %71, 1
  call void @_ZdlPvm(ptr noundef %62, i64 noundef %72) #31
  call void @llvm.lifetime.end.p0(i64 32, ptr nonnull %4) #30
  br label %75

73:                                               ; preds = %58, %67, %52
  %74 = phi { ptr, i32 } [ %53, %52 ], [ %55, %67 ], [ %55, %58 ]
  call void @llvm.lifetime.end.p0(i64 32, ptr nonnull %4) #30
  call void @_ZdlPvm(ptr noundef nonnull %5, i64 noundef 32) #31
  br label %75

75:                                               ; preds = %70, %64, %73
  %76 = phi { ptr, i32 } [ %34, %70 ], [ %74, %73 ], [ %34, %64 ]
  resume { ptr, i32 } %76
}

; Function Attrs: mustprogress nounwind sspstrong uwtable
define linkonce_odr hidden void @_ZNSt12__shared_ptrIN5osgeo4proj4util9LocalNameELN9__gnu_cxx12_Lock_policyE2EED2Ev(ptr noundef nonnull align 8 dereferenceable(16) %0) unnamed_addr #1 comdat align 2 personality ptr @__gxx_personality_v0 {
  %2 = getelementptr inbounds nuw i8, ptr %0, i64 8
  %3 = load ptr, ptr %2, align 8, !tbaa !20
  %4 = icmp eq ptr %3, null
  br i1 %4, label %29, label %5

5:                                                ; preds = %1
  %6 = getelementptr inbounds nuw i8, ptr %3, i64 8
  %7 = load atomic i64, ptr %6 acquire, align 8
  %8 = icmp eq i64 %7, 4294967297
  %9 = trunc i64 %7 to i32
  br i1 %8, label %10, label %18

10:                                               ; preds = %5
  store i32 0, ptr %6, align 8, !tbaa !22
  %11 = getelementptr inbounds nuw i8, ptr %3, i64 12
  store i32 0, ptr %11, align 4, !tbaa !24
  %12 = load ptr, ptr %3, align 8, !tbaa !4
  %13 = getelementptr inbounds nuw i8, ptr %12, i64 16
  %14 = load ptr, ptr %13, align 8
  tail call void %14(ptr noundef nonnull align 8 dereferenceable(16) %3) #30
  %15 = load ptr, ptr %3, align 8, !tbaa !4
  %16 = getelementptr inbounds nuw i8, ptr %15, i64 24
  %17 = load ptr, ptr %16, align 8
  tail call void %17(ptr noundef nonnull align 8 dereferenceable(16) %3) #30
  br label %29

18:                                               ; preds = %5
  %19 = load i8, ptr @__libc_single_threaded, align 1, !tbaa !17
  %20 = icmp eq i8 %19, 0
  br i1 %20, label %23, label %21

21:                                               ; preds = %18
  %22 = add nsw i32 %9, -1
  store i32 %22, ptr %6, align 4, !tbaa !18
  br label %25

23:                                               ; preds = %18
  %24 = atomicrmw volatile add ptr %6, i32 -1 acq_rel, align 4
  br label %25

25:                                               ; preds = %23, %21
  %26 = phi i32 [ %9, %21 ], [ %24, %23 ]
  %27 = icmp eq i32 %26, 1
  br i1 %27, label %28, label %29, !prof !25

28:                                               ; preds = %25
  tail call void @_ZNSt16_Sp_counted_baseILN9__gnu_cxx12_Lock_policyE2EE24_M_release_last_use_coldEv(ptr noundef nonnull align 8 dereferenceable(16) %3) #30
  br label %29

29:                                               ; preds = %1, %10, %25, %28
  ret void
}

; Function Attrs: inlinehint mustprogress nounwind sspstrong uwtable
define linkonce_odr hidden void @_ZN7dropbox6oxygen2nnISt10shared_ptrIN5osgeo4proj4util9NameSpaceEEED2Ev(ptr noundef nonnull align 8 dereferenceable(16) %0) unnamed_addr #7 comdat align 2 personality ptr @__gxx_personality_v0 {
  %2 = getelementptr inbounds nuw i8, ptr %0, i64 8
  %3 = load ptr, ptr %2, align 8, !tbaa !20
  %4 = icmp eq ptr %3, null
  br i1 %4, label %29, label %5

5:                                                ; preds = %1
  %6 = getelementptr inbounds nuw i8, ptr %3, i64 8
  %7 = load atomic i64, ptr %6 acquire, align 8
  %8 = icmp eq i64 %7, 4294967297
  %9 = trunc i64 %7 to i32
  br i1 %8, label %10, label %18

10:                                               ; preds = %5
  store i32 0, ptr %6, align 8, !tbaa !22
  %11 = getelementptr inbounds nuw i8, ptr %3, i64 12
  store i32 0, ptr %11, align 4, !tbaa !24
  %12 = load ptr, ptr %3, align 8, !tbaa !4
  %13 = getelementptr inbounds nuw i8, ptr %12, i64 16
  %14 = load ptr, ptr %13, align 8
  tail call void %14(ptr noundef nonnull align 8 dereferenceable(16) %3) #30
  %15 = load ptr, ptr %3, align 8, !tbaa !4
  %16 = getelementptr inbounds nuw i8, ptr %15, i64 24
  %17 = load ptr, ptr %16, align 8
  tail call void %17(ptr noundef nonnull align 8 dereferenceable(16) %3) #30
  br label %29

18:                                               ; preds = %5
  %19 = load i8, ptr @__libc_single_threaded, align 1, !tbaa !17
  %20 = icmp eq i8 %19, 0
  br i1 %20, label %23, label %21

21:                                               ; preds = %18
  %22 = add nsw i32 %9, -1
  store i32 %22, ptr %6, align 4, !tbaa !18
  br label %25

23:                                               ; preds = %18
  %24 = atomicrmw volatile add ptr %6, i32 -1 acq_rel, align 4
  br label %25

25:                                               ; preds = %23, %21
  %26 = phi i32 [ %9, %21 ], [ %24, %23 ]
  %27 = icmp eq i32 %26, 1
  br i1 %27, label %28, label %29, !prof !25

28:                                               ; preds = %25
  tail call void @_ZNSt16_Sp_counted_baseILN9__gnu_cxx12_Lock_policyE2EE24_M_release_last_use_coldEv(ptr noundef nonnull align 8 dereferenceable(16) %3) #30
  br label %29

29:                                               ; preds = %1, %10, %25, %28
  ret void
}

; Function Attrs: mustprogress nofree norecurse nosync nounwind sspstrong willreturn memory(argmem: read) uwtable
define noundef nonnull align 8 dereferenceable(16) ptr @_ZNK5osgeo4proj4util9NameSpace4nameEv(ptr noundef nonnull readonly align 8 captures(none) dereferenceable(8) %0) local_unnamed_addr #4 align 2 {
  %2 = load ptr, ptr %0, align 8, !tbaa !195
  ret ptr %2
}

; Function Attrs: mustprogress nofree norecurse nosync nounwind sspstrong willreturn memory(argmem: read) uwtable
define hidden noundef nonnull align 8 dereferenceable(32) ptr @_ZNK5osgeo4proj4util9NameSpace9separatorB5cxx11Ev(ptr noundef nonnull readonly align 8 captures(none) dereferenceable(8) %0) local_unnamed_addr #4 align 2 {
  %2 = load ptr, ptr %0, align 8, !tbaa !195
  %3 = getelementptr inbounds nuw i8, ptr %2, i64 24
  ret ptr %3
}

; Function Attrs: mustprogress sspstrong uwtable
define hidden void @_ZN5osgeo4proj4util9NameSpace12createGLOBALEv(ptr dead_on_unwind noalias writable sret(%"class.dropbox::oxygen::nn.66") align 8 %0) local_unnamed_addr #0 align 2 personality ptr @__gxx_personality_v0 {
  %2 = alloca %"class.std::shared_ptr.70", align 8
  call void @llvm.lifetime.start.p0(i64 16, ptr nonnull %2) #30
  call void @_ZN5osgeo4proj4util9LocalName11make_sharedIS2_JRA7_KcEEESt10shared_ptrIT_EDpOT0_(ptr dead_on_unwind nonnull writable sret(%"class.std::shared_ptr.70") align 8 %2, ptr noundef nonnull align 1 dereferenceable(7) @.str.2)
  invoke void @_ZN5osgeo4proj4util9NameSpace14nn_make_sharedIS2_JSt10shared_ptrINS1_9LocalNameEEEEEN7dropbox6oxygen2nnIS4_IT_EEEDpOT0_(ptr dead_on_unwind writable sret(%"class.dropbox::oxygen::nn.66") align 8 %0, ptr noundef nonnull align 8 dereferenceable(16) %2)
          to label %3 unwind label %35

3:                                                ; preds = %1
  %4 = getelementptr inbounds nuw i8, ptr %2, i64 8
  %5 = load ptr, ptr %4, align 8, !tbaa !20
  %6 = icmp eq ptr %5, null
  br i1 %6, label %31, label %7

7:                                                ; preds = %3
  %8 = getelementptr inbounds nuw i8, ptr %5, i64 8
  %9 = load atomic i64, ptr %8 acquire, align 8
  %10 = icmp eq i64 %9, 4294967297
  %11 = trunc i64 %9 to i32
  br i1 %10, label %12, label %20

12:                                               ; preds = %7
  store i32 0, ptr %8, align 8, !tbaa !22
  %13 = getelementptr inbounds nuw i8, ptr %5, i64 12
  store i32 0, ptr %13, align 4, !tbaa !24
  %14 = load ptr, ptr %5, align 8, !tbaa !4
  %15 = getelementptr inbounds nuw i8, ptr %14, i64 16
  %16 = load ptr, ptr %15, align 8
  call void %16(ptr noundef nonnull align 8 dereferenceable(16) %5) #30
  %17 = load ptr, ptr %5, align 8, !tbaa !4
  %18 = getelementptr inbounds nuw i8, ptr %17, i64 24
  %19 = load ptr, ptr %18, align 8
  call void %19(ptr noundef nonnull align 8 dereferenceable(16) %5) #30
  br label %31

20:                                               ; preds = %7
  %21 = load i8, ptr @__libc_single_threaded, align 1, !tbaa !17
  %22 = icmp eq i8 %21, 0
  br i1 %22, label %25, label %23

23:                                               ; preds = %20
  %24 = add nsw i32 %11, -1
  store i32 %24, ptr %8, align 4, !tbaa !18
  br label %27

25:                                               ; preds = %20
  %26 = atomicrmw volatile add ptr %8, i32 -1 acq_rel, align 4
  br label %27

27:                                               ; preds = %25, %23
  %28 = phi i32 [ %11, %23 ], [ %26, %25 ]
  %29 = icmp eq i32 %28, 1
  br i1 %29, label %30, label %31, !prof !25

30:                                               ; preds = %27
  call void @_ZNSt16_Sp_counted_baseILN9__gnu_cxx12_Lock_policyE2EE24_M_release_last_use_coldEv(ptr noundef nonnull align 8 dereferenceable(16) %5) #30
  br label %31

31:                                               ; preds = %3, %12, %27, %30
  call void @llvm.lifetime.end.p0(i64 16, ptr nonnull %2) #30
  %32 = load ptr, ptr %0, align 8, !tbaa !206
  %33 = load ptr, ptr %32, align 8, !tbaa !195
  %34 = getelementptr inbounds nuw i8, ptr %33, i64 16
  store i8 1, ptr %34, align 8, !tbaa !203
  ret void

35:                                               ; preds = %1
  %36 = landingpad { ptr, i32 }
          cleanup
  call void @_ZNSt12__shared_ptrIN5osgeo4proj4util9LocalNameELN9__gnu_cxx12_Lock_policyE2EED2Ev(ptr noundef nonnull align 8 dereferenceable(16) %2) #30
  call void @llvm.lifetime.end.p0(i64 16, ptr nonnull %2) #30
  resume { ptr, i32 } %36
}

; Function Attrs: mustprogress sspstrong uwtable
define linkonce_odr hidden void @_ZN5osgeo4proj4util9NameSpace14nn_make_sharedIS2_JSt10shared_ptrINS1_9LocalNameEEEEEN7dropbox6oxygen2nnIS4_IT_EEEDpOT0_(ptr dead_on_unwind noalias writable sret(%"class.dropbox::oxygen::nn.66") align 8 %0, ptr noundef nonnull align 8 dereferenceable(16) %1) local_unnamed_addr #0 comdat align 2 personality ptr @__gxx_personality_v0 {
  %3 = alloca %"class.std::shared_ptr.63", align 8
  %4 = tail call noalias noundef nonnull dereferenceable(8) ptr @_Znwm(i64 noundef 8) #29
  call void @llvm.lifetime.start.p0(i64 16, ptr nonnull %3) #30
  %5 = load ptr, ptr %1, align 8, !tbaa !209
  store ptr %5, ptr %3, align 8, !tbaa !197
  %6 = getelementptr inbounds nuw i8, ptr %3, i64 8
  %7 = getelementptr inbounds nuw i8, ptr %1, i64 8
  %8 = load ptr, ptr %7, align 8, !tbaa !20
  store ptr null, ptr %7, align 8, !tbaa !20
  store ptr %8, ptr %6, align 8, !tbaa !20
  store ptr null, ptr %1, align 8, !tbaa !209
  tail call void @llvm.experimental.noalias.scope.decl(metadata !220)
  %9 = invoke noalias noundef nonnull dereferenceable(88) ptr @_Znwm(i64 noundef 88) #29
          to label %10 unwind label %100

10:                                               ; preds = %2
  %11 = getelementptr inbounds nuw i8, ptr %9, i64 24
  %12 = getelementptr inbounds nuw i8, ptr %9, i64 40
  %13 = getelementptr inbounds nuw i8, ptr %9, i64 8
  tail call void @llvm.memset.p0.i64(ptr noundef nonnull align 8 dereferenceable(80) %13, i8 0, i64 80, i1 false), !noalias !220
  store ptr %12, ptr %11, align 8, !tbaa !54, !noalias !220
  store i8 58, ptr %12, align 1, !tbaa !17, !noalias !220
  %14 = getelementptr inbounds nuw i8, ptr %9, i64 32
  store i64 1, ptr %14, align 8, !tbaa !55, !noalias !220
  %15 = getelementptr inbounds nuw i8, ptr %9, i64 56
  %16 = getelementptr inbounds nuw i8, ptr %9, i64 72
  store ptr %16, ptr %15, align 8, !tbaa !54, !noalias !220
  store i8 58, ptr %16, align 1, !tbaa !17, !noalias !220
  %17 = getelementptr inbounds nuw i8, ptr %9, i64 64
  store i64 1, ptr %17, align 8, !tbaa !55, !noalias !220
  store ptr %9, ptr %4, align 8, !tbaa !195, !alias.scope !220
  store ptr %5, ptr %9, align 8, !tbaa !197
  %18 = icmp eq ptr %8, null
  br i1 %18, label %55, label %19

19:                                               ; preds = %10
  %20 = getelementptr inbounds nuw i8, ptr %8, i64 8
  %21 = load i8, ptr @__libc_single_threaded, align 1, !tbaa !17
  %22 = icmp eq i8 %21, 0
  br i1 %22, label %26, label %23

23:                                               ; preds = %19
  %24 = load i32, ptr %20, align 4, !tbaa !18
  %25 = add nsw i32 %24, 1
  store i32 %25, ptr %20, align 4, !tbaa !18
  br label %54

26:                                               ; preds = %19
  %27 = atomicrmw volatile add ptr %20, i32 1 acq_rel, align 4
  %28 = load ptr, ptr %13, align 8, !tbaa !20
  %29 = icmp eq ptr %28, null
  br i1 %29, label %54, label %30

30:                                               ; preds = %26
  %31 = getelementptr inbounds nuw i8, ptr %28, i64 8
  %32 = load atomic i64, ptr %31 acquire, align 8
  %33 = icmp eq i64 %32, 4294967297
  %34 = trunc i64 %32 to i32
  br i1 %33, label %35, label %43

35:                                               ; preds = %30
  store i32 0, ptr %31, align 8, !tbaa !22
  %36 = getelementptr inbounds nuw i8, ptr %28, i64 12
  store i32 0, ptr %36, align 4, !tbaa !24
  %37 = load ptr, ptr %28, align 8, !tbaa !4
  %38 = getelementptr inbounds nuw i8, ptr %37, i64 16
  %39 = load ptr, ptr %38, align 8
  tail call void %39(ptr noundef nonnull align 8 dereferenceable(16) %28) #30
  %40 = load ptr, ptr %28, align 8, !tbaa !4
  %41 = getelementptr inbounds nuw i8, ptr %40, i64 24
  %42 = load ptr, ptr %41, align 8
  tail call void %42(ptr noundef nonnull align 8 dereferenceable(16) %28) #30
  br label %54

43:                                               ; preds = %30
  %44 = load i8, ptr @__libc_single_threaded, align 1, !tbaa !17
  %45 = icmp eq i8 %44, 0
  br i1 %45, label %48, label %46

46:                                               ; preds = %43
  %47 = add nsw i32 %34, -1
  store i32 %47, ptr %31, align 4, !tbaa !18
  br label %50

48:                                               ; preds = %43
  %49 = atomicrmw volatile add ptr %31, i32 -1 acq_rel, align 4
  br label %50

50:                                               ; preds = %48, %46
  %51 = phi i32 [ %34, %46 ], [ %49, %48 ]
  %52 = icmp eq i32 %51, 1
  br i1 %52, label %53, label %54, !prof !25

53:                                               ; preds = %50
  tail call void @_ZNSt16_Sp_counted_baseILN9__gnu_cxx12_Lock_policyE2EE24_M_release_last_use_coldEv(ptr noundef nonnull align 8 dereferenceable(16) %28) #30
  br label %54

54:                                               ; preds = %53, %50, %35, %26, %23
  store ptr %8, ptr %13, align 8, !tbaa !20
  br label %55

55:                                               ; preds = %54, %10
  %56 = invoke noalias noundef nonnull dereferenceable(24) ptr @_Znwm(i64 noundef 24) #29
          to label %67 unwind label %57

57:                                               ; preds = %55
  %58 = landingpad { ptr, i32 }
          catch ptr null
  %59 = extractvalue { ptr, i32 } %58, 0
  %60 = tail call ptr @__cxa_begin_catch(ptr %59) #30
  tail call void @_ZN5osgeo4proj4util9NameSpaceD1Ev(ptr noundef nonnull align 8 dereferenceable(8) %4) #30
  tail call void @_ZdlPvm(ptr noundef nonnull %4, i64 noundef 8) #31
  invoke void @__cxa_rethrow() #33
          to label %66 unwind label %61

61:                                               ; preds = %57
  %62 = landingpad { ptr, i32 }
          cleanup
  invoke void @__cxa_end_catch()
          to label %99 unwind label %63

63:                                               ; preds = %61
  %64 = landingpad { ptr, i32 }
          catch ptr null
  %65 = extractvalue { ptr, i32 } %64, 0
  tail call void @__clang_call_terminate(ptr %65) #34
  unreachable

66:                                               ; preds = %57
  unreachable

67:                                               ; preds = %55
  %68 = getelementptr inbounds nuw i8, ptr %56, i64 8
  store i32 1, ptr %68, align 8, !tbaa !22
  %69 = getelementptr inbounds nuw i8, ptr %56, i64 12
  store i32 1, ptr %69, align 4, !tbaa !24
  store ptr getelementptr inbounds nuw inrange(-16, 40) (i8, ptr @_ZTVSt15_Sp_counted_ptrIPN5osgeo4proj4util9NameSpaceELN9__gnu_cxx12_Lock_policyE2EE, i64 16), ptr %56, align 8, !tbaa !4
  %70 = getelementptr inbounds nuw i8, ptr %56, i64 16
  store ptr %4, ptr %70, align 8, !tbaa !216
  store ptr %4, ptr %0, align 8, !tbaa !206
  %71 = getelementptr inbounds nuw i8, ptr %0, i64 8
  store ptr %56, ptr %71, align 8, !tbaa !20
  %72 = load ptr, ptr %6, align 8, !tbaa !20
  %73 = icmp eq ptr %72, null
  br i1 %73, label %98, label %74

74:                                               ; preds = %67
  %75 = getelementptr inbounds nuw i8, ptr %72, i64 8
  %76 = load atomic i64, ptr %75 acquire, align 8
  %77 = icmp eq i64 %76, 4294967297
  %78 = trunc i64 %76 to i32
  br i1 %77, label %79, label %87

79:                                               ; preds = %74
  store i32 0, ptr %75, align 8, !tbaa !22
  %80 = getelementptr inbounds nuw i8, ptr %72, i64 12
  store i32 0, ptr %80, align 4, !tbaa !24
  %81 = load ptr, ptr %72, align 8, !tbaa !4
  %82 = getelementptr inbounds nuw i8, ptr %81, i64 16
  %83 = load ptr, ptr %82, align 8
  tail call void %83(ptr noundef nonnull align 8 dereferenceable(16) %72) #30
  %84 = load ptr, ptr %72, align 8, !tbaa !4
  %85 = getelementptr inbounds nuw i8, ptr %84, i64 24
  %86 = load ptr, ptr %85, align 8
  tail call void %86(ptr noundef nonnull align 8 dereferenceable(16) %72) #30
  br label %98

87:                                               ; preds = %74
  %88 = load i8, ptr @__libc_single_threaded, align 1, !tbaa !17
  %89 = icmp eq i8 %88, 0
  br i1 %89, label %92, label %90

90:                                               ; preds = %87
  %91 = add nsw i32 %78, -1
  store i32 %91, ptr %75, align 4, !tbaa !18
  br label %94

92:                                               ; preds = %87
  %93 = atomicrmw volatile add ptr %75, i32 -1 acq_rel, align 4
  br label %94

94:                                               ; preds = %92, %90
  %95 = phi i32 [ %78, %90 ], [ %93, %92 ]
  %96 = icmp eq i32 %95, 1
  br i1 %96, label %97, label %98, !prof !25

97:                                               ; preds = %94
  tail call void @_ZNSt16_Sp_counted_baseILN9__gnu_cxx12_Lock_policyE2EE24_M_release_last_use_coldEv(ptr noundef nonnull align 8 dereferenceable(16) %72) #30
  br label %98

98:                                               ; preds = %67, %79, %94, %97
  call void @llvm.lifetime.end.p0(i64 16, ptr nonnull %3) #30
  ret void

99:                                               ; preds = %61
  call void @_ZNSt12__shared_ptrIN5osgeo4proj4util11GenericNameELN9__gnu_cxx12_Lock_policyE2EED2Ev(ptr noundef nonnull align 8 dereferenceable(16) %3) #30
  call void @llvm.lifetime.end.p0(i64 16, ptr nonnull %3) #30
  br label %102

100:                                              ; preds = %2
  %101 = landingpad { ptr, i32 }
          cleanup
  call void @_ZNSt12__shared_ptrIN5osgeo4proj4util11GenericNameELN9__gnu_cxx12_Lock_policyE2EED2Ev(ptr noundef nonnull align 8 dereferenceable(16) %3) #30
  call void @llvm.lifetime.end.p0(i64 16, ptr nonnull %3) #30
  call void @_ZdlPvm(ptr noundef nonnull %4, i64 noundef 8) #31
  br label %102

102:                                              ; preds = %99, %100
  %103 = phi { ptr, i32 } [ %101, %100 ], [ %62, %99 ]
  resume { ptr, i32 } %103
}

; Function Attrs: mustprogress sspstrong uwtable
define hidden void @_ZN5osgeo4proj4util9LocalNameC2ERKNSt7__cxx1112basic_stringIcSt11char_traitsIcESaIcEEE(ptr noundef nonnull align 8 dereferenceable(32) initializes((0, 16)) %0, ptr noundef nonnull align 8 dereferenceable(32) %1) unnamed_addr #0 align 2 personality ptr @__gxx_personality_v0 {
  store ptr getelementptr inbounds nuw inrange(-16, 16) (i8, ptr @_ZTVN5osgeo4proj4util10BaseObjectE, i64 16), ptr %0, align 8, !tbaa !4
  %3 = getelementptr inbounds nuw i8, ptr %0, i64 8
  tail call void @llvm.experimental.noalias.scope.decl(metadata !223)
  %4 = tail call noalias noundef nonnull dereferenceable(16) ptr @_Znwm(i64 noundef 16) #29, !noalias !223
  tail call void @llvm.memset.p0.i64(ptr noundef nonnull align 8 dereferenceable(16) %4, i8 0, i64 16, i1 false), !noalias !223
  store ptr %4, ptr %3, align 8, !tbaa !10, !alias.scope !223
  store ptr getelementptr inbounds nuw inrange(-16, 40) (i8, ptr @_ZTVN5osgeo4proj4util11GenericNameE, i64 16), ptr %0, align 8, !tbaa !4
  %5 = invoke noalias noundef nonnull dereferenceable(1) ptr @_Znwm(i64 noundef 1) #29
          to label %10 unwind label %8

6:                                                ; preds = %22, %8
  %7 = phi { ptr, i32 } [ %9, %8 ], [ %23, %22 ]
  resume { ptr, i32 } %7

8:                                                ; preds = %2
  %9 = landingpad { ptr, i32 }
          cleanup
  tail call void @_ZN5osgeo4proj4util10BaseObjectD2Ev(ptr noundef nonnull align 8 dereferenceable(24) %0) #30
  br label %6

10:                                               ; preds = %2
  %11 = getelementptr inbounds nuw i8, ptr %0, i64 16
  store ptr %5, ptr %11, align 8, !tbaa !181, !alias.scope !226
  store ptr getelementptr inbounds nuw inrange(-16, 40) (i8, ptr @_ZTVN5osgeo4proj4util9LocalNameE, i64 16), ptr %0, align 8, !tbaa !4
  %12 = getelementptr inbounds nuw i8, ptr %0, i64 24
  tail call void @llvm.experimental.noalias.scope.decl(metadata !229)
  %13 = invoke noalias noundef nonnull dereferenceable(48) ptr @_Znwm(i64 noundef 48) #29
          to label %14 unwind label %18

14:                                               ; preds = %10
  %15 = getelementptr inbounds nuw i8, ptr %13, i64 16
  %16 = getelementptr inbounds nuw i8, ptr %13, i64 32
  tail call void @llvm.memset.p0.i64(ptr noundef nonnull align 8 dereferenceable(48) %13, i8 0, i64 48, i1 false), !noalias !229
  store ptr %16, ptr %15, align 8, !tbaa !54, !noalias !229
  store ptr %13, ptr %12, align 8, !tbaa !232, !alias.scope !229
  invoke void @_ZNSt7__cxx1112basic_stringIcSt11char_traitsIcESaIcEE9_M_assignERKS4_(ptr noundef nonnull align 8 dereferenceable(32) %15, ptr noundef nonnull align 8 dereferenceable(32) %1)
          to label %17 unwind label %20

17:                                               ; preds = %14
  ret void

18:                                               ; preds = %10
  %19 = landingpad { ptr, i32 }
          cleanup
  br label %22

20:                                               ; preds = %14
  %21 = landingpad { ptr, i32 }
          cleanup
  tail call void @_ZNSt10unique_ptrIN5osgeo4proj4util9LocalName7PrivateESt14default_deleteIS4_EED2Ev(ptr noundef nonnull align 8 dereferenceable(8) %12) #30
  br label %22

22:                                               ; preds = %20, %18
  %23 = phi { ptr, i32 } [ %21, %20 ], [ %19, %18 ]
  tail call void @_ZN5osgeo4proj4util11GenericNameD2Ev(ptr noundef nonnull align 8 dereferenceable(24) %0) #30
  br label %6
}

; Function Attrs: mustprogress nounwind sspstrong uwtable
define linkonce_odr hidden void @_ZNSt10unique_ptrIN5osgeo4proj4util9LocalName7PrivateESt14default_deleteIS4_EED2Ev(ptr noundef nonnull align 8 dereferenceable(8) %0) unnamed_addr #1 comdat align 2 personality ptr @__gxx_personality_v0 {
  %2 = load ptr, ptr %0, align 8, !tbaa !232
  %3 = icmp eq ptr %2, null
  br i1 %3, label %45, label %4

4:                                                ; preds = %1
  %5 = getelementptr inbounds nuw i8, ptr %2, i64 16
  %6 = load ptr, ptr %5, align 8, !tbaa !64
  %7 = getelementptr inbounds nuw i8, ptr %2, i64 32
  %8 = icmp eq ptr %6, %7
  br i1 %8, label %9, label %13

9:                                                ; preds = %4
  %10 = getelementptr inbounds nuw i8, ptr %2, i64 24
  %11 = load i64, ptr %10, align 8, !tbaa !55
  %12 = icmp ult i64 %11, 16
  tail call void @llvm.assume(i1 %12)
  br label %16

13:                                               ; preds = %4
  %14 = load i64, ptr %7, align 8, !tbaa !17
  %15 = add i64 %14, 1
  tail call void @_ZdlPvm(ptr noundef %6, i64 noundef %15) #31
  br label %16

16:                                               ; preds = %13, %9
  %17 = getelementptr inbounds nuw i8, ptr %2, i64 8
  %18 = load ptr, ptr %17, align 8, !tbaa !20
  %19 = icmp eq ptr %18, null
  br i1 %19, label %44, label %20

20:                                               ; preds = %16
  %21 = getelementptr inbounds nuw i8, ptr %18, i64 8
  %22 = load atomic i64, ptr %21 acquire, align 8
  %23 = icmp eq i64 %22, 4294967297
  %24 = trunc i64 %22 to i32
  br i1 %23, label %25, label %33

25:                                               ; preds = %20
  store i32 0, ptr %21, align 8, !tbaa !22
  %26 = getelementptr inbounds nuw i8, ptr %18, i64 12
  store i32 0, ptr %26, align 4, !tbaa !24
  %27 = load ptr, ptr %18, align 8, !tbaa !4
  %28 = getelementptr inbounds nuw i8, ptr %27, i64 16
  %29 = load ptr, ptr %28, align 8
  tail call void %29(ptr noundef nonnull align 8 dereferenceable(16) %18) #30
  %30 = load ptr, ptr %18, align 8, !tbaa !4
  %31 = getelementptr inbounds nuw i8, ptr %30, i64 24
  %32 = load ptr, ptr %31, align 8
  tail call void %32(ptr noundef nonnull align 8 dereferenceable(16) %18) #30
  br label %44

33:                                               ; preds = %20
  %34 = load i8, ptr @__libc_single_threaded, align 1, !tbaa !17
  %35 = icmp eq i8 %34, 0
  br i1 %35, label %38, label %36

36:                                               ; preds = %33
  %37 = add nsw i32 %24, -1
  store i32 %37, ptr %21, align 4, !tbaa !18
  br label %40

38:                                               ; preds = %33
  %39 = atomicrmw volatile add ptr %21, i32 -1 acq_rel, align 4
  br label %40

40:                                               ; preds = %38, %36
  %41 = phi i32 [ %24, %36 ], [ %39, %38 ]
  %42 = icmp eq i32 %41, 1
  br i1 %42, label %43, label %44, !prof !25

43:                                               ; preds = %40
  tail call void @_ZNSt16_Sp_counted_baseILN9__gnu_cxx12_Lock_policyE2EE24_M_release_last_use_coldEv(ptr noundef nonnull align 8 dereferenceable(16) %18) #30
  br label %44

44:                                               ; preds = %16, %25, %40, %43
  tail call void @_ZdlPvm(ptr noundef nonnull %2, i64 noundef 48) #31
  br label %45

45:                                               ; preds = %44, %1
  store ptr null, ptr %0, align 8, !tbaa !232
  ret void
}

; Function Attrs: mustprogress sspstrong uwtable
define hidden void @_ZN5osgeo4proj4util9LocalNameC2ERKSt10shared_ptrINS1_9NameSpaceEERKNSt7__cxx1112basic_stringIcSt11char_traitsIcESaIcEEE(ptr noundef nonnull align 8 dereferenceable(32) initializes((0, 16)) %0, ptr noundef nonnull readonly align 8 captures(none) dereferenceable(16) %1, ptr noundef nonnull align 8 dereferenceable(32) %2) unnamed_addr #0 align 2 personality ptr @__gxx_personality_v0 {
  store ptr getelementptr inbounds nuw inrange(-16, 16) (i8, ptr @_ZTVN5osgeo4proj4util10BaseObjectE, i64 16), ptr %0, align 8, !tbaa !4
  %4 = getelementptr inbounds nuw i8, ptr %0, i64 8
  tail call void @llvm.experimental.noalias.scope.decl(metadata !234)
  %5 = tail call noalias noundef nonnull dereferenceable(16) ptr @_Znwm(i64 noundef 16) #29, !noalias !234
  tail call void @llvm.memset.p0.i64(ptr noundef nonnull align 8 dereferenceable(16) %5, i8 0, i64 16, i1 false), !noalias !234
  store ptr %5, ptr %4, align 8, !tbaa !10, !alias.scope !234
  store ptr getelementptr inbounds nuw inrange(-16, 40) (i8, ptr @_ZTVN5osgeo4proj4util11GenericNameE, i64 16), ptr %0, align 8, !tbaa !4
  %6 = invoke noalias noundef nonnull dereferenceable(1) ptr @_Znwm(i64 noundef 1) #29
          to label %11 unwind label %9

7:                                                ; preds = %127, %9
  %8 = phi { ptr, i32 } [ %10, %9 ], [ %128, %127 ]
  resume { ptr, i32 } %8

9:                                                ; preds = %3
  %10 = landingpad { ptr, i32 }
          cleanup
  tail call void @_ZN5osgeo4proj4util10BaseObjectD2Ev(ptr noundef nonnull align 8 dereferenceable(24) %0) #30
  br label %7

11:                                               ; preds = %3
  %12 = getelementptr inbounds nuw i8, ptr %0, i64 16
  store ptr %6, ptr %12, align 8, !tbaa !181, !alias.scope !237
  store ptr getelementptr inbounds nuw inrange(-16, 40) (i8, ptr @_ZTVN5osgeo4proj4util9LocalNameE, i64 16), ptr %0, align 8, !tbaa !4
  %13 = getelementptr inbounds nuw i8, ptr %0, i64 24
  tail call void @llvm.experimental.noalias.scope.decl(metadata !240)
  %14 = invoke noalias noundef nonnull dereferenceable(48) ptr @_Znwm(i64 noundef 48) #29
          to label %15 unwind label %123

15:                                               ; preds = %11
  %16 = getelementptr inbounds nuw i8, ptr %14, i64 16
  %17 = getelementptr inbounds nuw i8, ptr %14, i64 32
  tail call void @llvm.memset.p0.i64(ptr noundef nonnull align 8 dereferenceable(48) %14, i8 0, i64 48, i1 false), !noalias !240
  store ptr %17, ptr %16, align 8, !tbaa !54, !noalias !240
  store ptr %14, ptr %13, align 8, !tbaa !232, !alias.scope !240
  %18 = load ptr, ptr %1, align 8, !tbaa !206
  %19 = icmp eq ptr %18, null
  br i1 %19, label %33, label %20

20:                                               ; preds = %15
  %21 = getelementptr inbounds nuw i8, ptr %1, i64 8
  %22 = load ptr, ptr %21, align 8, !tbaa !20
  %23 = icmp eq ptr %22, null
  br i1 %23, label %46, label %24

24:                                               ; preds = %20
  %25 = getelementptr inbounds nuw i8, ptr %22, i64 8
  %26 = load i8, ptr @__libc_single_threaded, align 1, !tbaa !17
  %27 = icmp eq i8 %26, 0
  br i1 %27, label %31, label %28

28:                                               ; preds = %24
  %29 = load i32, ptr %25, align 4, !tbaa !18
  %30 = add nsw i32 %29, 1
  store i32 %30, ptr %25, align 4, !tbaa !18
  br label %46

31:                                               ; preds = %24
  %32 = atomicrmw volatile add ptr %25, i32 1 acq_rel, align 4
  br label %46

33:                                               ; preds = %15
  %34 = load ptr, ptr @_ZN5osgeo4proj4util9NameSpace6GLOBALE, align 8, !tbaa !206
  %35 = load ptr, ptr getelementptr inbounds nuw (i8, ptr @_ZN5osgeo4proj4util9NameSpace6GLOBALE, i64 8), align 8, !tbaa !20
  %36 = icmp eq ptr %35, null
  br i1 %36, label %46, label %37

37:                                               ; preds = %33
  %38 = getelementptr inbounds nuw i8, ptr %35, i64 8
  %39 = load i8, ptr @__libc_single_threaded, align 1, !tbaa !17
  %40 = icmp eq i8 %39, 0
  br i1 %40, label %44, label %41

41:                                               ; preds = %37
  %42 = load i32, ptr %38, align 4, !tbaa !18
  %43 = add nsw i32 %42, 1
  store i32 %43, ptr %38, align 4, !tbaa !18
  br label %46

44:                                               ; preds = %37
  %45 = atomicrmw volatile add ptr %38, i32 1 acq_rel, align 4
  br label %46

46:                                               ; preds = %44, %41, %33, %31, %28, %20
  %47 = phi ptr [ null, %20 ], [ %22, %28 ], [ %22, %31 ], [ null, %33 ], [ %35, %41 ], [ %35, %44 ]
  %48 = phi ptr [ %18, %20 ], [ %18, %28 ], [ %18, %31 ], [ %34, %33 ], [ %34, %41 ], [ %34, %44 ]
  %49 = load ptr, ptr %13, align 8, !tbaa !232
  store ptr %48, ptr %49, align 8, !tbaa !206
  %50 = getelementptr inbounds nuw i8, ptr %49, i64 8
  %51 = load ptr, ptr %50, align 8, !tbaa !20
  %52 = icmp eq ptr %47, %51
  br i1 %52, label %93, label %53

53:                                               ; preds = %46
  %54 = icmp eq ptr %47, null
  br i1 %54, label %65, label %55

55:                                               ; preds = %53
  %56 = getelementptr inbounds nuw i8, ptr %47, i64 8
  %57 = load i8, ptr @__libc_single_threaded, align 1, !tbaa !17
  %58 = icmp eq i8 %57, 0
  br i1 %58, label %62, label %59

59:                                               ; preds = %55
  %60 = load i32, ptr %56, align 4, !tbaa !18
  %61 = add nsw i32 %60, 1
  store i32 %61, ptr %56, align 4, !tbaa !18
  br label %65

62:                                               ; preds = %55
  %63 = atomicrmw volatile add ptr %56, i32 1 acq_rel, align 4
  %64 = load ptr, ptr %50, align 8, !tbaa !20
  br label %65

65:                                               ; preds = %62, %59, %53
  %66 = phi ptr [ %51, %53 ], [ %51, %59 ], [ %64, %62 ]
  %67 = icmp eq ptr %66, null
  br i1 %67, label %92, label %68

68:                                               ; preds = %65
  %69 = getelementptr inbounds nuw i8, ptr %66, i64 8
  %70 = load atomic i64, ptr %69 acquire, align 8
  %71 = icmp eq i64 %70, 4294967297
  %72 = trunc i64 %70 to i32
  br i1 %71, label %73, label %81

73:                                               ; preds = %68
  store i32 0, ptr %69, align 8, !tbaa !22
  %74 = getelementptr inbounds nuw i8, ptr %66, i64 12
  store i32 0, ptr %74, align 4, !tbaa !24
  %75 = load ptr, ptr %66, align 8, !tbaa !4
  %76 = getelementptr inbounds nuw i8, ptr %75, i64 16
  %77 = load ptr, ptr %76, align 8
  tail call void %77(ptr noundef nonnull align 8 dereferenceable(16) %66) #30
  %78 = load ptr, ptr %66, align 8, !tbaa !4
  %79 = getelementptr inbounds nuw i8, ptr %78, i64 24
  %80 = load ptr, ptr %79, align 8
  tail call void %80(ptr noundef nonnull align 8 dereferenceable(16) %66) #30
  br label %92

81:                                               ; preds = %68
  %82 = load i8, ptr @__libc_single_threaded, align 1, !tbaa !17
  %83 = icmp eq i8 %82, 0
  br i1 %83, label %86, label %84

84:                                               ; preds = %81
  %85 = add nsw i32 %72, -1
  store i32 %85, ptr %69, align 4, !tbaa !18
  br label %88

86:                                               ; preds = %81
  %87 = atomicrmw volatile add ptr %69, i32 -1 acq_rel, align 4
  br label %88

88:                                               ; preds = %86, %84
  %89 = phi i32 [ %72, %84 ], [ %87, %86 ]
  %90 = icmp eq i32 %89, 1
  br i1 %90, label %91, label %92, !prof !25

91:                                               ; preds = %88
  tail call void @_ZNSt16_Sp_counted_baseILN9__gnu_cxx12_Lock_policyE2EE24_M_release_last_use_coldEv(ptr noundef nonnull align 8 dereferenceable(16) %66) #30
  br label %92

92:                                               ; preds = %91, %88, %73, %65
  store ptr %47, ptr %50, align 8, !tbaa !20
  br label %93

93:                                               ; preds = %46, %92
  %94 = icmp eq ptr %47, null
  br i1 %94, label %119, label %95

95:                                               ; preds = %93
  %96 = getelementptr inbounds nuw i8, ptr %47, i64 8
  %97 = load atomic i64, ptr %96 acquire, align 8
  %98 = icmp eq i64 %97, 4294967297
  %99 = trunc i64 %97 to i32
  br i1 %98, label %100, label %108

100:                                              ; preds = %95
  store i32 0, ptr %96, align 8, !tbaa !22
  %101 = getelementptr inbounds nuw i8, ptr %47, i64 12
  store i32 0, ptr %101, align 4, !tbaa !24
  %102 = load ptr, ptr %47, align 8, !tbaa !4
  %103 = getelementptr inbounds nuw i8, ptr %102, i64 16
  %104 = load ptr, ptr %103, align 8
  tail call void %104(ptr noundef nonnull align 8 dereferenceable(16) %47) #30
  %105 = load ptr, ptr %47, align 8, !tbaa !4
  %106 = getelementptr inbounds nuw i8, ptr %105, i64 24
  %107 = load ptr, ptr %106, align 8
  tail call void %107(ptr noundef nonnull align 8 dereferenceable(16) %47) #30
  br label %119

108:                                              ; preds = %95
  %109 = load i8, ptr @__libc_single_threaded, align 1, !tbaa !17
  %110 = icmp eq i8 %109, 0
  br i1 %110, label %113, label %111

111:                                              ; preds = %108
  %112 = add nsw i32 %99, -1
  store i32 %112, ptr %96, align 4, !tbaa !18
  br label %115

113:                                              ; preds = %108
  %114 = atomicrmw volatile add ptr %96, i32 -1 acq_rel, align 4
  br label %115

115:                                              ; preds = %113, %111
  %116 = phi i32 [ %99, %111 ], [ %114, %113 ]
  %117 = icmp eq i32 %116, 1
  br i1 %117, label %118, label %119, !prof !25

118:                                              ; preds = %115
  tail call void @_ZNSt16_Sp_counted_baseILN9__gnu_cxx12_Lock_policyE2EE24_M_release_last_use_coldEv(ptr noundef nonnull align 8 dereferenceable(16) %47) #30
  br label %119

119:                                              ; preds = %93, %100, %115, %118
  %120 = load ptr, ptr %13, align 8, !tbaa !232
  %121 = getelementptr inbounds nuw i8, ptr %120, i64 16
  invoke void @_ZNSt7__cxx1112basic_stringIcSt11char_traitsIcESaIcEE9_M_assignERKS4_(ptr noundef nonnull align 8 dereferenceable(32) %121, ptr noundef nonnull align 8 dereferenceable(32) %2)
          to label %122 unwind label %125

122:                                              ; preds = %119
  ret void

123:                                              ; preds = %11
  %124 = landingpad { ptr, i32 }
          cleanup
  br label %127

125:                                              ; preds = %119
  %126 = landingpad { ptr, i32 }
          cleanup
  tail call void @_ZNSt10unique_ptrIN5osgeo4proj4util9LocalName7PrivateESt14default_deleteIS4_EED2Ev(ptr noundef nonnull align 8 dereferenceable(8) %13) #30
  br label %127

127:                                              ; preds = %125, %123
  %128 = phi { ptr, i32 } [ %126, %125 ], [ %124, %123 ]
  tail call void @_ZN5osgeo4proj4util11GenericNameD2Ev(ptr noundef nonnull align 8 dereferenceable(24) %0) #30
  br label %7
}

; Function Attrs: mustprogress nounwind sspstrong uwtable
define linkonce_odr hidden void @_ZNSt12__shared_ptrIN5osgeo4proj4util9NameSpaceELN9__gnu_cxx12_Lock_policyE2EED2Ev(ptr noundef nonnull align 8 dereferenceable(16) %0) unnamed_addr #1 comdat align 2 personality ptr @__gxx_personality_v0 {
  %2 = getelementptr inbounds nuw i8, ptr %0, i64 8
  %3 = load ptr, ptr %2, align 8, !tbaa !20
  %4 = icmp eq ptr %3, null
  br i1 %4, label %29, label %5

5:                                                ; preds = %1
  %6 = getelementptr inbounds nuw i8, ptr %3, i64 8
  %7 = load atomic i64, ptr %6 acquire, align 8
  %8 = icmp eq i64 %7, 4294967297
  %9 = trunc i64 %7 to i32
  br i1 %8, label %10, label %18

10:                                               ; preds = %5
  store i32 0, ptr %6, align 8, !tbaa !22
  %11 = getelementptr inbounds nuw i8, ptr %3, i64 12
  store i32 0, ptr %11, align 4, !tbaa !24
  %12 = load ptr, ptr %3, align 8, !tbaa !4
  %13 = getelementptr inbounds nuw i8, ptr %12, i64 16
  %14 = load ptr, ptr %13, align 8
  tail call void %14(ptr noundef nonnull align 8 dereferenceable(16) %3) #30
  %15 = load ptr, ptr %3, align 8, !tbaa !4
  %16 = getelementptr inbounds nuw i8, ptr %15, i64 24
  %17 = load ptr, ptr %16, align 8
  tail call void %17(ptr noundef nonnull align 8 dereferenceable(16) %3) #30
  br label %29

18:                                               ; preds = %5
  %19 = load i8, ptr @__libc_single_threaded, align 1, !tbaa !17
  %20 = icmp eq i8 %19, 0
  br i1 %20, label %23, label %21

21:                                               ; preds = %18
  %22 = add nsw i32 %9, -1
  store i32 %22, ptr %6, align 4, !tbaa !18
  br label %25

23:                                               ; preds = %18
  %24 = atomicrmw volatile add ptr %6, i32 -1 acq_rel, align 4
  br label %25

25:                                               ; preds = %23, %21
  %26 = phi i32 [ %9, %21 ], [ %24, %23 ]
  %27 = icmp eq i32 %26, 1
  br i1 %27, label %28, label %29, !prof !25

28:                                               ; preds = %25
  tail call void @_ZNSt16_Sp_counted_baseILN9__gnu_cxx12_Lock_policyE2EE24_M_release_last_use_coldEv(ptr noundef nonnull align 8 dereferenceable(16) %3) #30
  br label %29

29:                                               ; preds = %1, %10, %25, %28
  ret void
}

; Function Attrs: mustprogress sspstrong uwtable
define hidden void @_ZN5osgeo4proj4util9LocalNameC2ERKS2_(ptr noundef nonnull align 8 captures(none) dereferenceable(32) initializes((0, 16)) %0, ptr noundef nonnull readonly align 8 captures(none) dereferenceable(32) %1) unnamed_addr #0 align 2 personality ptr @__gxx_personality_v0 {
  %3 = alloca i64, align 8
  store ptr getelementptr inbounds nuw inrange(-16, 16) (i8, ptr @_ZTVN5osgeo4proj4util10BaseObjectE, i64 16), ptr %0, align 8, !tbaa !4
  %4 = getelementptr inbounds nuw i8, ptr %0, i64 8
  tail call void @llvm.experimental.noalias.scope.decl(metadata !243)
  %5 = tail call noalias noundef nonnull dereferenceable(16) ptr @_Znwm(i64 noundef 16) #29, !noalias !243
  tail call void @llvm.memset.p0.i64(ptr noundef nonnull align 8 dereferenceable(16) %5, i8 0, i64 16, i1 false), !noalias !243
  store ptr %5, ptr %4, align 8, !tbaa !10, !alias.scope !243
  store ptr getelementptr inbounds nuw inrange(-16, 40) (i8, ptr @_ZTVN5osgeo4proj4util11GenericNameE, i64 16), ptr %0, align 8, !tbaa !4
  %6 = invoke noalias noundef nonnull dereferenceable(1) ptr @_Znwm(i64 noundef 1) #29
          to label %11 unwind label %9

7:                                                ; preds = %59, %9
  %8 = phi { ptr, i32 } [ %10, %9 ], [ %60, %59 ]
  resume { ptr, i32 } %8

9:                                                ; preds = %2
  %10 = landingpad { ptr, i32 }
          cleanup
  tail call void @_ZN5osgeo4proj4util10BaseObjectD2Ev(ptr noundef nonnull align 8 dereferenceable(24) %0) #30
  br label %7

11:                                               ; preds = %2
  %12 = getelementptr inbounds nuw i8, ptr %0, i64 16
  store ptr %6, ptr %12, align 8, !tbaa !181, !alias.scope !246
  store ptr getelementptr inbounds nuw inrange(-16, 40) (i8, ptr @_ZTVN5osgeo4proj4util9LocalNameE, i64 16), ptr %0, align 8, !tbaa !4
  %13 = getelementptr inbounds nuw i8, ptr %1, i64 24
  %14 = load ptr, ptr %13, align 8, !tbaa !232
  tail call void @llvm.experimental.noalias.scope.decl(metadata !249)
  %15 = invoke noalias noundef nonnull dereferenceable(48) ptr @_Znwm(i64 noundef 48) #29
          to label %16 unwind label %57

16:                                               ; preds = %11
  %17 = load ptr, ptr %14, align 8, !tbaa !206, !noalias !249
  store ptr %17, ptr %15, align 8, !tbaa !206, !noalias !249
  %18 = getelementptr inbounds nuw i8, ptr %15, i64 8
  %19 = getelementptr inbounds nuw i8, ptr %14, i64 8
  %20 = load ptr, ptr %19, align 8, !tbaa !20, !noalias !249
  store ptr %20, ptr %18, align 8, !tbaa !20, !noalias !249
  %21 = icmp eq ptr %20, null
  br i1 %21, label %31, label %22

22:                                               ; preds = %16
  %23 = getelementptr inbounds nuw i8, ptr %20, i64 8
  %24 = load i8, ptr @__libc_single_threaded, align 1, !tbaa !17, !noalias !249
  %25 = icmp eq i8 %24, 0
  br i1 %25, label %29, label %26

26:                                               ; preds = %22
  %27 = load i32, ptr %23, align 4, !tbaa !18, !noalias !249
  %28 = add nsw i32 %27, 1
  store i32 %28, ptr %23, align 4, !tbaa !18, !noalias !249
  br label %31

29:                                               ; preds = %22
  %30 = atomicrmw volatile add ptr %23, i32 1 acq_rel, align 4, !noalias !249
  br label %31

31:                                               ; preds = %29, %26, %16
  %32 = getelementptr inbounds nuw i8, ptr %15, i64 16
  %33 = getelementptr inbounds nuw i8, ptr %14, i64 16
  %34 = getelementptr inbounds nuw i8, ptr %15, i64 32
  store ptr %34, ptr %32, align 8, !tbaa !54, !noalias !249
  %35 = load ptr, ptr %33, align 8, !tbaa !64, !noalias !249
  %36 = getelementptr inbounds nuw i8, ptr %14, i64 24
  %37 = load i64, ptr %36, align 8, !tbaa !55, !noalias !249
  %38 = icmp ult i64 %37, 9223372036854775807
  tail call void @llvm.assume(i1 %38)
  call void @llvm.lifetime.start.p0(i64 8, ptr nonnull %3), !noalias !249
  store i64 %37, ptr %3, align 8, !tbaa !63, !noalias !249
  %39 = icmp samesign ugt i64 %37, 15
  br i1 %39, label %40, label %44

40:                                               ; preds = %31
  %41 = invoke noundef ptr @_ZNSt7__cxx1112basic_stringIcSt11char_traitsIcESaIcEE9_M_createERmm(ptr noundef nonnull align 8 dereferenceable(32) %32, ptr noundef nonnull align 8 dereferenceable(8) %3, i64 noundef 0)
          to label %42 unwind label %51, !noalias !249

42:                                               ; preds = %40
  store ptr %41, ptr %32, align 8, !tbaa !64, !noalias !249
  %43 = load i64, ptr %3, align 8, !tbaa !63, !noalias !249
  store i64 %43, ptr %34, align 8, !tbaa !17, !noalias !249
  br label %44

44:                                               ; preds = %42, %31
  %45 = phi i64 [ %43, %42 ], [ %37, %31 ]
  %46 = phi ptr [ %41, %42 ], [ %34, %31 ]
  switch i64 %45, label %49 [
    i64 0, label %47
    i64 -1, label %53
  ]

47:                                               ; preds = %44
  %48 = load i8, ptr %35, align 1, !tbaa !17, !noalias !249
  store i8 %48, ptr %46, align 1, !tbaa !17, !noalias !249
  br label %53

49:                                               ; preds = %44
  %50 = add nuw i64 %45, 1
  call void @llvm.memcpy.p0.p0.i64(ptr noundef nonnull align 1 dereferenceable(1) %46, ptr noundef nonnull align 1 dereferenceable(1) %35, i64 %50, i1 false), !noalias !249
  br label %53

51:                                               ; preds = %40
  %52 = landingpad { ptr, i32 }
          cleanup
  call void @_ZNSt12__shared_ptrIN5osgeo4proj4util9NameSpaceELN9__gnu_cxx12_Lock_policyE2EED2Ev(ptr noundef nonnull align 8 dereferenceable(48) %15) #30, !noalias !249
  call void @_ZdlPvm(ptr noundef nonnull %15, i64 noundef 48) #31, !noalias !249
  br label %59

53:                                               ; preds = %49, %47, %44
  %54 = getelementptr inbounds nuw i8, ptr %0, i64 24
  %55 = load i64, ptr %3, align 8, !tbaa !63, !noalias !249
  %56 = getelementptr inbounds nuw i8, ptr %15, i64 24
  store i64 %55, ptr %56, align 8, !tbaa !55, !noalias !249
  call void @llvm.lifetime.end.p0(i64 8, ptr nonnull %3), !noalias !249
  store ptr %15, ptr %54, align 8, !tbaa !232, !alias.scope !249
  ret void

57:                                               ; preds = %11
  %58 = landingpad { ptr, i32 }
          cleanup
  br label %59

59:                                               ; preds = %51, %57
  %60 = phi { ptr, i32 } [ %58, %57 ], [ %52, %51 ]
  call void @_ZN5osgeo4proj4util11GenericNameD2Ev(ptr noundef nonnull align 8 dereferenceable(24) %0) #30
  br label %7
}

; Function Attrs: mustprogress nounwind sspstrong uwtable
define void @_ZN5osgeo4proj4util9LocalNameD2Ev(ptr noundef nonnull align 8 captures(none) dereferenceable(32) initializes((0, 8)) %0) unnamed_addr #1 align 2 personality ptr @__gxx_personality_v0 {
  store ptr getelementptr inbounds nuw inrange(-16, 40) (i8, ptr @_ZTVN5osgeo4proj4util9LocalNameE, i64 16), ptr %0, align 8, !tbaa !4
  %2 = getelementptr inbounds nuw i8, ptr %0, i64 24
  %3 = load ptr, ptr %2, align 8, !tbaa !232
  %4 = icmp eq ptr %3, null
  br i1 %4, label %46, label %5

5:                                                ; preds = %1
  %6 = getelementptr inbounds nuw i8, ptr %3, i64 16
  %7 = load ptr, ptr %6, align 8, !tbaa !64
  %8 = getelementptr inbounds nuw i8, ptr %3, i64 32
  %9 = icmp eq ptr %7, %8
  br i1 %9, label %10, label %14

10:                                               ; preds = %5
  %11 = getelementptr inbounds nuw i8, ptr %3, i64 24
  %12 = load i64, ptr %11, align 8, !tbaa !55
  %13 = icmp ult i64 %12, 16
  tail call void @llvm.assume(i1 %13)
  br label %17

14:                                               ; preds = %5
  %15 = load i64, ptr %8, align 8, !tbaa !17
  %16 = add i64 %15, 1
  tail call void @_ZdlPvm(ptr noundef %7, i64 noundef %16) #31
  br label %17

17:                                               ; preds = %14, %10
  %18 = getelementptr inbounds nuw i8, ptr %3, i64 8
  %19 = load ptr, ptr %18, align 8, !tbaa !20
  %20 = icmp eq ptr %19, null
  br i1 %20, label %45, label %21

21:                                               ; preds = %17
  %22 = getelementptr inbounds nuw i8, ptr %19, i64 8
  %23 = load atomic i64, ptr %22 acquire, align 8
  %24 = icmp eq i64 %23, 4294967297
  %25 = trunc i64 %23 to i32
  br i1 %24, label %26, label %34

26:                                               ; preds = %21
  store i32 0, ptr %22, align 8, !tbaa !22
  %27 = getelementptr inbounds nuw i8, ptr %19, i64 12
  store i32 0, ptr %27, align 4, !tbaa !24
  %28 = load ptr, ptr %19, align 8, !tbaa !4
  %29 = getelementptr inbounds nuw i8, ptr %28, i64 16
  %30 = load ptr, ptr %29, align 8
  tail call void %30(ptr noundef nonnull align 8 dereferenceable(16) %19) #30
  %31 = load ptr, ptr %19, align 8, !tbaa !4
  %32 = getelementptr inbounds nuw i8, ptr %31, i64 24
  %33 = load ptr, ptr %32, align 8
  tail call void %33(ptr noundef nonnull align 8 dereferenceable(16) %19) #30
  br label %45

34:                                               ; preds = %21
  %35 = load i8, ptr @__libc_single_threaded, align 1, !tbaa !17
  %36 = icmp eq i8 %35, 0
  br i1 %36, label %39, label %37

37:                                               ; preds = %34
  %38 = add nsw i32 %25, -1
  store i32 %38, ptr %22, align 4, !tbaa !18
  br label %41

39:                                               ; preds = %34
  %40 = atomicrmw volatile add ptr %22, i32 -1 acq_rel, align 4
  br label %41

41:                                               ; preds = %39, %37
  %42 = phi i32 [ %25, %37 ], [ %40, %39 ]
  %43 = icmp eq i32 %42, 1
  br i1 %43, label %44, label %45, !prof !25

44:                                               ; preds = %41
  tail call void @_ZNSt16_Sp_counted_baseILN9__gnu_cxx12_Lock_policyE2EE24_M_release_last_use_coldEv(ptr noundef nonnull align 8 dereferenceable(16) %19) #30
  br label %45

45:                                               ; preds = %44, %41, %26, %17
  tail call void @_ZdlPvm(ptr noundef nonnull %3, i64 noundef 48) #31
  br label %46

46:                                               ; preds = %1, %45
  store ptr null, ptr %2, align 8, !tbaa !232
  store ptr getelementptr inbounds nuw inrange(-16, 40) (i8, ptr @_ZTVN5osgeo4proj4util11GenericNameE, i64 16), ptr %0, align 8, !tbaa !4
  %47 = getelementptr inbounds nuw i8, ptr %0, i64 16
  %48 = load ptr, ptr %47, align 8, !tbaa !181
  %49 = icmp eq ptr %48, null
  br i1 %49, label %51, label %50

50:                                               ; preds = %46
  tail call void @_ZdlPvm(ptr noundef nonnull %48, i64 noundef 1) #31
  br label %51

51:                                               ; preds = %50, %46
  store ptr null, ptr %47, align 8, !tbaa !181
  store ptr getelementptr inbounds nuw inrange(-16, 16) (i8, ptr @_ZTVN5osgeo4proj4util10BaseObjectE, i64 16), ptr %0, align 8, !tbaa !4
  %52 = getelementptr inbounds nuw i8, ptr %0, i64 8
  %53 = load ptr, ptr %52, align 8, !tbaa !10
  %54 = icmp eq ptr %53, null
